******************************************************************************
                  TI ARM Linker PC v16.9.9                     
******************************************************************************
>> Linked Sun Nov 25 19:55:13 2018

OUTPUT FILE NAME:   <rfWsnNodeBleAdv_CC1350_LAUNCHXL_tirtos_ccs.out>
ENTRY POINT SYMBOL: "ResetISR"  address: 0000b5a5


MEMORY CONFIGURATION

         name            origin    length      used     unused   attr    fill
----------------------  --------  ---------  --------  --------  ----  --------
  FLASH                 00000000   00020000  00013fe2  0000c01e  R  X
  SRAM                  20000000   00005000  00004622  000009de  RW X


SEGMENT ALLOCATION MAP

run origin  load origin   length   init length attrs members
----------  ----------- ---------- ----------- ----- -------
00000000    00000000    00013f90   00013f90    r-x
  00000000    00000000    0000003c   0000003c    r-- .resetVecs
  0000003c    0000003c    00000fc4   00000fc4    r-x .text.1
  00001000    00001000    0000003c   0000003c    r-- .const:ti_sysbios_knl_Task_Object__PARAMS__C
  0000103c    0000103c    00000034   00000034    r-- .const:ti_sysbios_knl_Mailbox_Object__PARAMS__C
  00001070    00001070    00000030   00000030    r-- .const:ti_sysbios_family_arm_m3_Hwi_Object__PARAMS__C
  000010a0    000010a0    0000002c   0000002c    r-- .const:ti_sysbios_hal_Hwi_Object__PARAMS__C
  000010cc    000010cc    00000028   00000028    r-- .const:ti_sysbios_heaps_HeapMem_Module__FXNS__C
  000010f4    000010f4    00000028   00000028    r-- .const:ti_sysbios_knl_Swi_Object__PARAMS__C
  0000111c    0000111c    00000024   00000024    r-- .const:ti_sysbios_gates_GateHwi_Module__FXNS__C
  00001140    00001140    00000024   00000024    r-- .const:ti_sysbios_gates_GateMutex_Module__FXNS__C
  00001164    00001164    00000024   00000024    r-- .const:ti_sysbios_heaps_HeapMem_Object__PARAMS__C
  00001188    00001188    00000024   00000024    r-- .const:ti_sysbios_knl_Clock_Object__PARAMS__C
  000011ac    000011ac    00000024   00000024    r-- .const:ti_sysbios_knl_Semaphore_Object__PARAMS__C
  000011d0    000011d0    00000020   00000020    r-- .const:ti_sysbios_family_arm_m3_Hwi_Object__DESC__C
  000011f0    000011f0    00000020   00000020    r-- .const:ti_sysbios_gates_GateHwi_Object__DESC__C
  00001210    00001210    00000020   00000020    r-- .const:ti_sysbios_gates_GateMutex_Object__DESC__C
  00001230    00001230    00000020   00000020    r-- .const:ti_sysbios_hal_Hwi_Object__DESC__C
  00001250    00001250    00000020   00000020    r-- .const:ti_sysbios_heaps_HeapMem_Object__DESC__C
  00001270    00001270    00000020   00000020    r-- .const:ti_sysbios_knl_Clock_Object__DESC__C
  00001290    00001290    00000020   00000020    r-- .const:ti_sysbios_knl_Mailbox_Object__DESC__C
  000012b0    000012b0    00000020   00000020    r-- .const:ti_sysbios_knl_Queue_Object__DESC__C
  000012d0    000012d0    00000020   00000020    r-- .const:ti_sysbios_knl_Semaphore_Object__DESC__C
  000012f0    000012f0    00000020   00000020    r-- .const:ti_sysbios_knl_Swi_Object__DESC__C
  00001310    00001310    00000020   00000020    r-- .const:ti_sysbios_knl_Task_Object__DESC__C
  00001330    00001330    00000018   00000018    r-- .const:ti_sysbios_gates_GateHwi_Object__PARAMS__C
  00001348    00001348    00000018   00000018    r-- .const:ti_sysbios_gates_GateMutex_Object__PARAMS__C
  00001360    00001360    00000018   00000018    r-- .const:ti_sysbios_knl_Queue_Object__PARAMS__C
  00001378    00001378    00000008   00000008    r-- .const:ti_sysbios_knl_Idle_funcList__C
  00001380    00001380    00000004   00000004    r-x .text.2
  00001384    00001384    00000004   00000004    r-- .const:ti_sysbios_family_arm_cc26xx_Timer_startupNeeded__C
  00001388    00001388    00000004   00000004    r-- .const:ti_sysbios_family_arm_m3_Hwi_E_alreadyDefined__C
  0000138c    0000138c    00000004   00000004    r-- .const:ti_sysbios_family_arm_m3_Hwi_E_hwiLimitExceeded__C
  00001390    00001390    00000004   00000004    r-- .const:ti_sysbios_family_arm_m3_Hwi_NUM_INTERRUPTS__C
  00001394    00001394    00000004   00000004    r-- .const:ti_sysbios_family_arm_m3_Hwi_Object__count__C
  00001398    00001398    00000004   00000004    r-- .const:ti_sysbios_family_arm_m3_Hwi_Object__table__C
  0000139c    0000139c    00000004   00000004    r-- .const:ti_sysbios_family_arm_m3_Hwi_ccr__C
  000013a0    000013a0    00000004   00000004    r-- .const:ti_sysbios_family_arm_m3_Hwi_excHandlerFunc__C
  000013a4    000013a4    00000004   00000004    r-- .const:ti_sysbios_family_arm_m3_Hwi_nullIsrFunc__C
  000013a8    000013a8    00000004   00000004    r-- .const:ti_sysbios_family_arm_m3_Hwi_numSparseInterrupts__C
  000013ac    000013ac    00000004   00000004    r-- .const:ti_sysbios_family_arm_m3_Hwi_priGroup__C
  000013b0    000013b0    00000004   00000004    r-- .const:ti_sysbios_family_arm_m3_TaskSupport_stackAlignment__C
  000013b4    000013b4    00000004   00000004    r-- .const:ti_sysbios_heaps_HeapMem_E_memory__C
  000013b8    000013b8    00000004   00000004    r-- .const:ti_sysbios_heaps_HeapMem_Module__gateObj__C
  000013bc    000013bc    00000004   00000004    r-- .const:ti_sysbios_heaps_HeapMem_Object__count__C
  000013c0    000013c0    00000004   00000004    r-- .const:ti_sysbios_heaps_HeapMem_Object__table__C
  000013c4    000013c4    00000004   00000004    r-- .const:ti_sysbios_heaps_HeapMem_reqAlign__C
  000013c8    000013c8    00000004   00000004    r-- .const:ti_sysbios_knl_Clock_serviceMargin__C
  000013cc    000013cc    00000004   00000004    r-- .const:ti_sysbios_knl_Mailbox_Object__count__C
  000013d0    000013d0    00000004   00000004    r-- .const:ti_sysbios_knl_Mailbox_Object__table__C
  000013d4    000013d4    00000004   00000004    r-- .const:ti_sysbios_knl_Mailbox_maxTypeAlign__C
  000013d8    000013d8    00000004   00000004    r-- .const:ti_sysbios_knl_Queue_Object__count__C
  000013dc    000013dc    00000004   00000004    r-- .const:ti_sysbios_knl_Queue_Object__table__C
  000013e0    000013e0    00000004   00000004    r-- .const:ti_sysbios_knl_Swi_Object__count__C
  000013e4    000013e4    00000004   00000004    r-- .const:ti_sysbios_knl_Swi_Object__table__C
  000013e8    000013e8    00000004   00000004    r-- .const:ti_sysbios_knl_Swi_numPriorities__C
  000013ec    000013ec    00000004   00000004    r-- .const:ti_sysbios_knl_Task_Object__count__C
  000013f0    000013f0    00000004   00000004    r-- .const:ti_sysbios_knl_Task_Object__table__C
  000013f4    000013f4    00000004   00000004    r-- .const:ti_sysbios_knl_Task_allBlockedFunc__C
  000013f8    000013f8    00000004   00000004    r-- .const:ti_sysbios_knl_Task_defaultStackHeap__C
  000013fc    000013fc    00000004   00000004    r-- .const:ti_sysbios_knl_Task_defaultStackSize__C
  00001400    00001400    00000004   00000004    r-- .const:ti_sysbios_knl_Task_numConstructedTasks__C
  00001404    00001404    00000002   00000002    r-x .text.3
  00001406    00001406    00000002   00000002    r-- .const:ti_sysbios_family_arm_cc26xx_Timer_Module__id__C
  00001408    00001408    00000002   00000002    r-- .const:ti_sysbios_family_arm_cc26xx_TimestampProvider_useClockTimer__C
  0000140a    0000140a    00000002   00000002    r-- .const:ti_sysbios_family_arm_m3_Hwi_Module__id__C
  0000140c    0000140c    00000002   00000002    r-- .const:ti_sysbios_gates_GateHwi_Module__id__C
  0000140e    0000140e    00000002   00000002    r-- .const:ti_sysbios_gates_GateMutex_Module__id__C
  00001410    00001410    00000002   00000002    r-- .const:ti_sysbios_heaps_HeapMem_Module__id__C
  00001412    00001412    00000002   00000002    r-- .const:ti_sysbios_knl_Task_initStackFlag__C
  00001414    00001414    00000001   00000001    r-- .const:ti_sysbios_knl_Clock_tickMode__C
  00001418    00001418    00000008   00000008    r-- .const:xdc_runtime_Startup_firstFxns__C
  00001420    00001420    00000008   00000008    r-- .const:xdc_runtime_Startup_lastFxns__C
  00001428    00001428    00000004   00000004    r-- .const:xdc_runtime_Assert_E_assertFailed__C
  0000142c    0000142c    00000004   00000004    r-- .const:xdc_runtime_Error_E_memory__C
  00001430    00001430    00000004   00000004    r-- .const:xdc_runtime_Error_policyFxn__C
  00001434    00001434    00000004   00000004    r-- .const:xdc_runtime_IGateProvider_Interface__BASE__C
  00001438    00001438    00000004   00000004    r-- .const:xdc_runtime_IHeap_Interface__BASE__C
  0000143c    0000143c    00000004   00000004    r-- .const:xdc_runtime_IModule_Interface__BASE__C
  00001440    00001440    00000004   00000004    r-- .const:xdc_runtime_Main_Module__diagsEnabled__C
  00001444    00001444    00000004   00000004    r-- .const:xdc_runtime_Main_Module__diagsIncluded__C
  00001448    00001448    00000004   00000004    r-- .const:xdc_runtime_Main_Module__diagsMask__C
  0000144c    0000144c    00000004   00000004    r-- .const:xdc_runtime_Memory_defaultHeapInstance__C
  00001450    00001450    00000004   00000004    r-- .const:xdc_runtime_Startup_execImpl__C
  00001454    00001454    00000004   00000004    r-- .const:xdc_runtime_Startup_maxPasses__C
  00001458    00001458    00000004   00000004    r-- .const:xdc_runtime_Startup_sfxnRts__C
  0000145c    0000145c    00000004   00000004    r-- .const:xdc_runtime_Startup_sfxnTab__C
  00001460    00001460    00000004   00000004    r-- .const:xdc_runtime_Startup_startModsFxn__C
  00001464    00001464    00000004   00000004    r-- .const:xdc_runtime_SysCallback_abortFxn__C
  00001468    00001468    00000004   00000004    r-- .const:xdc_runtime_SysCallback_exitFxn__C
  0000146c    0000146c    00000004   00000004    r-- .const:xdc_runtime_System_abortFxn__C
  00001470    00001470    00000004   00000004    r-- .const:xdc_runtime_System_exitFxn__C
  00001474    00001474    00000004   00000004    r-- .const:xdc_runtime_System_maxAtexitHandlers__C
  00001478    00001478    00000004   00000004    r-- .const:xdc_runtime_Text_charTab__C
  0000147c    0000147c    00000004   00000004    r-- .const:xdc_runtime_Text_nameEmpty__C
  00001480    00001480    00000004   00000004    r-- .const:xdc_runtime_Text_nameStatic__C
  00001484    00001484    00000004   00000004    r-- .const:xdc_runtime_Text_nameUnknown__C
  00001488    00001488    00000002   00000002    r-- .const:xdc_runtime_Main_Module__id__C
  0000148a    0000148a    00000002   00000002    r-- .const:xdc_runtime_Memory_Module__id__C
  0000148c    0000148c    00000002   00000002    r-- .const:xdc_runtime_Text_charCnt__C
  0000148e    0000148e    00000002   00000002    r-- .const:xdc_runtime_Text_isLoaded__C
  00001490    00001490    00000001   00000001    r-- .const:xdc_runtime_Error_policy__C
  00001494    00001494    00000004   00000004    r-- .const:ti_sysbios_rom_ROM_AONRTCChannelEnable
  00001498    00001498    00000004   00000004    r-- .const:ti_sysbios_rom_ROM_AONRTCCompareValueSet
  0000149c    0000149c    00000004   00000004    r-- .const:ti_sysbios_rom_ROM_AONRTCCurrentCompareValueGet
  000014a0    000014a0    00000004   00000004    r-- .const:ti_sysbios_rom_ROM_AONRTCEventClear
  000014a4    000014a4    00000004   00000004    r-- .const:ti_sysbios_rom_ROM_ti_sysbios_family_arm_cc26xx_Timer_getCount64__E
  000014a8    000014a8    00000004   00000004    r-- .const:ti_sysbios_rom_ROM_ti_sysbios_family_arm_cc26xx_Timer_getCurrentTick__E
  000014ac    000014ac    00000004   00000004    r-- .const:ti_sysbios_rom_ROM_ti_sysbios_family_arm_cc26xx_Timer_getMaxTicks__E
  000014b0    000014b0    00000004   00000004    r-- .const:ti_sysbios_rom_ROM_ti_sysbios_family_arm_cc26xx_Timer_initDevice__I
  000014b4    000014b4    00000004   00000004    r-- .const:ti_sysbios_rom_ROM_ti_sysbios_family_arm_cc26xx_Timer_setNextTick__E
  000014b8    000014b8    00000004   00000004    r-- .const:ti_sysbios_rom_ROM_ti_sysbios_family_arm_cc26xx_Timer_setThreshold__I
  000014bc    000014bc    00000004   00000004    r-- .const:ti_sysbios_rom_ROM_ti_sysbios_family_arm_cc26xx_Timer_start__E
  000014c0    000014c0    00000004   00000004    r-- .const:ti_sysbios_rom_ROM_ti_sysbios_family_arm_cc26xx_TimestampProvider_get32__E
  000014c4    000014c4    00000004   00000004    r-- .const:ti_sysbios_rom_ROM_xdc_runtime_Startup_getState__I
  000014c8    000014c8    00000004   00000004    r-- .const:ti_sysbios_rom_ROM_xdc_runtime_System_SupportProxy_abort__E
  000014cc    000014cc    00000004   00000004    r-- .const:ti_sysbios_rom_ROM_xdc_runtime_System_SupportProxy_exit__E
  000014d0    000014d0    00000004   00000004    r-- .const:ti_sysbios_gates_GateMutex_Instance_State_sem__O
  000014d4    000014d4    00000004   00000004    r-- .const:ti_sysbios_knl_Clock_Module_State_clockQ__O
  000014d8    000014d8    00000004   00000004    r-- .const:ti_sysbios_knl_Mailbox_Instance_State_dataQue__O
  000014dc    000014dc    00000004   00000004    r-- .const:ti_sysbios_knl_Mailbox_Instance_State_dataSem__O
  000014e0    000014e0    00000004   00000004    r-- .const:ti_sysbios_knl_Mailbox_Instance_State_freeQue__O
  000014e4    000014e4    00000004   00000004    r-- .const:ti_sysbios_knl_Mailbox_Instance_State_freeSem__O
  000014e8    000014e8    00000004   00000004    r-- .const:ti_sysbios_knl_Semaphore_Instance_State_pendQ__O
  000014ec    000014ec    00000004   00000004    r-- .const:ti_sysbios_knl_Task_Module_State_inactiveQ__O
  000014f0    000014f0    0000c994   0000c994    r-x .text.4
  0000de84    0000de84    00005b4c   00005b4c    r-- .const
  000139d0    000139d0    000005c0   000005c0    r-- .cinit
0001ffa8    0001ffa8    00000058   00000058    r--
  0001ffa8    0001ffa8    00000058   00000058    r-- .ccfg
20000100    20000100    00000104   00000000    rw-
  20000100    20000100    00000044   00000000    rw- .data:ti_sysbios_knl_Task_Module__state__V
  20000144    20000144    00000034   00000000    rw- .data:ti_sysbios_family_arm_m3_Hwi_Module__state__V
  20000178    20000178    0000002c   00000000    rw- .data:ti_sysbios_knl_Clock_Module__state__V
  200001a4    200001a4    00000024   00000000    rw- .data:ti_sysbios_BIOS_Module__state__V
  200001c8    200001c8    0000001c   00000000    rw- .data:ti_sysbios_knl_Swi_Module__state__V
  200001e4    200001e4    00000008   00000000    rw- .data:ti_sysbios_family_arm_cc26xx_Timer_Module__state__V
  200001ec    200001ec    00000004   00000000    rw- .data:ti_sysbios_family_arm_cc26xx_TimestampProvider_Module__state__V
  200001f0    200001f0    00000008   00000000    rw- .data:xdc_runtime_Startup_Module__state__V
  200001f8    200001f8    00000008   00000000    rw- .data:xdc_runtime_System_Module__state__V
  20000200    20000200    00000004   00000000    rw- .data:xdc_runtime_Memory_Module__state__V
20000430    20000430    00000010   00000000    rw-
  20000430    20000430    00000010   00000000    rw- .TI.bound:dmaSpi0RxControlTableEntry
20000440    20000440    00000010   00000000    rw-
  20000440    20000440    00000010   00000000    rw- .TI.bound:dmaSpi0TxControlTableEntry
20000500    20000500    00000010   00000000    rw-
  20000500    20000500    00000010   00000000    rw- .TI.bound:dmaSpi1RxControlTableEntry
20000510    20000510    00002376   00000000    rw-
  20000510    20000510    00000010   00000000    rw- .TI.bound:dmaSpi1TxControlTableEntry
  20000520    20000520    00002366   00000000    rw- .bss
20002888    20002888    00001000   00000000    r--
  20002888    20002888    00001000   00000000    r-- .priheap
20003888    20003888    00000cb0   00000000    rw-
  20003888    20003888    00000cb0   00000000    rw- .data
20004c00    20004c00    00000400   00000000    rw-
  20004c00    20004c00    00000400   00000000    rw- .stack


SECTION ALLOCATION MAP

 output                                  attributes/
section   page    origin      length       input sections
--------  ----  ----------  ----------   ----------------
.resetVecs 
*          0    00000000    0000003c     
                  00000000    0000003c     release_pem3.oem3 (.resetVecs)

.binit     0    00000000    00000000     

.text.1    0    0000003c    00000fc4     
                  0000003c    0000054c     EasyLink.obj (.text:EasyLink_init)
                  00000588    00000008     (.tramp.ti_sysbios_knl_Semaphore_pend__E.1)
                  00000590    00000008     (.tramp.ti_sysbios_knl_Semaphore_post__E.1)
                  00000598    00000008     (.tramp.ti_sysbios_knl_Semaphore_create.1)
                  000005a0    0000047e     grlib.a : string.obj (.text:Graphics_drawString)
                  00000a1e    00000002     display.aem3 : DisplaySharp.oem3 (.text:DisplaySharp_init)
                  00000a20    00000388     rf_multiMode_cc13x0.aem3 : RFCC26XX_multiMode.oem3 (.text:RF_fsmActiveState)
                  00000da8    00000008     (.tramp.ti_sysbios_family_arm_m3_Hwi_restoreFxn__E.1)
                  00000db0    00000244     NodeTask.obj (.text:updateLcd)
                  00000ff4    0000000c     NodeRadioTask.obj (.text:BleAdv_startAdvertising)

.const:ti_sysbios_knl_Task_Object__PARAMS__C 
*          0    00001000    0000003c     
                  00001000    0000003c     release_pem3.oem3 (.const:ti_sysbios_knl_Task_Object__PARAMS__C)

.const:ti_sysbios_knl_Mailbox_Object__PARAMS__C 
*          0    0000103c    00000034     
                  0000103c    00000034     release_pem3.oem3 (.const:ti_sysbios_knl_Mailbox_Object__PARAMS__C)

.const:ti_sysbios_family_arm_m3_Hwi_Object__PARAMS__C 
*          0    00001070    00000030     
                  00001070    00000030     release_pem3.oem3 (.const:ti_sysbios_family_arm_m3_Hwi_Object__PARAMS__C)

.const:ti_sysbios_hal_Hwi_Object__PARAMS__C 
*          0    000010a0    0000002c     
                  000010a0    0000002c     release_pem3.oem3 (.const:ti_sysbios_hal_Hwi_Object__PARAMS__C)

.const:ti_sysbios_heaps_HeapMem_Module__FXNS__C 
*          0    000010cc    00000028     
                  000010cc    00000028     release_pem3.oem3 (.const:ti_sysbios_heaps_HeapMem_Module__FXNS__C)

.const:ti_sysbios_knl_Swi_Object__PARAMS__C 
*          0    000010f4    00000028     
                  000010f4    00000028     release_pem3.oem3 (.const:ti_sysbios_knl_Swi_Object__PARAMS__C)

.const:ti_sysbios_gates_GateHwi_Module__FXNS__C 
*          0    0000111c    00000024     
                  0000111c    00000024     release_pem3.oem3 (.const:ti_sysbios_gates_GateHwi_Module__FXNS__C)

.const:ti_sysbios_gates_GateMutex_Module__FXNS__C 
*          0    00001140    00000024     
                  00001140    00000024     release_pem3.oem3 (.const:ti_sysbios_gates_GateMutex_Module__FXNS__C)

.const:ti_sysbios_heaps_HeapMem_Object__PARAMS__C 
*          0    00001164    00000024     
                  00001164    00000024     release_pem3.oem3 (.const:ti_sysbios_heaps_HeapMem_Object__PARAMS__C)

.const:ti_sysbios_knl_Clock_Object__PARAMS__C 
*          0    00001188    00000024     
                  00001188    00000024     release_pem3.oem3 (.const:ti_sysbios_knl_Clock_Object__PARAMS__C)

.const:ti_sysbios_knl_Semaphore_Object__PARAMS__C 
*          0    000011ac    00000024     
                  000011ac    00000024     release_pem3.oem3 (.const:ti_sysbios_knl_Semaphore_Object__PARAMS__C)

.const:ti_sysbios_family_arm_m3_Hwi_Object__DESC__C 
*          0    000011d0    00000020     
                  000011d0    00000020     release_pem3.oem3 (.const:ti_sysbios_family_arm_m3_Hwi_Object__DESC__C)

.const:ti_sysbios_gates_GateHwi_Object__DESC__C 
*          0    000011f0    00000020     
                  000011f0    00000020     release_pem3.oem3 (.const:ti_sysbios_gates_GateHwi_Object__DESC__C)

.const:ti_sysbios_gates_GateMutex_Object__DESC__C 
*          0    00001210    00000020     
                  00001210    00000020     release_pem3.oem3 (.const:ti_sysbios_gates_GateMutex_Object__DESC__C)

.const:ti_sysbios_hal_Hwi_Object__DESC__C 
*          0    00001230    00000020     
                  00001230    00000020     release_pem3.oem3 (.const:ti_sysbios_hal_Hwi_Object__DESC__C)

.const:ti_sysbios_heaps_HeapMem_Object__DESC__C 
*          0    00001250    00000020     
                  00001250    00000020     release_pem3.oem3 (.const:ti_sysbios_heaps_HeapMem_Object__DESC__C)

.const:ti_sysbios_knl_Clock_Object__DESC__C 
*          0    00001270    00000020     
                  00001270    00000020     release_pem3.oem3 (.const:ti_sysbios_knl_Clock_Object__DESC__C)

.const:ti_sysbios_knl_Mailbox_Object__DESC__C 
*          0    00001290    00000020     
                  00001290    00000020     release_pem3.oem3 (.const:ti_sysbios_knl_Mailbox_Object__DESC__C)

.const:ti_sysbios_knl_Queue_Object__DESC__C 
*          0    000012b0    00000020     
                  000012b0    00000020     release_pem3.oem3 (.const:ti_sysbios_knl_Queue_Object__DESC__C)

.const:ti_sysbios_knl_Semaphore_Object__DESC__C 
*          0    000012d0    00000020     
                  000012d0    00000020     release_pem3.oem3 (.const:ti_sysbios_knl_Semaphore_Object__DESC__C)

.const:ti_sysbios_knl_Swi_Object__DESC__C 
*          0    000012f0    00000020     
                  000012f0    00000020     release_pem3.oem3 (.const:ti_sysbios_knl_Swi_Object__DESC__C)

.const:ti_sysbios_knl_Task_Object__DESC__C 
*          0    00001310    00000020     
                  00001310    00000020     release_pem3.oem3 (.const:ti_sysbios_knl_Task_Object__DESC__C)

.const:ti_sysbios_gates_GateHwi_Object__PARAMS__C 
*          0    00001330    00000018     
                  00001330    00000018     release_pem3.oem3 (.const:ti_sysbios_gates_GateHwi_Object__PARAMS__C)

.const:ti_sysbios_gates_GateMutex_Object__PARAMS__C 
*          0    00001348    00000018     
                  00001348    00000018     release_pem3.oem3 (.const:ti_sysbios_gates_GateMutex_Object__PARAMS__C)

.const:ti_sysbios_knl_Queue_Object__PARAMS__C 
*          0    00001360    00000018     
                  00001360    00000018     release_pem3.oem3 (.const:ti_sysbios_knl_Queue_Object__PARAMS__C)

.const:ti_sysbios_knl_Idle_funcList__C 
*          0    00001378    00000008     
                  00001378    00000008     release_pem3.oem3 (.const:ti_sysbios_knl_Idle_funcList__C)

.text.2    0    00001380    00000004     
                  00001380    00000004     dpl_cc13x0.aem3 : PowerCC26XX_tirtos.oem3 (.text:CPUwfi)

.const:ti_sysbios_family_arm_cc26xx_Timer_startupNeeded__C 
*          0    00001384    00000004     
                  00001384    00000004     release_pem3.oem3 (.const:ti_sysbios_family_arm_cc26xx_Timer_startupNeeded__C)

.const:ti_sysbios_family_arm_m3_Hwi_E_alreadyDefined__C 
*          0    00001388    00000004     
                  00001388    00000004     release_pem3.oem3 (.const:ti_sysbios_family_arm_m3_Hwi_E_alreadyDefined__C)

.const:ti_sysbios_family_arm_m3_Hwi_E_hwiLimitExceeded__C 
*          0    0000138c    00000004     
                  0000138c    00000004     release_pem3.oem3 (.const:ti_sysbios_family_arm_m3_Hwi_E_hwiLimitExceeded__C)

.const:ti_sysbios_family_arm_m3_Hwi_NUM_INTERRUPTS__C 
*          0    00001390    00000004     
                  00001390    00000004     release_pem3.oem3 (.const:ti_sysbios_family_arm_m3_Hwi_NUM_INTERRUPTS__C)

.const:ti_sysbios_family_arm_m3_Hwi_Object__count__C 
*          0    00001394    00000004     
                  00001394    00000004     release_pem3.oem3 (.const:ti_sysbios_family_arm_m3_Hwi_Object__count__C)

.const:ti_sysbios_family_arm_m3_Hwi_Object__table__C 
*          0    00001398    00000004     
                  00001398    00000004     release_pem3.oem3 (.const:ti_sysbios_family_arm_m3_Hwi_Object__table__C)

.const:ti_sysbios_family_arm_m3_Hwi_ccr__C 
*          0    0000139c    00000004     
                  0000139c    00000004     release_pem3.oem3 (.const:ti_sysbios_family_arm_m3_Hwi_ccr__C)

.const:ti_sysbios_family_arm_m3_Hwi_excHandlerFunc__C 
*          0    000013a0    00000004     
                  000013a0    00000004     release_pem3.oem3 (.const:ti_sysbios_family_arm_m3_Hwi_excHandlerFunc__C)

.const:ti_sysbios_family_arm_m3_Hwi_nullIsrFunc__C 
*          0    000013a4    00000004     
                  000013a4    00000004     release_pem3.oem3 (.const:ti_sysbios_family_arm_m3_Hwi_nullIsrFunc__C)

.const:ti_sysbios_family_arm_m3_Hwi_numSparseInterrupts__C 
*          0    000013a8    00000004     
                  000013a8    00000004     release_pem3.oem3 (.const:ti_sysbios_family_arm_m3_Hwi_numSparseInterrupts__C)

.const:ti_sysbios_family_arm_m3_Hwi_priGroup__C 
*          0    000013ac    00000004     
                  000013ac    00000004     release_pem3.oem3 (.const:ti_sysbios_family_arm_m3_Hwi_priGroup__C)

.const:ti_sysbios_family_arm_m3_TaskSupport_stackAlignment__C 
*          0    000013b0    00000004     
                  000013b0    00000004     release_pem3.oem3 (.const:ti_sysbios_family_arm_m3_TaskSupport_stackAlignment__C)

.const:ti_sysbios_heaps_HeapMem_E_memory__C 
*          0    000013b4    00000004     
                  000013b4    00000004     release_pem3.oem3 (.const:ti_sysbios_heaps_HeapMem_E_memory__C)

.const:ti_sysbios_heaps_HeapMem_Module__gateObj__C 
*          0    000013b8    00000004     
                  000013b8    00000004     release_pem3.oem3 (.const:ti_sysbios_heaps_HeapMem_Module__gateObj__C)

.const:ti_sysbios_heaps_HeapMem_Object__count__C 
*          0    000013bc    00000004     
                  000013bc    00000004     release_pem3.oem3 (.const:ti_sysbios_heaps_HeapMem_Object__count__C)

.const:ti_sysbios_heaps_HeapMem_Object__table__C 
*          0    000013c0    00000004     
                  000013c0    00000004     release_pem3.oem3 (.const:ti_sysbios_heaps_HeapMem_Object__table__C)

.const:ti_sysbios_heaps_HeapMem_reqAlign__C 
*          0    000013c4    00000004     
                  000013c4    00000004     release_pem3.oem3 (.const:ti_sysbios_heaps_HeapMem_reqAlign__C)

.const:ti_sysbios_knl_Clock_serviceMargin__C 
*          0    000013c8    00000004     
                  000013c8    00000004     release_pem3.oem3 (.const:ti_sysbios_knl_Clock_serviceMargin__C)

.const:ti_sysbios_knl_Mailbox_Object__count__C 
*          0    000013cc    00000004     
                  000013cc    00000004     release_pem3.oem3 (.const:ti_sysbios_knl_Mailbox_Object__count__C)

.const:ti_sysbios_knl_Mailbox_Object__table__C 
*          0    000013d0    00000004     
                  000013d0    00000004     release_pem3.oem3 (.const:ti_sysbios_knl_Mailbox_Object__table__C)

.const:ti_sysbios_knl_Mailbox_maxTypeAlign__C 
*          0    000013d4    00000004     
                  000013d4    00000004     release_pem3.oem3 (.const:ti_sysbios_knl_Mailbox_maxTypeAlign__C)

.const:ti_sysbios_knl_Queue_Object__count__C 
*          0    000013d8    00000004     
                  000013d8    00000004     release_pem3.oem3 (.const:ti_sysbios_knl_Queue_Object__count__C)

.const:ti_sysbios_knl_Queue_Object__table__C 
*          0    000013dc    00000004     
                  000013dc    00000004     release_pem3.oem3 (.const:ti_sysbios_knl_Queue_Object__table__C)

.const:ti_sysbios_knl_Swi_Object__count__C 
*          0    000013e0    00000004     
                  000013e0    00000004     release_pem3.oem3 (.const:ti_sysbios_knl_Swi_Object__count__C)

.const:ti_sysbios_knl_Swi_Object__table__C 
*          0    000013e4    00000004     
                  000013e4    00000004     release_pem3.oem3 (.const:ti_sysbios_knl_Swi_Object__table__C)

.const:ti_sysbios_knl_Swi_numPriorities__C 
*          0    000013e8    00000004     
                  000013e8    00000004     release_pem3.oem3 (.const:ti_sysbios_knl_Swi_numPriorities__C)

.const:ti_sysbios_knl_Task_Object__count__C 
*          0    000013ec    00000004     
                  000013ec    00000004     release_pem3.oem3 (.const:ti_sysbios_knl_Task_Object__count__C)

.const:ti_sysbios_knl_Task_Object__table__C 
*          0    000013f0    00000004     
                  000013f0    00000004     release_pem3.oem3 (.const:ti_sysbios_knl_Task_Object__table__C)

.const:ti_sysbios_knl_Task_allBlockedFunc__C 
*          0    000013f4    00000004     
                  000013f4    00000004     release_pem3.oem3 (.const:ti_sysbios_knl_Task_allBlockedFunc__C)

.const:ti_sysbios_knl_Task_defaultStackHeap__C 
*          0    000013f8    00000004     
                  000013f8    00000004     release_pem3.oem3 (.const:ti_sysbios_knl_Task_defaultStackHeap__C)

.const:ti_sysbios_knl_Task_defaultStackSize__C 
*          0    000013fc    00000004     
                  000013fc    00000004     release_pem3.oem3 (.const:ti_sysbios_knl_Task_defaultStackSize__C)

.const:ti_sysbios_knl_Task_numConstructedTasks__C 
*          0    00001400    00000004     
                  00001400    00000004     release_pem3.oem3 (.const:ti_sysbios_knl_Task_numConstructedTasks__C)

.text.3    0    00001404    00000002     
                  00001404    00000002     display.aem3 : DisplayUart.oem3 (.text:DisplayUartMin_clear)

.const:ti_sysbios_family_arm_cc26xx_Timer_Module__id__C 
*          0    00001406    00000002     
                  00001406    00000002     release_pem3.oem3 (.const:ti_sysbios_family_arm_cc26xx_Timer_Module__id__C)

.const:ti_sysbios_family_arm_cc26xx_TimestampProvider_useClockTimer__C 
*          0    00001408    00000002     
                  00001408    00000002     release_pem3.oem3 (.const:ti_sysbios_family_arm_cc26xx_TimestampProvider_useClockTimer__C)

.const:ti_sysbios_family_arm_m3_Hwi_Module__id__C 
*          0    0000140a    00000002     
                  0000140a    00000002     release_pem3.oem3 (.const:ti_sysbios_family_arm_m3_Hwi_Module__id__C)

.const:ti_sysbios_gates_GateHwi_Module__id__C 
*          0    0000140c    00000002     
                  0000140c    00000002     release_pem3.oem3 (.const:ti_sysbios_gates_GateHwi_Module__id__C)

.const:ti_sysbios_gates_GateMutex_Module__id__C 
*          0    0000140e    00000002     
                  0000140e    00000002     release_pem3.oem3 (.const:ti_sysbios_gates_GateMutex_Module__id__C)

.const:ti_sysbios_heaps_HeapMem_Module__id__C 
*          0    00001410    00000002     
                  00001410    00000002     release_pem3.oem3 (.const:ti_sysbios_heaps_HeapMem_Module__id__C)

.const:ti_sysbios_knl_Task_initStackFlag__C 
*          0    00001412    00000002     
                  00001412    00000002     release_pem3.oem3 (.const:ti_sysbios_knl_Task_initStackFlag__C)

.const:ti_sysbios_knl_Clock_tickMode__C 
*          0    00001414    00000001     
                  00001414    00000001     release_pem3.oem3 (.const:ti_sysbios_knl_Clock_tickMode__C)

.const:xdc_runtime_Startup_firstFxns__C 
*          0    00001418    00000008     
                  00001418    00000008     release_pem3.oem3 (.const:xdc_runtime_Startup_firstFxns__C)

.const:xdc_runtime_Startup_lastFxns__C 
*          0    00001420    00000008     
                  00001420    00000008     release_pem3.oem3 (.const:xdc_runtime_Startup_lastFxns__C)

.const:xdc_runtime_Assert_E_assertFailed__C 
*          0    00001428    00000004     
                  00001428    00000004     release_pem3.oem3 (.const:xdc_runtime_Assert_E_assertFailed__C)

.const:xdc_runtime_Error_E_memory__C 
*          0    0000142c    00000004     
                  0000142c    00000004     release_pem3.oem3 (.const:xdc_runtime_Error_E_memory__C)

.const:xdc_runtime_Error_policyFxn__C 
*          0    00001430    00000004     
                  00001430    00000004     release_pem3.oem3 (.const:xdc_runtime_Error_policyFxn__C)

.const:xdc_runtime_IGateProvider_Interface__BASE__C 
*          0    00001434    00000004     
                  00001434    00000004     release_pem3.oem3 (.const:xdc_runtime_IGateProvider_Interface__BASE__C)

.const:xdc_runtime_IHeap_Interface__BASE__C 
*          0    00001438    00000004     
                  00001438    00000004     release_pem3.oem3 (.const:xdc_runtime_IHeap_Interface__BASE__C)

.const:xdc_runtime_IModule_Interface__BASE__C 
*          0    0000143c    00000004     
                  0000143c    00000004     release_pem3.oem3 (.const:xdc_runtime_IModule_Interface__BASE__C)

.const:xdc_runtime_Main_Module__diagsEnabled__C 
*          0    00001440    00000004     
                  00001440    00000004     release_pem3.oem3 (.const:xdc_runtime_Main_Module__diagsEnabled__C)

.const:xdc_runtime_Main_Module__diagsIncluded__C 
*          0    00001444    00000004     
                  00001444    00000004     release_pem3.oem3 (.const:xdc_runtime_Main_Module__diagsIncluded__C)

.const:xdc_runtime_Main_Module__diagsMask__C 
*          0    00001448    00000004     
                  00001448    00000004     release_pem3.oem3 (.const:xdc_runtime_Main_Module__diagsMask__C)

.const:xdc_runtime_Memory_defaultHeapInstance__C 
*          0    0000144c    00000004     
                  0000144c    00000004     release_pem3.oem3 (.const:xdc_runtime_Memory_defaultHeapInstance__C)

.const:xdc_runtime_Startup_execImpl__C 
*          0    00001450    00000004     
                  00001450    00000004     release_pem3.oem3 (.const:xdc_runtime_Startup_execImpl__C)

.const:xdc_runtime_Startup_maxPasses__C 
*          0    00001454    00000004     
                  00001454    00000004     release_pem3.oem3 (.const:xdc_runtime_Startup_maxPasses__C)

.const:xdc_runtime_Startup_sfxnRts__C 
*          0    00001458    00000004     
                  00001458    00000004     release_pem3.oem3 (.const:xdc_runtime_Startup_sfxnRts__C)

.const:xdc_runtime_Startup_sfxnTab__C 
*          0    0000145c    00000004     
                  0000145c    00000004     release_pem3.oem3 (.const:xdc_runtime_Startup_sfxnTab__C)

.const:xdc_runtime_Startup_startModsFxn__C 
*          0    00001460    00000004     
                  00001460    00000004     release_pem3.oem3 (.const:xdc_runtime_Startup_startModsFxn__C)

.const:xdc_runtime_SysCallback_abortFxn__C 
*          0    00001464    00000004     
                  00001464    00000004     release_pem3.oem3 (.const:xdc_runtime_SysCallback_abortFxn__C)

.const:xdc_runtime_SysCallback_exitFxn__C 
*          0    00001468    00000004     
                  00001468    00000004     release_pem3.oem3 (.const:xdc_runtime_SysCallback_exitFxn__C)

.const:xdc_runtime_System_abortFxn__C 
*          0    0000146c    00000004     
                  0000146c    00000004     release_pem3.oem3 (.const:xdc_runtime_System_abortFxn__C)

.const:xdc_runtime_System_exitFxn__C 
*          0    00001470    00000004     
                  00001470    00000004     release_pem3.oem3 (.const:xdc_runtime_System_exitFxn__C)

.const:xdc_runtime_System_maxAtexitHandlers__C 
*          0    00001474    00000004     
                  00001474    00000004     release_pem3.oem3 (.const:xdc_runtime_System_maxAtexitHandlers__C)

.const:xdc_runtime_Text_charTab__C 
*          0    00001478    00000004     
                  00001478    00000004     release_pem3.oem3 (.const:xdc_runtime_Text_charTab__C)

.const:xdc_runtime_Text_nameEmpty__C 
*          0    0000147c    00000004     
                  0000147c    00000004     release_pem3.oem3 (.const:xdc_runtime_Text_nameEmpty__C)

.const:xdc_runtime_Text_nameStatic__C 
*          0    00001480    00000004     
                  00001480    00000004     release_pem3.oem3 (.const:xdc_runtime_Text_nameStatic__C)

.const:xdc_runtime_Text_nameUnknown__C 
*          0    00001484    00000004     
                  00001484    00000004     release_pem3.oem3 (.const:xdc_runtime_Text_nameUnknown__C)

.const:xdc_runtime_Main_Module__id__C 
*          0    00001488    00000002     
                  00001488    00000002     release_pem3.oem3 (.const:xdc_runtime_Main_Module__id__C)

.const:xdc_runtime_Memory_Module__id__C 
*          0    0000148a    00000002     
                  0000148a    00000002     release_pem3.oem3 (.const:xdc_runtime_Memory_Module__id__C)

.const:xdc_runtime_Text_charCnt__C 
*          0    0000148c    00000002     
                  0000148c    00000002     release_pem3.oem3 (.const:xdc_runtime_Text_charCnt__C)

.const:xdc_runtime_Text_isLoaded__C 
*          0    0000148e    00000002     
                  0000148e    00000002     release_pem3.oem3 (.const:xdc_runtime_Text_isLoaded__C)

.const:xdc_runtime_Error_policy__C 
*          0    00001490    00000001     
                  00001490    00000001     release_pem3.oem3 (.const:xdc_runtime_Error_policy__C)

.const:ti_sysbios_rom_ROM_AONRTCChannelEnable 
*          0    00001494    00000004     
                  00001494    00000004     release_pem3.oem3 (.const:ti_sysbios_rom_ROM_AONRTCChannelEnable)

.const:ti_sysbios_rom_ROM_AONRTCCompareValueSet 
*          0    00001498    00000004     
                  00001498    00000004     release_pem3.oem3 (.const:ti_sysbios_rom_ROM_AONRTCCompareValueSet)

.const:ti_sysbios_rom_ROM_AONRTCCurrentCompareValueGet 
*          0    0000149c    00000004     
                  0000149c    00000004     release_pem3.oem3 (.const:ti_sysbios_rom_ROM_AONRTCCurrentCompareValueGet)

.const:ti_sysbios_rom_ROM_AONRTCEventClear 
*          0    000014a0    00000004     
                  000014a0    00000004     release_pem3.oem3 (.const:ti_sysbios_rom_ROM_AONRTCEventClear)

.const:ti_sysbios_rom_ROM_ti_sysbios_family_arm_cc26xx_Timer_getCount64__E 
*          0    000014a4    00000004     
                  000014a4    00000004     release_pem3.oem3 (.const:ti_sysbios_rom_ROM_ti_sysbios_family_arm_cc26xx_Timer_getCount64__E)

.const:ti_sysbios_rom_ROM_ti_sysbios_family_arm_cc26xx_Timer_getCurrentTick__E 
*          0    000014a8    00000004     
                  000014a8    00000004     release_pem3.oem3 (.const:ti_sysbios_rom_ROM_ti_sysbios_family_arm_cc26xx_Timer_getCurrentTick__E)

.const:ti_sysbios_rom_ROM_ti_sysbios_family_arm_cc26xx_Timer_getMaxTicks__E 
*          0    000014ac    00000004     
                  000014ac    00000004     release_pem3.oem3 (.const:ti_sysbios_rom_ROM_ti_sysbios_family_arm_cc26xx_Timer_getMaxTicks__E)

.const:ti_sysbios_rom_ROM_ti_sysbios_family_arm_cc26xx_Timer_initDevice__I 
*          0    000014b0    00000004     
                  000014b0    00000004     release_pem3.oem3 (.const:ti_sysbios_rom_ROM_ti_sysbios_family_arm_cc26xx_Timer_initDevice__I)

.const:ti_sysbios_rom_ROM_ti_sysbios_family_arm_cc26xx_Timer_setNextTick__E 
*          0    000014b4    00000004     
                  000014b4    00000004     release_pem3.oem3 (.const:ti_sysbios_rom_ROM_ti_sysbios_family_arm_cc26xx_Timer_setNextTick__E)

.const:ti_sysbios_rom_ROM_ti_sysbios_family_arm_cc26xx_Timer_setThreshold__I 
*          0    000014b8    00000004     
                  000014b8    00000004     release_pem3.oem3 (.const:ti_sysbios_rom_ROM_ti_sysbios_family_arm_cc26xx_Timer_setThreshold__I)

.const:ti_sysbios_rom_ROM_ti_sysbios_family_arm_cc26xx_Timer_start__E 
*          0    000014bc    00000004     
                  000014bc    00000004     release_pem3.oem3 (.const:ti_sysbios_rom_ROM_ti_sysbios_family_arm_cc26xx_Timer_start__E)

.const:ti_sysbios_rom_ROM_ti_sysbios_family_arm_cc26xx_TimestampProvider_get32__E 
*          0    000014c0    00000004     
                  000014c0    00000004     release_pem3.oem3 (.const:ti_sysbios_rom_ROM_ti_sysbios_family_arm_cc26xx_TimestampProvider_get32__E)

.const:ti_sysbios_rom_ROM_xdc_runtime_Startup_getState__I 
*          0    000014c4    00000004     
                  000014c4    00000004     release_pem3.oem3 (.const:ti_sysbios_rom_ROM_xdc_runtime_Startup_getState__I)

.const:ti_sysbios_rom_ROM_xdc_runtime_System_SupportProxy_abort__E 
*          0    000014c8    00000004     
                  000014c8    00000004     release_pem3.oem3 (.const:ti_sysbios_rom_ROM_xdc_runtime_System_SupportProxy_abort__E)

.const:ti_sysbios_rom_ROM_xdc_runtime_System_SupportProxy_exit__E 
*          0    000014cc    00000004     
                  000014cc    00000004     release_pem3.oem3 (.const:ti_sysbios_rom_ROM_xdc_runtime_System_SupportProxy_exit__E)

.const:ti_sysbios_gates_GateMutex_Instance_State_sem__O 
*          0    000014d0    00000004     
                  000014d0    00000004     release_pem3.oem3 (.const:ti_sysbios_gates_GateMutex_Instance_State_sem__O)

.const:ti_sysbios_knl_Clock_Module_State_clockQ__O 
*          0    000014d4    00000004     
                  000014d4    00000004     release_pem3.oem3 (.const:ti_sysbios_knl_Clock_Module_State_clockQ__O)

.const:ti_sysbios_knl_Mailbox_Instance_State_dataQue__O 
*          0    000014d8    00000004     
                  000014d8    00000004     release_pem3.oem3 (.const:ti_sysbios_knl_Mailbox_Instance_State_dataQue__O)

.const:ti_sysbios_knl_Mailbox_Instance_State_dataSem__O 
*          0    000014dc    00000004     
                  000014dc    00000004     release_pem3.oem3 (.const:ti_sysbios_knl_Mailbox_Instance_State_dataSem__O)

.const:ti_sysbios_knl_Mailbox_Instance_State_freeQue__O 
*          0    000014e0    00000004     
                  000014e0    00000004     release_pem3.oem3 (.const:ti_sysbios_knl_Mailbox_Instance_State_freeQue__O)

.const:ti_sysbios_knl_Mailbox_Instance_State_freeSem__O 
*          0    000014e4    00000004     
                  000014e4    00000004     release_pem3.oem3 (.const:ti_sysbios_knl_Mailbox_Instance_State_freeSem__O)

.const:ti_sysbios_knl_Semaphore_Instance_State_pendQ__O 
*          0    000014e8    00000004     
                  000014e8    00000004     release_pem3.oem3 (.const:ti_sysbios_knl_Semaphore_Instance_State_pendQ__O)

.const:ti_sysbios_knl_Task_Module_State_inactiveQ__O 
*          0    000014ec    00000004     
                  000014ec    00000004     release_pem3.oem3 (.const:ti_sysbios_knl_Task_Module_State_inactiveQ__O)

.text.4    0    000014f0    0000c994     
                  000014f0    0000030c     drivers_cc13x0.aem3 : PowerCC26XX_calibrateRCOSC.oem3 (.text:PowerCC26XX_auxISR)
                  000017fc    0000030c     rom_sysbios.aem3 : rom_sysbios.obj (.text:xdc_runtime_System_doPrint__I)
                  00001b08    00000304     ull.obj (.text:ull_advSchedule)
                  00001e0c    0000027c     rf_multiMode_cc13x0.aem3 : RFCC26XX_multiMode.oem3 (.text:RF_scheduleCmd)
                  00002088    00000230     NodeRadioTask.obj (.text:nodeRadioTaskFunction)
                  000022b8    0000022c     EasyLink.obj (.text:enableTestMode)
                  000024e4    00000228     driverlib.lib : sys_ctrl.obj (.text:NOROM_SysCtrlSetRechargeBeforePowerDown)
                  0000270c    00000224     drivers_cc13x0.aem3 : PowerCC26XX.oem3 (.text:Power_sleep)
                  00002930    00000214                         : SPICC26XXDMA.oem3 (.text:SPICC26XXDMA_transfer)
                  00002b44    0000020c     BleAdv.obj (.text:BleAdv_updateUrl)
                  00002d50    00000204     NodeTask.obj (.text:nodeTaskFunction)
                  00002f54    000001f4     rtsv7M3_T_le_eabi.lib : ull_div_t2.obj (.text)
                  00003148    000001e4     rf_multiMode_cc13x0.aem3 : RFCC26XX_multiMode.oem3 (.text:RF_open)
                  0000332c    000001c4     EasyLink.obj (.text:EasyLink_transmit)
                  000034f0    000001c0     EasyLink.obj (.text:EasyLink_receiveAsync)
                  000036b0    000001b8     drivers_cc13x0.aem3 : PINCC26XX.oem3 (.text:PIN_init)
                  00003868    000001b6     rtsv7M3_T_le_eabi.lib : fd_add_t2.obj (.text)
                  00003a1e    00000002     display.aem3 : DisplayUart.oem3 (.text:DisplayUartMin_clearLines)
                  00003a20    000001b4     BleAdv.obj (.text:BleAdv_init)
                  00003bd4    0000019c     urfi.obj (.text:urfi_initAdvCmd)
                  00003d70    00000194     BleAdv.obj (.text:advPrepareCB)
                  00003f04    00000190     drivers_cc13x0.aem3 : PowerCC26XX_calibrateRCOSC.oem3 (.text:PowerCC26XX_doCalibrate)
                  00004094    0000018c     EasyLink.obj (.text:rxDoneCallback)
                  00004220    00000188     uble.obj (.text:uble_setParameter)
                  000043a8    00000184     NodeRadioTask.obj (.text:sendDmPacket)
                  0000452c    00000174     ull.obj (.text:uble_processLLMsg)
                  000046a0    00000168     release_pem3.oem3 (.text:xdc_runtime_System_printfExtend__I)
                  00004808    0000015c     drivers_cc13x0.aem3 : UARTCC26XX.oem3 (.text:UARTCC26XX_open)
                  00004964    00000158                         : SPICC26XXDMA.oem3 (.text:SPICC26XXDMA_initIO)
                  00004abc    00000150     smartrf_settings_predefined.obj (.text:rf_patch_mce_genook)
                  00004c0c    00000150     urfc.obj (.text:rf_patch_rfe_ble)
                  00004d5c    00000148     drivers_cc13x0.aem3 : UARTCC26XX.oem3 (.text:UARTCC26XX_hwiIntFxn)
                  00004ea4    00000144     rf_multiMode_cc13x0.aem3 : RFCC26XX_multiMode.oem3 (.text:RF_radioOpDoneCb)
                  00004fe8    0000013c     ugap.obj (.text:ugb_changeState)
                  00005124    00000134     drivers_cc13x0.aem3 : UARTCC26XX.oem3 (.text:UARTCC26XX_read)
                  00005258    00000128     rf_multiMode_cc13x0.aem3 : RFCC26XX_multiMode.oem3 (.text:RF_abortCmd)
                  00005380    00000128                              : RFCC26XX_multiMode.oem3 (.text:RF_fsmSetupState)
                  000054a8    00000128     smartrf_settings.obj (.text:rf_patch_rfe_genfsk)
                  000055d0    00000128     smartrf_settings_predefined.obj (.text:rf_patch_rfe_genfsk)
                  000056f8    00000128     smartrf_settings_predefined.obj (.text:rf_patch_rfe_lrm)
                  00005820    00000128     smartrf_settings_predefined.obj (.text:rf_patch_rfe_sl_longrange)
                  00005948    00000124     driverlib.lib : setup_rom.obj (.text:NOROM_SetupAfterColdResetWakeupFromShutDownCfg3)
                  00005a6c    0000011c     drivers_cc13x0.aem3 : SPICC26XXDMA.oem3 (.text:SPICC26XXDMA_open)
                  00005b88    00000114                         : PowerCC26XX.oem3 (.text:Power_init)
                  00005c9c    00000114     smartrf_settings_predefined.obj (.text:rf_patch_mce_hsp_4mbps)
                  00005db0    00000112     grlib.a : rectangle.obj (.text:Graphics_fillRectangle)
                  00005ec2    00000002     display.aem3 : DisplayUart.oem3 (.text:DisplayUartMin_init)
                  00005ec4    00000110     rf_multiMode_cc13x0.aem3 : RFCC26XX_multiMode.oem3 (.text:RF_close)
                  00005fd4    0000010c     drivers_cc13x0.aem3 : SPICC26XXDMA.oem3 (.text:SPICC26XXDMA_configDMA)
                  000060e0    00000108     rf_multiMode_cc13x0.aem3 : RFCC26XX_multiMode.oem3 (.text:RF_dispatchNextCmd)
                  000061e8    00000108                              : RFCC26XX_multiMode.oem3 (.text:RF_fsmChangePhyState)
                  000062f0    00000104     drivers_cc13x0.aem3 : UARTCC26XX.oem3 (.text:UARTCC26XX_write)
                  000063f4    00000100                         : GPIOCC26XX.oem3 (.text:GPIO_setConfig)
                  000064f4    00000100     scif_framework.obj (.text:scifInit)
                  000065f4    000000fc     rtsv7M3_T_le_eabi.lib : fd_mul_t2.obj (.text)
                  000066f0    000000f4     rf_multiMode_cc13x0.aem3 : RFCC26XX_multiMode.oem3 (.text:RF_getInfo)
                  000067e4    000000f0     display.aem3 : DisplaySharp.oem3 (.text:DisplaySharp_open)
                  000068d4    000000f0     driverlib.lib : setup_rom.obj (.text:NOROM_SetupAfterColdResetWakeupFromShutDownCfg2)
                  000069c4    000000f0     rf_multiMode_cc13x0.aem3 : RFCC26XX_multiMode.oem3 (.text:RF_pendCmd)
                  00006ab4    000000e8     rom_sysbios.aem3 : rom_sysbios.obj (.text:ti_sysbios_knl_Event_pend__E)
                  00006b9c    000000e6     display.aem3 : SharpGrLib.oem3 (.text:SharpGrLib_rectFill)
                  00006c82    00000002     rf_multiMode_cc13x0.aem3 : RFCC26XX_multiMode.oem3 (.text:RF_defaultCallback)
                  00006c84    000000e4     dpl_cc13x0.aem3 : PowerCC26XX_tirtos.oem3 (.text:PowerCC26XX_standbyPolicy)
                  00006d68    000000e4     drivers_cc13x0.aem3 : SPICC26XXDMA.oem3 (.text:SPICC26XXDMA_transferCancel)
                  00006e4c    000000e4     display.aem3 : SharpGrLib.oem3 (.text:SharpGrLib_flush)
                  00006f30    000000e0     EasyLink.obj (.text:EasyLink_enableRxAddrFilter)
                  00007010    000000e0     EasyLink.obj (.text:EasyLink_setCtrl)
                  000070f0    000000e0     rf_multiMode_cc13x0.aem3 : RFCC26XX_multiMode.oem3 (.text:RF_fsmPowerUpState)
                  000071d0    000000e0     scif_framework.obj (.text:scifCtrlTasksNbl)
                  000072b0    000000dc     drivers_cc13x0.aem3 : PINCC26XX.oem3 (.text:PINCC26XX_setIoCfg)
                  0000738c    000000d8     smartrf_settings_predefined.obj (.text:rf_patch_rfe_genook)
                  00007464    000000d8     smartrf_settings_predefined.obj (.text:rf_patch_rfe_hsp_4mbps)
                  0000753c    000000d4     driverlib.lib : rfc.obj (.text:NOROM_RFCRfTrimRead)
                  00007610    000000cc                   : rfc.obj (.text:NOROM_RFCRTrim)
                  000076dc    000000cc     rf_multiMode_cc13x0.aem3 : RFCC26XX_multiMode.oem3 (.text:RF_swiHw)
                  000077a8    000000cc     urfi.obj (.text:urfi_init)
                  00007874    000000c8     CC1350_LAUNCHXL_fxns.obj (.text:rfDriverCallback)
                  0000793c    000000c4     rf_multiMode_cc13x0.aem3 : RFCC26XX_multiMode.oem3 (.text:RF_hwiCpe0Active)
                  00007a00    000000c4     driverlib.lib : setup.obj (.text:TrimAfterColdResetWakeupFromShutDown)
                  00007ac4    000000c4     NodeTask.obj (.text:buttonCallback)
                  00007b88    000000c4     smartrf_settings_predefined.obj (.text:rf_patch_mce_sl_longrange)
                  00007c4c    000000bc     drivers_cc13x0.aem3 : GPIOCC26XX.oem3 (.text:GPIO_init)
                  00007d08    000000bc                         : PowerCC26XX.oem3 (.text:Power_releaseDependency)
                  00007dc4    000000b6     display.aem3 : DisplaySharp.oem3 (.text:DisplaySharp_vprintf)
                  00007e7a    00000002     SceAdc.obj (.text:ctrlReadyCallback)
                  00007e7c    000000b4     drivers_cc13x0.aem3 : PowerCC26XX.oem3 (.text:Power_setDependency)
                  00007f30    000000b4     rf_multiMode_cc13x0.aem3 : RFCC26XX_multiMode.oem3 (.text:RF_control)
                  00007fe4    000000b0     display.aem3 : DisplaySharp.oem3 (.text:DisplaySharp_control)
                  00008094    000000ac     NodeRadioTask.obj (.text:NodeRadioTask_init)
                  00008140    000000ac     rf_multiMode_cc13x0.aem3 : RFCC26XX_multiMode.oem3 (.text:RF_schChkCmdInsert)
                  000081ec    000000aa     display.aem3 : SharpGrLib.oem3 (.text:SharpGrLib_lineDrawH)
                  00008296    00000002     drivers_cc13x0.aem3 : PowerCC26XX.oem3 (.text:emptyClockFunc)
                  00008298    000000a8     driverlib.lib : setup.obj (.text:NOROM_SetupTrimDevice)
                  00008340    000000a4                   : setup_rom.obj (.text:NOROM_SetupAfterColdResetWakeupFromShutDownCfg1)
                  000083e4    000000a4     rf_multiMode_cc13x0.aem3 : RFCC26XX_multiMode.oem3 (.text:RF_postCmd)
                  00008488    000000a4     drivers_cc13x0.aem3 : UARTCC26XX.oem3 (.text:UARTCC26XX_initHw)
                  0000852c    000000a4                         : PowerCC26XX.oem3 (.text:switchXOSCHFclockFunc)
                  000085d0    000000a0     NodeTask.obj (.text:NodeTask_init)
                  00008670    000000a0     rf_multiMode_cc13x0.aem3 : RFCC26XX_multiMode.oem3 (.text:RF_ratRestartChannels)
                  00008710    000000a0     drivers_cc13x0.aem3 : SPICC26XXDMA.oem3 (.text:SPICC26XXDMA_hwiFxn)
                  000087b0    000000a0     auto_init.aem3 : auto_init.oem3 (.text)
                  00008850    0000009c     grlib.a : line.obj (.text:Graphics_drawLineH)
                  000088ec    0000009c     drivers_cc13x0.aem3 : UARTCC26XX.oem3 (.text:UARTCC26XX_writeCancel)
                  00008988    0000009c     rtsv7M3_T_le_eabi.lib : memcpy_t2.obj (.text)
                  00008a24    00000098     drivers_cc13x0.aem3 : PINCC26XX.oem3 (.text:PIN_open)
                  00008abc    00000098     rf_multiMode_cc13x0.aem3 : RFCC26XX_multiMode.oem3 (.text:RF_calculateDispatchTime)
                  00008b54    00000098     drivers_cc13x0.aem3 : UARTCC26XX.oem3 (.text:UARTCC26XX_initIO)
                  00008bec    00000098                         : UARTCC26XX.oem3 (.text:UARTCC26XX_swiIntFxn)
                  00008c84    00000098     rom_sysbios.aem3 : rom_sysbios.obj (.text:ti_sysbios_knl_Clock_workFuncDynamic__E)
                  00008d1c    00000098     ull.obj (.text:ull_init)
                  00008db4    00000094     ull.obj (.text:ull_advDoneCb)
                  00008e48    00000090     rf_multiMode_cc13x0.aem3 : RFCC26XX_multiMode.oem3 (.text:RF_discardPendCmd)
                  00008ed8    00000090     drivers_cc13x0.aem3 : SPICC26XXDMA.oem3 (.text:SPICC26XXDMA_control)
                  00008f68    00000090     display.aem3 : SharpGrLib.oem3 (.text:SharpGrLib_clearScreen)
                  00008ff8    00000090     NodeRadioTask.obj (.text:bleAdv_updateTlmCB)
                  00009088    00000090     rom_sysbios.aem3 : rom_sysbios.obj (.text:ti_sysbios_family_arm_cc26xx_Timer_start__E)
                  00009118    00000090     ugap.obj (.text:ugap_bcastInit)
                  000091a8    0000008c     drivers_cc13x0.aem3 : SPICC26XXDMA.oem3 (.text:SPICC26XXDMA_swiFxn)
                  00009234    0000008c     scif_framework.obj (.text:scifInitIo)
                  000092c0    00000086     rtsv7M3_T_le_eabi.lib : fd_cmp_t2.obj (.text:__aeabi_cdcmple)
                  00009346    00000086                           : fd_cmp_t2.obj (.text:__aeabi_cdrcmple)
                  000093cc    00000086     uble.obj (.text:uble_checkAddr)
                  00009452    00000084     CC1350_LAUNCHXL_fxns.obj (.text:CC1350_LAUNCHXL_sendExtFlashByte)
                  000094d6    00000002     urfc.obj (.text:enterBleSysPatch)
                  000094d8    00000084     rf_multiMode_cc13x0.aem3 : RFCC26XX_multiMode.oem3 (.text:RF_issueRadioFreeCb)
                  0000955c    00000084     drivers_cc13x0.aem3 : UARTCC26XX.oem3 (.text:UARTCC26XX_close)
                  000095e0    00000084     NodeRadioTask.obj (.text:resendPacket)
                  00009664    00000084     uble.obj (.text:uble_stackInit)
                  000096e8    00000080     rf_multiMode_cc13x0.aem3 : RFCC26XX_multiMode.oem3 (.text:RF_hwiHw)
                  00009768    00000080     smartrf_settings.obj (.text:configureGenfskPatch)
                  000097e8    00000080     smartrf_settings_predefined.obj (.text:configureGenfskPatch)
                  00009868    00000080     smartrf_settings_predefined.obj (.text:configureGenookPatch)
                  000098e8    00000080     smartrf_settings_predefined.obj (.text:configureLrmPatch)
                  00009968    00000080     smartrf_settings_predefined.obj (.text:configureSlLongrangePatch)
                  000099e8    0000007c     rf_multiMode_cc13x0.aem3 : RFCC26XX_multiMode.oem3 (.text:RF_ratFreeChannel)
                  00009a64    0000007a     rtsv7M3_T_le_eabi.lib : memset_t2.obj (.text)
                  00009ade    00000002     smartrf_settings.obj (.text:enterGenfskSysPatch)
                  00009ae0    00000078     BleAdv.obj (.text:advDoneCB)
                  00009b58    00000078     BleAdv.obj (.text:getBleIeeeAddr)
                  00009bd0    00000078     uble.obj (.text:uble_buildAndPostEvt)
                  00009c48    00000078     ull.obj (.text:ull_advStop)
                  00009cc0    00000078     drivers_cc13x0.aem3 : UARTCC26XX.oem3 (.text:writeTxFifoFlush)
                  00009d38    00000074     driverlib.lib : setup_rom.obj (.text:NOROM_SetupSetVddrLevel)
                  00009dac    00000070     scif_framework.obj (.text:scifGetTaskStruct)
                  00009e1c    00000070     rom_sysbios.aem3 : rom_sysbios.obj (.text:ti_sysbios_knl_Event_post__E)
                  00009e8c    0000006d                      : rom_sysbios.obj (.text:xdc_runtime_System_formatNum__I)
                  00009ef9    00000001     --HOLE-- [fill = 0]
                  00009efa    00000002     smartrf_settings_predefined.obj (.text:enterGenfskSysPatch)
                  00009efc    0000006c     drivers_cc13x0.aem3 : PowerCC26XX_calibrateRCOSC.oem3 (.text:PowerCC26XX_initiateCalibration)
                  00009f68    0000006c     rf_multiMode_cc13x0.aem3 : RFCC26XX_multiMode.oem3 (.text:RF_initRadioSetup)
                  00009fd4    0000006c     ugap.obj (.text:uble_processGAPMsg)
                  0000a040    00000068     driverlib.lib : setup_rom.obj (.text:NOROM_SetupGetTrimForAmpcompCtrl)
                  0000a0a8    00000068                   : setup_rom.obj (.text:NOROM_SetupGetTrimForAnabypassValue1)
                  0000a110    00000068                   : sys_ctrl.obj (.text:NOROM_SysCtrlAdjustRechargeAfterPowerDown)
                  0000a178    00000068                   : sys_ctrl.obj (.text:NOROM_SysCtrl_DCDC_VoltageConditionalControl)
                  0000a1e0    00000068     drivers_cc13x0.aem3 : UARTCC26XX.oem3 (.text:UARTCC26XX_readCancel)
                  0000a248    00000068     rtsv7M3_T_le_eabi.lib : copy_decompress_lzss.obj (.text:decompress:lzss)
                  0000a2b0    00000068     drivers_cc13x0.aem3 : PowerCC26XX.oem3 (.text:lfClockReadyCallback)
                  0000a318    00000068     NodeRadioTask.obj (.text:rxDoneCallback)
                  0000a380    00000064     driverlib.lib : osc.obj (.text:NOROM_OSCHF_AttemptToSwitchToXosc)
                  0000a3e4    00000064     drivers_cc13x0.aem3 : PINCC26XX.oem3 (.text:PIN_add)
                  0000a448    00000064     rf_multiMode_cc13x0.aem3 : RFCC26XX_multiMode.oem3 (.text:RF_checkForPreemption)
                  0000a4ac    00000064     drivers_cc13x0.aem3 : PowerCC26XX.oem3 (.text:configureXOSCHF)
                  0000a510    00000064     BleAdv.obj (.text:stateChangeCB)
                  0000a574    00000060     driverlib.lib : osc.obj (.text:NOROM_OSCClockSourceSet)
                  0000a5d4    00000060     drivers_cc13x0.aem3 : PowerCC26XX.oem3 (.text:PowerCC26XX_calibrate)
                  0000a634    00000060     rf_multiMode_cc13x0.aem3 : RFCC26XX_multiMode.oem3 (.text:RF_dispatchNextEvent)
                  0000a694    00000060                              : RFCC26XX_multiMode.oem3 (.text:RF_getCurrentTime)
                  0000a6f4    00000060     drivers_cc13x0.aem3 : UARTCC26XX.oem3 (.text:UARTCC26XX_control)
                  0000a754    00000060     ugap.obj (.text:ugap_bcastSetDuty)
                  0000a7b4    00000060     urfi.obj (.text:urfi_getTxPowerVal)
                  0000a814    0000005c     display.aem3 : Display.oem3 (.text:Display_doOpen)
                  0000a870    0000005c     NodeRadioTask.obj (.text:NodeRadioTask_sendAdcData)
                  0000a8cc    0000005c     drivers_cc13x0.aem3 : PowerCC26XX_calibrateRCOSC.oem3 (.text:PowerCC26XX_RCOSC_clockFunc)
                  0000a928    0000005c     rf_multiMode_cc13x0.aem3 : RFCC26XX_multiMode.oem3 (.text:RF_syncCb)
                  0000a984    0000005c     drivers_cc13x0.aem3 : UDMACC26XX.oem3 (.text:UDMACC26XX_open)
                  0000a9e0    0000005c     rom_sysbios.aem3 : rom_sysbios.obj (.text:ti_sysbios_heaps_HeapMem_initPrimary__I)
                  0000aa3c    0000005c     release_pem3.oem3 (.text:xdc_runtime_Startup_getState__I)
                  0000aa98    00000058     drivers_cc13x0.aem3 : PINCC26XX.oem3 (.text:PIN_remove)
                  0000aaf0    00000058     rf_multiMode_cc13x0.aem3 : RFCC26XX_multiMode.oem3 (.text:RF_cmdDispatchTime)
                  0000ab48    00000058                              : RFCC26XX_multiMode.oem3 (.text:RF_hwiCpe0PowerFsm)
                  0000aba0    00000058     drivers_cc13x0.aem3 : SPICC26XXDMA.oem3 (.text:SPICC26XXDMA_initHw)
                  0000abf8    00000058     display.aem3 : SharpGrLib.oem3 (.text:SharpGrLib_lineDrawV)
                  0000ac50    00000058     scif_framework.obj (.text:scifReinitIo)
                  0000aca8    00000058     scif_framework.obj (.text:scifUninitIo)
                  0000ad00    00000054     drivers_cc13x0.aem3 : GPIOCC26XX.oem3 (.text:GPIO_write)
                  0000ad54    00000054     SceAdc.obj (.text:SceAdc_init)
                  0000ada8    00000054     drivers_cc13x0.aem3 : GPIOCC26XX.oem3 (.text:powerPostNotify)
                  0000adfc    00000052     grlib.a : context.obj (.text:Graphics_initContext)
                  0000ae4e    00000052     drivers_cc13x0.aem3 : SPICC26XXDMA.oem3 (.text:SPICC26XXDMA_close)
                  0000aea0    00000050     dpl_cc13x0.aem3 : ClockP_tirtos.oem3 (.text:ClockP_construct)
                  0000aef0    00000050     driverlib.lib : setup_rom.obj (.text:NOROM_SetupSetCacheModeAccordingToCcfgSetting)
                  0000af40    00000050     rf_multiMode_cc13x0.aem3 : RFCC26XX_multiMode.oem3 (.text:RF_applyRfCorePatch)
                  0000af90    00000050                              : RFCC26XX_multiMode.oem3 (.text:RF_fsmXOSCState)
                  0000afe0    00000050                              : RFCC26XX_multiMode.oem3 (.text:RF_wakeupNotification)
                  0000b030    00000050     drivers_cc13x0.aem3 : UARTCC26XX.oem3 (.text:startTxFifoEmptyClk)
                  0000b080    0000004c     CC1350_LAUNCHXL_fxns.obj (.text:CC1350_LAUNCHXL_wakeUpExtFlash)
                  0000b0cc    0000004c     display.aem3 : DisplaySharp.oem3 (.text:DisplaySharp_clearLines)
                  0000b118    0000004c     drivers_cc13x0.aem3 : GPIOCC26XX.oem3 (.text:GPIO_enableInt)
                  0000b164    0000004c     rtsv7M3_T_le_eabi.lib : cpy_tbl.obj (.text)
                  0000b1b0    0000004c                           : rand.obj (.text)
                  0000b1fc    0000004c     ull.obj (.text:ull_advStart)
                  0000b248    0000004c     urfi.obj (.text:urfi_clientEventCb)
                  0000b294    0000004a     display.aem3 : DisplayUart.oem3 (.text:DisplayUartMin_open)
                  0000b2de    00000002     smartrf_settings_predefined.obj (.text:enterGenookSysPatch)
                  0000b2e0    00000048     drivers_cc13x0.aem3 : PINCC26XX.oem3 (.text:PIN_setOutputEnable)
                  0000b328    00000048     urfc.obj (.text:configureBlePatch)
                  0000b370    00000048     rtsv7M3_T_le_eabi.lib : fd_toi_t2.obj (.text)
                  0000b3b8    00000048     uble.obj (.text:uble_processMsg)
                  0000b400    00000048     ugap.obj (.text:ugb_advPostprocessCB)
                  0000b448    00000048     drivers_cc13x0.aem3 : UARTCC26XX.oem3 (.text:writeFinishedDoCallback)
                  0000b490    00000046     display.aem3 : DisplayUart.oem3 (.text:DisplayUartMin_vprintf)
                  0000b4d6    00000046                  : SharpGrLib.oem3 (.text:SharpGrLib_drawMultiple)
                  0000b51c    00000044     drivers_cc13x0.aem3 : RingBuf.oem3 (.text:RingBuf_put)
                  0000b560    00000044                         : SPICC26XXDMA.oem3 (.text:SPICC26XXDMA_csnCallback)
                  0000b5a4    00000044     boot.aem3 : boot.oem3 (.text)
                  0000b5e8    00000044     rtsv7M3_T_le_eabi.lib : fd_tou_t2.obj (.text)
                  0000b62c    00000044     scif.obj (.text:scifStartRtcTicks)
                  0000b670    00000042     display.aem3 : SharpGrLib.oem3 (.text:SharpGrLib_pixelDraw)
                  0000b6b2    00000002     smartrf_settings_predefined.obj (.text:enterLrmSysPatch)
                  0000b6b4    00000040     CC1350_LAUNCHXL_fxns.obj (.text:CC1350_LAUNCHXL_shutDownExtFlash)
                  0000b6f4    00000040     grlib.a : string.obj (.text:Graphics_getNumberOfLeadingZeros)
                  0000b734    00000040     drivers_cc13x0.aem3 : PINCC26XX.oem3 (.text:PINCC26XX_getConfig)
                  0000b774    00000040                         : PINCC26XX.oem3 (.text:PIN_swi)
                  0000b7b4    00000040                         : SPI.oem3 (.text:SPI_init)
                  0000b7f4    00000040                         : SPI.oem3 (.text:SPI_open)
                  0000b834    00000040                         : UART.oem3 (.text:UART_init)
                  0000b874    00000040                         : UART.oem3 (.text:UART_open)
                  0000b8b4    00000040     rtsv7M3_T_le_eabi.lib : u_divt2.obj (.text)
                  0000b8f4    00000040     scif.obj (.text:scifStartRtcTicksNow)
                  0000b934    00000040     rom_sysbios.aem3 : rom_sysbios.obj (.text:ti_sysbios_family_arm_cc26xx_Timer_setThreshold__I)
                  0000b974    0000003e     dpl_cc13x0.aem3 : HwiP_tirtos.oem3 (.text:HwiP_construct)
                  0000b9b2    0000003e     drivers_cc13x0.aem3 : RingBuf.oem3 (.text:RingBuf_get)
                  0000b9f0    0000003c     driverlib.lib : chipinfo.obj (.text:NOROM_ChipInfo_GetHwRevision)
                  0000ba2c    0000003c                   : osc.obj (.text:NOROM_OSC_HPOSCRelativeFrequencyOffsetGet)
                  0000ba68    0000003c                   : rfc.obj (.text:NOROM_RFCSynthPowerDown)
                  0000baa4    0000003c     drivers_cc13x0.aem3 : PowerCC26XX.oem3 (.text:PowerCC26XX_isStableXOSC_HF)
                  0000bae0    0000003c     rf_multiMode_cc13x0.aem3 : RFCC26XX_multiMode.oem3 (.text:RF_cmdGet)
                  0000bb1c    0000003c     dpl_cc13x0.aem3 : SwiP_tirtos.oem3 (.text:SwiP_construct)
                  0000bb58    0000003c     drivers_cc13x0.aem3 : PowerCC26XX.oem3 (.text:disableLfClkQualifiersEnableClkLoss)
                  0000bb94    0000003c     rom_sysbios.aem3 : rom_sysbios.obj (.text:ti_sysbios_family_arm_m3_Hwi_construct2__E)
                  0000bbd0    00000038     drivers_cc13x0.aem3 : PINCC26XX.oem3 (.text:PIN_setOutputValue)
                  0000bc08    00000038     rf_multiMode_cc13x0.aem3 : RFCC26XX_multiMode.oem3 (.text:RF_checkCmdFsError)
                  0000bc40    00000038                              : RFCC26XX_multiMode.oem3 (.text:RF_ieeeRequestFgCommand)
                  0000bc78    00000038     drivers_cc13x0.aem3 : UARTCC26XX.oem3 (.text:readData)
                  0000bcb0    00000038     rtsv7M3_T_le_eabi.lib : fs_tod_t2.obj (.text)
                  0000bce8    00000038     ugap.obj (.text:ugap_clockHandler)
                  0000bd20    00000038     drivers_cc13x0.aem3 : UARTCC26XX.oem3 (.text:writeData)
                  0000bd58    00000036     grlib.a : display.obj (.text:Graphics_drawHorizontalLineOnDisplay)
                  0000bd8e    00000036     drivers_cc13x0.aem3 : UDMACC26XX.oem3 (.text:UDMACC26XX_close)
                  0000bdc4    00000036     rtsv7M3_T_le_eabi.lib : strncpy.obj (.text)
                  0000bdfa    00000036     rom_sysbios.aem3 : rom_sysbios.obj (.text:ti_sysbios_family_arm_cc26xx_Timer_setNextTick__E)
                  0000be30    00000034     BleAdv.obj (.text:BleAdv_setAdvertiserType)
                  0000be64    00000034     display.aem3 : DisplaySharp.oem3 (.text:DisplaySharp_close)
                  0000be98    00000034     drivers_cc13x0.aem3 : GPIOCC26XX.oem3 (.text:GPIO_setCallback)
                  0000becc    00000034     driverlib.lib : osc.obj (.text:NOROM_OSCHF_SwitchToRcOscTurnOffXosc)
                  0000bf00    00000034     drivers_cc13x0.aem3 : PINCC26XX.oem3 (.text:PIN_setConfig)
                  0000bf34    00000034                         : PINCC26XX.oem3 (.text:PIN_setInterrupt)
                  0000bf68    00000034                         : PowerCC26XX.oem3 (.text:Power_releaseConstraint)
                  0000bf9c    00000034     rf_multiMode_cc13x0.aem3 : RFCC26XX_multiMode.oem3 (.text:RF_powerConstraintRelease)
                  0000bfd0    00000034                              : RFCC26XX_multiMode.oem3 (.text:RF_runDirectImmediateCmd)
                  0000c004    00000034     drivers_cc13x0.aem3 : PowerCC26XX.oem3 (.text:notify)
                  0000c038    00000034     scif_framework.obj (.text:scifAckAlertEvents)
                  0000c06c    00000034     scif_framework.obj (.text:scifOsalInit)
                  0000c0a0    00000034     SceAdc.obj (.text:taskAlertCallback)
                  0000c0d4    00000034     rom_sysbios.aem3 : rom_sysbios.obj (.text:ti_sysbios_family_arm_cc26xx_Timer_initDevice__I)
                  0000c108    00000034                      : rom_sysbios.obj (.text:ti_sysbios_knl_Swi_setPri__E)
                  0000c13c    00000034     ugap.obj (.text:ugap_bcastStart)
                  0000c170    00000034     ull.obj (.text:ull_clockHandler)
                  0000c1a4    00000030     drivers_cc13x0.aem3 : GPIOCC26XX.oem3 (.text:GPIO_hwiIntFxn)
                  0000c1d4    00000030     driverlib.lib : chipinfo.obj (.text:NOROM_ChipInfo_GetChipType)
                  0000c204    00000030                   : setup_rom.obj (.text:NOROM_SetupSetAonRtcSubSecInc)
                  0000c234    00000030     NodeTask.obj (.text:NodeTask_advStatsCB)
                  0000c264    00000030     drivers_cc13x0.aem3 : PowerCC26XX.oem3 (.text:Power_setConstraint)
                  0000c294    00000030     rf_multiMode_cc13x0.aem3 : RFCC26XX_multiMode.oem3 (.text:RF_queueEnd)
                  0000c2c4    00000030     scif_framework.obj (.text:osalRegisterCtrlReadyInt)
                  0000c2f4    00000030     scif_framework.obj (.text:osalRegisterTaskAlertInt)
                  0000c324    00000030     drivers_cc13x0.aem3 : UARTCC26XX.oem3 (.text:readData2RingBuf)
                  0000c354    00000030     release_pem3.oem3 (.text:ti_sysbios_BIOS_atExitFunc__I)
                  0000c384    00000030     release_pem3.oem3 (.text:ti_sysbios_BIOS_startFunc__I)
                  0000c3b4    00000030     rom_sysbios.aem3 : rom_sysbios.obj (.text:ti_sysbios_family_arm_cc26xx_Timer_getCurrentTick__E)
                  0000c3e4    00000030     uble.obj (.text:uble_getPublicAddr)
                  0000c414    0000002e     driverlib.lib : rfc.obj (.text:NOROM_RFCOverrideSearch)
                  0000c442    0000002e     display.aem3 : SharpGrLib.oem3 (.text:SharpGrLib_initializeDisplayBuffer)
                  0000c470    0000002e     rtsv7M3_T_le_eabi.lib : i_tofd_t2.obj (.text)
                  0000c49e    0000002e     release_pem3.oem3 (.text:ti_sysbios_rts_gnu_MemAlloc_alloc)
                  0000c4cc    0000002c     grlib.a : display.obj (.text:Graphics_drawPixelOnDisplay)
                  0000c4f8    0000002c     driverlib.lib : ddi.obj (.text:NOROM_DDI32RegWrite)
                  0000c524    0000002c                   : osc.obj (.text:NOROM_OSCClockSourceGet)
                  0000c550    0000002c                   : rfc.obj (.text:NOROM_RFCCpePatchReset)
                  0000c57c    0000002c                   : setup_rom.obj (.text:NOROM_SetupGetTrimForRadcExtCfg)
                  0000c5a8    0000002c     drivers_cc13x0.aem3 : PINCC26XX.oem3 (.text:PINCC26XX_setMux)
                  0000c5d4    0000002c     rf_multiMode_cc13x0.aem3 : RFCC26XX_multiMode.oem3 (.text:RF_calculateDeltaTimeUs)
                  0000c600    0000002c                              : RFCC26XX_multiMode.oem3 (.text:RF_executeDirectImmediateCmd)
                  0000c62c    0000002c     dpl_cc13x0.aem3 : SemaphoreP_tirtos.oem3 (.text:SemaphoreP_constructBinary)
                  0000c658    0000002c                     : SemaphoreP_tirtos.oem3 (.text:SemaphoreP_createBinary)
                  0000c684    0000002c     rom_sysbios.aem3 : rom_sysbios.obj (.text:_pthread_delete$44)
                  0000c6b0    0000002c     EasyLink.obj (.text:asyncCmdCallback)
                  0000c6dc    0000002c     scif_framework.obj (.text:osalIndicateCtrlReady)
                  0000c708    0000002c     scif_framework.obj (.text:osalLockCtrlTaskNbl)
                  0000c734    0000002c     rom_sysbios.aem3 : rom_sysbios.obj (.text:ti_sysbios_knl_Clock_getTicksUntilInterrupt__E)
                  0000c760    0000002c     release_pem3.oem3 (.text:ti_sysbios_knl_Event_construct)
                  0000c78c    0000002c     rom_sysbios.aem3 : rom_sysbios.obj (.text:ti_sysbios_knl_Event_pendTimeout__I)
                  0000c7b8    0000002a     display.aem3 : Display.oem3 (.text:Display_doPrintf)
                  0000c7e2    0000002a     rom_sysbios.aem3 : rom_sysbios.obj (.text:ti_sysbios_knl_Clock_getTimeout__E)
                  0000c80c    0000002a                      : rom_sysbios.obj (.text:xdc_runtime_System_putchar__I)
                  0000c836    00000002     smartrf_settings_predefined.obj (.text:enterSlLongrangeSysPatch)
                  0000c838    00000028     display.aem3 : Display.oem3 (.text:Display_doInit)
                  0000c860    00000028     driverlib.lib : aon_batmon.obj (.text:NOROM_AONBatMonTemperatureGetDegC)
                  0000c888    00000028     drivers_cc13x0.aem3 : PowerCC26XX.oem3 (.text:Power_registerNotify)
                  0000c8b0    00000028     rf_multiMode_cc13x0.aem3 : RFCC26XX_multiMode.oem3 (.text:RF_runCmd)
                  0000c8d8    00000028     drivers_cc13x0.aem3 : SPICC26XXDMA.oem3 (.text:SPICC26XXDMA_flushFifos)
                  0000c900    00000028     driverlib.lib : adi.obj (.text:SafeHapiVoid)
                  0000c928    00000028     NodeTask.obj (.text:rfSwitchCallback)
                  0000c950    00000028     rtsv7M3_T_le_eabi.lib : strncmp.obj (.text)
                  0000c978    00000028     ugap.obj (.text:ugb_advPrepareCB)
                  0000c9a0    00000024     display.aem3 : DisplaySharp.oem3 (.text:DisplaySharp_clear)
                  0000c9c4    00000024     drivers_cc13x0.aem3 : List.oem3 (.text:List_remove)
                  0000c9e8    00000024     driverlib.lib : rfc.obj (.text:NOROM_RFCDoorbellSendTo)
                  0000ca0c    00000024     CC1350_LAUNCHXL_fxns.obj (.text:PINCC26XX_setOutputValue)
                  0000ca30    00000024     rf_multiMode_cc13x0.aem3 : RFCC26XX_multiMode.oem3 (.text:RF_cmdAlloc)
                  0000ca54    00000024                              : RFCC26XX_multiMode.oem3 (.text:RF_invokeGlobalCallback)
                  0000ca78    00000024     SceAdc.obj (.text:SceAdc_setReportInterval)
                  0000ca9c    00000024     display.aem3 : SharpGrLib.oem3 (.text:SharpGrLib_init)
                  0000cac0    00000024     rom_sysbios.aem3 : rom_sysbios.obj (.text:_pthread_cleanupFxn)
                  0000cae4    00000024     NodeTask.obj (.text:adcCallback)
                  0000cb08    00000024     release_pem3.oem3 (.text:ti_sysbios_BIOS_registerRTSLock__I)
                  0000cb2c    00000024     release_pem3.oem3 (.text:ti_sysbios_BIOS_removeRTSLock__I)
                  0000cb50    00000024     rom_sysbios.aem3 : rom_sysbios.obj (.text:ti_sysbios_family_arm_cc26xx_Timer_getMaxTicks__E)
                  0000cb74    00000022     drivers_cc13x0.aem3 : List.oem3 (.text:List_get)
                  0000cb96    00000022                         : List.oem3 (.text:List_insert)
                  0000cbb8    00000022                         : List.oem3 (.text:List_put)
                  0000cbda    00000022                         : List.oem3 (.text:List_putHead)
                  0000cbfc    00000020     driverlib.lib : rfc.obj (.text:NOROM_RFCAdi3VcoLdoVoltageMode)
                  0000cc1c    00000020                   : setup_rom.obj (.text:NOROM_SetupGetTrimForXoscHfCtl)
                  0000cc3c    00000020     dpl_cc13x0.aem3 : PowerCC26XX_tirtos.oem3 (.text:PowerCC26XX_schedulerDisable)
                  0000cc5c    00000020                     : PowerCC26XX_tirtos.oem3 (.text:PowerCC26XX_schedulerRestore)
                  0000cc7c    00000020     drivers_cc13x0.aem3 : PowerCC26XX.oem3 (.text:Power_unregisterNotify)
                  0000cc9c    00000020     rf_multiMode_cc13x0.aem3 : RFCC26XX_multiMode.oem3 (.text:RF_clkPowerUp)
                  0000ccbc    00000020                              : RFCC26XX_multiMode.oem3 (.text:RF_hwiCpe0ChangePhy)
                  0000ccdc    00000020                              : RFCC26XX_multiMode.oem3 (.text:RF_ratIsRunning)
                  0000ccfc    00000020     BleAdv.obj (.text:bleAntSettingHandler)
                  0000cd1c    00000020     NodeRadioTask.obj (.text:returnRadioOperationStatus)
                  0000cd3c    00000020     release_pem3.oem3 (.text:ti_sysbios_BIOS_rtsLock__I)
                  0000cd5c    00000020     rom_sysbios.aem3 : rom_sysbios.obj (.text:ti_sysbios_family_arm_cc26xx_Timer_dynamicStub__E)
                  0000cd7c    00000020                      : rom_sysbios.obj (.text:ti_sysbios_knl_Clock_stop__E)
                  0000cd9c    00000020                      : rom_sysbios.obj (.text:ti_sysbios_knl_Event_checkEvents__I)
                  0000cdbc    00000020     ugap.obj (.text:ugap_bcastStop)
                  0000cddc    00000020     ull.obj (.text:ull_advRegisterCB)
                  0000cdfc    00000020     BleAdv.obj (.text:updateAdvFrame)
                  0000ce1c    00000020     rom_sysbios.aem3 : rom_sysbios.obj (.text:xdc_runtime_Error_policyMin__E)
                  0000ce3c    0000001e     grlib.a : display.obj (.text:Graphics_fillRectangleOnDisplay)
                  0000ce5a    0000001e     drivers_cc13x0.aem3 : PINCC26XX.oem3 (.text:PIN_close)
                  0000ce78    0000001e                         : PowerCC26XX.oem3 (.text:Power_getTransitionLatency)
                  0000ce96    0000001e     rf_multiMode_cc13x0.aem3 : RFCC26XX_multiMode.oem3 (.text:RF_preemptClient)
                  0000ceb4    0000001c     CC1350_LAUNCHXL.obj (.text:CC1350_LAUNCHXL_initGeneral)
                  0000ced0    0000001c     driverlib.lib : chipinfo.obj (.text:NOROM_ChipInfo_GetChipFamily)
                  0000ceec    0000001c                   : setup_rom.obj (.text:NOROM_SetupGetTrimForAmpcompTh2)
                  0000cf08    0000001c                   : setup_rom.obj (.text:NOROM_SetupGetTrimForRcOscLfRtuneCtuneTrim)
                  0000cf24    0000001c     drivers_cc13x0.aem3 : PINCC26XX.oem3 (.text:PINCC26XX_setIoCfgMux)
                  0000cf40    0000001c                         : PINCC26XX.oem3 (.text:PIN_hwi)
                  0000cf5c    0000001c     rf_multiMode_cc13x0.aem3 : RFCC26XX_multiMode.oem3 (.text:RF_clkInactivity)
                  0000cf78    0000001c                              : RFCC26XX_multiMode.oem3 (.text:RF_powerConstraintSet)
                  0000cf94    0000001c     NodeRadioTask.obj (.text:bleAdv_updateMsButtonCB)
                  0000cfb0    0000001c     urfc.obj (.text:enterBleCpePatch)
                  0000cfcc    0000001c     smartrf_settings.obj (.text:enterGenfskCpePatch)
                  0000cfe8    0000001c     smartrf_settings_predefined.obj (.text:enterGenfskCpePatch)
                  0000d004    0000001c     smartrf_settings_predefined.obj (.text:enterGenookCpePatch)
                  0000d020    0000001c     smartrf_settings_predefined.obj (.text:enterLrmCpePatch)
                  0000d03c    0000001c     smartrf_settings_predefined.obj (.text:enterSlLongrangeCpePatch)
                  0000d058    0000001c     rom_sysbios.aem3 : rom_sysbios.obj (.text:ti_sysbios_family_arm_m3_Hwi_clearInterrupt__E)
                  0000d074    0000001c                      : rom_sysbios.obj (.text:ti_sysbios_knl_Swi_construct2__E)
                  0000d090    0000001a     grlib.a : display.obj (.text:Graphics_clearDisplayOnDisplay)
                  0000d0aa    0000001a             : context.obj (.text:Graphics_setBackgroundColor)
                  0000d0c4    0000001a             : context.obj (.text:Graphics_setFont)
                  0000d0de    0000001a     release_pem3.oem3 (.text:free)
                  0000d0f8    0000001a     rfWsnNode.obj (.text:main)
                  0000d112    00000002     rtsv7M3_T_le_eabi.lib : i_div0.obj (.text)
                  0000d114    00000018     BleAdv.obj (.text:BleAdv_Params_init)
                  0000d12c    00000018     EasyLink.obj (.text:ChipInfo_ChipFamilyIs_CC13x2_CC26x2)
                  0000d144    00000018     EasyLink.obj (.text:ChipInfo_ChipFamilyIs_CC26x0R2)
                  0000d15c    00000018     driverlib.lib : aon_rtc.obj (.text:NOROM_AONRTCCurrentCompareValueGet)
                  0000d174    00000018                   : chipinfo.obj (.text:NOROM_ChipInfo_GetPackageType)
                  0000d18c    00000018                   : osc.obj (.text:NOROM_OSCHF_TurnOnXosc)
                  0000d1a4    00000018                   : rfc.obj (.text:NOROM_RFCCpeIntGetAndClear)
                  0000d1bc    00000018                   : setup_rom.obj (.text:NOROM_SetupGetTrimForAdcShModeEn)
                  0000d1d4    00000018                   : setup_rom.obj (.text:NOROM_SetupGetTrimForAdcShVbufEn)
                  0000d1ec    00000018                   : setup_rom.obj (.text:NOROM_SetupGetTrimForAmpcompTh1)
                  0000d204    00000018                   : setup_rom.obj (.text:NOROM_SetupGetTrimForDblrLoopFilterResetVoltage)
                  0000d21c    00000018                   : setup_rom.obj (.text:NOROM_SetupGetTrimForRcOscLfIBiasTrim)
                  0000d234    00000018                   : setup_rom.obj (.text:NOROM_SetupGetTrimForXoscLfRegulatorAndCmirrwrRatio)
                  0000d24c    00000018     drivers_cc13x0.aem3 : PINCC26XX.oem3 (.text:PIN_getConfig)
                  0000d264    00000018                         : PowerCC26XX.oem3 (.text:Power_idleFunc)
                  0000d27c    00000018     rf_multiMode_cc13x0.aem3 : RFCC26XX_multiMode.oem3 (.text:RF_cancelCmd)
                  0000d294    00000018                              : RFCC26XX_multiMode.oem3 (.text:RF_swiFsm)
                  0000d2ac    00000018     display.aem3 : SharpGrLib.oem3 (.text:SharpGrLib_reverse)
                  0000d2c4    00000018     drivers_cc13x0.aem3 : UARTCC26XX.oem3 (.text:UARTCC26XX_init)
                  0000d2dc    00000018                         : UART.oem3 (.text:UART_Params_init)
                  0000d2f4    00000018     rtsv7M3_T_le_eabi.lib : args_main.obj (.text)
                  0000d30c    00000018                           : ll_mul_t2.obj (.text)
                  0000d324    00000018     scif_framework.obj (.text:scifClearAlertIntSource)
                  0000d33c    00000018     release_pem3.oem3 (.text:ti_sysbios_BIOS_rtsUnlock__I)
                  0000d354    00000018     rom_sysbios.aem3 : rom_sysbios.obj (.text:ti_sysbios_knl_Swi_or__E)
                  0000d36c    00000018     release_pem3.oem3 (.text:ti_sysbios_rom_cortexm_cc13xx_CC13xx_checkRevision__E)
                  0000d384    00000018     uble.obj (.text:uble_registerAntSwitchCB)
                  0000d39c    00000018     rom_sysbios.aem3 : rom_sysbios.obj (.text:xdc_runtime_Error_init__E)
                  0000d3b4    00000016     EasyLink.obj (.text:ChipInfo_ChipFamilyIs_CC26x0)
                  0000d3ca    00000016     display.aem3 : DisplayUart.oem3 (.text:DisplayUartMin_close)
                  0000d3e0    00000016     grlib.a : context.obj (.text:Graphics_setForegroundColor)
                  0000d3f6    00000016             : display.obj (.text:Graphics_translateColorOnDisplay)
                  0000d40c    00000016     driverlib.lib : chipinfo.obj (.text:NOROM_ThisLibraryIsFor_CC13x0_HwRev20AndLater_HaltIfViolated)
                  0000d422    00000016     rf_multiMode_cc13x0.aem3 : RFCC26XX_multiMode.oem3 (.text:RF_restartClockTimeout)
                  0000d438    00000016     release_pem3.oem3 (.text:ti_sysbios_BIOS_exitFunc__I)
                  0000d44e    00000016     scif_framework.obj (.text:ti_sysbios_family_arm_m3_Hwi_Params_init)
                  0000d464    00000016     NodeTask.obj (.text:ti_sysbios_knl_Clock_Params_init)
                  0000d47a    00000016     ugap.obj (.text:ti_sysbios_knl_Clock_Params_init)
                  0000d490    00000016     ull.obj (.text:ti_sysbios_knl_Clock_Params_init)
                  0000d4a6    00000016     NodeRadioTask.obj (.text:ti_sysbios_knl_Event_Params_init)
                  0000d4bc    00000016     NodeTask.obj (.text:ti_sysbios_knl_Event_Params_init)
                  0000d4d2    00000016     EasyLink.obj (.text:ti_sysbios_knl_Semaphore_Params_init)
                  0000d4e8    00000016     NodeRadioTask.obj (.text:ti_sysbios_knl_Semaphore_Params_init)
                  0000d4fe    00000016     scif_framework.obj (.text:ti_sysbios_knl_Semaphore_Params_init)
                  0000d514    00000016     NodeRadioTask.obj (.text:ti_sysbios_knl_Task_Params_init)
                  0000d52a    00000016     NodeTask.obj (.text:ti_sysbios_knl_Task_Params_init)
                  0000d540    00000014     NodeRadioTask.obj (.text:AONBatMonBatteryVoltageGet)
                  0000d554    00000014     dpl_cc13x0.aem3 : ClockP_tirtos.oem3 (.text:ClockP_usleep)
                  0000d568    00000014     EasyLink.obj (.text:EasyLink_Params_init)
                  0000d57c    00000014     drivers_cc13x0.aem3 : List.oem3 (.text:List_clearList)
                  0000d590    00000014     driverlib.lib : aon_rtc.obj (.text:NOROM_AONRTCCurrent64BitValueGet)
                  0000d5a4    00000014     drivers_cc13x0.aem3 : PINCC26XX.oem3 (.text:PINCC26XX_getInputValue)
                  0000d5b8    00000014                         : PINCC26XX.oem3 (.text:PINCC26XX_getOutputValue)
                  0000d5cc    00000014     rf_multiMode_cc13x0.aem3 : RFCC26XX_multiMode.oem3 (.text:RF_Params_init)
                  0000d5e0    00000014                              : RFCC26XX_multiMode.oem3 (.text:RF_dbellSyncOnAck)
                  0000d5f4    00000014                              : RFCC26XX_multiMode.oem3 (.text:RF_ratGetChannel)
                  0000d608    00000014                              : RFCC26XX_multiMode.oem3 (.text:RF_schResolveConflict)
                  0000d61c    00000014                              : RFCC26XX_multiMode.oem3 (.text:RF_triggDispatcher)
                  0000d630    00000014     drivers_cc13x0.aem3 : SPI.oem3 (.text:SPI_Params_init)
                  0000d644    00000014     SceAdc.obj (.text:SceAdc_registerAdcCallback)
                  0000d658    00000014     NodeRadioTask.obj (.text:bleAdv_eventProxyCB)
                  0000d66c    00000014     drivers_cc13x0.aem3 : PowerCC26XX.oem3 (.text:configureRFCoreClocks)
                  0000d680    00000014     scif_framework.obj (.text:osalIndicateTaskAlert)
                  0000d694    00000014     rtsv7M3_T_le_eabi.lib : _lock.obj (.text)
                  0000d6a8    00000014                           : strlen.obj (.text)
                  0000d6bc    00000014     scif_framework.obj (.text:scifOsalRegisterCtrlReadyCallback)
                  0000d6d0    00000014     scif_framework.obj (.text:scifOsalRegisterTaskAlertCallback)
                  0000d6e4    00000014     release_pem3.oem3 (.text:ti_sysbios_knl_Clock_doTick__I)
                  0000d6f8    00000014     rom_sysbios.aem3 : rom_sysbios.obj (.text:ti_sysbios_knl_Event_Instance_init__E)
                  0000d70c    00000012     grlib.a : context.obj (.text:Graphics_clearDisplay)
                  0000d71e    00000012             : display.obj (.text:Graphics_flushOnDisplay)
                  0000d730    00000012     drivers_cc13x0.aem3 : RingBuf.oem3 (.text:RingBuf_construct)
                  0000d742    00000012     dpl_cc13x0.aem3 : SemaphoreP_tirtos.oem3 (.text:SemaphoreP_pend)
                  0000d754    00000012     scif_framework.obj (.text:scifStartTasksNbl)
                  0000d766    00000012     scif.obj (.text:scifTaskResourceInit)
                  0000d778    00000012     release_pem3.oem3 (.text:xdc_runtime_Startup_exec__I)
                  0000d78a    00000010     dpl_cc13x0.aem3 : ClockP_tirtos.oem3 (.text:ClockP_isActive)
                  0000d79a    00000010                     : HwiP_tirtos.oem3 (.text:HwiP_Params_init)
                  0000d7aa    00000002     rom_sysbios.aem3 : rom_sysbios.obj (.text:ti_sysbios_BIOS_linkedWithIncorrectBootLibrary__E)
                  0000d7ac    00000010     driverlib.lib : rfc.obj (.text:NOROM_RFCHwIntGetAndClear)
                  0000d7bc    00000010                   : rfc.obj (.text:NOROM_RFCRfTrimSet)
                  0000d7cc    00000010                   : setup_rom.obj (.text:NOROM_SetupGetTrimForXoscHfFastStart)
                  0000d7dc    00000010                   : setup_rom.obj (.text:NOROM_SetupGetTrimForXoscHfIbiastherm)
                  0000d7ec    00000010     drivers_cc13x0.aem3 : PINCC26XX.oem3 (.text:PINCC26XX_getPinCount)
                  0000d7fc    00000010     rf_multiMode_cc13x0.aem3 : RFCC26XX_multiMode.oem3 (.text:RF_dbellSubmitCmdAsync)
                  0000d80c    00000010                              : RFCC26XX_multiMode.oem3 (.text:RF_isClientOwner)
                  0000d81c    00000010     dpl_cc13x0.aem3 : SwiP_tirtos.oem3 (.text:SwiP_Params_init)
                  0000d82c    00000010     urfc.obj (.text:applyBlePatch)
                  0000d83c    00000010     smartrf_settings.obj (.text:applyGenfskPatch)
                  0000d84c    00000010     smartrf_settings_predefined.obj (.text:applyGenfskPatch)
                  0000d85c    00000010     smartrf_settings_predefined.obj (.text:applyGenookPatch)
                  0000d86c    00000010     smartrf_settings_predefined.obj (.text:applyLrmPatch)
                  0000d87c    00000010     smartrf_settings_predefined.obj (.text:applySlLongrangePatch)
                  0000d88c    00000010     NodeTask.obj (.text:fastReportTimeoutCallback)
                  0000d89c    00000010     rom_sysbios.aem3 : rom_sysbios.obj (.text:ti_sysbios_family_arm_m3_Hwi_post__E)
                  0000d8ac    00000010     drivers_cc13x0.aem3 : UARTCC26XX.oem3 (.text:uartPostNotify)
                  0000d8bc    00000010     rom_sysbios.aem3 : rom_sysbios.obj (.text:xdc_runtime_SysCallback_putch__E)
                  0000d8cc    00000010                      : rom_sysbios.obj (.text:xdc_runtime_SysCallback_ready__E)
                  0000d8dc    00000010                      : rom_sysbios.obj (.text:xdc_runtime_System_vsnprintf__E)
                  0000d8ec    0000000e     grlib.a : context.obj (.text:Graphics_flushBuffer)
                  0000d8fa    0000000e     driverlib.lib : vims.obj (.text:NOROM_VIMSModeGet)
                  0000d908    0000000e     drivers_cc13x0.aem3 : SPICC26XXDMA.oem3 (.text:SPICC26XXDMA_init)
                  0000d916    0000000e     rtsv7M3_T_le_eabi.lib : copy_decompress_none.obj (.text:decompress:none)
                  0000d924    0000000e     scif_framework.obj (.text:osalCtrlReadyIsr)
                  0000d932    0000000e     scif_framework.obj (.text:osalTaskAlertIsr)
                  0000d940    0000000e     scif.obj (.text:scifTaskResourceUninit)
                  0000d94e    0000000e     rom_sysbios.aem3 : rom_sysbios.obj (.text:ti_sysbios_family_arm_cc26xx_TimestampProvider_get32__E)
                  0000d95c    0000000c     display.aem3 : Display.oem3 (.text:Display_doClear)
                  0000d968    0000000c     driverlib.lib : cpu.obj (.text:NOROM_CPUcpsid)
                  0000d974    0000000c                   : cpu.obj (.text:NOROM_CPUcpsie)
                  0000d980    0000000c                   : osc.obj (.text:NOROM_OSC_HPOSCRelativeFrequencyOffsetToRFCoreFormatConvert)
                  0000d98c    0000000c     drivers_cc13x0.aem3 : PINCC26XX.oem3 (.text:PIN_registerIntCb)
                  0000d998    0000000c                         : PowerCC26XX.oem3 (.text:Power_getConstraintMask)
                  0000d9a4    0000000c                         : PowerCC26XX.oem3 (.text:Power_getDependencyCount)
                  0000d9b0    0000000c     rf_multiMode_cc13x0.aem3 : RFCC26XX_multiMode.oem3 (.text:RF_powerConstraintGet)
                  0000d9bc    0000000c     dpl_cc13x0.aem3 : SemaphoreP_tirtos.oem3 (.text:SemaphoreP_delete)
                  0000d9c8    0000000c     NodeRadioTask.obj (.text:TRNGDisable)
                  0000d9d4    0000000c     NodeRadioTask.obj (.text:TRNGEnable)
                  0000d9e0    0000000c     NodeRadioTask.obj (.text:TRNGStatusGet)
                  0000d9ec    0000000c     rtsv7M3_T_le_eabi.lib : copy_zero_init.obj (.text:decompress:ZI)
                  0000d9f8    0000000c     NodeRadioTask.obj (.text:nodeRadioTask_getNodeAddr)
                  0000da04    0000000c     scif_framework.obj (.text:osalUnlockCtrlTaskNbl)
                  0000da10    0000000c     scif_framework.obj (.text:scifGetAlertEvents)
                  0000da1c    0000000c     scif_framework.obj (.text:scifOsalLeaveCriticalSection)
                  0000da28    0000000c     drivers_cc13x0.aem3 : SPICC26XXDMA.oem3 (.text:spiPostNotify)
                  0000da34    0000000c     NodeTask.obj (.text:ti_sysbios_knl_Clock_handle)
                  0000da40    0000000c     ugap.obj (.text:ti_sysbios_knl_Clock_handle)
                  0000da4c    0000000c     ull.obj (.text:ti_sysbios_knl_Clock_handle)
                  0000da58    0000000c     release_pem3.oem3 (.text:ti_sysbios_knl_Event_Params__init__S)
                  0000da64    0000000c     NodeRadioTask.obj (.text:ti_sysbios_knl_Event_handle)
                  0000da70    0000000c     NodeTask.obj (.text:ti_sysbios_knl_Event_handle)
                  0000da7c    0000000c     uble.obj (.text:ti_sysbios_knl_Queue_handle)
                  0000da88    0000000c     NodeRadioTask.obj (.text:ti_sysbios_knl_Semaphore_handle)
                  0000da94    0000000c     scif_framework.obj (.text:ti_sysbios_knl_Semaphore_handle)
                  0000daa0    0000000c     rom_sysbios.aem3 : rom_sysbios.obj (.text:ti_sysbios_knl_Swi_getTrigger__E)
                  0000daac    0000000c     release_pem3.oem3 (.text:xdc_runtime_Startup_reset__I)
                  0000dab8    0000000c     rom_sysbios.aem3 : rom_sysbios.obj (.text:xdc_runtime_Startup_rtsDone__E)
                  0000dac4    0000000a     NodeRadioTask.obj (.text:BleAdv_stopAdvertising)
                  0000dace    0000000a     dpl_cc13x0.aem3 : ClockP_tirtos.oem3 (.text:ClockP_Params_init)
                  0000dad8    0000000a     drivers_cc13x0.aem3 : SPI.oem3 (.text:SPI_close)
                  0000dae2    0000000a                         : SPI.oem3 (.text:SPI_transfer)
                  0000daec    0000000a     SceAdc.obj (.text:SceAdc_start)
                  0000daf6    0000000a     display.aem3 : SharpGrLib.oem3 (.text:SharpGrLib_colorTranslate)
                  0000db00    0000000a     drivers_cc13x0.aem3 : UART.oem3 (.text:UART_close)
                  0000db0a    0000000a                         : UART.oem3 (.text:UART_control)
                  0000db14    0000000a                         : UART.oem3 (.text:UART_write)
                  0000db1e    0000000a                         : UDMACC26XX.oem3 (.text:UDMACC26XX_hwiIntFxn)
                  0000db28    0000000a     scif_framework.obj (.text:osalClearCtrlReadyInt)
                  0000db32    0000000a     scif_framework.obj (.text:osalClearTaskAlertInt)
                  0000db3c    0000000a     scif_framework.obj (.text:osalDisableCtrlReadyInt)
                  0000db46    0000000a     scif_framework.obj (.text:osalEnableCtrlReadyInt)
                  0000db50    0000000a     scif_framework.obj (.text:scifOsalDisableTaskAlertInt)
                  0000db5a    0000000a     scif_framework.obj (.text:scifOsalEnableTaskAlertInt)
                  0000db64    00000008     CC1350_LAUNCHXL_fxns.obj (.text:Board_initHook)
                  0000db6c    00000008     display.aem3 : DisplaySharp.oem3 (.text:DisplaySharp_getType)
                  0000db74    00000008     drivers_cc13x0.aem3 : SPICC26XXDMA.oem3 (.text:SPICC26XXDMA_transferCallback)
                  0000db7c    00000008                         : UARTCC26XX.oem3 (.text:readSemCallback)
                  0000db84    00000008     urfc.obj (.text:rf_patch_cpe_ble)
                  0000db8c    00000008     smartrf_settings.obj (.text:rf_patch_cpe_genfsk)
                  0000db94    00000008     smartrf_settings_predefined.obj (.text:rf_patch_cpe_genfsk)
                  0000db9c    00000008     smartrf_settings_predefined.obj (.text:rf_patch_cpe_genook)
                  0000dba4    00000008     smartrf_settings_predefined.obj (.text:rf_patch_cpe_lrm)
                  0000dbac    00000008     smartrf_settings_predefined.obj (.text:rf_patch_cpe_sl_longrange)
                  0000dbb4    00000008     scif_framework.obj (.text:scifOsalEnterCriticalSection)
                  0000dbbc    00000008     drivers_cc13x0.aem3 : UARTCC26XX.oem3 (.text:writeSemCallback)
                  0000dbc4    00000006     display.aem3 : DisplayUart.oem3 (.text:DisplayUartMin_control)
                  0000dbca    00000006                  : DisplayUart.oem3 (.text:DisplayUartMin_getType)
                  0000dbd0    00000006                  : Display.oem3 (.text:Display_doParamsInit)
                  0000dbd6    00000006     driverlib.lib : cpu.obj (.text:NOROM_CPUdelay)
                  0000dbdc    00000006     rf_multiMode_cc13x0.aem3 : RFCC26XX_multiMode.oem3 (.text:RF_clkReqAccess)
                  0000dbe2    00000006                              : RFCC26XX_multiMode.oem3 (.text:RF_runImmediateCmd)
                  0000dbe8    00000006     drivers_cc13x0.aem3 : UARTCC26XX.oem3 (.text:UARTCC26XX_readPolling)
                  0000dbee    00000006                         : UARTCC26XX.oem3 (.text:UARTCC26XX_writePolling)
                  0000dbf4    00000006     rom_sysbios.aem3 : rom_sysbios.obj (.text:ti_sysbios_family_arm_m3_Hwi_setFunc__E)
                  0000dbfa    00000004     dpl_cc13x0.aem3 : ClockP_tirtos.oem3 (.text:ClockP_destruct)
                  0000dbfe    00000004                     : ClockP_tirtos.oem3 (.text:ClockP_getCpuFreq)
                  0000dc02    00000004                     : ClockP_tirtos.oem3 (.text:ClockP_getTimeout)
                  0000dc06    00000004                     : ClockP_tirtos.oem3 (.text:ClockP_setTimeout)
                  0000dc0a    00000004                     : ClockP_tirtos.oem3 (.text:ClockP_start)
                  0000dc0e    00000004                     : ClockP_tirtos.oem3 (.text:ClockP_stop)
                  0000dc12    00000004                     : HwiP_tirtos.oem3 (.text:HwiP_destruct)
                  0000dc16    00000004                     : HwiP_tirtos.oem3 (.text:HwiP_disable)
                  0000dc1a    00000004                     : HwiP_tirtos.oem3 (.text:HwiP_enableInterrupt)
                  0000dc1e    00000004                     : HwiP_tirtos.oem3 (.text:HwiP_post)
                  0000dc22    00000004                     : HwiP_tirtos.oem3 (.text:HwiP_setFunc)
                  0000dc26    00000004                     : HwiP_tirtos.oem3 (.text:HwiP_setPriority)
                  0000dc2a    00000004     driverlib.lib : rfc.obj (.text:NOROM_RFCOverrideUpdate)
                  0000dc2e    00000004     drivers_cc13x0.aem3 : PowerCC26XX.oem3 (.text:PowerCC26XX_switchXOSC_HF)
                  0000dc32    00000004     dpl_cc13x0.aem3 : SemaphoreP_tirtos.oem3 (.text:SemaphoreP_destruct)
                  0000dc36    00000004                     : SemaphoreP_tirtos.oem3 (.text:SemaphoreP_post)
                  0000dc3a    00000004                     : SwiP_tirtos.oem3 (.text:SwiP_destruct)
                  0000dc3e    00000004                     : SwiP_tirtos.oem3 (.text:SwiP_disable)
                  0000dc42    00000004                     : SwiP_tirtos.oem3 (.text:SwiP_getTrigger)
                  0000dc46    00000004                     : SwiP_tirtos.oem3 (.text:SwiP_or)
                  0000dc4a    00000004                     : SwiP_tirtos.oem3 (.text:SwiP_post)
                  0000dc4e    00000004                     : SwiP_tirtos.oem3 (.text:SwiP_setPriority)
                  0000dc52    00000004                     : SystemP_tirtos.oem3 (.text:SystemP_vsnprintf)
                  0000dc56    00000004     drivers_cc13x0.aem3 : PowerCC26XX.oem3 (.text:nopResourceHandler)
                  0000dc5a    00000004     rom_sysbios.aem3 : rom_sysbios.obj (.text:ti_sysbios_family_arm_cc26xx_Timer_getCount64__E)
                  0000dc5e    00000004                      : rom_sysbios.obj (.text:ti_sysbios_knl_Clock_isActive__E)
                  0000dc62    00000004                      : rom_sysbios.obj (.text:xdc_runtime_SysCallback_defaultReady)
                  0000dc66    00000002     release_pem3.oem3 (.text:ti_sysbios_BIOS_nullFunc__I)
                  0000dc68    00000002     rom_sysbios.aem3 : rom_sysbios.obj (.text:ti_sysbios_knl_Clock_triggerFunc__I)
                  0000dc6a    00000002     release_pem3.oem3 (.text:ti_sysbios_rom_cortexm_cc13xx_CC13xx_badRomRevision__E)
                  0000dc6c    00000002     rom_sysbios.aem3 : rom_sysbios.obj (.text:xdc_runtime_SysCallback_defaultAbort)
                  0000dc6e    00000002                      : rom_sysbios.obj (.text:xdc_runtime_SysCallback_defaultExit)
                  0000dc70    00000002                      : rom_sysbios.obj (.text:xdc_runtime_SysCallback_defaultPutch)
                  0000dc72    00000002     --HOLE-- [fill = 0]
                  0000dc74    00000008     (.tramp.ti_sysbios_knl_Swi_destruct.1)
                  0000dc7c    00000008     (.tramp.ti_sysbios_family_arm_m3_Hwi_setPriority__E.1)
                  0000dc84    00000008     (.tramp.ti_sysbios_family_arm_m3_Hwi_destruct.1)
                  0000dc8c    00000008     (.tramp.ti_sysbios_BIOS_getCpuFreq__E.1)
                  0000dc94    00000008     (.tramp.ti_sysbios_knl_Clock_destruct.1)
                  0000dc9c    00000008     (.tramp.ti_sysbios_family_arm_m3_Hwi_enableInterrupt__E.1)
                  0000dca4    00000008     (.tramp.ti_sysbios_family_arm_m3_Hwi_disableInterrupt__E.1)
                  0000dcac    00000008     (.tramp.xdc_runtime_Core_assignParams__I.1)
                  0000dcb4    00000008     (.tramp.ti_sysbios_knl_Semaphore_delete.1)
                  0000dcbc    00000008     (.tramp.xdc_runtime_Startup_startMods__I.1)
                  0000dcc4    00000008     (.tramp.ti_sysbios_knl_Clock_logTick__E.1)
                  0000dccc    00000008     (.tramp.ti_sysbios_knl_Task_Params__init__S.1)
                  0000dcd4    00000008     (.tramp.ti_sysbios_knl_Swi_post__E.1)
                  0000dcdc    00000008     (.tramp.ti_sysbios_BIOS_RtsGateProxy_leave__E.1)
                  0000dce4    00000008     (.tramp.ti_sysbios_BIOS_start__E.1)
                  0000dcec    00000008     (.tramp.ti_sysbios_knl_Swi_construct.1)
                  0000dcf4    00000008     (.tramp.ti_sysbios_BIOS_RtsGateProxy_enter__E.1)
                  0000dcfc    00000008     (.tramp.xdc_runtime_Core_constructObject__I.1)
                  0000dd04    00000008     (.tramp.xdc_runtime_Memory_free__E.1)
                  0000dd0c    00000008     (.tramp.ti_sysbios_knl_Task_delete.1)
                  0000dd14    00000008     (.tramp.ti_sysbios_knl_Semaphore_destruct.1)
                  0000dd1c    00000008     (.tramp.ti_sysbios_knl_Semaphore_Params__init__S.1)
                  0000dd24    00000008     (.tramp.xdc_runtime_Memory_alloc__E.1)
                  0000dd2c    00000008     (.tramp.ti_sysbios_knl_Task_startup__E.1)
                  0000dd34    00000008     (.tramp.ti_sysbios_knl_Swi_startup__E.1)
                  0000dd3c    00000008     (.tramp.ti_sysbios_hal_Hwi_startup__E.1)
                  0000dd44    00000008     (.tramp.ti_sysbios_family_arm_cc26xx_Timer_startup__E.1)
                  0000dd4c    00000008     (.tramp.xdc_runtime_System_atexit__E.1)
                  0000dd54    00000008     (.tramp.ti_sysbios_BIOS_setThreadType__E.1)
                  0000dd5c    00000008     (.tramp.ti_sysbios_knl_Queue_Object__get__S.1)
                  0000dd64    00000008     (.tramp.ti_sysbios_family_arm_m3_Hwi_construct.1)
                  0000dd6c    00000008     (.tramp.ti_sysbios_knl_Swi_Params__init__S.1)
                  0000dd74    00000008     (.tramp.ti_sysbios_family_arm_m3_Hwi_Params__init__S.1)
                  0000dd7c    00000008     (.tramp.xdc_runtime_System_exit__E.1)
                  0000dd84    00000008     (.tramp.ti_sysbios_knl_Queue_get__E.1)
                  0000dd8c    00000008     (.tramp.ti_sysbios_knl_Clock_Params__init__S.1)
                  0000dd94    00000008     (.tramp.ti_sysbios_heaps_HeapMem_restore__E.1)
                  0000dd9c    00000008     (.tramp.ti_sysbios_heaps_HeapMem_Object__get__S.1)
                  0000dda4    00000008     (.tramp.ti_sysbios_knl_Task_unblockI__E.1)
                  0000ddac    00000008     (.tramp.ti_sysbios_knl_Queue_remove__E.1)
                  0000ddb4    00000008     (.tramp.ti_sysbios_knl_Queue_head__E.1)
                  0000ddbc    00000008     (.tramp.ti_sysbios_knl_Queue_empty__E.1)
                  0000ddc4    00000008     (.tramp.ti_sysbios_knl_Queue_put__E.1)
                  0000ddcc    00000008     (.tramp.ti_sysbios_knl_Queue_construct.1)
                  0000ddd4    00000008     (.tramp.ti_sysbios_knl_Clock_scheduleNextTick__E.1)
                  0000dddc    00000008     (.tramp.ti_sysbios_knl_Clock_walkQueueDynamic__E.1)
                  0000dde4    00000008     (.tramp.ti_sysbios_knl_Clock_TimerProxy_getCurrentTick__E.1)
                  0000ddec    00000008     (.tramp.ti_sysbios_knl_Clock_construct.1)
                  0000ddf4    00000008     (.tramp.ti_sysbios_knl_Task_construct.1)
                  0000ddfc    00000008     (.tramp.ti_sysbios_knl_Semaphore_construct.1)
                  0000de04    00000008     (.tramp.ti_sysbios_knl_Clock_removeI__E.1)
                  0000de0c    00000008     (.tramp.ti_sysbios_knl_Task_restore__E.1)
                  0000de14    00000008     (.tramp.ti_sysbios_knl_Clock_startI__E.1)
                  0000de1c    00000008     (.tramp.ti_sysbios_knl_Task_blockI__E.1)
                  0000de24    00000008     (.tramp.ti_sysbios_knl_Queue_enqueue__E.1)
                  0000de2c    00000008     (.tramp.ti_sysbios_knl_Task_disable__E.1)
                  0000de34    00000008     (.tramp.ti_sysbios_knl_Task_self__E.1)
                  0000de3c    00000008     (.tramp.ti_sysbios_knl_Clock_addI__E.1)
                  0000de44    00000008     (.tramp.ti_sysbios_knl_Swi_disable__E.1)
                  0000de4c    00000008     (.tramp.ti_sysbios_knl_Swi_restore__E.1)
                  0000de54    00000008     (.tramp.ti_sysbios_knl_Task_sleep__E.1)
                  0000de5c    00000008     (.tramp.ti_sysbios_knl_Clock_getTicks__E.1)
                  0000de64    00000008     (.tramp.xdc_runtime_System_abort__E.1)
                  0000de6c    00000008     (.tramp.ti_sysbios_family_arm_m3_Hwi_disableFxn__E.1)
                  0000de74    00000008     (.tramp.ti_sysbios_knl_Clock_start__E.1)
                  0000de7c    00000008     (.tramp.ti_sysbios_knl_Clock_setTimeout__E.1)

.const     0    0000de84    00005b4c     
                  0000de84    0000073c     smartrf_settings_predefined.obj (.const:patchGenookMce)
                  0000e5c0    000006b4     smartrf_settings.obj (.const:patchGenfskRfe)
                  0000ec74    000006b4     smartrf_settings_predefined.obj (.const:patchGenfskRfe)
                  0000f328    000006b4     smartrf_settings_predefined.obj (.const:patchLrmRfe)
                  0000f9dc    000006b4     smartrf_settings_predefined.obj (.const:patchSl_longrangeRfe)
                  00010090    000006a4     smartrf_settings_predefined.obj (.const:patchGenookRfe)
                  00010734    00000504     smartrf_settings_predefined.obj (.const:patchHsp4mbpsRfe)
                  00010c38    000004dc     urfc.obj (.const:patchBleRfe)
                  00011114    00000400     smartrf_settings_predefined.obj (.const:patchSl_longrangeMce)
                  00011514    000003f0     smartrf_settings_predefined.obj (.const:patchHsp4mbpsMce)
                  00011904    000003d8     smartrf_settings.obj (.const:patchImageGenfsk)
                  00011cdc    000003d8     smartrf_settings_predefined.obj (.const:patchImageGenfsk)
                  000120b4    000003d8     smartrf_settings_predefined.obj (.const:patchImageGenook)
                  0001248c    000003d8     smartrf_settings_predefined.obj (.const:patchImageLrm)
                  00012864    000003d8     smartrf_settings_predefined.obj (.const:patchImageSlLongrange)
                  00012c3c    000002f8     grlib.a : fontfixed6x8.obj (.const:.string:g_pucFontFixed6x8Data)
                  00012f34    000001b0     urfc.obj (.const:patchImageBle)
                  000130e4    000001ac     scif.obj (.const:pAuxRamImage)
                  00013290    000000c8     grlib.a : fontfixed6x8.obj (.const:g_sFontFixed6x8)
                  00013358    00000086     NodeTask.obj (.const:.string)
                  000133de    00000001     display.aem3 : Display.oem3 (.const:Display_defaultParams)
                  000133df    00000001     urfc.obj (.const)
                  000133e0    00000066     BleAdv.obj (.const:.string)
                  00013446    0000004c     drivers_cc13x0.aem3 : PowerCC26XX.oem3 (.const:resourceDB)
                  00013492    00000001     release_pem3.oem3 (.const:xdc_runtime_Text_charTab__A)
                  00013493    00000001     --HOLE-- [fill = 0]
                  00013494    00000048     release_pem3.oem3 (.const:.string)
                  000134dc    00000044     drivers_cc13x0.aem3 : UARTCC26XX.oem3 (.const:$O1$$)
                  00013520    00000040                         : GPIOCC26XX.oem3 (.const:$O2$$)
                  00013560    00000040     CC1350_LAUNCHXL.obj (.const:spiCC26XXDMAHWAttrs)
                  000135a0    00000038     drivers_cc13x0.aem3 : SPICC26XXDMA.oem3 (.const:$O1$$)
                  000135d8    00000034     CC1350_LAUNCHXL.obj (.const:BoardGpioInitTable)
                  0001360c    00000030     scif.obj (.const:scifDriverSetup)
                  0001363c    00000028     drivers_cc13x0.aem3 : UARTCC26XX.oem3 (.const:UARTCC26XX_fxnTable)
                  00013664    00000028     CC1350_LAUNCHXL.obj (.const:uartCC26XXHWAttrs)
                  0001368c    00000027     urfc.obj (.const:ubTxPowerVal)
                  000136b3    00000001     --HOLE-- [fill = 0]
                  000136b4    00000024     drivers_cc13x0.aem3 : UART.oem3 (.const:UART_defaultParams)
                  000136d8    00000024     release_pem3.oem3 (.const:xdc_runtime_Startup_sfxnTab__A)
                  000136fc    00000020     display.aem3 : DisplaySharp.oem3 (.const:DisplaySharp_fxnTable)
                  0001371c    00000020                  : DisplayUart.oem3 (.const:DisplayUartMin_fxnTable)
                  0001373c    00000020     drivers_cc13x0.aem3 : SPI.oem3 (.const:SPI_defaultParams)
                  0001375c    00000020     display.aem3 : SharpGrLib.oem3 (.const:g_sharpFxns)
                  0001377c    00000020     release_pem3.oem3 (.const:ti_sysbios_knl_Event_Object__DESC__C)
                  0001379c    0000001c     rf_multiMode_cc13x0.aem3 : RFCC26XX_multiMode.oem3 (.const:RF_defaultParams)
                  000137b8    0000001c     uble.obj (.const:ubParamLookup)
                  000137d4    00000018     BleAdv.obj (.const:BleAdv_defaultParams)
                  000137ec    00000018     CC1350_LAUNCHXL.obj (.const:Display_config)
                  00013804    00000018     CC1350_LAUNCHXL.obj (.const:PowerCC26XX_config)
                  0001381c    00000018     drivers_cc13x0.aem3 : SPICC26XXDMA.oem3 (.const:SPICC26XXDMA_fxnTable)
                  00013834    00000018     CC1350_LAUNCHXL.obj (.const:SPI_config)
                  0001384c    00000018     CC1350_LAUNCHXL.obj (.const:displaySharpHWattrs)
                  00013864    00000018     driverlib.lib : rfc.obj (.const:rfc_defaultIrqAddr)
                  0001387c    00000018     release_pem3.oem3 (.const:ti_sysbios_knl_Event_Object__PARAMS__C)
                  00013894    00000014     CC1350_LAUNCHXL_fxns.obj (.const:$P$T1$2)
                  000138a8    00000014     CC1350_LAUNCHXL.obj (.const:GPIOCC26XX_config)
                  000138bc    00000014     CC1350_LAUNCHXL.obj (.const:displayUartHWAttrs)
                  000138d0    00000012     release_pem3.oem3 (.const:xdc_runtime_Startup_sfxnRts__A)
                  000138e2    00000010     scif.obj (.const:.string:pAuxIoIndexToMcuIocfgOffsetLut)
                  000138f2    00000010     display.aem3 : SharpGrLib.oem3 (.const:.string:referse_data)
                  00013902    00000002     --HOLE-- [fill = 0]
                  00013904    00000010     EasyLink.obj (.const:EasyLink_defaultParams)
                  00013914    00000010     scif.obj (.const:pScifTaskDataStructInfoLut)
                  00013924    00000010     urfc.obj (.const:ubRfMode)
                  00013934    0000000c     CC1350_LAUNCHXL.obj (.const:RFCC26XX_hwAttrs)
                  00013940    0000000c     CC1350_LAUNCHXL.obj (.const:UART_config)
                  0001394c    0000000c     release_pem3.oem3 (.const:xdc_runtime_Startup_firstFxns__A)
                  00013958    0000000b     CC1350_LAUNCHXL.obj (.const)
                  00013963    00000001     --HOLE-- [fill = 0]
                  00013964    00000008     CC1350_LAUNCHXL_fxns.obj (.const:$P$T0$1)
                  0001396c    00000008     CC1350_LAUNCHXL.obj (.const:PINCC26XX_hwAttrs)
                  00013974    00000008     CC1350_LAUNCHXL.obj (.const:UDMACC26XX_config)
                  0001397c    00000008     release_pem3.oem3 (.const:ti_sysbios_knl_Idle_funcList__A)
                  00013984    00000008     uble.obj (.const:ubProcessMsg)
                  0001398c    00000008     CC1350_LAUNCHXL.obj (.const:udmaHWAttrs)
                  00013994    00000005     urfc.obj (.const:ubTxPowerTable)
                  00013999    00000003     --HOLE-- [fill = 0]
                  0001399c    00000004     release_pem3.oem3 (.const:ti_sysbios_family_arm_cc26xx_Timer_funcHookCH1__C)
                  000139a0    00000004     release_pem3.oem3 (.const:ti_sysbios_family_arm_cc26xx_Timer_funcHookCH2__C)
                  000139a4    00000004     release_pem3.oem3 (.const:ti_sysbios_family_arm_m3_Hwi_swiDisable__C)
                  000139a8    00000004     release_pem3.oem3 (.const:ti_sysbios_family_arm_m3_Hwi_swiRestoreHwi__C)
                  000139ac    00000004     release_pem3.oem3 (.const:ti_sysbios_heaps_HeapMem_primaryHeapBaseAddr__C)
                  000139b0    00000004     release_pem3.oem3 (.const:ti_sysbios_heaps_HeapMem_primaryHeapEndAddr__C)
                  000139b4    00000004     release_pem3.oem3 (.const:ti_sysbios_knl_Clock_tickPeriod__C)
                  000139b8    00000004     release_pem3.oem3 (.const:ti_sysbios_knl_Clock_triggerClock__C)
                  000139bc    00000004     release_pem3.oem3 (.const:ti_sysbios_knl_Event_Instance_State_pendQ__O)
                  000139c0    00000004     release_pem3.oem3 (.const:ti_sysbios_knl_Task_Object__heap__C)
                  000139c4    00000004     release_pem3.oem3 (.const:xdc_runtime_SysCallback_putchFxn__C)
                  000139c8    00000004     release_pem3.oem3 (.const:xdc_runtime_SysCallback_readyFxn__C)
                  000139cc    00000004     release_pem3.oem3 (.const:xdc_runtime_System_extendFxn__C)

.cinit     0    000139d0    000005c0     
                  000139d0    00000443     (.cinit..data.load) [load image, compression = lzss]
                  00013e13    00000028     (.cinit..data:ti_sysbios_family_arm_m3_Hwi_Module__state__V.load) [load image, compression = lzss]
                  00013e3b    00000021     (.cinit..data:ti_sysbios_knl_Task_Module__state__V.load) [load image, compression = lzss]
                  00013e5c    0000001f     (.cinit..data:ti_sysbios_BIOS_Module__state__V.load) [load image, compression = lzss]
                  00013e7b    0000001e     (.cinit..data:ti_sysbios_knl_Clock_Module__state__V.load) [load image, compression = lzss]
                  00013e99    00000010     (.cinit..data:ti_sysbios_knl_Swi_Module__state__V.load) [load image, compression = lzss]
                  00013ea9    00000003     --HOLE-- [fill = 0]
                  00013eac    0000000c     (__TI_handler_table)
                  00013eb8    0000000b     (.cinit..data:ti_sysbios_family_arm_cc26xx_Timer_Module__state__V.load) [load image, compression = lzss]
                  00013ec3    0000000b     (.cinit..data:xdc_runtime_System_Module__state__V.load) [load image, compression = lzss]
                  00013ece    00000002     --HOLE-- [fill = 0]
                  00013ed0    00000008     (.cinit..TI.bound:dmaSpi0RxControlTableEntry.load) [load image, compression = zero_init]
                  00013ed8    00000008     (.cinit..TI.bound:dmaSpi0TxControlTableEntry.load) [load image, compression = zero_init]
                  00013ee0    00000008     (.cinit..TI.bound:dmaSpi1RxControlTableEntry.load) [load image, compression = zero_init]
                  00013ee8    00000008     (.cinit..TI.bound:dmaSpi1TxControlTableEntry.load) [load image, compression = zero_init]
                  00013ef0    00000008     (.cinit..bss.load) [load image, compression = zero_init]
                  00013ef8    00000008     (.cinit..data:xdc_runtime_Memory_Module__state__V.load) [load image, compression = lzss]
                  00013f00    00000007     (.cinit..data:ti_sysbios_family_arm_cc26xx_TimestampProvider_Module__state__V.load) [load image, compression = lzss]
                  00013f07    00000007     (.cinit..data:xdc_runtime_Startup_Module__state__V.load) [load image, compression = lzss]
                  00013f0e    00000002     --HOLE-- [fill = 0]
                  00013f10    00000080     (__TI_cinit_table)

.init_array 
*          0    00000000    00000000     UNINITIALIZED

.ccfg      0    0001ffa8    00000058     
                  0001ffa8    00000058     ccfg.obj (.ccfg:retain)

.vecs      0    20000000    000000c8     NOLOAD SECTION
                  20000000    000000c8     release_pem3.oem3 (.vecs)

.data:ti_sysbios_knl_Task_Module__state__V 
*          0    20000100    00000044     UNINITIALIZED
                  20000100    00000044     release_pem3.oem3 (.data:ti_sysbios_knl_Task_Module__state__V)

.data:ti_sysbios_family_arm_m3_Hwi_Module__state__V 
*          0    20000144    00000034     UNINITIALIZED
                  20000144    00000034     release_pem3.oem3 (.data:ti_sysbios_family_arm_m3_Hwi_Module__state__V)

.data:ti_sysbios_knl_Clock_Module__state__V 
*          0    20000178    0000002c     UNINITIALIZED
                  20000178    0000002c     release_pem3.oem3 (.data:ti_sysbios_knl_Clock_Module__state__V)

.data:ti_sysbios_BIOS_Module__state__V 
*          0    200001a4    00000024     UNINITIALIZED
                  200001a4    00000024     release_pem3.oem3 (.data:ti_sysbios_BIOS_Module__state__V)

.data:ti_sysbios_knl_Swi_Module__state__V 
*          0    200001c8    0000001c     UNINITIALIZED
                  200001c8    0000001c     release_pem3.oem3 (.data:ti_sysbios_knl_Swi_Module__state__V)

.data:ti_sysbios_family_arm_cc26xx_Timer_Module__state__V 
*          0    200001e4    00000008     UNINITIALIZED
                  200001e4    00000008     release_pem3.oem3 (.data:ti_sysbios_family_arm_cc26xx_Timer_Module__state__V)

.data:ti_sysbios_family_arm_cc26xx_TimestampProvider_Module__state__V 
*          0    200001ec    00000004     UNINITIALIZED
                  200001ec    00000004     release_pem3.oem3 (.data:ti_sysbios_family_arm_cc26xx_TimestampProvider_Module__state__V)

.data:xdc_runtime_Startup_Module__state__V 
*          0    200001f0    00000008     UNINITIALIZED
                  200001f0    00000008     release_pem3.oem3 (.data:xdc_runtime_Startup_Module__state__V)

.data:xdc_runtime_System_Module__state__V 
*          0    200001f8    00000008     UNINITIALIZED
                  200001f8    00000008     release_pem3.oem3 (.data:xdc_runtime_System_Module__state__V)

.data:xdc_runtime_Memory_Module__state__V 
*          0    20000200    00000004     UNINITIALIZED
                  20000200    00000004     release_pem3.oem3 (.data:xdc_runtime_Memory_Module__state__V)

.TI.bound:dmaSpi0RxControlTableEntry 
*          0    20000430    00000010     UNINITIALIZED
                  20000430    00000010     drivers_cc13x0.aem3 : SPICC26XXDMA.oem3 (.TI.bound:dmaSpi0RxControlTableEntry)

.TI.bound:dmaSpi0TxControlTableEntry 
*          0    20000440    00000010     UNINITIALIZED
                  20000440    00000010     drivers_cc13x0.aem3 : SPICC26XXDMA.oem3 (.TI.bound:dmaSpi0TxControlTableEntry)

.TI.bound:dmaSpi1RxControlTableEntry 
*          0    20000500    00000010     UNINITIALIZED
                  20000500    00000010     drivers_cc13x0.aem3 : SPICC26XXDMA.oem3 (.TI.bound:dmaSpi1RxControlTableEntry)

.TI.bound:dmaSpi1TxControlTableEntry 
*          0    20000510    00000010     UNINITIALIZED
                  20000510    00000010     drivers_cc13x0.aem3 : SPICC26XXDMA.oem3 (.TI.bound:dmaSpi1TxControlTableEntry)

.bss       0    20000520    00002366     UNINITIALIZED
                  20000520    00000800     CC1350_LAUNCHXL.obj (.bss:sharpDisplayBuf)
                  20000d20    00000400     NodeRadioTask.obj (.bss:nodeRadioTaskStack)
                  20001120    00000400     NodeTask.obj (.bss:nodeTaskStack)
                  20001520    00000380     rf_multiMode_cc13x0.aem3 : RFCC26XX_multiMode.oem3 (.bss:$O1$$)
                  200018a0    00000200     release_pem3.oem3 (.bss:taskStackSection)
                  20001aa0    000001c8     (.common:spiCC26XXDMAObjects)
                  20001c68    00000128     (.common:uartCC26XXObjects)
                  20001d90    000000c8     EasyLink.obj (.bss:rfObject)
                  20001e58    000000c8     urfi.obj (.bss:urObject)
                  20001f20    000000c8     (.common:ti_sysbios_family_arm_m3_Hwi_dispatchTable)
                  20001fe8    0000009c     NodeRadioTask.obj (.bss:currentRadioOperation)
                  20002084    00000098     EasyLink.obj (.bss:rxBuffer)
                  2000211c    00000098     EasyLink.obj (.bss:rxPacket$3)
                  200021b4    0000008c     EasyLink.obj (.bss:txBuffer)
                  20002240    00000080     CC1350_LAUNCHXL.obj (.bss:uartStringBuf)
                  200022c0    00000050     (.common:nodeRadioTask)
                  20002310    00000050     (.common:nodeTask)
                  20002360    00000048     (.common:urAdvCmd)
                  200023a8    00000044     (.common:displaySharpObject)
                  200023ec    0000003c     NodeRadioTask.obj (.bss:nodeRadioTaskParams)
                  20002428    0000003c     NodeTask.obj (.bss:nodeTaskParams)
                  20002464    00000030     EasyLink.obj (.bss:EasyLink_cmdPropRxAdv)
                  20002494    00000030     scif_framework.obj (.bss:scifData)
                  200024c4    00000028     EasyLink.obj (.bss:EasyLink_cmdPropRadioSetup)
                  200024ec    00000024     ull.obj (.bss:cAdvAboutTo)
                  20002510    00000024     ull.obj (.bss:cAdvInt)
                  20002534    00000024     (.common:cBcastDuty)
                  20002558    00000024     (.common:fastReportTimeoutClock)
                  2000257c    00000020     (.common:uartCC26XXRingBuffer)
                  2000259c    00000020     (.common:udmaObjects)
                  200025bc    0000001c     EasyLink.obj (.bss:EasyLink_cmdPropCs)
                  200025d8    0000001c     NodeTask.obj (.bss)
                  200025f4    0000001c     scif_framework.obj (.bss:hwiCtrlReady)
                  20002610    0000001c     scif_framework.obj (.bss:hwiTaskAlert)
                  2000262c    0000001c     EasyLink.obj (.bss:rfParams)
                  20002648    0000001c     scif_framework.obj (.bss:semCtrlReady)
                  20002664    0000001c     urfi.obj (.bss:urParams)
                  20002680    0000001c     (.common:radioAccessSem)
                  2000269c    0000001c     (.common:radioResultSem)
                  200026b8    00000018     EasyLink.obj (.bss)
                  200026d0    00000018     EasyLink.obj (.bss:EasyLink_cmdFs)
                  200026e8    00000018     EasyLink.obj (.bss:EasyLink_cmdPropTx)
                  20002700    00000018     BleAdv.obj (.bss:bleAdv_params)
                  20002718    00000018     display.aem3 : SharpGrLib.oem3 (.bss:spiTrans)
                  20002730    00000014     NodeRadioTask.obj (.bss)
                  20002744    00000014     rf_multiMode_cc13x0.aem3 : RFCC26XX_multiMode.oem3 (.bss:RF_ratSyncCmd)
                  20002758    00000014     driverlib.lib : osc.obj (.bss:oscHfGlobals)
                  2000276c    00000014     (.common:nodeEvent)
                  20002780    00000014     (.common:radioOperationEvent)
                  20002794    00000010     EasyLink.obj (.bss:EasyLink_RF_prop)
                  200027a4    00000010     EasyLink.obj (.bss:EasyLink_params)
                  200027b4    00000010     NodeRadioTask.obj (.bss:dmSensorPacket)
                  200027c4    0000000c     BleAdv.obj (.bss:blePinState)
                  200027d0    0000000c     NodeTask.obj (.bss:buttonPinState)
                  200027dc    0000000c     NodeTask.obj (.bss:ledPinState)
                  200027e8    0000000c     uble.obj (.bss:qEvtMsg)
                  200027f4    0000000c     EasyLink.obj (.bss:rxStatistics)
                  20002800    0000000c     ugap.obj (.bss:ugbAppCBs)
                  2000280c    0000000c     (.common:displayUartObject)
                  20002818    00000008     dpl_cc13x0.aem3 : PowerCC26XX_tirtos.oem3 (.bss:$O1$$)
                  20002820    00000008     EasyLink.obj (.bss:dataQueue)
                  20002828    00000008     display.aem3 : SharpGrLib.oem3 (.bss)
                  20002830    00000008     driverlib.lib : sys_ctrl.obj (.bss:powerQualGlobals)
                  20002838    00000008     BleAdv.obj (.bss:uidInstanceId)
                  20002840    00000008     ull.obj (.bss)
                  20002848    00000008     (.common:propAdvFrame)
                  20002850    00000008     (.common:tlmAdvFrame)
                  20002858    00000008     (.common:ubBDAddr)
                  20002860    00000008     (.common:uidAdvFrame)
                  20002868    00000008     (.common:urlAdvFrame)
                  20002870    00000004     SceAdc.obj (.bss)
                  20002874    00000004     uble.obj (.bss)
                  20002878    00000004     (.common:ClockP_tickPeriod)
                  2000287c    00000004     (.common:blePinHandle)
                  20002880    00000002     drivers_cc13x0.aem3 : UARTCC26XX.oem3 (.bss)
                  20002882    00000002     ugap.obj (.bss)
                  20002884    00000001     rf_multiMode_cc13x0.aem3 : RFCC26XX_multiMode.oem3 (.bss)
                  20002885    00000001     (.common:driverlib_release_0_52354)

.priheap   0    20002888    00001000     UNINITIALIZED
                  20002888    00001000     --HOLE--

.data      0    20003888    00000cb0     UNINITIALIZED
                  20003888    00000114     drivers_cc13x0.aem3 : PINCC26XX.oem3 (.data:$O1$$)
                  2000399c    00000114                         : PowerCC26XX.oem3 (.data:PowerCC26XX_module)
                  20003ab0    00000088     rom_sysbios.aem3 : rom_sysbios.obj (.data:$O1$$)
                  20003b38    00000064     smartrf_settings_predefined.obj (.data:pOverrides_sl_lr)
                  20003b9c    00000060     smartrf_settings_predefined.obj (.data:pOverrides_hsm)
                  20003bfc    0000005c     smartrf_settings_predefined.obj (.data:pOverrides_ook)
                  20003c58    00000058     smartrf_settings_predefined.obj (.data:pOverrides_lrm)
                  20003cb0    00000054     drivers_cc13x0.aem3 : GPIOCC26XX.oem3 (.data:$O1$$)
                  20003d04    00000054     smartrf_settings.obj (.data:pOverrides)
                  20003d58    00000054     smartrf_settings_predefined.obj (.data:pOverrides_fsk)
                  20003dac    00000054     release_pem3.oem3 (.data:ti_sysbios_gates_GateMutex_Object__table__V)
                  20003e00    00000054     urfc.obj (.data:ubRfRegOverride)
                  20003e54    0000004c     release_pem3.oem3 (.data:ti_sysbios_knl_Task_Object__table__V)
                  20003ea0    00000048     release_pem3.oem3 (.data:ti_sysbios_family_arm_cc26xx_Timer_Object__table__V)
                  20003ee8    00000044     smartrf_settings_predefined.obj (.data)
                  20003f2c    00000038     BleAdv.obj (.data:eddystoneURLEncoding)
                  20003f64    00000030     smartrf_settings_predefined.obj (.data:RF_cmdPropRxAdv_preDef)
                  20003f94    00000030     release_pem3.oem3 (.data:ti_sysbios_knl_Swi_Module_State_0_readyQ__A)
                  20003fc4    00000030     release_pem3.oem3 (.data:ti_sysbios_knl_Swi_Object__table__V)
                  20003ff4    00000030     release_pem3.oem3 (.data:ti_sysbios_knl_Task_Module_State_0_readyQ__A)
                  20004024    0000002c     CC1350_LAUNCHXL.obj (.data:gpioPinConfigs)
                  20004050    00000028     smartrf_settings.obj (.data:RF_cmdPropRadioDivSetup)
                  20004078    00000028     smartrf_settings_predefined.obj (.data:RF_cmdPropRadioDivSetup_fsk)
                  200040a0    00000028     smartrf_settings_predefined.obj (.data:RF_cmdPropRadioDivSetup_lrm)
                  200040c8    00000028     smartrf_settings_predefined.obj (.data:RF_cmdPropRadioDivSetup_ook)
                  200040f0    00000028     smartrf_settings_predefined.obj (.data:RF_cmdPropRadioDivSetup_sl_lr)
                  20004118    00000028     urfi.obj (.data:urSetup)
                  20004140    00000026     uble.obj (.data:ubParams)
                  20004166    00000002     BleAdv.obj (.data)
                  20004168    00000024     smartrf_settings_predefined.obj (.data:RF_cmdRxHS)
                  2000418c    00000020     release_pem3.oem3 (.data:ti_sysbios_knl_Clock_Object__table__V)
                  200041ac    00000020     urfi.obj (.data:urAdvParams)
                  200041cc    00000020     release_pem3.oem3 (.data:xdc_runtime_Error_IgnoreBlock)
                  200041ec    0000001f     BleAdv.obj (.data:tlmAdvData)
                  2000420b    0000001f     BleAdv.obj (.data:uidAdvData)
                  2000422a    0000001f     BleAdv.obj (.data:urlAdvData)
                  20004249    00000003     NodeTask.obj (.data)
                  2000424c    0000001c     EasyLink.obj (.data:txTestCmd$4)
                  20004268    00000018     smartrf_settings.obj (.data:RF_cmdFs)
                  20004280    00000018     smartrf_settings_predefined.obj (.data:RF_cmdFs_preDef)
                  20004298    00000018     smartrf_settings.obj (.data:RF_cmdPropTx)
                  200042b0    00000018     smartrf_settings_predefined.obj (.data:RF_cmdPropTx_preDef)
                  200042c8    00000018     smartrf_settings_predefined.obj (.data:RF_cmdRadioSetup_hsm)
                  200042e0    00000018     EasyLink.obj (.data:addrFilterTable)
                  200042f8    00000018     EasyLink.obj (.data:rxTestCmd$5)
                  20004310    00000018     smartrf_settings_predefined.obj (.data:shapeovr)
                  20004328    00000018     release_pem3.oem3 (.data:ti_sysbios_family_arm_m3_Hwi_Object__table__V)
                  20004340    00000018     release_pem3.oem3 (.data:ti_sysbios_heaps_HeapMem_Object__table__V)
                  20004358    00000014     smartrf_settings_predefined.obj (.data:RF_cmdTxHS)
                  2000436c    00000014     NodeTask.obj (.data:urls)
                  20004380    00000013     EasyLink.obj (.data)
                  20004393    00000012     BleAdv.obj (.data:defaultUrl)
                  200043a5    00000002     display.aem3 : SharpGrLib.oem3 (.data)
                  200043a7    00000001     NodeRadioTask.obj (.data)
                  200043a8    00000010     smartrf_settings.obj (.data:RF_prop)
                  200043b8    00000010     smartrf_settings_predefined.obj (.data:RF_prop_fsk)
                  200043c8    00000010     smartrf_settings_predefined.obj (.data:RF_prop_hsm)
                  200043d8    00000010     smartrf_settings_predefined.obj (.data:RF_prop_lrm)
                  200043e8    00000010     smartrf_settings_predefined.obj (.data:RF_prop_ook)
                  200043f8    00000010     smartrf_settings_predefined.obj (.data:RF_prop_sl_lr)
                  20004408    00000010     BleAdv.obj (.data:blePinTable)
                  20004418    00000010     BleAdv.obj (.data:eddystoneURLPrefix)
                  20004428    00000010     CC1350_LAUNCHXL.obj (.data:gpioCallbackFunctions)
                  20004438    0000000d     ull.obj (.data)
                  20004445    00000001     drivers_cc13x0.aem3 : SPI.oem3 (.data)
                  20004446    00000002     release_pem3.oem3 (.data:ti_sysbios_family_arm_m3_Hwi_Module_State_0_excActive__A)
                  20004448    0000000c     BleAdv.obj (.data:advStats)
                  20004454    0000000c     NodeTask.obj (.data:bleAdvStats)
                  20004460    0000000c     NodeTask.obj (.data:buttonPinTable)
                  2000446c    0000000c     scif_framework.obj (.data)
                  20004478    0000000c     uble.obj (.data)
                  20004484    0000000c     ugap.obj (.data)
                  20004490    0000000a     BleAdv.obj (.data:propAdvertisement)
                  2000449a    0000000a     BleAdv.obj (.data:uidNameSpace)
                  200044a4    00000008     rtsv7M3_T_le_eabi.lib : _lock.obj (.data:$O1$$)
                  200044ac    00000008     NodeTask.obj (.data:pinTable)
                  200044b4    00000008     release_pem3.oem3 (.data:ti_sysbios_family_arm_m3_Hwi_Module__root__V)
                  200044bc    00000008     release_pem3.oem3 (.data:ti_sysbios_gates_GateHwi_Module__root__V)
                  200044c4    00000008     release_pem3.oem3 (.data:ti_sysbios_gates_GateMutex_Module__root__V)
                  200044cc    00000008     release_pem3.oem3 (.data:ti_sysbios_hal_Hwi_Module__root__V)
                  200044d4    00000008     release_pem3.oem3 (.data:ti_sysbios_heaps_HeapMem_Module__root__V)
                  200044dc    00000008     release_pem3.oem3 (.data:ti_sysbios_knl_Clock_Module__root__V)
                  200044e4    00000008     release_pem3.oem3 (.data:ti_sysbios_knl_Event_Module__root__V)
                  200044ec    00000008     release_pem3.oem3 (.data:ti_sysbios_knl_Mailbox_Module__root__V)
                  200044f4    00000008     release_pem3.oem3 (.data:ti_sysbios_knl_Queue_Module__root__V)
                  200044fc    00000008     release_pem3.oem3 (.data:ti_sysbios_knl_Semaphore_Module__root__V)
                  20004504    00000008     release_pem3.oem3 (.data:ti_sysbios_knl_Swi_Module__root__V)
                  2000450c    00000008     release_pem3.oem3 (.data:ti_sysbios_knl_Task_Module__root__V)
                  20004514    00000008     release_pem3.oem3 (.data:xdc_runtime_System_Module_State_0_atexitHandlers__A)
                  2000451c    00000006     urfi.obj (.data)
                  20004522    00000001     drivers_cc13x0.aem3 : UART.oem3 (.data)
                  20004523    00000001     --HOLE--
                  20004524    00000004     rtsv7M3_T_le_eabi.lib : rand.obj (.data)
                  20004528    00000004                           : stkdepth_vars.obj (.data)
                  2000452c    00000004     release_pem3.oem3 (.data:ti_sysbios_family_arm_m3_Hwi_Module_State_0_excContext__A)
                  20004530    00000004     release_pem3.oem3 (.data:ti_sysbios_family_arm_m3_Hwi_Module_State_0_excStack__A)
                  20004534    00000004     release_pem3.oem3 (.data:ti_sysbios_knl_Task_Module_State_0_idleTask__A)

.stack     0    20004c00    00000400     UNINITIALIZED
                  20004c00    00000400     --HOLE--

.bootVecs 
*          0    00000000    00000008     DSECT
                  00000000    00000008     boot.aem3 : boot.oem3 (.bootVecs)

xdc.meta   0    00000000    000000fe     COPY SECTION
                  00000000    000000fe     release_pem3.oem3 (xdc.meta)

xdc.noload 
*          0    00000000    00000000     COPY SECTION

MODULE SUMMARY

       Module                            code    ro data   rw data
       ------                            ----    -------   -------
    .\
       CC1350_LAUNCHXL.obj               28      351       3132   
       NodeRadioTask.obj                 1852    0         1433   
       NodeTask.obj                      1682    134       1327   
       CC1350_LAUNCHXL_fxns.obj          516     28        0      
       SceAdc.obj                        204     0         4      
       ccfg.obj                          0       88        0      
       rfWsnNode.obj                     26      0         0      
    +--+---------------------------------+-------+---------+---------+
       Total:                            4308    601       5896   
                                                                  
    .\ble_adv\
       BleAdv.obj                        1844    126       313    
       urfc.obj                          462     1737      84     
       ull.obj                           1758    0         93     
       urfi.obj                          788     0         378    
       uble.obj                          934     36        74     
       ugap.obj                          950     0         62     
    +--+---------------------------------+-------+---------+---------+
       Total:                            6736    1899      1004   
                                                                  
    .\easylink\
       EasyLink.obj                      3812    16        1007   
    +--+---------------------------------+-------+---------+---------+
       Total:                            3812    16        1007   
                                                                  
    .\sce\
       scif_framework.obj                1486    0         144    
       scif.obj                          164     508       0      
    +--+---------------------------------+-------+---------+---------+
       Total:                            1650    508       144    
                                                                  
    .\smartrf_settings\
       smartrf_settings_predefined.obj   2856    15952     968    
       smartrf_settings.obj              478     2700      188    
    +--+---------------------------------+-------+---------+---------+
       Total:                            3334    18652     1156   
                                                                  
    C:\CCSWorkspace\ECG603\tirtos_builds_CC1350_LAUNCHXL_release_ccs\Debug\configPkg\package\cfg\
       release_pem3.oem3                 904     1567      1778   
    +--+---------------------------------+-------+---------+---------+
       Total:                            904     1567      1778   
                                                                  
    C:/ti/simplelink_cc13x0_sdk_2_30_00_20/kernel/tirtos/packages/ti/dpl/lib/dpl_cc13x0.aem3
       PowerCC26XX_tirtos.oem3           296     0         8      
       ClockP_tirtos.oem3                150     0         4      
       SemaphoreP_tirtos.oem3            126     0         0      
       HwiP_tirtos.oem3                  102     0         0      
       SwiP_tirtos.oem3                  100     0         0      
       SystemP_tirtos.oem3               4       0         0      
    +--+---------------------------------+-------+---------+---------+
       Total:                            778     0         12     
                                                                  
    C:/ti/simplelink_cc13x0_sdk_2_30_00_20/source/ti/devices/cc13x0/driverlib/bin/ccs/driverlib.lib
       setup_rom.obj                     1456    0         0      
       sys_ctrl.obj                      760     0         8      
       rfc.obj                           694     24        0      
       osc.obj                           388     0         20     
       setup.obj                         364     0         0      
       chipinfo.obj                      182     0         0      
       aon_rtc.obj                       44      0         0      
       ddi.obj                           44      0         0      
       adi.obj                           40      0         0      
       aon_batmon.obj                    40      0         0      
       cpu.obj                           30      0         0      
       vims.obj                          14      0         0      
       driverlib_release.obj             0       0         1      
    +--+---------------------------------+-------+---------+---------+
       Total:                            4056    24        29     
                                                                  
    C:/ti/simplelink_cc13x0_sdk_2_30_00_20/source/ti/display/lib/display.aem3
       SharpGrLib.oem3                   1112    48        34     
       DisplaySharp.oem3                 772     32        0      
       DisplayUart.oem3                  184     32        0      
       Display.oem3                      192     1         0      
    +--+---------------------------------+-------+---------+---------+
       Total:                            2260    113       34     
                                                                  
    C:/ti/simplelink_cc13x0_sdk_2_30_00_20/source/ti/drivers/lib/drivers_cc13x0.aem3
       UARTCC26XX.oem3                   2700    108       2      
       SPICC26XXDMA.oem3                 2412    80        64     
       PowerCC26XX.oem3                  2108    76        276    
       PINCC26XX.oem3                    1582    0         276    
       PowerCC26XX_calibrateRCOSC.oem3   1380    0         0      
       GPIOCC26XX.oem3                   788     64        84     
       UART.oem3                         182     36        1      
       SPI.oem3                          168     32        1      
       List.oem3                         192     0         0      
       UDMACC26XX.oem3                   156     0         0      
       RingBuf.oem3                      148     0         0      
    +--+---------------------------------+-------+---------+---------+
       Total:                            11816   396       704    
                                                                  
    C:/ti/simplelink_cc13x0_sdk_2_30_00_20/source/ti/drivers/rf/lib/rf_multiMode_cc13x0.aem3
       RFCC26XX_multiMode.oem3           8046    28        917    
    +--+---------------------------------+-------+---------+---------+
       Total:                            8046    28        917    
                                                                  
    C:/ti/simplelink_cc13x0_sdk_2_30_00_20/source/ti/grlib/lib/ccs/m3/grlib.a
       string.obj                        1214    0         0      
       fontfixed6x8.obj                  0       960       0      
       rectangle.obj                     274     0         0      
       display.obj                       194     0         0      
       context.obj                       188     0         0      
       line.obj                          156     0         0      
    +--+---------------------------------+-------+---------+---------+
       Total:                            2026    960       0      
                                                                  
    C:\CCSWorkspace\ECG603\tirtos_builds_CC1350_LAUNCHXL_release_ccs\src\sysbios\rom_sysbios.aem3
       rom_sysbios.obj                   2621    0         136    
    +--+---------------------------------+-------+---------+---------+
       Total:                            2621    0         136    
                                                                  
    C:\ti\ccsv7\tools\compiler\ti-cgt-arm_16.9.9.LTS\lib\rtsv7M3_T_le_eabi.lib
       ull_div_t2.obj                    500     0         0      
       fd_add_t2.obj                     438     0         0      
       fd_cmp_t2.obj                     268     0         0      
       fd_mul_t2.obj                     252     0         0      
       memcpy_t2.obj                     156     0         0      
       memset_t2.obj                     122     0         0      
       copy_decompress_lzss.obj          104     0         0      
       rand.obj                          76      0         4      
       cpy_tbl.obj                       76      0         0      
       fd_toi_t2.obj                     72      0         0      
       fd_tou_t2.obj                     68      0         0      
       u_divt2.obj                       64      0         0      
       fs_tod_t2.obj                     56      0         0      
       strncpy.obj                       54      0         0      
       i_tofd_t2.obj                     46      0         0      
       strncmp.obj                       40      0         0      
       _lock.obj                         20      0         8      
       args_main.obj                     24      0         0      
       ll_mul_t2.obj                     24      0         0      
       strlen.obj                        20      0         0      
       copy_decompress_none.obj          14      0         0      
       copy_zero_init.obj                12      0         0      
       stkdepth_vars.obj                 0       0         4      
       i_div0.obj                        2       0         0      
    +--+---------------------------------+-------+---------+---------+
       Total:                            2508    0         16     
                                                                  
    C:\ti\simplelink_cc13x0_sdk_2_30_00_20\kernel\tirtos\packages\ti\targets\arm\rtsarm\lib\auto_init.aem3
       auto_init.oem3                    160     0         0      
    +--+---------------------------------+-------+---------+---------+
       Total:                            160     0         0      
                                                                  
    C:\ti\simplelink_cc13x0_sdk_2_30_00_20\kernel\tirtos\packages\ti\targets\arm\rtsarm\lib\boot.aem3
       boot.oem3                         68      0         0      
    +--+---------------------------------+-------+---------+---------+
       Total:                            68      0         0      
                                                                  
       Stack:                            0       0         1024   
       Linker Generated:                 560     1465      0      
    +--+---------------------------------+-------+---------+---------+
       Grand Total:                      55643   26229     13857  


LINKER GENERATED COPY TABLES

__TI_cinit_table @ 00013f10 records: 16, size/record: 8, table size: 128
	.data: load addr=000139d0, load size=00000443 bytes, run addr=20003888, run size=00000cb0 bytes, compression=lzss
	.data:ti_sysbios_family_arm_m3_Hwi_Module__state__V: load addr=00013e13, load size=00000028 bytes, run addr=20000144, run size=00000034 bytes, compression=lzss
	.data:ti_sysbios_knl_Task_Module__state__V: load addr=00013e3b, load size=00000021 bytes, run addr=20000100, run size=00000044 bytes, compression=lzss
	.data:ti_sysbios_BIOS_Module__state__V: load addr=00013e5c, load size=0000001f bytes, run addr=200001a4, run size=00000024 bytes, compression=lzss
	.data:ti_sysbios_knl_Clock_Module__state__V: load addr=00013e7b, load size=0000001e bytes, run addr=20000178, run size=0000002c bytes, compression=lzss
	.data:ti_sysbios_knl_Swi_Module__state__V: load addr=00013e99, load size=00000010 bytes, run addr=200001c8, run size=0000001c bytes, compression=lzss
	.data:ti_sysbios_family_arm_cc26xx_Timer_Module__state__V: load addr=00013eb8, load size=0000000b bytes, run addr=200001e4, run size=00000008 bytes, compression=lzss
	.data:xdc_runtime_System_Module__state__V: load addr=00013ec3, load size=0000000b bytes, run addr=200001f8, run size=00000008 bytes, compression=lzss
	.TI.bound:dmaSpi0RxControlTableEntry: load addr=00013ed0, load size=00000008 bytes, run addr=20000430, run size=00000010 bytes, compression=zero_init
	.TI.bound:dmaSpi0TxControlTableEntry: load addr=00013ed8, load size=00000008 bytes, run addr=20000440, run size=00000010 bytes, compression=zero_init
	.TI.bound:dmaSpi1RxControlTableEntry: load addr=00013ee0, load size=00000008 bytes, run addr=20000500, run size=00000010 bytes, compression=zero_init
	.TI.bound:dmaSpi1TxControlTableEntry: load addr=00013ee8, load size=00000008 bytes, run addr=20000510, run size=00000010 bytes, compression=zero_init
	.bss: load addr=00013ef0, load size=00000008 bytes, run addr=20000520, run size=00002366 bytes, compression=zero_init
	.data:xdc_runtime_Memory_Module__state__V: load addr=00013ef8, load size=00000008 bytes, run addr=20000200, run size=00000004 bytes, compression=lzss
	.data:ti_sysbios_family_arm_cc26xx_TimestampProvider_Module__state__V: load addr=00013f00, load size=00000007 bytes, run addr=200001ec, run size=00000004 bytes, compression=lzss
	.data:xdc_runtime_Startup_Module__state__V: load addr=00013f07, load size=00000007 bytes, run addr=200001f0, run size=00000008 bytes, compression=lzss


LINKER GENERATED HANDLER TABLE

__TI_handler_table @ 00013eac records: 3, size/record: 4, table size: 12
	index: 0, handler: __TI_decompress_lzss
	index: 1, handler: __TI_decompress_none
	index: 2, handler: __TI_zero_init


FAR CALL TRAMPOLINES

callee name               trampoline name
   callee addr  tramp addr   call addr  call info
--------------  -----------  ---------  ----------------
ti_sysbios_knl_Semaphore_pend__E  $Tramp$TT$L$PI$$ti_sysbios_knl_Semaphore_pend__E
   1001a001     00000588     00000066   EasyLink.obj (.text:EasyLink_init)
                             000022fa   EasyLink.obj (.text:enableTestMode)
                             00003350   EasyLink.obj (.text:EasyLink_transmit)
                             00003516   EasyLink.obj (.text:EasyLink_receiveAsync)
                             00006f58   EasyLink.obj (.text:EasyLink_enableRxAddrFilter)
                             0000a87e   NodeRadioTask.obj (.text:NodeRadioTask_sendAdcData)
                             0000a89c   NodeRadioTask.obj (.text:NodeRadioTask_sendAdcData)
                             0000d744   dpl_cc13x0.aem3 : SemaphoreP_tirtos.oem3 (.text:SemaphoreP_pend)
ti_sysbios_knl_Semaphore_post__E  $Tramp$TT$L$PI$$ti_sysbios_knl_Semaphore_post__E
   1001ac41     00000590     0000043a   EasyLink.obj (.text:EasyLink_init)
                             000004fc   EasyLink.obj (.text:EasyLink_init)
                             00000506   EasyLink.obj (.text:EasyLink_init)
                             000034b0   EasyLink.obj (.text:EasyLink_transmit)
                             00003654   EasyLink.obj (.text:EasyLink_receiveAsync)
                             000040c6   EasyLink.obj (.text:rxDoneCallback)
                             000041ae   EasyLink.obj (.text:rxDoneCallback)
                             00006fe6   EasyLink.obj (.text:EasyLink_enableRxAddrFilter)
                             0000a8ac   NodeRadioTask.obj (.text:NodeRadioTask_sendAdcData)
                             0000c6c4   EasyLink.obj (.text:asyncCmdCallback)
                             0000c6ea   scif_framework.obj (.text:osalIndicateCtrlReady)
                             0000cd2e   NodeRadioTask.obj (.text:returnRadioOperationStatus)
                             0000dc36   dpl_cc13x0.aem3 : SemaphoreP_tirtos.oem3 (.text:SemaphoreP_post)
ti_sysbios_knl_Semaphore_create  $Tramp$TT$L$PI$$ti_sysbios_knl_Semaphore_create
   1001b5a9     00000598     000004e2   EasyLink.obj (.text:EasyLink_init)
                             0000c678   dpl_cc13x0.aem3 : SemaphoreP_tirtos.oem3 (.text:SemaphoreP_createBinary)
ti_sysbios_family_arm_m3_Hwi_restoreFxn__E  $Tramp$TT$L$PI$$ti_sysbios_family_arm_m3_Hwi_restoreFxn__E
   1001c215     00000da8     00000c8e   rf_multiMode_cc13x0.aem3 : RFCC26XX_multiMode.oem3 (.text:RF_fsmActiveState)
                             00000cea                            : RFCC26XX_multiMode.oem3 (.text:RF_fsmActiveState)
                             00000d50                            : RFCC26XX_multiMode.oem3 (.text:RF_fsmActiveState)
                             00000d6a                            : RFCC26XX_multiMode.oem3 (.text:RF_fsmActiveState)
                             00001d24   ull.obj (.text:ull_advSchedule)
                             00002072   rf_multiMode_cc13x0.aem3 : RFCC26XX_multiMode.oem3 (.text:RF_scheduleCmd)
                             00002976   drivers_cc13x0.aem3 : SPICC26XXDMA.oem3 (.text:SPICC26XXDMA_transfer)
                             0000299c                       : SPICC26XXDMA.oem3 (.text:SPICC26XXDMA_transfer)
                             000029e4                       : SPICC26XXDMA.oem3 (.text:SPICC26XXDMA_transfer)
                             00002ada                       : SPICC26XXDMA.oem3 (.text:SPICC26XXDMA_transfer)
                             0000318a   rf_multiMode_cc13x0.aem3 : RFCC26XX_multiMode.oem3 (.text:RF_open)
                             00003266                            : RFCC26XX_multiMode.oem3 (.text:RF_open)
                             0000481e   drivers_cc13x0.aem3 : UARTCC26XX.oem3 (.text:UARTCC26XX_open)
                             0000482a                       : UARTCC26XX.oem3 (.text:UARTCC26XX_open)
                             000048aa                       : UARTCC26XX.oem3 (.text:UARTCC26XX_open)
                             00004f62   rf_multiMode_cc13x0.aem3 : RFCC26XX_multiMode.oem3 (.text:RF_radioOpDoneCb)
                             00005164   drivers_cc13x0.aem3 : UARTCC26XX.oem3 (.text:UARTCC26XX_read)
                             000051a4                       : UARTCC26XX.oem3 (.text:UARTCC26XX_read)
                             000051c0                       : UARTCC26XX.oem3 (.text:UARTCC26XX_read)
                             0000520e                       : UARTCC26XX.oem3 (.text:UARTCC26XX_read)
                             00005238                       : UARTCC26XX.oem3 (.text:UARTCC26XX_read)
                             00005248                       : UARTCC26XX.oem3 (.text:UARTCC26XX_read)
                             00005368   rf_multiMode_cc13x0.aem3 : RFCC26XX_multiMode.oem3 (.text:RF_abortCmd)
                             00005a86   drivers_cc13x0.aem3 : SPICC26XXDMA.oem3 (.text:SPICC26XXDMA_open)
                             00005a96                       : SPICC26XXDMA.oem3 (.text:SPICC26XXDMA_open)
                             00005f4c   rf_multiMode_cc13x0.aem3 : RFCC26XX_multiMode.oem3 (.text:RF_close)
                             00005fae                            : RFCC26XX_multiMode.oem3 (.text:RF_close)
                             0000632c   drivers_cc13x0.aem3 : UARTCC26XX.oem3 (.text:UARTCC26XX_write)
                             00006348                       : UARTCC26XX.oem3 (.text:UARTCC26XX_write)
                             000063e4                       : UARTCC26XX.oem3 (.text:UARTCC26XX_write)
                             00006462                       : GPIOCC26XX.oem3 (.text:GPIO_setConfig)
                             00006492                       : GPIOCC26XX.oem3 (.text:GPIO_setConfig)
                             000067d6   rf_multiMode_cc13x0.aem3 : RFCC26XX_multiMode.oem3 (.text:RF_getInfo)
                             00006d80   drivers_cc13x0.aem3 : SPICC26XXDMA.oem3 (.text:SPICC26XXDMA_transferCancel)
                             00006df0                       : SPICC26XXDMA.oem3 (.text:SPICC26XXDMA_transferCancel)
                             00006e3c                       : SPICC26XXDMA.oem3 (.text:SPICC26XXDMA_transferCancel)
                             00007360                       : PINCC26XX.oem3 (.text:PINCC26XX_setIoCfg)
                             00007724   rf_multiMode_cc13x0.aem3 : RFCC26XX_multiMode.oem3 (.text:RF_swiHw)
                             00007c64   drivers_cc13x0.aem3 : GPIOCC26XX.oem3 (.text:GPIO_init)
                             00007c6a                       : GPIOCC26XX.oem3 (.text:GPIO_init)
                             00007daa                       : PowerCC26XX.oem3 (.text:Power_releaseDependency)
                             00007f18                       : PowerCC26XX.oem3 (.text:Power_setDependency)
                             00007fd4   rf_multiMode_cc13x0.aem3 : RFCC26XX_multiMode.oem3 (.text:RF_control)
                             00008476                            : RFCC26XX_multiMode.oem3 (.text:RF_postCmd)
                             000085b2   drivers_cc13x0.aem3 : PowerCC26XX.oem3 (.text:switchXOSCHFclockFunc)
                             00008910                       : UARTCC26XX.oem3 (.text:UARTCC26XX_writeCancel)
                             00008926                       : UARTCC26XX.oem3 (.text:UARTCC26XX_writeCancel)
                             0000896c                       : UARTCC26XX.oem3 (.text:UARTCC26XX_writeCancel)
                             00008c1e                       : UARTCC26XX.oem3 (.text:UARTCC26XX_swiIntFxn)
                             00008c4e                       : UARTCC26XX.oem3 (.text:UARTCC26XX_swiIntFxn)
                             0000920c                       : SPICC26XXDMA.oem3 (.text:SPICC26XXDMA_swiFxn)
                             00009538   rf_multiMode_cc13x0.aem3 : RFCC26XX_multiMode.oem3 (.text:RF_issueRadioFreeCb)
                             00009550                            : RFCC26XX_multiMode.oem3 (.text:RF_issueRadioFreeCb)
                             00009a56                            : RFCC26XX_multiMode.oem3 (.text:RF_ratFreeChannel)
                             00009bfa   uble.obj (.text:uble_buildAndPostEvt)
                             00009c04   uble.obj (.text:uble_buildAndPostEvt)
                             00009f22   drivers_cc13x0.aem3 : PowerCC26XX_calibrateRCOSC.oem3 (.text:PowerCC26XX_initiateCalibration)
                             0000a212                       : UARTCC26XX.oem3 (.text:UARTCC26XX_readCancel)
                             0000a21c                       : UARTCC26XX.oem3 (.text:UARTCC26XX_readCancel)
                             0000a232                       : UARTCC26XX.oem3 (.text:UARTCC26XX_readCancel)
                             0000a680   rf_multiMode_cc13x0.aem3 : RFCC26XX_multiMode.oem3 (.text:RF_dispatchNextEvent)
                             0000a6a4                            : RFCC26XX_multiMode.oem3 (.text:RF_getCurrentTime)
                             0000a6da                            : RFCC26XX_multiMode.oem3 (.text:RF_getCurrentTime)
                             0000a738   drivers_cc13x0.aem3 : UARTCC26XX.oem3 (.text:UARTCC26XX_control)
                             0000a9cc                       : UDMACC26XX.oem3 (.text:UDMACC26XX_open)
                             0000ad46                       : GPIOCC26XX.oem3 (.text:GPIO_write)
                             0000b152                       : GPIOCC26XX.oem3 (.text:GPIO_enableInt)
                             0000b316                       : PINCC26XX.oem3 (.text:PIN_setOutputEnable)
                             0000b3e6   uble.obj (.text:uble_processMsg)
                             0000b52e   drivers_cc13x0.aem3 : RingBuf.oem3 (.text:RingBuf_put)
                             0000b558                       : RingBuf.oem3 (.text:RingBuf_put)
                             0000b7e2                       : SPI.oem3 (.text:SPI_init)
                             0000b862                       : UART.oem3 (.text:UART_init)
                             0000b9de                       : RingBuf.oem3 (.text:RingBuf_get)
                             0000b9e6                       : RingBuf.oem3 (.text:RingBuf_get)
                             0000bacc                       : PowerCC26XX.oem3 (.text:PowerCC26XX_isStableXOSC_HF)
                             0000bdbe                       : UDMACC26XX.oem3 (.text:UDMACC26XX_close)
                             0000bf8e                       : PowerCC26XX.oem3 (.text:Power_releaseConstraint)
                             0000bfc2   rf_multiMode_cc13x0.aem3 : RFCC26XX_multiMode.oem3 (.text:RF_powerConstraintRelease)
                             0000bff8                            : RFCC26XX_multiMode.oem3 (.text:RF_runDirectImmediateCmd)
                             0000c288   drivers_cc13x0.aem3 : PowerCC26XX.oem3 (.text:Power_setConstraint)
                             0000c2bc   rf_multiMode_cc13x0.aem3 : RFCC26XX_multiMode.oem3 (.text:RF_queueEnd)
                             0000c718   scif_framework.obj (.text:osalLockCtrlTaskNbl)
                             0000c728   scif_framework.obj (.text:osalLockCtrlTaskNbl)
                             0000c9e2   drivers_cc13x0.aem3 : List.oem3 (.text:List_remove)
                             0000cb8e                       : List.oem3 (.text:List_get)
                             0000cbb2                       : List.oem3 (.text:List_insert)
                             0000cbd4                       : List.oem3 (.text:List_put)
                             0000cbf6                       : List.oem3 (.text:List_putHead)
                             0000cc90                       : PowerCC26XX.oem3 (.text:Power_unregisterNotify)
                             0000cf88   rf_multiMode_cc13x0.aem3 : RFCC26XX_multiMode.oem3 (.text:RF_powerConstraintSet)
                             0000d58a   drivers_cc13x0.aem3 : List.oem3 (.text:List_clearList)
                             0000da22   scif_framework.obj (.text:scifOsalLeaveCriticalSection)
ti_sysbios_knl_Swi_destruct  $Tramp$TT$L$PI$$ti_sysbios_knl_Swi_destruct
   1001c2e5     0000dc74     0000dc3a   dpl_cc13x0.aem3 : SwiP_tirtos.oem3 (.text:SwiP_destruct)
ti_sysbios_family_arm_m3_Hwi_setPriority__E  $Tramp$TT$L$PI$$ti_sysbios_family_arm_m3_Hwi_setPriority__E
   1001be81     0000dc7c     0000dc26   dpl_cc13x0.aem3 : HwiP_tirtos.oem3 (.text:HwiP_setPriority)
ti_sysbios_family_arm_m3_Hwi_destruct  $Tramp$TT$L$PI$$ti_sysbios_family_arm_m3_Hwi_destruct
   1001c25d     0000dc84     0000dc12   dpl_cc13x0.aem3 : HwiP_tirtos.oem3 (.text:HwiP_destruct)
ti_sysbios_BIOS_getCpuFreq__E  $Tramp$TT$L$PI$$ti_sysbios_BIOS_getCpuFreq__E
   1001bff5     0000dc8c     0000dbfe   dpl_cc13x0.aem3 : ClockP_tirtos.oem3 (.text:ClockP_getCpuFreq)
ti_sysbios_knl_Clock_destruct  $Tramp$TT$L$PI$$ti_sysbios_knl_Clock_destruct
   1001c2b5     0000dc94     0000dbfa   dpl_cc13x0.aem3 : ClockP_tirtos.oem3 (.text:ClockP_destruct)
ti_sysbios_family_arm_m3_Hwi_enableInterrupt__E  $Tramp$TT$L$PI$$ti_sysbios_family_arm_m3_Hwi_enableInterrupt__E
   1001b295     0000dc9c     0000db4a   scif_framework.obj (.text:osalEnableCtrlReadyInt)
                             0000db5e   scif_framework.obj (.text:scifOsalEnableTaskAlertInt)
                             0000dc1a   dpl_cc13x0.aem3 : HwiP_tirtos.oem3 (.text:HwiP_enableInterrupt)
ti_sysbios_family_arm_m3_Hwi_disableInterrupt__E  $Tramp$TT$L$PI$$ti_sysbios_family_arm_m3_Hwi_disableInterrupt__E
   1001b251     0000dca4     0000db40   scif_framework.obj (.text:osalDisableCtrlReadyInt)
                             0000db54   scif_framework.obj (.text:scifOsalDisableTaskAlertInt)
xdc_runtime_Core_assignParams__I  $Tramp$TT$L$PI$$xdc_runtime_Core_assignParams__I
   1001c5ed     0000dcac     0000da5c   release_pem3.oem3 (.text:ti_sysbios_knl_Event_Params__init__S)
ti_sysbios_knl_Semaphore_delete  $Tramp$TT$L$PI$$ti_sysbios_knl_Semaphore_delete
   1001c2d9     0000dcb4     0000d9c2   dpl_cc13x0.aem3 : SemaphoreP_tirtos.oem3 (.text:SemaphoreP_delete)
xdc_runtime_Startup_startMods__I  $Tramp$TT$L$PI$$xdc_runtime_Startup_startMods__I
   1001c309     0000dcbc     0000d782   release_pem3.oem3 (.text:xdc_runtime_Startup_exec__I)
ti_sysbios_knl_Clock_logTick__E  $Tramp$TT$L$PI$$ti_sysbios_knl_Clock_logTick__E
   1001be63     0000dcc4     0000d6e6   release_pem3.oem3 (.text:ti_sysbios_knl_Clock_doTick__I)
ti_sysbios_knl_Task_Params__init__S  $Tramp$TT$L$PI$$ti_sysbios_knl_Task_Params__init__S
   1001c1d5     0000dccc     0000d524   NodeRadioTask.obj (.text:ti_sysbios_knl_Task_Params_init)
                             0000d53a   NodeTask.obj (.text:ti_sysbios_knl_Task_Params_init)
ti_sysbios_knl_Swi_post__E  $Tramp$TT$L$PI$$ti_sysbios_knl_Swi_post__E
   1001b31d     0000dcd4     0000d368   rom_sysbios.aem3 : rom_sysbios.obj (.text:ti_sysbios_knl_Swi_or__E)
                             0000d6ee   release_pem3.oem3 (.text:ti_sysbios_knl_Clock_doTick__I)
                             0000dc4a   dpl_cc13x0.aem3 : SwiP_tirtos.oem3 (.text:SwiP_post)
ti_sysbios_BIOS_RtsGateProxy_leave__E  $Tramp$TT$L$PI$$ti_sysbios_BIOS_RtsGateProxy_leave__E
   1001c249     0000dcdc     0000d34a   release_pem3.oem3 (.text:ti_sysbios_BIOS_rtsUnlock__I)
ti_sysbios_BIOS_start__E  $Tramp$TT$L$PI$$ti_sysbios_BIOS_start__E
   1001c051     0000dce4     0000d10a   rfWsnNode.obj (.text:main)
ti_sysbios_knl_Swi_construct  $Tramp$TT$L$PI$$ti_sysbios_knl_Swi_construct
   1001b085     0000dcec     0000d07a   rom_sysbios.aem3 : rom_sysbios.obj (.text:ti_sysbios_knl_Swi_construct2__E)
ti_sysbios_BIOS_RtsGateProxy_enter__E  $Tramp$TT$L$PI$$ti_sysbios_BIOS_RtsGateProxy_enter__E
   1001c245     0000dcf4     0000cd42   release_pem3.oem3 (.text:ti_sysbios_BIOS_rtsLock__I)
xdc_runtime_Core_constructObject__I  $Tramp$TT$L$PI$$xdc_runtime_Core_constructObject__I
   1001c635     0000dcfc     0000c776   release_pem3.oem3 (.text:ti_sysbios_knl_Event_construct)
xdc_runtime_Memory_free__E  $Tramp$TT$L$PI$$xdc_runtime_Memory_free__E
   1001c7fd     0000dd04     0000c6a4   rom_sysbios.aem3 : rom_sysbios.obj (.text:_pthread_delete$44)
                             0000d0f2   release_pem3.oem3 (.text:free)
ti_sysbios_knl_Task_delete  $Tramp$TT$L$PI$$ti_sysbios_knl_Task_delete
   1001c2fd     0000dd0c     0000c698   rom_sysbios.aem3 : rom_sysbios.obj (.text:_pthread_delete$44)
ti_sysbios_knl_Semaphore_destruct  $Tramp$TT$L$PI$$ti_sysbios_knl_Semaphore_destruct
   1001c2dd     0000dd14     0000c68c   rom_sysbios.aem3 : rom_sysbios.obj (.text:_pthread_delete$44)
                             0000dc32   dpl_cc13x0.aem3 : SemaphoreP_tirtos.oem3 (.text:SemaphoreP_destruct)
ti_sysbios_knl_Semaphore_Params__init__S  $Tramp$TT$L$PI$$ti_sysbios_knl_Semaphore_Params__init__S
   1001c1bd     0000dd1c     0000c63e   dpl_cc13x0.aem3 : SemaphoreP_tirtos.oem3 (.text:SemaphoreP_constructBinary)
                             0000c668                   : SemaphoreP_tirtos.oem3 (.text:SemaphoreP_createBinary)
                             0000d4e2   EasyLink.obj (.text:ti_sysbios_knl_Semaphore_Params_init)
                             0000d4f8   NodeRadioTask.obj (.text:ti_sysbios_knl_Semaphore_Params_init)
                             0000d50e   scif_framework.obj (.text:ti_sysbios_knl_Semaphore_Params_init)
xdc_runtime_Memory_alloc__E  $Tramp$TT$L$PI$$xdc_runtime_Memory_alloc__E
   1001c485     0000dd24     0000c4b8   release_pem3.oem3 (.text:ti_sysbios_rts_gnu_MemAlloc_alloc)
ti_sysbios_knl_Task_startup__E  $Tramp$TT$L$PI$$ti_sysbios_knl_Task_startup__E
   1001c305     0000dd2c     0000c3a8   release_pem3.oem3 (.text:ti_sysbios_BIOS_startFunc__I)
ti_sysbios_knl_Swi_startup__E  $Tramp$TT$L$PI$$ti_sysbios_knl_Swi_startup__E
   1001c239     0000dd34     0000c3a4   release_pem3.oem3 (.text:ti_sysbios_BIOS_startFunc__I)
ti_sysbios_hal_Hwi_startup__E  $Tramp$TT$L$PI$$ti_sysbios_hal_Hwi_startup__E
   1001c289     0000dd3c     0000c3a0   release_pem3.oem3 (.text:ti_sysbios_BIOS_startFunc__I)
ti_sysbios_family_arm_cc26xx_Timer_startup__E  $Tramp$TT$L$PI$$ti_sysbios_family_arm_cc26xx_Timer_startup__E
   1001b791     0000dd44     0000c39c   release_pem3.oem3 (.text:ti_sysbios_BIOS_startFunc__I)
xdc_runtime_System_atexit__E  $Tramp$TT$L$PI$$xdc_runtime_System_atexit__E
   1001c67d     0000dd4c     0000c394   release_pem3.oem3 (.text:ti_sysbios_BIOS_startFunc__I)
ti_sysbios_BIOS_setThreadType__E  $Tramp$TT$L$PI$$ti_sysbios_BIOS_setThreadType__E
   1001c041     0000dd54     0000c360   release_pem3.oem3 (.text:ti_sysbios_BIOS_atExitFunc__I)
                             0000d442   release_pem3.oem3 (.text:ti_sysbios_BIOS_exitFunc__I)
ti_sysbios_knl_Queue_Object__get__S  $Tramp$TT$L$PI$$ti_sysbios_knl_Queue_Object__get__S
   1001bd65     0000dd5c     0000c12a   rom_sysbios.aem3 : rom_sysbios.obj (.text:ti_sysbios_knl_Swi_setPri__E)
ti_sysbios_family_arm_m3_Hwi_construct  $Tramp$TT$L$PI$$ti_sysbios_family_arm_m3_Hwi_construct
   1001af29     0000dd64     0000bbae   rom_sysbios.aem3 : rom_sysbios.obj (.text:ti_sysbios_family_arm_m3_Hwi_construct2__E)
                             0000c2e2   scif_framework.obj (.text:osalRegisterCtrlReadyInt)
                             0000c312   scif_framework.obj (.text:osalRegisterTaskAlertInt)
ti_sysbios_knl_Swi_Params__init__S  $Tramp$TT$L$PI$$ti_sysbios_knl_Swi_Params__init__S
   1001c1c9     0000dd6c     0000bb36   dpl_cc13x0.aem3 : SwiP_tirtos.oem3 (.text:SwiP_construct)
ti_sysbios_family_arm_m3_Hwi_Params__init__S  $Tramp$TT$L$PI$$ti_sysbios_family_arm_m3_Hwi_Params__init__S
   1001c139     0000dd74     0000b990   dpl_cc13x0.aem3 : HwiP_tirtos.oem3 (.text:HwiP_construct)
                             0000d45e   scif_framework.obj (.text:ti_sysbios_family_arm_m3_Hwi_Params_init)
xdc_runtime_System_exit__E  $Tramp$TT$L$PI$$xdc_runtime_System_exit__E
   1001c7cd     0000dd7c     0000b5d0   boot.aem3 : boot.oem3 (.text)
                             0000d448   release_pem3.oem3 (.text:ti_sysbios_BIOS_exitFunc__I)
ti_sysbios_knl_Queue_get__E  $Tramp$TT$L$PI$$ti_sysbios_knl_Queue_get__E
   1001bf0d     0000dd84     0000b3c0   uble.obj (.text:uble_processMsg)
ti_sysbios_knl_Clock_Params__init__S  $Tramp$TT$L$PI$$ti_sysbios_knl_Clock_Params__init__S
   1001c181     0000dd8c     0000aebc   dpl_cc13x0.aem3 : ClockP_tirtos.oem3 (.text:ClockP_construct)
                             0000d474   NodeTask.obj (.text:ti_sysbios_knl_Clock_Params_init)
                             0000d48a   ugap.obj (.text:ti_sysbios_knl_Clock_Params_init)
                             0000d4a0   ull.obj (.text:ti_sysbios_knl_Clock_Params_init)
ti_sysbios_heaps_HeapMem_restore__E  $Tramp$TT$L$PI$$ti_sysbios_heaps_HeapMem_restore__E
   1001c101     0000dd94     0000aa24   rom_sysbios.aem3 : rom_sysbios.obj (.text:ti_sysbios_heaps_HeapMem_initPrimary__I)
ti_sysbios_heaps_HeapMem_Object__get__S  $Tramp$TT$L$PI$$ti_sysbios_heaps_HeapMem_Object__get__S
   1001b86d     0000dd9c     0000a9f4   rom_sysbios.aem3 : rom_sysbios.obj (.text:ti_sysbios_heaps_HeapMem_initPrimary__I)
ti_sysbios_knl_Task_unblockI__E  $Tramp$TT$L$PI$$ti_sysbios_knl_Task_unblockI__E
   1001b9a1     0000dda4     00009e70   rom_sysbios.aem3 : rom_sysbios.obj (.text:ti_sysbios_knl_Event_post__E)
                             0000c7ae                    : rom_sysbios.obj (.text:ti_sysbios_knl_Event_pendTimeout__I)
ti_sysbios_knl_Queue_remove__E  $Tramp$TT$L$PI$$ti_sysbios_knl_Queue_remove__E
   1001c11d     0000ddac     00009e5c   rom_sysbios.aem3 : rom_sysbios.obj (.text:ti_sysbios_knl_Event_post__E)
                             0000c7a2                    : rom_sysbios.obj (.text:ti_sysbios_knl_Event_pendTimeout__I)
ti_sysbios_knl_Queue_head__E  $Tramp$TT$L$PI$$ti_sysbios_knl_Queue_head__E
   1001c2d1     0000ddb4     00009e46   rom_sysbios.aem3 : rom_sysbios.obj (.text:ti_sysbios_knl_Event_post__E)
ti_sysbios_knl_Queue_empty__E  $Tramp$TT$L$PI$$ti_sysbios_knl_Queue_empty__E
   1001c10f     0000ddbc     00009e38   rom_sysbios.aem3 : rom_sysbios.obj (.text:ti_sysbios_knl_Event_post__E)
                             0000b3ee   uble.obj (.text:uble_processMsg)
ti_sysbios_knl_Queue_put__E  $Tramp$TT$L$PI$$ti_sysbios_knl_Queue_put__E
   1001bf29     0000ddc4     00009c30   uble.obj (.text:uble_buildAndPostEvt)
ti_sysbios_knl_Queue_construct  $Tramp$TT$L$PI$$ti_sysbios_knl_Queue_construct
   1001b8f1     0000ddcc     000096c0   uble.obj (.text:uble_stackInit)
                             0000d704   rom_sysbios.aem3 : rom_sysbios.obj (.text:ti_sysbios_knl_Event_Instance_init__E)
ti_sysbios_knl_Clock_scheduleNextTick__E  $Tramp$TT$L$PI$$ti_sysbios_knl_Clock_scheduleNextTick__E
   1001beb9     0000ddd4     00008d00   rom_sysbios.aem3 : rom_sysbios.obj (.text:ti_sysbios_knl_Clock_workFuncDynamic__E)
ti_sysbios_knl_Clock_walkQueueDynamic__E  $Tramp$TT$L$PI$$ti_sysbios_knl_Clock_walkQueueDynamic__E
   1001a809     0000dddc     00008cca   rom_sysbios.aem3 : rom_sysbios.obj (.text:ti_sysbios_knl_Clock_workFuncDynamic__E)
                             00008ce4                    : rom_sysbios.obj (.text:ti_sysbios_knl_Clock_workFuncDynamic__E)
ti_sysbios_knl_Clock_TimerProxy_getCurrentTick__E  $Tramp$TT$L$PI$$ti_sysbios_knl_Clock_TimerProxy_getCurrentTick__E
   1001c091     0000dde4     00008c9a   rom_sysbios.aem3 : rom_sysbios.obj (.text:ti_sysbios_knl_Clock_workFuncDynamic__E)
                             0000c746                    : rom_sysbios.obj (.text:ti_sysbios_knl_Clock_getTicksUntilInterrupt__E)
ti_sysbios_knl_Clock_construct  $Tramp$TT$L$PI$$ti_sysbios_knl_Clock_construct
   1001b575     0000ddec     00008606   NodeTask.obj (.text:NodeTask_init)
                             00008d58   ull.obj (.text:ull_init)
                             00008d88   ull.obj (.text:ull_init)
                             0000915c   ugap.obj (.text:ugap_bcastInit)
                             0000aed6   dpl_cc13x0.aem3 : ClockP_tirtos.oem3 (.text:ClockP_construct)
ti_sysbios_knl_Task_construct  $Tramp$TT$L$PI$$ti_sysbios_knl_Task_construct
   1001b125     0000ddf4     00008102   NodeRadioTask.obj (.text:NodeRadioTask_init)
                             00008636   NodeTask.obj (.text:NodeTask_init)
ti_sysbios_knl_Semaphore_construct  $Tramp$TT$L$PI$$ti_sysbios_knl_Semaphore_construct
   1001b705     0000ddfc     000080a6   NodeRadioTask.obj (.text:NodeRadioTask_init)
                             000080ba   NodeRadioTask.obj (.text:NodeRadioTask_init)
                             0000c090   scif_framework.obj (.text:scifOsalInit)
                             0000c64e   dpl_cc13x0.aem3 : SemaphoreP_tirtos.oem3 (.text:SemaphoreP_constructBinary)
ti_sysbios_knl_Clock_removeI__E  $Tramp$TT$L$PI$$ti_sysbios_knl_Clock_removeI__E
   1001c2b9     0000de04     00006b60   rom_sysbios.aem3 : rom_sysbios.obj (.text:ti_sysbios_knl_Event_pend__E)
                             00006b80                    : rom_sysbios.obj (.text:ti_sysbios_knl_Event_pend__E)
ti_sysbios_knl_Task_restore__E  $Tramp$TT$L$PI$$ti_sysbios_knl_Task_restore__E
   1001ba45     0000de0c     00006b50   rom_sysbios.aem3 : rom_sysbios.obj (.text:ti_sysbios_knl_Event_pend__E)
                             00009e7a                    : rom_sysbios.obj (.text:ti_sysbios_knl_Event_post__E)
                             0000cad0                    : rom_sysbios.obj (.text:_pthread_cleanupFxn)
                             0000cc6e   dpl_cc13x0.aem3 : PowerCC26XX_tirtos.oem3 (.text:PowerCC26XX_schedulerRestore)
ti_sysbios_knl_Clock_startI__E  $Tramp$TT$L$PI$$ti_sysbios_knl_Clock_startI__E
   1001a715     0000de14     00006b46   rom_sysbios.aem3 : rom_sysbios.obj (.text:ti_sysbios_knl_Event_pend__E)
ti_sysbios_knl_Task_blockI__E  $Tramp$TT$L$PI$$ti_sysbios_knl_Task_blockI__E
   1001b611     0000de1c     00006b36   rom_sysbios.aem3 : rom_sysbios.obj (.text:ti_sysbios_knl_Event_pend__E)
ti_sysbios_knl_Queue_enqueue__E  $Tramp$TT$L$PI$$ti_sysbios_knl_Queue_enqueue__E
   1001c1b1     0000de24     00006b30   rom_sysbios.aem3 : rom_sysbios.obj (.text:ti_sysbios_knl_Event_pend__E)
ti_sysbios_knl_Task_disable__E  $Tramp$TT$L$PI$$ti_sysbios_knl_Task_disable__E
   1001c0f1     0000de2c     00006b20   rom_sysbios.aem3 : rom_sysbios.obj (.text:ti_sysbios_knl_Event_pend__E)
                             00009e3e                    : rom_sysbios.obj (.text:ti_sysbios_knl_Event_post__E)
                             0000c35a   release_pem3.oem3 (.text:ti_sysbios_BIOS_atExitFunc__I)
                             0000cac2   rom_sysbios.aem3 : rom_sysbios.obj (.text:_pthread_cleanupFxn)
                             0000cc3e   dpl_cc13x0.aem3 : PowerCC26XX_tirtos.oem3 (.text:PowerCC26XX_schedulerDisable)
ti_sysbios_knl_Task_self__E  $Tramp$TT$L$PI$$ti_sysbios_knl_Task_self__E
   1001c1e1     0000de34     00006af4   rom_sysbios.aem3 : rom_sysbios.obj (.text:ti_sysbios_knl_Event_pend__E)
ti_sysbios_knl_Clock_addI__E  $Tramp$TT$L$PI$$ti_sysbios_knl_Clock_addI__E
   1001ba1d     0000de3c     00006ad4   rom_sysbios.aem3 : rom_sysbios.obj (.text:ti_sysbios_knl_Event_pend__E)
ti_sysbios_knl_Swi_disable__E  $Tramp$TT$L$PI$$ti_sysbios_knl_Swi_disable__E
   1001c0d1     0000de44     00004ff4   ugap.obj (.text:ugb_changeState)
                             00008dc4   ull.obj (.text:ull_advDoneCb)
                             00009c4a   ull.obj (.text:ull_advStop)
                             0000b204   ull.obj (.text:ull_advStart)
                             0000b256   urfi.obj (.text:urfi_clientEventCb)
                             0000b406   ugap.obj (.text:ugb_advPostprocessCB)
                             0000c186   ull.obj (.text:ull_clockHandler)
                             0000c356   release_pem3.oem3 (.text:ti_sysbios_BIOS_atExitFunc__I)
                             0000c97a   ugap.obj (.text:ugb_advPrepareCB)
                             0000dc3e   dpl_cc13x0.aem3 : SwiP_tirtos.oem3 (.text:SwiP_disable)
ti_sysbios_knl_Swi_restore__E  $Tramp$TT$L$PI$$ti_sysbios_knl_Swi_restore__E
   1001b5dd     0000de4c     000028d0   drivers_cc13x0.aem3 : PowerCC26XX.oem3 (.text:Power_sleep)
                             00005008   ugap.obj (.text:ugb_changeState)
                             00005104   ugap.obj (.text:ugb_changeState)
                             000069f8   rf_multiMode_cc13x0.aem3 : RFCC26XX_multiMode.oem3 (.text:RF_pendCmd)
                             00006a2c                            : RFCC26XX_multiMode.oem3 (.text:RF_pendCmd)
                             00006a84                            : RFCC26XX_multiMode.oem3 (.text:RF_pendCmd)
                             00006a98                            : RFCC26XX_multiMode.oem3 (.text:RF_pendCmd)
                             00008e34   ull.obj (.text:ull_advDoneCb)
                             00009ca6   ull.obj (.text:ull_advStop)
                             0000b212   ull.obj (.text:ull_advStart)
                             0000b23a   ull.obj (.text:ull_advStart)
                             0000b286   urfi.obj (.text:urfi_clientEventCb)
                             0000b43e   ugap.obj (.text:ugb_advPostprocessCB)
                             0000c19a   ull.obj (.text:ull_clockHandler)
                             0000c996   ugap.obj (.text:ugb_advPrepareCB)
ti_sysbios_knl_Task_sleep__E  $Tramp$TT$L$PI$$ti_sysbios_knl_Task_sleep__E
   1001a9d9     0000de54     000023d0   EasyLink.obj (.text:enableTestMode)
                             0000d560   dpl_cc13x0.aem3 : ClockP_tirtos.oem3 (.text:ClockP_usleep)
ti_sysbios_knl_Clock_getTicks__E  $Tramp$TT$L$PI$$ti_sysbios_knl_Clock_getTicks__E
   1001b6d5     0000de5c     00002110   NodeRadioTask.obj (.text:nodeRadioTaskFunction)
                             00002154   NodeRadioTask.obj (.text:nodeRadioTaskFunction)
                             00009004   NodeRadioTask.obj (.text:bleAdv_updateTlmCB)
                             0000c7f6   rom_sysbios.aem3 : rom_sysbios.obj (.text:ti_sysbios_knl_Clock_getTimeout__E)
xdc_runtime_System_abort__E  $Tramp$TT$L$PI$$xdc_runtime_System_abort__E
   1001c745     0000de64     000020b8   NodeRadioTask.obj (.text:nodeRadioTaskFunction)
                             000020fe   NodeRadioTask.obj (.text:nodeRadioTaskFunction)
                             00002dbe   NodeTask.obj (.text:nodeTaskFunction)
                             00002e08   NodeTask.obj (.text:nodeTaskFunction)
                             00002e1a   NodeTask.obj (.text:nodeTaskFunction)
                             00003a8c   BleAdv.obj (.text:BleAdv_init)
                             00004466   NodeRadioTask.obj (.text:sendDmPacket)
                             00004482   NodeRadioTask.obj (.text:sendDmPacket)
                             000095ec   NodeRadioTask.obj (.text:resendPacket)
                             00009608   NodeRadioTask.obj (.text:resendPacket)
ti_sysbios_family_arm_m3_Hwi_disableFxn__E  $Tramp$TT$L$PI$$ti_sysbios_family_arm_m3_Hwi_disableFxn__E
   1001c145     0000de6c     00001d00   ull.obj (.text:ull_advSchedule)
                             00009be4   uble.obj (.text:uble_buildAndPostEvt)
                             0000b3d8   uble.obj (.text:uble_processMsg)
                             0000c70a   scif_framework.obj (.text:osalLockCtrlTaskNbl)
                             0000dbb6   scif_framework.obj (.text:scifOsalEnterCriticalSection)
                             0000dc16   dpl_cc13x0.aem3 : HwiP_tirtos.oem3 (.text:HwiP_disable)
ti_sysbios_knl_Clock_start__E  $Tramp$TT$L$PI$$ti_sysbios_knl_Clock_start__E
   1001bfdf     0000de74     00001cfc   ull.obj (.text:ull_advSchedule)
                             00001dbe   ull.obj (.text:ull_advSchedule)
                             00002df0   NodeTask.obj (.text:nodeTaskFunction)
                             00005082   ugap.obj (.text:ugb_changeState)
                             000050ba   ugap.obj (.text:ugb_changeState)
                             00006cdc   dpl_cc13x0.aem3 : PowerCC26XX_tirtos.oem3 (.text:PowerCC26XX_standbyPolicy)
                             00007ae8   NodeTask.obj (.text:buttonCallback)
                             00007b68   NodeTask.obj (.text:buttonCallback)
                             0000cd8e   rom_sysbios.aem3 : rom_sysbios.obj (.text:ti_sysbios_knl_Clock_stop__E)
                             0000dc0a   dpl_cc13x0.aem3 : ClockP_tirtos.oem3 (.text:ClockP_start)
ti_sysbios_knl_Clock_setTimeout__E  $Tramp$TT$L$PI$$ti_sysbios_knl_Clock_setTimeout__E
   1001c2bd     0000de7c     00001cf4   ull.obj (.text:ull_advSchedule)
                             00001db6   ull.obj (.text:ull_advSchedule)
                             00002de8   NodeTask.obj (.text:nodeTaskFunction)
                             0000507a   ugap.obj (.text:ugb_changeState)
                             000050b2   ugap.obj (.text:ugb_changeState)
                             00006cd6   dpl_cc13x0.aem3 : PowerCC26XX_tirtos.oem3 (.text:PowerCC26XX_standbyPolicy)
                             0000dc06                   : ClockP_tirtos.oem3 (.text:ClockP_setTimeout)

[70 trampolines]
[280 trampoline calls]


GLOBAL SYMBOLS: SORTED ALPHABETICALLY BY Name 

address   name                                                                      
-------   ----                                                                      
00013958  ADCBuf_count                                                              
00013959  ADC_count                                                                 
0000d115  BleAdv_Params_init                                                        
00003a21  BleAdv_init                                                               
0000be31  BleAdv_setAdvertiserType                                                  
00000ff5  BleAdv_startAdvertising                                                   
0000dac5  BleAdv_stopAdvertising                                                    
00002b45  BleAdv_updateUrl                                                          
000135d8  BoardGpioInitTable                                                        
0000db65  Board_initHook                                                            
0000ceb5  CC1350_LAUNCHXL_initGeneral                                               
00009453  CC1350_LAUNCHXL_sendExtFlashByte                                          
0000b6b5  CC1350_LAUNCHXL_shutDownExtFlash                                          
0000b081  CC1350_LAUNCHXL_wakeUpExtFlash                                            
0000dacf  ClockP_Params_init                                                        
0000aea1  ClockP_construct                                                          
0000dbfb  ClockP_destruct                                                           
0000dbff  ClockP_getCpuFreq                                                         
1001b6d5  ClockP_getSystemTicks                                                     
0000dc03  ClockP_getTimeout                                                         
0000d78b  ClockP_isActive                                                           
0000dc07  ClockP_setTimeout                                                         
0000dc0b  ClockP_start                                                              
0000dc0f  ClockP_stop                                                               
20002878  ClockP_tickPeriod                                                         
0000d555  ClockP_usleep                                                             
0000c9a1  DisplaySharp_clear                                                        
0000b0cd  DisplaySharp_clearLines                                                   
0000be65  DisplaySharp_close                                                        
00007fe5  DisplaySharp_control                                                      
000136fc  DisplaySharp_fxnTable                                                     
0000db6d  DisplaySharp_getType                                                      
00000a1f  DisplaySharp_init                                                         
000067e5  DisplaySharp_open                                                         
00007dc5  DisplaySharp_vprintf                                                      
00001405  DisplayUartMin_clear                                                      
00003a1f  DisplayUartMin_clearLines                                                 
0000d3cb  DisplayUartMin_close                                                      
0000dbc5  DisplayUartMin_control                                                    
0001371c  DisplayUartMin_fxnTable                                                   
0000dbcb  DisplayUartMin_getType                                                    
00005ec3  DisplayUartMin_init                                                       
0000b295  DisplayUartMin_open                                                       
0000b491  DisplayUartMin_vprintf                                                    
000137ec  Display_config                                                            
0001395b  Display_count                                                             
000133de  Display_defaultParams                                                     
0000d95d  Display_doClear                                                           
0000c839  Display_doInit                                                            
0000a815  Display_doOpen                                                            
0000dbd1  Display_doParamsInit                                                      
0000c7b9  Display_doPrintf                                                          
0000d569  EasyLink_Params_init                                                      
00006f31  EasyLink_enableRxAddrFilter                                               
0000003d  EasyLink_init                                                             
000034f1  EasyLink_receiveAsync                                                     
00007011  EasyLink_setCtrl                                                          
0000332d  EasyLink_transmit                                                         
000138a8  GPIOCC26XX_config                                                         
0000b119  GPIO_enableInt                                                            
0000c1a5  GPIO_hwiIntFxn                                                            
00007c4d  GPIO_init                                                                 
0000be99  GPIO_setCallback                                                          
000063f5  GPIO_setConfig                                                            
0000ad01  GPIO_write                                                                
0000d70d  Graphics_clearDisplay                                                     
0000d091  Graphics_clearDisplayOnDisplay                                            
0000bd59  Graphics_drawHorizontalLineOnDisplay                                      
00008851  Graphics_drawLineH                                                        
0000c4cd  Graphics_drawPixelOnDisplay                                               
000005a1  Graphics_drawString                                                       
00005db1  Graphics_fillRectangle                                                    
0000ce3d  Graphics_fillRectangleOnDisplay                                           
0000d8ed  Graphics_flushBuffer                                                      
0000d71f  Graphics_flushOnDisplay                                                   
0000adfd  Graphics_initContext                                                      
0000d0ab  Graphics_setBackgroundColor                                               
0000d0c5  Graphics_setFont                                                          
0000d3e1  Graphics_setForegroundColor                                               
0000d3f7  Graphics_translateColorOnDisplay                                          
00001000  HEAPSIZE                                                                  
0000d79b  HwiP_Params_init                                                          
0000b975  HwiP_construct                                                            
0000dc13  HwiP_destruct                                                             
0000dc17  HwiP_disable                                                              
0000dc1b  HwiP_enableInterrupt                                                      
0000dc1f  HwiP_post                                                                 
1001c215  HwiP_restore                                                              
0000dc23  HwiP_setFunc                                                              
0000dc27  HwiP_setPriority                                                          
0001395c  I2C_count                                                                 
0000d57d  List_clearList                                                            
0000cb75  List_get                                                                  
0000cb97  List_insert                                                               
0000cbb9  List_put                                                                  
0000cbdb  List_putHead                                                              
0000c9c5  List_remove                                                               
0000c861  NOROM_AONBatMonTemperatureGetDegC                                         
0000d591  NOROM_AONRTCCurrent64BitValueGet                                          
0000d15d  NOROM_AONRTCCurrentCompareValueGet                                        
0000d969  NOROM_CPUcpsid                                                            
0000d975  NOROM_CPUcpsie                                                            
0000dbd7  NOROM_CPUdelay                                                            
0000ced1  NOROM_ChipInfo_GetChipFamily                                              
0000c1d5  NOROM_ChipInfo_GetChipType                                                
0000b9f1  NOROM_ChipInfo_GetHwRevision                                              
0000d175  NOROM_ChipInfo_GetPackageType                                             
0000c4f9  NOROM_DDI32RegWrite                                                       
0000c525  NOROM_OSCClockSourceGet                                                   
0000a575  NOROM_OSCClockSourceSet                                                   
0000a381  NOROM_OSCHF_AttemptToSwitchToXosc                                         
0000becd  NOROM_OSCHF_SwitchToRcOscTurnOffXosc                                      
0000d18d  NOROM_OSCHF_TurnOnXosc                                                    
0000ba2d  NOROM_OSC_HPOSCRelativeFrequencyOffsetGet                                 
0000d981  NOROM_OSC_HPOSCRelativeFrequencyOffsetToRFCoreFormatConvert               
0000cbfd  NOROM_RFCAdi3VcoLdoVoltageMode                                            
0000d1a5  NOROM_RFCCpeIntGetAndClear                                                
0000c551  NOROM_RFCCpePatchReset                                                    
0000c9e9  NOROM_RFCDoorbellSendTo                                                   
0000d7ad  NOROM_RFCHwIntGetAndClear                                                 
0000c415  NOROM_RFCOverrideSearch                                                   
0000dc2b  NOROM_RFCOverrideUpdate                                                   
00007611  NOROM_RFCRTrim                                                            
0000753d  NOROM_RFCRfTrimRead                                                       
0000d7bd  NOROM_RFCRfTrimSet                                                        
0000ba69  NOROM_RFCSynthPowerDown                                                   
00008341  NOROM_SetupAfterColdResetWakeupFromShutDownCfg1                           
000068d5  NOROM_SetupAfterColdResetWakeupFromShutDownCfg2                           
00005949  NOROM_SetupAfterColdResetWakeupFromShutDownCfg3                           
0000d1bd  NOROM_SetupGetTrimForAdcShModeEn                                          
0000d1d5  NOROM_SetupGetTrimForAdcShVbufEn                                          
0000a041  NOROM_SetupGetTrimForAmpcompCtrl                                          
0000d1ed  NOROM_SetupGetTrimForAmpcompTh1                                           
0000ceed  NOROM_SetupGetTrimForAmpcompTh2                                           
0000a0a9  NOROM_SetupGetTrimForAnabypassValue1                                      
0000d205  NOROM_SetupGetTrimForDblrLoopFilterResetVoltage                           
0000c57d  NOROM_SetupGetTrimForRadcExtCfg                                           
0000d21d  NOROM_SetupGetTrimForRcOscLfIBiasTrim                                     
0000cf09  NOROM_SetupGetTrimForRcOscLfRtuneCtuneTrim                                
0000cc1d  NOROM_SetupGetTrimForXoscHfCtl                                            
0000d7cd  NOROM_SetupGetTrimForXoscHfFastStart                                      
0000d7dd  NOROM_SetupGetTrimForXoscHfIbiastherm                                     
0000d235  NOROM_SetupGetTrimForXoscLfRegulatorAndCmirrwrRatio                       
0000c205  NOROM_SetupSetAonRtcSubSecInc                                             
0000aef1  NOROM_SetupSetCacheModeAccordingToCcfgSetting                             
00009d39  NOROM_SetupSetVddrLevel                                                   
00008299  NOROM_SetupTrimDevice                                                     
0000a111  NOROM_SysCtrlAdjustRechargeAfterPowerDown                                 
000024e5  NOROM_SysCtrlSetRechargeBeforePowerDown                                   
0000a179  NOROM_SysCtrl_DCDC_VoltageConditionalControl                              
0000d40d  NOROM_ThisLibraryIsFor_CC13x0_HwRev20AndLater_HaltIfViolated              
0000d8fb  NOROM_VIMSModeGet                                                         
0001395d  NVS_count                                                                 
00008095  NodeRadioTask_init                                                        
0000a871  NodeRadioTask_sendAdcData                                                 
0000c235  NodeTask_advStatsCB                                                       
000085d1  NodeTask_init                                                             
0000b735  PINCC26XX_getConfig                                                       
0000d7ed  PINCC26XX_getPinCount                                                     
0001396c  PINCC26XX_hwAttrs                                                         
0000c5a9  PINCC26XX_setMux                                                          
0000a3e5  PIN_add                                                                   
0000ce5b  PIN_close                                                                 
0000d24d  PIN_getConfig                                                             
0000d5a5  PIN_getInputValue                                                         
0000d5b9  PIN_getOutputValue                                                        
000036b1  PIN_init                                                                  
00008a25  PIN_open                                                                  
0000d98d  PIN_registerIntCb                                                         
0000aa99  PIN_remove                                                                
0000bf01  PIN_setConfig                                                             
0000bf35  PIN_setInterrupt                                                          
0000b2e1  PIN_setOutputEnable                                                       
0000bbd1  PIN_setOutputValue                                                        
0001395e  PWM_count                                                                 
0000a8cd  PowerCC26XX_RCOSC_clockFunc                                               
000014f1  PowerCC26XX_auxISR                                                        
0000a5d5  PowerCC26XX_calibrate                                                     
00013804  PowerCC26XX_config                                                        
00003f05  PowerCC26XX_doCalibrate                                                   
00009efd  PowerCC26XX_initiateCalibration                                           
0000baa5  PowerCC26XX_isStableXOSC_HF                                               
2000399c  PowerCC26XX_module                                                        
0000cc3d  PowerCC26XX_schedulerDisable                                              
0000cc5d  PowerCC26XX_schedulerRestore                                              
00006c85  PowerCC26XX_standbyPolicy                                                 
2000281c  PowerCC26XX_swiKey                                                        
0000dc2f  PowerCC26XX_switchXOSC_HF                                                 
20002818  PowerCC26XX_taskKey                                                       
0000d999  Power_getConstraintMask                                                   
0000d9a5  Power_getDependencyCount                                                  
0000ce79  Power_getTransitionLatency                                                
0000d265  Power_idleFunc                                                            
00005b89  Power_init                                                                
0000c889  Power_registerNotify                                                      
0000bf69  Power_releaseConstraint                                                   
00007d09  Power_releaseDependency                                                   
0000c265  Power_setConstraint                                                       
00007e7d  Power_setDependency                                                       
0000270d  Power_sleep                                                               
0000cc7d  Power_unregisterNotify                                                    
00013934  RFCC26XX_hwAttrs                                                          
0000d5cd  RF_Params_init                                                            
0000d27d  RF_cancelCmd                                                              
00005ec5  RF_close                                                                  
20004268  RF_cmdFs                                                                  
20004280  RF_cmdFs_preDef                                                           
20004050  RF_cmdPropRadioDivSetup                                                   
20004078  RF_cmdPropRadioDivSetup_fsk                                               
200040a0  RF_cmdPropRadioDivSetup_lrm                                               
200040c8  RF_cmdPropRadioDivSetup_ook                                               
200040f0  RF_cmdPropRadioDivSetup_sl_lr                                             
20003f64  RF_cmdPropRxAdv_preDef                                                    
20004298  RF_cmdPropTx                                                              
200042b0  RF_cmdPropTx_preDef                                                       
200042c8  RF_cmdRadioSetup_hsm                                                      
20004168  RF_cmdRxHS                                                                
20004358  RF_cmdTxHS                                                                
00007f31  RF_control                                                                
0000a695  RF_getCurrentTime                                                         
000066f1  RF_getInfo                                                                
00003149  RF_open                                                                   
20003f20  RF_pCmdFs_preDef                                                          
20003f00  RF_pCmdPropRadioDivSetup_fsk                                              
20003f04  RF_pCmdPropRadioDivSetup_lrm                                              
20003f08  RF_pCmdPropRadioDivSetup_ook                                              
20003f10  RF_pCmdPropRadioDivSetup_sl_lr                                            
20003f14  RF_pCmdPropRadioSetup_2_4G_fsk                                            
20003f28  RF_pCmdPropRxAdv_preDef                                                   
20003f24  RF_pCmdPropTx_preDef                                                      
20003f0c  RF_pCmdRadioSetup_hsm                                                     
20003f1c  RF_pCmdRxHS                                                               
20003f18  RF_pCmdTxHS                                                               
20003efc  RF_pProp_2_4G_fsk                                                         
20003ee8  RF_pProp_fsk                                                              
20003ef4  RF_pProp_hsm                                                              
20003eec  RF_pProp_lrm                                                              
20003ef0  RF_pProp_ook                                                              
20003ef8  RF_pProp_sl_lr                                                            
000069c5  RF_pendCmd                                                                
000083e5  RF_postCmd                                                                
0000d9b1  RF_powerConstraintGet                                                     
0000bf9d  RF_powerConstraintRelease                                                 
0000cf79  RF_powerConstraintSet                                                     
200043a8  RF_prop                                                                   
200043b8  RF_prop_fsk                                                               
200043c8  RF_prop_hsm                                                               
200043d8  RF_prop_lrm                                                               
200043e8  RF_prop_ook                                                               
200043f8  RF_prop_sl_lr                                                             
0000c8b1  RF_runCmd                                                                 
0000dbe3  RF_runImmediateCmd                                                        
00001e0d  RF_scheduleCmd                                                            
0000b5a5  ResetISR                                                                  
0000d731  RingBuf_construct                                                         
0000b9b3  RingBuf_get                                                               
0000b51d  RingBuf_put                                                               
0001395f  SD_count                                                                  
UNDEFED   SHT$$INIT_ARRAY$$Base                                                     
UNDEFED   SHT$$INIT_ARRAY$$Limit                                                    
0000ae4f  SPICC26XXDMA_close                                                        
00008ed9  SPICC26XXDMA_control                                                      
0001381c  SPICC26XXDMA_fxnTable                                                     
0000d909  SPICC26XXDMA_init                                                         
00005a6d  SPICC26XXDMA_open                                                         
00002931  SPICC26XXDMA_transfer                                                     
00006d69  SPICC26XXDMA_transferCancel                                               
0000d631  SPI_Params_init                                                           
0000dad9  SPI_close                                                                 
00013834  SPI_config                                                                
00013960  SPI_count                                                                 
0001373c  SPI_defaultParams                                                         
0000b7b5  SPI_init                                                                  
0000b7f5  SPI_open                                                                  
0000dae3  SPI_transfer                                                              
0000c901  SafeHapiVoid                                                              
0000ad55  SceAdc_init                                                               
0000d645  SceAdc_registerAdcCallback                                                
0000ca79  SceAdc_setReportInterval                                                  
0000daed  SceAdc_start                                                              
0000c62d  SemaphoreP_constructBinary                                                
0000c659  SemaphoreP_createBinary                                                   
0000d9bd  SemaphoreP_delete                                                         
0000dc33  SemaphoreP_destruct                                                       
0000d743  SemaphoreP_pend                                                           
0000dc37  SemaphoreP_post                                                           
0000ca9d  SharpGrLib_init                                                           
0000d81d  SwiP_Params_init                                                          
0000bb1d  SwiP_construct                                                            
0000dc3b  SwiP_destruct                                                             
0000dc3f  SwiP_disable                                                              
0000dc43  SwiP_getTrigger                                                           
0000dc47  SwiP_or                                                                   
0000dc4b  SwiP_post                                                                 
1001b5dd  SwiP_restore                                                              
0000dc4f  SwiP_setPriority                                                          
0000dc53  SystemP_vsnprintf                                                         
0001395a  TRNG_count                                                                
0000955d  UARTCC26XX_close                                                          
0000a6f5  UARTCC26XX_control                                                        
0001363c  UARTCC26XX_fxnTable                                                       
00004d5d  UARTCC26XX_hwiIntFxn                                                      
0000d2c5  UARTCC26XX_init                                                           
00004809  UARTCC26XX_open                                                           
00005125  UARTCC26XX_read                                                           
0000a1e1  UARTCC26XX_readCancel                                                     
0000dbe9  UARTCC26XX_readPolling                                                    
00008bed  UARTCC26XX_swiIntFxn                                                      
000062f1  UARTCC26XX_write                                                          
000088ed  UARTCC26XX_writeCancel                                                    
0000dbef  UARTCC26XX_writePolling                                                   
0000d2dd  UART_Params_init                                                          
0000db01  UART_close                                                                
00013940  UART_config                                                               
0000db0b  UART_control                                                              
00013961  UART_count                                                                
000136b4  UART_defaultParams                                                        
0000b835  UART_init                                                                 
0000b875  UART_open                                                                 
0000db15  UART_write                                                                
0000bd8f  UDMACC26XX_close                                                          
00013974  UDMACC26XX_config                                                         
0000db1f  UDMACC26XX_hwiIntFxn                                                      
0000a985  UDMACC26XX_open                                                           
00013962  Watchdog_count                                                            
00000000  __ASM__                                                                   
00000078  __ISA__                                                                   
0000008a  __PLAT__                                                                  
20005000  __STACK_END                                                               
00000400  __STACK_SIZE                                                              
000000b1  __TARG__                                                                  
00013f10  __TI_CINIT_Base                                                           
00013f90  __TI_CINIT_Limit                                                          
00013eac  __TI_Handler_Table_Base                                                   
00013eb8  __TI_Handler_Table_Limit                                                  
000087b1  __TI_auto_init                                                            
0000a249  __TI_decompress_lzss                                                      
0000d917  __TI_decompress_none                                                      
ffffffff  __TI_pprof_out_hndl                                                       
ffffffff  __TI_prof_data_size                                                       
ffffffff  __TI_prof_data_start                                                      
000139d0  __TI_static_base__                                                        
0000d9ed  __TI_zero_init                                                            
000000d6  __TRDR__                                                                  
000092c1  __aeabi_cdcmpeq                                                           
000092c1  __aeabi_cdcmple                                                           
00009347  __aeabi_cdrcmple                                                          
0000b371  __aeabi_d2iz                                                              
0000b5e9  __aeabi_d2uiz                                                             
00003873  __aeabi_dadd                                                              
000065f5  __aeabi_dmul                                                              
00003869  __aeabi_dsub                                                              
0000bcb1  __aeabi_f2d                                                               
0000c471  __aeabi_i2d                                                               
0000d113  __aeabi_idiv0                                                             
0000d30d  __aeabi_lmul                                                              
00009a65  __aeabi_memclr                                                            
00009a65  __aeabi_memclr4                                                           
00009a65  __aeabi_memclr8                                                           
00008989  __aeabi_memcpy                                                            
00008989  __aeabi_memcpy4                                                           
00008989  __aeabi_memcpy8                                                           
00009a67  __aeabi_memset                                                            
00009a67  __aeabi_memset4                                                           
00009a67  __aeabi_memset8                                                           
0000b8b5  __aeabi_uidiv                                                             
0000b8b5  __aeabi_uidivmod                                                          
00002f55  __aeabi_uldivmod                                                          
ffffffff  __binit__                                                                 
ffffffff  __c_args__                                                                
0001ffa8  __ccfg                                                                    
20003888  __primary_heap_end__                                                      
20002888  __primary_heap_start__                                                    
20004c00  __stack                                                                   
0000d2f5  _args_main                                                                
0000b5a5  _c_int00                                                                  
200044a4  _lock                                                                     
0000d6a3  _nop                                                                      
0000cac1  _pthread_cleanupFxn                                                       
0000d69b  _register_lock                                                            
0000d695  _register_unlock                                                          
200044a8  _unlock                                                                   
ffffffff  binit                                                                     
2000287c  blePinHandle                                                              
20004408  blePinTable                                                               
20004460  buttonPinTable                                                            
20002534  cBcastDuty                                                                
0000b165  copy_in                                                                   
20004393  defaultUrl                                                                
0001384c  displaySharpHWattrs                                                       
200023a8  displaySharpObject                                                        
000138bc  displayUartHWAttrs                                                        
2000280c  displayUartObject                                                         
20002885  driverlib_release_0_52354                                                 
20002558  fastReportTimeoutClock                                                    
0000d0df  free                                                                      
00013290  g_sFontFixed6x8                                                           
0001375c  g_sharpFxns                                                               
00009b59  getBleIeeeAddr                                                            
20004428  gpioCallbackFunctions                                                     
20004024  gpioPinConfigs                                                            
20004488  hcBcastDuty                                                               
00013520  inPinTypes                                                                
0000d0f9  main                                                                      
20004528  main_func_sp                                                              
0000c49f  malloc                                                                    
00008989  memcpy                                                                    
00009a6d  memset                                                                    
2000276c  nodeEvent                                                                 
200022c0  nodeRadioTask                                                             
0000d9f9  nodeRadioTask_getNodeAddr                                                 
20002310  nodeTask                                                                  
0001352c  outPinStrengths                                                           
00013538  outPinTypes                                                               
20003d58  pOverrides_fsk                                                            
20003b9c  pOverrides_hsm                                                            
20003c58  pOverrides_lrm                                                            
20003bfc  pOverrides_ook                                                            
20003b38  pOverrides_sl_lr                                                          
20003920  pinHandleTable                                                            
2000388c  pinLowerBound                                                             
200044ac  pinTable                                                                  
20003888  pinUpperBound                                                             
20002848  propAdvFrame                                                              
20002680  radioAccessSem                                                            
20002780  radioOperationEvent                                                       
2000269c  radioResultSem                                                            
0000b1c7  rand                                                                      
00013446  resourceDB                                                                
00007875  rfDriverCallback                                                          
0000c929  rfSwitchCallback                                                          
20004478  rfTimeCrit                                                                
0000c039  scifAckAlertEvents                                                        
0000d325  scifClearAlertIntSource                                                   
0001360c  scifDriverSetup                                                           
0000da11  scifGetAlertEvents                                                        
00009dad  scifGetTaskStruct                                                         
000064f5  scifInit                                                                  
00009235  scifInitIo                                                                
0000db51  scifOsalDisableTaskAlertInt                                               
0000db5b  scifOsalEnableTaskAlertInt                                                
0000dbb5  scifOsalEnterCriticalSection                                              
0000c06d  scifOsalInit                                                              
0000da1d  scifOsalLeaveCriticalSection                                              
0000d6bd  scifOsalRegisterCtrlReadyCallback                                         
0000d6d1  scifOsalRegisterTaskAlertCallback                                         
0000ac51  scifReinitIo                                                              
0000b62d  scifStartRtcTicks                                                         
0000b8f5  scifStartRtcTicksNow                                                      
0000d755  scifStartTasksNbl                                                         
0000aca9  scifUninitIo                                                              
20004310  shapeovr                                                                  
00013560  spiCC26XXDMAHWAttrs                                                       
20001aa0  spiCC26XXDMAObjects                                                       
0000b1b1  srand                                                                     
0000d6a9  strlen                                                                    
0000c951  strncmp                                                                   
0000bdc5  strncpy                                                                   
200001a4  ti_sysbios_BIOS_Module__state__V                                          
1001bc25  ti_sysbios_BIOS_RtsGateProxy_Handle__label__S                             
1001bc25  ti_sysbios_BIOS_RtsGateProxy_Handle__label__S__mangled__                  
1001bab5  ti_sysbios_BIOS_RtsGateProxy_Object__delete__S                            
1001c175  ti_sysbios_BIOS_RtsGateProxy_Params__init__S                              
1001c175  ti_sysbios_BIOS_RtsGateProxy_Params__init__S__mangled__                   
1001c245  ti_sysbios_BIOS_RtsGateProxy_enter__E                                     
1001c249  ti_sysbios_BIOS_RtsGateProxy_leave__E                                     
1001c271  ti_sysbios_BIOS_RtsGateProxy_query__E                                     
1001c271  ti_sysbios_BIOS_RtsGateProxy_query__E__mangled__                          
0000c355  ti_sysbios_BIOS_atExitFunc__I                                             
0000d439  ti_sysbios_BIOS_exitFunc__I                                               
1001c031  ti_sysbios_BIOS_exit__E                                                   
1001bff5  ti_sysbios_BIOS_getCpuFreq__E                                             
0000d7ab  ti_sysbios_BIOS_linkedWithIncorrectBootLibrary__E                         
0000dc67  ti_sysbios_BIOS_nullFunc__I                                               
0000cb09  ti_sysbios_BIOS_registerRTSLock__I                                        
0000cb2d  ti_sysbios_BIOS_removeRTSLock__I                                          
0000cd3d  ti_sysbios_BIOS_rtsLock__I                                                
0000d33d  ti_sysbios_BIOS_rtsUnlock__I                                              
1001c041  ti_sysbios_BIOS_setThreadType__E                                          
0000c385  ti_sysbios_BIOS_startFunc__I                                              
1001c051  ti_sysbios_BIOS_start__E                                                  
00008299  ti_sysbios_family_arm_cc26xx_Boot_trimDevice                              
00001406  ti_sysbios_family_arm_cc26xx_Timer_Module__id__C                          
1001bb45  ti_sysbios_family_arm_cc26xx_Timer_Module__startupDone__S                 
200001e4  ti_sysbios_family_arm_cc26xx_Timer_Module__state__V                       
1001ba6d  ti_sysbios_family_arm_cc26xx_Timer_Module_startup__E                      
20003ea0  ti_sysbios_family_arm_cc26xx_Timer_Object__table__V                       
0000cd5d  ti_sysbios_family_arm_cc26xx_Timer_dynamicStub__E                         
0001399c  ti_sysbios_family_arm_cc26xx_Timer_funcHookCH1__C                         
000139a0  ti_sysbios_family_arm_cc26xx_Timer_funcHookCH2__C                         
0000dc5b  ti_sysbios_family_arm_cc26xx_Timer_getCount64__E                          
0000c3b5  ti_sysbios_family_arm_cc26xx_Timer_getCurrentTick__E                      
1001c24d  ti_sysbios_family_arm_cc26xx_Timer_getExpiredTicks__E                     
0000cb51  ti_sysbios_family_arm_cc26xx_Timer_getMaxTicks__E                         
1001c251  ti_sysbios_family_arm_cc26xx_Timer_getPeriod__E                           
0000c0d5  ti_sysbios_family_arm_cc26xx_Timer_initDevice__I                          
1001a465  ti_sysbios_family_arm_cc26xx_Timer_periodicStub__E                        
1001b765  ti_sysbios_family_arm_cc26xx_Timer_postInit__I                            
0000bdfb  ti_sysbios_family_arm_cc26xx_Timer_setNextTick__E                         
1001c255  ti_sysbios_family_arm_cc26xx_Timer_setPeriod__E                           
0000b935  ti_sysbios_family_arm_cc26xx_Timer_setThreshold__I                        
00009089  ti_sysbios_family_arm_cc26xx_Timer_start__E                               
00001384  ti_sysbios_family_arm_cc26xx_Timer_startupNeeded__C                       
1001b791  ti_sysbios_family_arm_cc26xx_Timer_startup__E                             
200001ec  ti_sysbios_family_arm_cc26xx_TimestampProvider_Module__state__V           
1001bb65  ti_sysbios_family_arm_cc26xx_TimestampProvider_Module_startup__E          
0000d94f  ti_sysbios_family_arm_cc26xx_TimestampProvider_get32__E                   
1001b9cd  ti_sysbios_family_arm_cc26xx_TimestampProvider_get64__E                   
1001c12b  ti_sysbios_family_arm_cc26xx_TimestampProvider_getFreq__E                 
00001408  ti_sysbios_family_arm_cc26xx_TimestampProvider_useClockTimer__C           
00001388  ti_sysbios_family_arm_m3_Hwi_E_alreadyDefined__C                          
0000138c  ti_sysbios_family_arm_m3_Hwi_E_hwiLimitExceeded__C                        
1001aed1  ti_sysbios_family_arm_m3_Hwi_Instance_finalize__E                         
1001a3c5  ti_sysbios_family_arm_m3_Hwi_Instance_init__E                             
20004446  ti_sysbios_family_arm_m3_Hwi_Module_State_0_excActive__A                  
2000452c  ti_sysbios_family_arm_m3_Hwi_Module_State_0_excContext__A                 
20004530  ti_sysbios_family_arm_m3_Hwi_Module_State_0_excStack__A                   
0000140a  ti_sysbios_family_arm_m3_Hwi_Module__id__C                                
200044b4  ti_sysbios_family_arm_m3_Hwi_Module__root__V                              
1001bb85  ti_sysbios_family_arm_m3_Hwi_Module__startupDone__S                       
20000144  ti_sysbios_family_arm_m3_Hwi_Module__state__V                             
1001b1c1  ti_sysbios_family_arm_m3_Hwi_Module_startup__E                            
00001390  ti_sysbios_family_arm_m3_Hwi_NUM_INTERRUPTS__C                            
000011d0  ti_sysbios_family_arm_m3_Hwi_Object__DESC__C                              
00001070  ti_sysbios_family_arm_m3_Hwi_Object__PARAMS__C                            
00001394  ti_sysbios_family_arm_m3_Hwi_Object__count__C                             
1001aab1  ti_sysbios_family_arm_m3_Hwi_Object__create__S                            
1001bba5  ti_sysbios_family_arm_m3_Hwi_Object__delete__S                            
1001be65  ti_sysbios_family_arm_m3_Hwi_Object__destruct__S                          
1001b7bd  ti_sysbios_family_arm_m3_Hwi_Object__get__S                               
00001398  ti_sysbios_family_arm_m3_Hwi_Object__table__C                             
20004328  ti_sysbios_family_arm_m3_Hwi_Object__table__V                             
1001c139  ti_sysbios_family_arm_m3_Hwi_Params__init__S                              
0000139c  ti_sysbios_family_arm_m3_Hwi_ccr__C                                       
0000d059  ti_sysbios_family_arm_m3_Hwi_clearInterrupt__E                            
1001af29  ti_sysbios_family_arm_m3_Hwi_construct                                    
0000bb95  ti_sysbios_family_arm_m3_Hwi_construct2__E                                
1001ab15  ti_sysbios_family_arm_m3_Hwi_create                                       
1001c259  ti_sysbios_family_arm_m3_Hwi_delete                                       
1001c25d  ti_sysbios_family_arm_m3_Hwi_destruct                                     
1001c145  ti_sysbios_family_arm_m3_Hwi_disableFxn__E                                
1001b251  ti_sysbios_family_arm_m3_Hwi_disableInterrupt__E                          
1001aa49  ti_sysbios_family_arm_m3_Hwi_dispatchC__I                                 
20001f20  ti_sysbios_family_arm_m3_Hwi_dispatchTable                                
1001c899  ti_sysbios_family_arm_m3_Hwi_dispatch__I                                  
1001c1f7  ti_sysbios_family_arm_m3_Hwi_doSwiRestore__I                              
1001c20f  ti_sysbios_family_arm_m3_Hwi_doTaskRestore__I                             
1001c151  ti_sysbios_family_arm_m3_Hwi_enableFxn__E                                 
1001b295  ti_sysbios_family_arm_m3_Hwi_enableInterrupt__E                           
1001c9fd  ti_sysbios_family_arm_m3_Hwi_excHandlerAsm__I                             
000013a0  ti_sysbios_family_arm_m3_Hwi_excHandlerFunc__C                            
1001bbc5  ti_sysbios_family_arm_m3_Hwi_excHandler__I                                
1001b461  ti_sysbios_family_arm_m3_Hwi_getStackInfo__E                              
1001a695  ti_sysbios_family_arm_m3_Hwi_initNVIC__E                                  
1001c9b5  ti_sysbios_family_arm_m3_Hwi_initStacks__E                                
000013a4  ti_sysbios_family_arm_m3_Hwi_nullIsrFunc__C                               
000013a8  ti_sysbios_family_arm_m3_Hwi_numSparseInterrupts__C                       
e000e000  ti_sysbios_family_arm_m3_Hwi_nvic                                         
1001ca3b  ti_sysbios_family_arm_m3_Hwi_pendSV__I                                    
1001c061  ti_sysbios_family_arm_m3_Hwi_plug__E                                      
1001a315  ti_sysbios_family_arm_m3_Hwi_postInit__I                                  
0000d89d  ti_sysbios_family_arm_m3_Hwi_post__E                                      
000013ac  ti_sysbios_family_arm_m3_Hwi_priGroup__C                                  
20000000  ti_sysbios_family_arm_m3_Hwi_ramVectors                                   
00000000  ti_sysbios_family_arm_m3_Hwi_resetVectors                                 
1001c215  ti_sysbios_family_arm_m3_Hwi_restoreFxn__E                                
1001ca53  ti_sysbios_family_arm_m3_Hwi_return                                       
0000dbf5  ti_sysbios_family_arm_m3_Hwi_setFunc__E                                   
1001be81  ti_sysbios_family_arm_m3_Hwi_setPriority__E                               
1001c1ff  ti_sysbios_family_arm_m3_Hwi_startup__E                                   
000139a4  ti_sysbios_family_arm_m3_Hwi_swiDisable__C                                
000139a8  ti_sysbios_family_arm_m3_Hwi_swiRestoreHwi__C                             
1001c009  ti_sysbios_family_arm_m3_Hwi_switchFromBootStack__E                       
1001c261  ti_sysbios_family_arm_m3_TaskSupport_Module__startupDone__S               
1001c969  ti_sysbios_family_arm_m3_TaskSupport_buildTaskStack                       
1001c15d  ti_sysbios_family_arm_m3_TaskSupport_getStackAlignment__E                 
1001ca55  ti_sysbios_family_arm_m3_TaskSupport_glue                                 
000013b0  ti_sysbios_family_arm_m3_TaskSupport_stackAlignment__C                    
1001b499  ti_sysbios_family_arm_m3_TaskSupport_start__E                             
1001ca65  ti_sysbios_family_arm_m3_TaskSupport_swap__E                              
1001ca1d  ti_sysbios_family_xxx_Hwi_switchAndRunFunc                                
1001bbe5  ti_sysbios_gates_GateHwi_Handle__label__S                                 
1001b45f  ti_sysbios_gates_GateHwi_Instance_init__E                                 
0000111c  ti_sysbios_gates_GateHwi_Module__FXNS__C                                  
0000140c  ti_sysbios_gates_GateHwi_Module__id__C                                    
200044bc  ti_sysbios_gates_GateHwi_Module__root__V                                  
000011f0  ti_sysbios_gates_GateHwi_Object__DESC__C                                  
00001330  ti_sysbios_gates_GateHwi_Object__PARAMS__C                                
1001ba91  ti_sysbios_gates_GateHwi_Object__create__S                                
1001bc05  ti_sysbios_gates_GateHwi_Object__delete__S                                
1001c169  ti_sysbios_gates_GateHwi_enter__E                                         
1001c21b  ti_sysbios_gates_GateHwi_leave__E                                         
1001c265  ti_sysbios_gates_GateHwi_query__E                                         
1001bc25  ti_sysbios_gates_GateMutex_Handle__label__S                               
000014d0  ti_sysbios_gates_GateMutex_Instance_State_sem__O                          
1001c071  ti_sysbios_gates_GateMutex_Instance_finalize__E                           
1001be9d  ti_sysbios_gates_GateMutex_Instance_init__E                               
00001140  ti_sysbios_gates_GateMutex_Module__FXNS__C                                
0000140e  ti_sysbios_gates_GateMutex_Module__id__C                                  
200044c4  ti_sysbios_gates_GateMutex_Module__root__V                                
00001210  ti_sysbios_gates_GateMutex_Object__DESC__C                                
00001348  ti_sysbios_gates_GateMutex_Object__PARAMS__C                              
1001b645  ti_sysbios_gates_GateMutex_Object__create__S                              
1001bab5  ti_sysbios_gates_GateMutex_Object__delete__S                              
1001bc45  ti_sysbios_gates_GateMutex_Object__destruct__S                            
20003dac  ti_sysbios_gates_GateMutex_Object__table__V                               
1001c175  ti_sysbios_gates_GateMutex_Params__init__S                                
1001b7e9  ti_sysbios_gates_GateMutex_construct                                      
1001b675  ti_sysbios_gates_GateMutex_create                                         
1001c269  ti_sysbios_gates_GateMutex_delete                                         
1001c26d  ti_sysbios_gates_GateMutex_destruct                                       
1001b6a5  ti_sysbios_gates_GateMutex_enter__E                                       
1001bf99  ti_sysbios_gates_GateMutex_leave__E                                       
1001c271  ti_sysbios_gates_GateMutex_query__E                                       
1001c275  ti_sysbios_hal_Hwi_HwiProxy_Module__startupDone__S                        
1001bb85  ti_sysbios_hal_Hwi_HwiProxy_Module__startupDone__S__mangled__             
1001c081  ti_sysbios_hal_Hwi_HwiProxy_Object__create__S                             
1001bba5  ti_sysbios_hal_Hwi_HwiProxy_Object__delete__S                             
1001c139  ti_sysbios_hal_Hwi_HwiProxy_Params__init__S                               
1001c139  ti_sysbios_hal_Hwi_HwiProxy_Params__init__S__mangled__                    
0000d059  ti_sysbios_hal_Hwi_HwiProxy_clearInterrupt__E                             
1001be45  ti_sysbios_hal_Hwi_HwiProxy_create                                        
1001c279  ti_sysbios_hal_Hwi_HwiProxy_delete                                        
1001c27d  ti_sysbios_hal_Hwi_HwiProxy_disableInterrupt__E                           
1001b251  ti_sysbios_hal_Hwi_HwiProxy_disableInterrupt__E__mangled__                
1001c281  ti_sysbios_hal_Hwi_HwiProxy_enableInterrupt__E                            
1001b295  ti_sysbios_hal_Hwi_HwiProxy_enableInterrupt__E__mangled__                 
1001c285  ti_sysbios_hal_Hwi_HwiProxy_getStackInfo__E                               
1001b461  ti_sysbios_hal_Hwi_HwiProxy_getStackInfo__E__mangled__                    
0000d89d  ti_sysbios_hal_Hwi_HwiProxy_post__E                                       
1001c289  ti_sysbios_hal_Hwi_HwiProxy_startup__E                                    
1001c1ff  ti_sysbios_hal_Hwi_HwiProxy_startup__E__mangled__                         
1001c28d  ti_sysbios_hal_Hwi_HwiProxy_switchFromBootStack__E                        
1001c009  ti_sysbios_hal_Hwi_HwiProxy_switchFromBootStack__E__mangled__             
1001c1ed  ti_sysbios_hal_Hwi_Instance_finalize__E                                   
1001b9f5  ti_sysbios_hal_Hwi_Instance_init__E                                       
200044cc  ti_sysbios_hal_Hwi_Module__root__V                                        
1001c01d  ti_sysbios_hal_Hwi_Module_startup__E                                      
00001230  ti_sysbios_hal_Hwi_Object__DESC__C                                        
000010a0  ti_sysbios_hal_Hwi_Object__PARAMS__C                                      
1001bc65  ti_sysbios_hal_Hwi_Object__delete__S                                      
0000d059  ti_sysbios_hal_Hwi_clearInterrupt__E                                      
1001ab79  ti_sysbios_hal_Hwi_create                                                 
1001c291  ti_sysbios_hal_Hwi_delete                                                 
1001c27d  ti_sysbios_hal_Hwi_disableInterrupt__E                                    
1001c27d  ti_sysbios_hal_Hwi_disableInterrupt__E                                    
1001c281  ti_sysbios_hal_Hwi_enableInterrupt__E                                     
1001c281  ti_sysbios_hal_Hwi_enableInterrupt__E                                     
1001c285  ti_sysbios_hal_Hwi_getStackInfo__E                                        
1001c285  ti_sysbios_hal_Hwi_getStackInfo__E                                        
1001b815  ti_sysbios_hal_Hwi_initStack                                              
0000d89d  ti_sysbios_hal_Hwi_post__E                                                
1001c289  ti_sysbios_hal_Hwi_startup__E                                             
1001c289  ti_sysbios_hal_Hwi_startup__E                                             
1001c295  ti_sysbios_hal_Hwi_switchFromBootStack__E                                 
1001c295  ti_sysbios_hal_Hwi_switchFromBootStack__E                                 
000013b4  ti_sysbios_heaps_HeapMem_E_memory__C                                      
1001bc85  ti_sysbios_heaps_HeapMem_Handle__label__S                                 
1001b4d1  ti_sysbios_heaps_HeapMem_Instance_init__E                                 
1001bc25  ti_sysbios_heaps_HeapMem_Module_GateProxy_Handle__label__S                
1001bc25  ti_sysbios_heaps_HeapMem_Module_GateProxy_Handle__label__S__mangled__     
1001bab5  ti_sysbios_heaps_HeapMem_Module_GateProxy_Object__delete__S               
1001c175  ti_sysbios_heaps_HeapMem_Module_GateProxy_Params__init__S                 
1001c175  ti_sysbios_heaps_HeapMem_Module_GateProxy_Params__init__S__mangled__      
1001c299  ti_sysbios_heaps_HeapMem_Module_GateProxy_enter__E                        
1001c29d  ti_sysbios_heaps_HeapMem_Module_GateProxy_leave__E                        
1001c271  ti_sysbios_heaps_HeapMem_Module_GateProxy_query__E                        
1001c271  ti_sysbios_heaps_HeapMem_Module_GateProxy_query__E__mangled__             
000010cc  ti_sysbios_heaps_HeapMem_Module__FXNS__C                                  
000013b8  ti_sysbios_heaps_HeapMem_Module__gateObj__C                               
00001410  ti_sysbios_heaps_HeapMem_Module__id__C                                    
200044d4  ti_sysbios_heaps_HeapMem_Module__root__V                                  
00001250  ti_sysbios_heaps_HeapMem_Object__DESC__C                                  
00001164  ti_sysbios_heaps_HeapMem_Object__PARAMS__C                                
000013bc  ti_sysbios_heaps_HeapMem_Object__count__C                                 
1001b841  ti_sysbios_heaps_HeapMem_Object__create__S                                
1001bca5  ti_sysbios_heaps_HeapMem_Object__delete__S                                
1001b86d  ti_sysbios_heaps_HeapMem_Object__get__S                                   
000013c0  ti_sysbios_heaps_HeapMem_Object__table__C                                 
20004340  ti_sysbios_heaps_HeapMem_Object__table__V                                 
1001a195  ti_sysbios_heaps_HeapMem_alloc__E                                         
1001a791  ti_sysbios_heaps_HeapMem_free__E                                          
1001b209  ti_sysbios_heaps_HeapMem_getStats__E                                      
0000a9e1  ti_sysbios_heaps_HeapMem_initPrimary__I                                   
1001b541  ti_sysbios_heaps_HeapMem_init__I                                          
1001c2a1  ti_sysbios_heaps_HeapMem_isBlocking__E                                    
000139ac  ti_sysbios_heaps_HeapMem_primaryHeapBaseAddr__C                           
000139b0  ti_sysbios_heaps_HeapMem_primaryHeapEndAddr__C                            
000013c4  ti_sysbios_heaps_HeapMem_reqAlign__C                                      
1001c101  ti_sysbios_heaps_HeapMem_restore__E                                       
1001bfc9  ti_sysbios_knl_Clock_Instance_finalize__E                                 
1001b509  ti_sysbios_knl_Clock_Instance_init__E                                     
000014d4  ti_sysbios_knl_Clock_Module_State_clockQ__O                               
200044dc  ti_sysbios_knl_Clock_Module__root__V                                      
20000178  ti_sysbios_knl_Clock_Module__state__V                                     
1001bcc5  ti_sysbios_knl_Clock_Module_startup__E                                    
00001270  ti_sysbios_knl_Clock_Object__DESC__C                                      
00001188  ti_sysbios_knl_Clock_Object__PARAMS__C                                    
1001bad9  ti_sysbios_knl_Clock_Object__delete__S                                    
1001bce5  ti_sysbios_knl_Clock_Object__destruct__S                                  
2000418c  ti_sysbios_knl_Clock_Object__table__V                                     
1001c181  ti_sysbios_knl_Clock_Params__init__S                                      
1001c2a5  ti_sysbios_knl_Clock_TimerProxy_Module__startupDone__S                    
1001bb45  ti_sysbios_knl_Clock_TimerProxy_Module__startupDone__S__mangled__         
1001c091  ti_sysbios_knl_Clock_TimerProxy_getCurrentTick__E                         
1001c2a9  ti_sysbios_knl_Clock_TimerProxy_getExpiredTicks__E                        
1001c0a1  ti_sysbios_knl_Clock_TimerProxy_getMaxTicks__E                            
1001c2ad  ti_sysbios_knl_Clock_TimerProxy_getPeriod__E                              
1001c0b1  ti_sysbios_knl_Clock_TimerProxy_setNextTick__E                            
1001b791  ti_sysbios_knl_Clock_TimerProxy_startup__E                                
1001b791  ti_sysbios_knl_Clock_TimerProxy_startup__E__mangled__                     
1001ba1d  ti_sysbios_knl_Clock_addI__E                                              
1001b575  ti_sysbios_knl_Clock_construct                                            
1001b3e9  ti_sysbios_knl_Clock_create                                               
1001c2b1  ti_sysbios_knl_Clock_delete                                               
1001c2b5  ti_sysbios_knl_Clock_destruct                                             
0000d6e5  ti_sysbios_knl_Clock_doTick__I                                            
0000c735  ti_sysbios_knl_Clock_getTicksUntilInterrupt__E                            
1001b6d5  ti_sysbios_knl_Clock_getTicks__E                                          
0000c7e3  ti_sysbios_knl_Clock_getTimeout__E                                        
1001c18d  ti_sysbios_knl_Clock_getTimerHandle__E                                    
0000dc5f  ti_sysbios_knl_Clock_isActive__E                                          
1001be63  ti_sysbios_knl_Clock_logTick__E                                           
1001c2b9  ti_sysbios_knl_Clock_removeI__E                                           
1001beb9  ti_sysbios_knl_Clock_scheduleNextTick__E                                  
000013c8  ti_sysbios_knl_Clock_serviceMargin__C                                     
1001c2bd  ti_sysbios_knl_Clock_setTimeout__E                                        
1001a715  ti_sysbios_knl_Clock_startI__E                                            
1001bfdf  ti_sysbios_knl_Clock_start__E                                             
0000cd7d  ti_sysbios_knl_Clock_stop__E                                              
00001414  ti_sysbios_knl_Clock_tickMode__C                                          
000139b4  ti_sysbios_knl_Clock_tickPeriod__C                                        
000139b8  ti_sysbios_knl_Clock_triggerClock__C                                      
0000dc69  ti_sysbios_knl_Clock_triggerFunc__I                                       
1001a809  ti_sysbios_knl_Clock_walkQueueDynamic__E                                  
00008c85  ti_sysbios_knl_Clock_workFuncDynamic__E                                   
1001a881  ti_sysbios_knl_Clock_workFunc__E                                          
000139bc  ti_sysbios_knl_Event_Instance_State_pendQ__O                              
0000d6f9  ti_sysbios_knl_Event_Instance_init__E                                     
200044e4  ti_sysbios_knl_Event_Module__root__V                                      
0001377c  ti_sysbios_knl_Event_Object__DESC__C                                      
0001387c  ti_sysbios_knl_Event_Object__PARAMS__C                                    
0000da59  ti_sysbios_knl_Event_Params__init__S                                      
0000cd9d  ti_sysbios_knl_Event_checkEvents__I                                       
0000c761  ti_sysbios_knl_Event_construct                                            
0000c78d  ti_sysbios_knl_Event_pendTimeout__I                                       
00006ab5  ti_sysbios_knl_Event_pend__E                                              
00009e1d  ti_sysbios_knl_Event_post__E                                              
0001397c  ti_sysbios_knl_Idle_funcList__A                                           
00001378  ti_sysbios_knl_Idle_funcList__C                                           
1001c207  ti_sysbios_knl_Idle_loop__E                                               
1001bd05  ti_sysbios_knl_Idle_run__E                                                
000014d8  ti_sysbios_knl_Mailbox_Instance_State_dataQue__O                          
000014dc  ti_sysbios_knl_Mailbox_Instance_State_dataSem__O                          
000014e0  ti_sysbios_knl_Mailbox_Instance_State_freeQue__O                          
000014e4  ti_sysbios_knl_Mailbox_Instance_State_freeSem__O                          
1001a8f9  ti_sysbios_knl_Mailbox_Instance_finalize__E                               
1001a0cd  ti_sysbios_knl_Mailbox_Instance_init__E                                   
200044ec  ti_sysbios_knl_Mailbox_Module__root__V                                    
1001b2d9  ti_sysbios_knl_Mailbox_Module_startup__E                                  
00001290  ti_sysbios_knl_Mailbox_Object__DESC__C                                    
0000103c  ti_sysbios_knl_Mailbox_Object__PARAMS__C                                  
000013cc  ti_sysbios_knl_Mailbox_Object__count__C                                   
1001bd25  ti_sysbios_knl_Mailbox_Object__delete__S                                  
1001bed5  ti_sysbios_knl_Mailbox_Object__destruct__S                                
1001b899  ti_sysbios_knl_Mailbox_Object__get__S                                     
000013d0  ti_sysbios_knl_Mailbox_Object__table__C                                   
1001c199  ti_sysbios_knl_Mailbox_Params__init__S                                    
1001af81  ti_sysbios_knl_Mailbox_construct                                          
1001abdd  ti_sysbios_knl_Mailbox_create                                             
1001c2c1  ti_sysbios_knl_Mailbox_delete                                             
1001c2c5  ti_sysbios_knl_Mailbox_destruct                                           
000013d4  ti_sysbios_knl_Mailbox_maxTypeAlign__C                                    
1001a969  ti_sysbios_knl_Mailbox_pend__E                                            
1001b8c5  ti_sysbios_knl_Mailbox_postInit__I                                        
1001a58d  ti_sysbios_knl_Mailbox_post__E                                            
1001c227  ti_sysbios_knl_Queue_Instance_init__E                                     
200044f4  ti_sysbios_knl_Queue_Module__root__V                                      
000012b0  ti_sysbios_knl_Queue_Object__DESC__C                                      
00001360  ti_sysbios_knl_Queue_Object__PARAMS__C                                    
000013d8  ti_sysbios_knl_Queue_Object__count__C                                     
1001bd45  ti_sysbios_knl_Queue_Object__delete__S                                    
1001bef1  ti_sysbios_knl_Queue_Object__destruct__S                                  
1001bd65  ti_sysbios_knl_Queue_Object__get__S                                       
000013dc  ti_sysbios_knl_Queue_Object__table__C                                     
1001b8f1  ti_sysbios_knl_Queue_construct                                            
1001b91d  ti_sysbios_knl_Queue_create                                               
1001c2c9  ti_sysbios_knl_Queue_delete                                               
1001c1a5  ti_sysbios_knl_Queue_dequeue__E                                           
1001c2cd  ti_sysbios_knl_Queue_destruct                                             
1001c22d  ti_sysbios_knl_Queue_elemClear__E                                         
1001c10f  ti_sysbios_knl_Queue_empty__E                                             
1001c1b1  ti_sysbios_knl_Queue_enqueue__E                                           
1001bf0d  ti_sysbios_knl_Queue_get__E                                               
1001c2d1  ti_sysbios_knl_Queue_head__E                                              
1001c2d5  ti_sysbios_knl_Queue_next__E                                              
1001bf29  ti_sysbios_knl_Queue_put__E                                               
1001c11d  ti_sysbios_knl_Queue_remove__E                                            
000014e8  ti_sysbios_knl_Semaphore_Instance_State_pendQ__O                          
1001c0c1  ti_sysbios_knl_Semaphore_Instance_finalize__E                             
1001bafd  ti_sysbios_knl_Semaphore_Instance_init__E                                 
200044fc  ti_sysbios_knl_Semaphore_Module__root__V                                  
000012d0  ti_sysbios_knl_Semaphore_Object__DESC__C                                  
000011ac  ti_sysbios_knl_Semaphore_Object__PARAMS__C                                
1001bb21  ti_sysbios_knl_Semaphore_Object__delete__S                                
1001bd85  ti_sysbios_knl_Semaphore_Object__destruct__S                              
1001c1bd  ti_sysbios_knl_Semaphore_Params__init__S                                  
1001b705  ti_sysbios_knl_Semaphore_construct                                        
1001b5a9  ti_sysbios_knl_Semaphore_create                                           
1001c2d9  ti_sysbios_knl_Semaphore_delete                                           
1001c2dd  ti_sysbios_knl_Semaphore_destruct                                         
1001b949  ti_sysbios_knl_Semaphore_pendTimeout__I                                   
1001a001  ti_sysbios_knl_Semaphore_pend__E                                          
1001ac41  ti_sysbios_knl_Semaphore_post__E                                          
1001bf97  ti_sysbios_knl_Swi_Instance_finalize__E                                   
1001aca5  ti_sysbios_knl_Swi_Instance_init__E                                       
20003f94  ti_sysbios_knl_Swi_Module_State_0_readyQ__A                               
20004504  ti_sysbios_knl_Swi_Module__root__V                                        
200001c8  ti_sysbios_knl_Swi_Module__state__V                                       
1001c233  ti_sysbios_knl_Swi_Module_startup__E                                      
000012f0  ti_sysbios_knl_Swi_Object__DESC__C                                        
000010f4  ti_sysbios_knl_Swi_Object__PARAMS__C                                      
000013e0  ti_sysbios_knl_Swi_Object__count__C                                       
1001bda5  ti_sysbios_knl_Swi_Object__delete__S                                      
1001bf45  ti_sysbios_knl_Swi_Object__destruct__S                                    
1001b975  ti_sysbios_knl_Swi_Object__get__S                                         
000013e4  ti_sysbios_knl_Swi_Object__table__C                                       
20003fc4  ti_sysbios_knl_Swi_Object__table__V                                       
1001c1c9  ti_sysbios_knl_Swi_Params__init__S                                        
1001b085  ti_sysbios_knl_Swi_construct                                              
0000d075  ti_sysbios_knl_Swi_construct2__E                                          
1001ad05  ti_sysbios_knl_Swi_create                                                 
1001c2e1  ti_sysbios_knl_Swi_delete                                                 
1001c2e5  ti_sysbios_knl_Swi_destruct                                               
1001c0d1  ti_sysbios_knl_Swi_disable__E                                             
1001c0e1  ti_sysbios_knl_Swi_enabled__E                                             
0000daa1  ti_sysbios_knl_Swi_getTrigger__E                                          
000013e8  ti_sysbios_knl_Swi_numPriorities__C                                       
0000d355  ti_sysbios_knl_Swi_or__E                                                  
1001c2e9  ti_sysbios_knl_Swi_postInit__I                                            
1001b31d  ti_sysbios_knl_Swi_post__E                                                
1001ad61  ti_sysbios_knl_Swi_restoreHwi__E                                          
1001b5dd  ti_sysbios_knl_Swi_restore__E                                             
1001b0d5  ti_sysbios_knl_Swi_runLoop__I                                             
1001afd9  ti_sysbios_knl_Swi_run__I                                                 
1001b031  ti_sysbios_knl_Swi_schedule__I                                            
0000c109  ti_sysbios_knl_Swi_setPri__E                                              
1001c239  ti_sysbios_knl_Swi_startup__E                                             
200018a0  ti_sysbios_knl_Task_Instance_State_0_stack__A                             
1001a4f9  ti_sysbios_knl_Task_Instance_finalize__E                                  
1001a259  ti_sysbios_knl_Task_Instance_init__E                                      
20004534  ti_sysbios_knl_Task_Module_State_0_idleTask__A                            
20003ff4  ti_sysbios_knl_Task_Module_State_0_readyQ__A                              
000014ec  ti_sysbios_knl_Task_Module_State_inactiveQ__O                             
2000450c  ti_sysbios_knl_Task_Module__root__V                                       
20000100  ti_sysbios_knl_Task_Module__state__V                                      
1001adbd  ti_sysbios_knl_Task_Module_startup__E                                     
00001310  ti_sysbios_knl_Task_Object__DESC__C                                       
00001000  ti_sysbios_knl_Task_Object__PARAMS__C                                     
000013ec  ti_sysbios_knl_Task_Object__count__C                                      
1001bdc5  ti_sysbios_knl_Task_Object__delete__S                                     
1001bf61  ti_sysbios_knl_Task_Object__destruct__S                                   
1001bde5  ti_sysbios_knl_Task_Object__get__S                                        
000139c0  ti_sysbios_knl_Task_Object__heap__C                                       
000013f0  ti_sysbios_knl_Task_Object__table__C                                      
20003e54  ti_sysbios_knl_Task_Object__table__V                                      
1001c1d5  ti_sysbios_knl_Task_Params__init__S                                       
1001c2ed  ti_sysbios_knl_Task_SupportProxy_Module__startupDone__S                   
1001c261  ti_sysbios_knl_Task_SupportProxy_Module__startupDone__S__mangled__        
1001c2f1  ti_sysbios_knl_Task_SupportProxy_getStackAlignment__E                     
1001c15d  ti_sysbios_knl_Task_SupportProxy_getStackAlignment__E__mangled__          
1001c2f5  ti_sysbios_knl_Task_SupportProxy_start__E                                 
1001b499  ti_sysbios_knl_Task_SupportProxy_start__E__mangled__                      
1001c2f9  ti_sysbios_knl_Task_SupportProxy_swap__E                                  
1001ca65  ti_sysbios_knl_Task_SupportProxy_swap__E__mangled__                       
000013f4  ti_sysbios_knl_Task_allBlockedFunc__C                                     
1001b361  ti_sysbios_knl_Task_allBlockedFunction__I                                 
1001b611  ti_sysbios_knl_Task_blockI__E                                             
1001b125  ti_sysbios_knl_Task_construct                                             
1001ae19  ti_sysbios_knl_Task_create                                                
000013f8  ti_sysbios_knl_Task_defaultStackHeap__C                                   
000013fc  ti_sysbios_knl_Task_defaultStackSize__C                                   
1001c2fd  ti_sysbios_knl_Task_delete                                                
1001c301  ti_sysbios_knl_Task_destruct                                              
1001c0f1  ti_sysbios_knl_Task_disable__E                                            
1001c23f  ti_sysbios_knl_Task_enable__E                                             
1001be05  ti_sysbios_knl_Task_enter__I                                              
1001b425  ti_sysbios_knl_Task_exit__E                                               
00001412  ti_sysbios_knl_Task_initStackFlag__C                                      
00001400  ti_sysbios_knl_Task_numConstructedTasks__C                                
1001a611  ti_sysbios_knl_Task_postInit__I                                           
1001b735  ti_sysbios_knl_Task_processVitalTaskFlag__I                               
1001be25  ti_sysbios_knl_Task_restoreHwi__E                                         
1001ba45  ti_sysbios_knl_Task_restore__E                                            
1001b175  ti_sysbios_knl_Task_schedule__I                                           
1001c1e1  ti_sysbios_knl_Task_self__E                                               
1001bf7d  ti_sysbios_knl_Task_sleepTimeout__I                                       
1001a9d9  ti_sysbios_knl_Task_sleep__E                                              
1001ae75  ti_sysbios_knl_Task_startCore__E                                          
1001c305  ti_sysbios_knl_Task_startup__E                                            
1001ca6d  ti_sysbios_knl_Task_swapReturn                                            
1001b9a1  ti_sysbios_knl_Task_unblockI__E                                           
1001bfb1  ti_sysbios_knl_Task_unblock__E                                            
1001b3a5  ti_sysbios_knl_Task_yield__E                                              
00001494  ti_sysbios_rom_ROM_AONRTCChannelEnable                                    
00001498  ti_sysbios_rom_ROM_AONRTCCompareValueSet                                  
0000149c  ti_sysbios_rom_ROM_AONRTCCurrentCompareValueGet                           
000014a0  ti_sysbios_rom_ROM_AONRTCEventClear                                       
000014a4  ti_sysbios_rom_ROM_ti_sysbios_family_arm_cc26xx_Timer_getCount64__E       
000014a8  ti_sysbios_rom_ROM_ti_sysbios_family_arm_cc26xx_Timer_getCurrentTick__E   
000014ac  ti_sysbios_rom_ROM_ti_sysbios_family_arm_cc26xx_Timer_getMaxTicks__E      
000014b0  ti_sysbios_rom_ROM_ti_sysbios_family_arm_cc26xx_Timer_initDevice__I       
000014b4  ti_sysbios_rom_ROM_ti_sysbios_family_arm_cc26xx_Timer_setNextTick__E      
000014b8  ti_sysbios_rom_ROM_ti_sysbios_family_arm_cc26xx_Timer_setThreshold__I     
000014bc  ti_sysbios_rom_ROM_ti_sysbios_family_arm_cc26xx_Timer_start__E            
000014c0  ti_sysbios_rom_ROM_ti_sysbios_family_arm_cc26xx_TimestampProvider_get32__E
000014c4  ti_sysbios_rom_ROM_xdc_runtime_Startup_getState__I                        
000014c8  ti_sysbios_rom_ROM_xdc_runtime_System_SupportProxy_abort__E               
000014cc  ti_sysbios_rom_ROM_xdc_runtime_System_SupportProxy_exit__E                
0000dc6b  ti_sysbios_rom_cortexm_cc13xx_CC13xx_badRomRevision__E                    
0000d36d  ti_sysbios_rom_cortexm_cc13xx_CC13xx_checkRevision__E                     
1001ca97  ti_sysbios_rom_cortexm_cc13xx_CC13xx_getRevision__E                       
200041ec  tlmAdvData                                                                
20002850  tlmAdvFrame                                                               
00013664  uartCC26XXHWAttrs                                                         
20001c68  uartCC26XXObjects                                                         
2000257c  uartCC26XXRingBuffer                                                      
20002858  ubBDAddr                                                                  
000133df  ubFeModeBias                                                              
20004140  ubParams                                                                  
00013924  ubRfMode                                                                  
20003e00  ubRfRegOverride                                                           
00013994  ubTxPowerTable                                                            
0001368c  ubTxPowerVal                                                              
2000447c  ubleAntSwitchSel                                                          
00009bd1  uble_buildAndPostEvt                                                      
000093cd  uble_checkAddr                                                            
0000c3e5  uble_getPublicAddr                                                        
00009fd5  uble_processGAPMsg                                                        
0000452d  uble_processLLMsg                                                         
0000b3b9  uble_processMsg                                                           
0000d385  uble_registerAntSwitchCB                                                  
00004221  uble_setParameter                                                         
00009665  uble_stackInit                                                            
0001398c  udmaHWAttrs                                                               
2000259c  udmaObjects                                                               
00009119  ugap_bcastInit                                                            
0000a755  ugap_bcastSetDuty                                                         
0000c13d  ugap_bcastStart                                                           
0000cdbd  ugap_bcastStop                                                            
0000bce9  ugap_clockHandler                                                         
0000b401  ugb_advPostprocessCB                                                      
0000c979  ugb_advPrepareCB                                                          
2000420b  uidAdvData                                                                
20002860  uidAdvFrame                                                               
20004438  ulState                                                                   
00008db5  ull_advDoneCb                                                             
0000cddd  ull_advRegisterCB                                                         
00001b09  ull_advSchedule                                                           
0000b1fd  ull_advStart                                                              
00009c49  ull_advStop                                                               
0000c171  ull_clockHandler                                                          
00008d1d  ull_init                                                                  
20002360  urAdvCmd                                                                  
20004520  urAdvHandle                                                               
200041ac  urAdvParams                                                               
2000451c  urHandle                                                                  
20004118  urSetup                                                                   
0000b249  urfi_clientEventCb                                                        
0000a7b5  urfi_getTxPowerVal                                                        
000077a9  urfi_init                                                                 
00003bd5  urfi_initAdvCmd                                                           
2000422a  urlAdvData                                                                
20002868  urlAdvFrame                                                               
00001428  xdc_runtime_Assert_E_assertFailed__C                                      
1001c5a5  xdc_runtime_Assert_raise__I                                               
1001c6e9  xdc_runtime_Core_assignLabel__I                                           
1001c5ed  xdc_runtime_Core_assignParams__I                                          
1001c635  xdc_runtime_Core_constructObject__I                                       
1001c401  xdc_runtime_Core_createObject__I                                          
1001c4f5  xdc_runtime_Core_deleteObject__I                                          
1001c79d  xdc_runtime_Core_destructObject__I                                        
0000142c  xdc_runtime_Error_E_memory__C                                             
200041cc  xdc_runtime_Error_IgnoreBlock                                             
1001c7b5  xdc_runtime_Error_check__E                                                
0000d39d  xdc_runtime_Error_init__E                                                 
00001430  xdc_runtime_Error_policyFxn__C                                            
0000ce1d  xdc_runtime_Error_policyMin__E                                            
1001c483  xdc_runtime_Error_policySpin__E                                           
00001490  xdc_runtime_Error_policy__C                                               
1001c765  xdc_runtime_Error_raiseX__E                                               
1001c881  xdc_runtime_Gate_enterSystem__E                                           
1001c875  xdc_runtime_Gate_leaveSystem__E                                           
00001434  xdc_runtime_IGateProvider_Interface__BASE__C                              
00001438  xdc_runtime_IHeap_Interface__BASE__C                                      
0000143c  xdc_runtime_IModule_Interface__BASE__C                                    
1001bbe5  xdc_runtime_Main_Module_GateProxy_Handle__label__S                        
1001c265  xdc_runtime_Main_Module_GateProxy_query__E                                
00001440  xdc_runtime_Main_Module__diagsEnabled__C                                  
00001444  xdc_runtime_Main_Module__diagsIncluded__C                                 
00001448  xdc_runtime_Main_Module__diagsMask__C                                     
00001488  xdc_runtime_Main_Module__id__C                                            
1001bc85  xdc_runtime_Memory_HeapProxy_Handle__label__S                             
1001bc85  xdc_runtime_Memory_HeapProxy_Handle__label__S__mangled__                  
1001bca5  xdc_runtime_Memory_HeapProxy_Object__delete__S                            
1001c885  xdc_runtime_Memory_HeapProxy_alloc__E                                     
1001c889  xdc_runtime_Memory_HeapProxy_free__E                                      
0000148a  xdc_runtime_Memory_Module__id__C                                          
20000200  xdc_runtime_Memory_Module__state__V                                       
1001c485  xdc_runtime_Memory_alloc__E                                               
1001c849  xdc_runtime_Memory_calloc__E                                              
0000144c  xdc_runtime_Memory_defaultHeapInstance__C                                 
1001c7fd  xdc_runtime_Memory_free__E                                                
1001c855  xdc_runtime_Memory_getMaxDefaultTypeAlign__E                              
1001c781  xdc_runtime_Memory_valloc__E                                              
200001f0  xdc_runtime_Startup_Module__state__V                                      
00000001  xdc_runtime_Startup__EXECFXN__C                                           
00000001  xdc_runtime_Startup__RESETFXN__C                                          
00001450  xdc_runtime_Startup_execImpl__C                                           
1001c555  xdc_runtime_Startup_exec__E                                               
0000d779  xdc_runtime_Startup_exec__I                                               
0001394c  xdc_runtime_Startup_firstFxns__A                                          
00001418  xdc_runtime_Startup_firstFxns__C                                          
0000aa3d  xdc_runtime_Startup_getState__I                                           
00001420  xdc_runtime_Startup_lastFxns__C                                           
00001454  xdc_runtime_Startup_maxPasses__C                                          
0000daad  xdc_runtime_Startup_reset__I                                              
0000dab9  xdc_runtime_Startup_rtsDone__E                                            
000138d0  xdc_runtime_Startup_sfxnRts__A                                            
00001458  xdc_runtime_Startup_sfxnRts__C                                            
000136d8  xdc_runtime_Startup_sfxnTab__A                                            
0000145c  xdc_runtime_Startup_sfxnTab__C                                            
00001460  xdc_runtime_Startup_startModsFxn__C                                       
1001c309  xdc_runtime_Startup_startMods__I                                          
00001464  xdc_runtime_SysCallback_abortFxn__C                                       
1001c80d  xdc_runtime_SysCallback_abort__E                                          
0000dc6d  xdc_runtime_SysCallback_defaultAbort                                      
0000dc6f  xdc_runtime_SysCallback_defaultExit                                       
0000dc71  xdc_runtime_SysCallback_defaultPutch                                      
0000dc63  xdc_runtime_SysCallback_defaultReady                                      
00001468  xdc_runtime_SysCallback_exitFxn__C                                        
1001c81d  xdc_runtime_SysCallback_exit__E                                           
000139c4  xdc_runtime_SysCallback_putchFxn__C                                       
0000d8bd  xdc_runtime_SysCallback_putch__E                                          
000139c8  xdc_runtime_SysCallback_readyFxn__C                                       
0000d8cd  xdc_runtime_SysCallback_ready__E                                          
1001bbe5  xdc_runtime_System_Module_GateProxy_Handle__label__S                      
1001bbe5  xdc_runtime_System_Module_GateProxy_Handle__label__S__mangled__           
1001bc05  xdc_runtime_System_Module_GateProxy_Object__delete__S                     
1001c88d  xdc_runtime_System_Module_GateProxy_enter__E                              
1001c891  xdc_runtime_System_Module_GateProxy_leave__E                              
1001c265  xdc_runtime_System_Module_GateProxy_query__E                              
1001c265  xdc_runtime_System_Module_GateProxy_query__E__mangled__                   
20004514  xdc_runtime_System_Module_State_0_atexitHandlers__A                       
200001f8  xdc_runtime_System_Module__state__V                                       
1001c87b  xdc_runtime_System_Module_startup__E                                      
1001c80d  xdc_runtime_System_SupportProxy_abort__E                                  
1001c81d  xdc_runtime_System_SupportProxy_exit__E                                   
0000d8bd  xdc_runtime_System_SupportProxy_putch__E                                  
0000d8cd  xdc_runtime_System_SupportProxy_ready__E                                  
0000146c  xdc_runtime_System_abortFxn__C                                            
1001c895  xdc_runtime_System_abortSpin__E                                           
1001c745  xdc_runtime_System_abort__E                                               
1001c67d  xdc_runtime_System_atexit__E                                              
000017fd  xdc_runtime_System_doPrint__I                                             
00001470  xdc_runtime_System_exitFxn__C                                             
1001c897  xdc_runtime_System_exitSpin__E                                            
1001c7cd  xdc_runtime_System_exit__E                                                
000139cc  xdc_runtime_System_extendFxn__C                                           
00009e8d  xdc_runtime_System_formatNum__I                                           
00001474  xdc_runtime_System_maxAtexitHandlers__C                                   
000046a1  xdc_runtime_System_printfExtend__I                                        
1001c6b5  xdc_runtime_System_processAtExit__E                                       
0000c80d  xdc_runtime_System_putchar__I                                             
0000d8dd  xdc_runtime_System_vsnprintf__E                                           
0000148c  xdc_runtime_Text_charCnt__C                                               
00013492  xdc_runtime_Text_charTab__A                                               
00001478  xdc_runtime_Text_charTab__C                                               
1001c719  xdc_runtime_Text_cordText__E                                              
0000148e  xdc_runtime_Text_isLoaded__C                                              
0000147c  xdc_runtime_Text_nameEmpty__C                                             
00001480  xdc_runtime_Text_nameStatic__C                                            
00001484  xdc_runtime_Text_nameUnknown__C                                           
1001c7e5  xdc_runtime_Text_ropeText__E                                              
1001c82d  xdc_runtime_Timestamp_SupportProxy_get32__E                               
0000d94f  xdc_runtime_Timestamp_SupportProxy_get32__E__mangled__                    
1001b9cd  xdc_runtime_Timestamp_SupportProxy_get64__E                               
1001b9cd  xdc_runtime_Timestamp_SupportProxy_get64__E__mangled__                    
1001c12b  xdc_runtime_Timestamp_SupportProxy_getFreq__E                             
1001c12b  xdc_runtime_Timestamp_SupportProxy_getFreq__E__mangled__                  
1001c82d  xdc_runtime_Timestamp_get32__E                                            
1001c82d  xdc_runtime_Timestamp_get32__E                                            
1001b9cd  xdc_runtime_Timestamp_get64__E                                            
1001b9cd  xdc_runtime_Timestamp_get64__E                                            
1001c12b  xdc_runtime_Timestamp_getFreq__E                                          
1001c12b  xdc_runtime_Timestamp_getFreq__E                                          


GLOBAL SYMBOLS: SORTED BY Symbol Address 

address   name                                                                      
-------   ----                                                                      
00000000  __ASM__                                                                   
00000000  ti_sysbios_family_arm_m3_Hwi_resetVectors                                 
00000001  xdc_runtime_Startup__EXECFXN__C                                           
00000001  xdc_runtime_Startup__RESETFXN__C                                          
0000003d  EasyLink_init                                                             
00000078  __ISA__                                                                   
0000008a  __PLAT__                                                                  
000000b1  __TARG__                                                                  
000000d6  __TRDR__                                                                  
00000400  __STACK_SIZE                                                              
000005a1  Graphics_drawString                                                       
00000a1f  DisplaySharp_init                                                         
00000ff5  BleAdv_startAdvertising                                                   
00001000  HEAPSIZE                                                                  
00001000  ti_sysbios_knl_Task_Object__PARAMS__C                                     
0000103c  ti_sysbios_knl_Mailbox_Object__PARAMS__C                                  
00001070  ti_sysbios_family_arm_m3_Hwi_Object__PARAMS__C                            
000010a0  ti_sysbios_hal_Hwi_Object__PARAMS__C                                      
000010cc  ti_sysbios_heaps_HeapMem_Module__FXNS__C                                  
000010f4  ti_sysbios_knl_Swi_Object__PARAMS__C                                      
0000111c  ti_sysbios_gates_GateHwi_Module__FXNS__C                                  
00001140  ti_sysbios_gates_GateMutex_Module__FXNS__C                                
00001164  ti_sysbios_heaps_HeapMem_Object__PARAMS__C                                
00001188  ti_sysbios_knl_Clock_Object__PARAMS__C                                    
000011ac  ti_sysbios_knl_Semaphore_Object__PARAMS__C                                
000011d0  ti_sysbios_family_arm_m3_Hwi_Object__DESC__C                              
000011f0  ti_sysbios_gates_GateHwi_Object__DESC__C                                  
00001210  ti_sysbios_gates_GateMutex_Object__DESC__C                                
00001230  ti_sysbios_hal_Hwi_Object__DESC__C                                        
00001250  ti_sysbios_heaps_HeapMem_Object__DESC__C                                  
00001270  ti_sysbios_knl_Clock_Object__DESC__C                                      
00001290  ti_sysbios_knl_Mailbox_Object__DESC__C                                    
000012b0  ti_sysbios_knl_Queue_Object__DESC__C                                      
000012d0  ti_sysbios_knl_Semaphore_Object__DESC__C                                  
000012f0  ti_sysbios_knl_Swi_Object__DESC__C                                        
00001310  ti_sysbios_knl_Task_Object__DESC__C                                       
00001330  ti_sysbios_gates_GateHwi_Object__PARAMS__C                                
00001348  ti_sysbios_gates_GateMutex_Object__PARAMS__C                              
00001360  ti_sysbios_knl_Queue_Object__PARAMS__C                                    
00001378  ti_sysbios_knl_Idle_funcList__C                                           
00001384  ti_sysbios_family_arm_cc26xx_Timer_startupNeeded__C                       
00001388  ti_sysbios_family_arm_m3_Hwi_E_alreadyDefined__C                          
0000138c  ti_sysbios_family_arm_m3_Hwi_E_hwiLimitExceeded__C                        
00001390  ti_sysbios_family_arm_m3_Hwi_NUM_INTERRUPTS__C                            
00001394  ti_sysbios_family_arm_m3_Hwi_Object__count__C                             
00001398  ti_sysbios_family_arm_m3_Hwi_Object__table__C                             
0000139c  ti_sysbios_family_arm_m3_Hwi_ccr__C                                       
000013a0  ti_sysbios_family_arm_m3_Hwi_excHandlerFunc__C                            
000013a4  ti_sysbios_family_arm_m3_Hwi_nullIsrFunc__C                               
000013a8  ti_sysbios_family_arm_m3_Hwi_numSparseInterrupts__C                       
000013ac  ti_sysbios_family_arm_m3_Hwi_priGroup__C                                  
000013b0  ti_sysbios_family_arm_m3_TaskSupport_stackAlignment__C                    
000013b4  ti_sysbios_heaps_HeapMem_E_memory__C                                      
000013b8  ti_sysbios_heaps_HeapMem_Module__gateObj__C                               
000013bc  ti_sysbios_heaps_HeapMem_Object__count__C                                 
000013c0  ti_sysbios_heaps_HeapMem_Object__table__C                                 
000013c4  ti_sysbios_heaps_HeapMem_reqAlign__C                                      
000013c8  ti_sysbios_knl_Clock_serviceMargin__C                                     
000013cc  ti_sysbios_knl_Mailbox_Object__count__C                                   
000013d0  ti_sysbios_knl_Mailbox_Object__table__C                                   
000013d4  ti_sysbios_knl_Mailbox_maxTypeAlign__C                                    
000013d8  ti_sysbios_knl_Queue_Object__count__C                                     
000013dc  ti_sysbios_knl_Queue_Object__table__C                                     
000013e0  ti_sysbios_knl_Swi_Object__count__C                                       
000013e4  ti_sysbios_knl_Swi_Object__table__C                                       
000013e8  ti_sysbios_knl_Swi_numPriorities__C                                       
000013ec  ti_sysbios_knl_Task_Object__count__C                                      
000013f0  ti_sysbios_knl_Task_Object__table__C                                      
000013f4  ti_sysbios_knl_Task_allBlockedFunc__C                                     
000013f8  ti_sysbios_knl_Task_defaultStackHeap__C                                   
000013fc  ti_sysbios_knl_Task_defaultStackSize__C                                   
00001400  ti_sysbios_knl_Task_numConstructedTasks__C                                
00001405  DisplayUartMin_clear                                                      
00001406  ti_sysbios_family_arm_cc26xx_Timer_Module__id__C                          
00001408  ti_sysbios_family_arm_cc26xx_TimestampProvider_useClockTimer__C           
0000140a  ti_sysbios_family_arm_m3_Hwi_Module__id__C                                
0000140c  ti_sysbios_gates_GateHwi_Module__id__C                                    
0000140e  ti_sysbios_gates_GateMutex_Module__id__C                                  
00001410  ti_sysbios_heaps_HeapMem_Module__id__C                                    
00001412  ti_sysbios_knl_Task_initStackFlag__C                                      
00001414  ti_sysbios_knl_Clock_tickMode__C                                          
00001418  xdc_runtime_Startup_firstFxns__C                                          
00001420  xdc_runtime_Startup_lastFxns__C                                           
00001428  xdc_runtime_Assert_E_assertFailed__C                                      
0000142c  xdc_runtime_Error_E_memory__C                                             
00001430  xdc_runtime_Error_policyFxn__C                                            
00001434  xdc_runtime_IGateProvider_Interface__BASE__C                              
00001438  xdc_runtime_IHeap_Interface__BASE__C                                      
0000143c  xdc_runtime_IModule_Interface__BASE__C                                    
00001440  xdc_runtime_Main_Module__diagsEnabled__C                                  
00001444  xdc_runtime_Main_Module__diagsIncluded__C                                 
00001448  xdc_runtime_Main_Module__diagsMask__C                                     
0000144c  xdc_runtime_Memory_defaultHeapInstance__C                                 
00001450  xdc_runtime_Startup_execImpl__C                                           
00001454  xdc_runtime_Startup_maxPasses__C                                          
00001458  xdc_runtime_Startup_sfxnRts__C                                            
0000145c  xdc_runtime_Startup_sfxnTab__C                                            
00001460  xdc_runtime_Startup_startModsFxn__C                                       
00001464  xdc_runtime_SysCallback_abortFxn__C                                       
00001468  xdc_runtime_SysCallback_exitFxn__C                                        
0000146c  xdc_runtime_System_abortFxn__C                                            
00001470  xdc_runtime_System_exitFxn__C                                             
00001474  xdc_runtime_System_maxAtexitHandlers__C                                   
00001478  xdc_runtime_Text_charTab__C                                               
0000147c  xdc_runtime_Text_nameEmpty__C                                             
00001480  xdc_runtime_Text_nameStatic__C                                            
00001484  xdc_runtime_Text_nameUnknown__C                                           
00001488  xdc_runtime_Main_Module__id__C                                            
0000148a  xdc_runtime_Memory_Module__id__C                                          
0000148c  xdc_runtime_Text_charCnt__C                                               
0000148e  xdc_runtime_Text_isLoaded__C                                              
00001490  xdc_runtime_Error_policy__C                                               
00001494  ti_sysbios_rom_ROM_AONRTCChannelEnable                                    
00001498  ti_sysbios_rom_ROM_AONRTCCompareValueSet                                  
0000149c  ti_sysbios_rom_ROM_AONRTCCurrentCompareValueGet                           
000014a0  ti_sysbios_rom_ROM_AONRTCEventClear                                       
000014a4  ti_sysbios_rom_ROM_ti_sysbios_family_arm_cc26xx_Timer_getCount64__E       
000014a8  ti_sysbios_rom_ROM_ti_sysbios_family_arm_cc26xx_Timer_getCurrentTick__E   
000014ac  ti_sysbios_rom_ROM_ti_sysbios_family_arm_cc26xx_Timer_getMaxTicks__E      
000014b0  ti_sysbios_rom_ROM_ti_sysbios_family_arm_cc26xx_Timer_initDevice__I       
000014b4  ti_sysbios_rom_ROM_ti_sysbios_family_arm_cc26xx_Timer_setNextTick__E      
000014b8  ti_sysbios_rom_ROM_ti_sysbios_family_arm_cc26xx_Timer_setThreshold__I     
000014bc  ti_sysbios_rom_ROM_ti_sysbios_family_arm_cc26xx_Timer_start__E            
000014c0  ti_sysbios_rom_ROM_ti_sysbios_family_arm_cc26xx_TimestampProvider_get32__E
000014c4  ti_sysbios_rom_ROM_xdc_runtime_Startup_getState__I                        
000014c8  ti_sysbios_rom_ROM_xdc_runtime_System_SupportProxy_abort__E               
000014cc  ti_sysbios_rom_ROM_xdc_runtime_System_SupportProxy_exit__E                
000014d0  ti_sysbios_gates_GateMutex_Instance_State_sem__O                          
000014d4  ti_sysbios_knl_Clock_Module_State_clockQ__O                               
000014d8  ti_sysbios_knl_Mailbox_Instance_State_dataQue__O                          
000014dc  ti_sysbios_knl_Mailbox_Instance_State_dataSem__O                          
000014e0  ti_sysbios_knl_Mailbox_Instance_State_freeQue__O                          
000014e4  ti_sysbios_knl_Mailbox_Instance_State_freeSem__O                          
000014e8  ti_sysbios_knl_Semaphore_Instance_State_pendQ__O                          
000014ec  ti_sysbios_knl_Task_Module_State_inactiveQ__O                             
000014f1  PowerCC26XX_auxISR                                                        
000017fd  xdc_runtime_System_doPrint__I                                             
00001b09  ull_advSchedule                                                           
00001e0d  RF_scheduleCmd                                                            
000024e5  NOROM_SysCtrlSetRechargeBeforePowerDown                                   
0000270d  Power_sleep                                                               
00002931  SPICC26XXDMA_transfer                                                     
00002b45  BleAdv_updateUrl                                                          
00002f55  __aeabi_uldivmod                                                          
00003149  RF_open                                                                   
0000332d  EasyLink_transmit                                                         
000034f1  EasyLink_receiveAsync                                                     
000036b1  PIN_init                                                                  
00003869  __aeabi_dsub                                                              
00003873  __aeabi_dadd                                                              
00003a1f  DisplayUartMin_clearLines                                                 
00003a21  BleAdv_init                                                               
00003bd5  urfi_initAdvCmd                                                           
00003f05  PowerCC26XX_doCalibrate                                                   
00004221  uble_setParameter                                                         
0000452d  uble_processLLMsg                                                         
000046a1  xdc_runtime_System_printfExtend__I                                        
00004809  UARTCC26XX_open                                                           
00004d5d  UARTCC26XX_hwiIntFxn                                                      
00005125  UARTCC26XX_read                                                           
00005949  NOROM_SetupAfterColdResetWakeupFromShutDownCfg3                           
00005a6d  SPICC26XXDMA_open                                                         
00005b89  Power_init                                                                
00005db1  Graphics_fillRectangle                                                    
00005ec3  DisplayUartMin_init                                                       
00005ec5  RF_close                                                                  
000062f1  UARTCC26XX_write                                                          
000063f5  GPIO_setConfig                                                            
000064f5  scifInit                                                                  
000065f5  __aeabi_dmul                                                              
000066f1  RF_getInfo                                                                
000067e5  DisplaySharp_open                                                         
000068d5  NOROM_SetupAfterColdResetWakeupFromShutDownCfg2                           
000069c5  RF_pendCmd                                                                
00006ab5  ti_sysbios_knl_Event_pend__E                                              
00006c85  PowerCC26XX_standbyPolicy                                                 
00006d69  SPICC26XXDMA_transferCancel                                               
00006f31  EasyLink_enableRxAddrFilter                                               
00007011  EasyLink_setCtrl                                                          
0000753d  NOROM_RFCRfTrimRead                                                       
00007611  NOROM_RFCRTrim                                                            
000077a9  urfi_init                                                                 
00007875  rfDriverCallback                                                          
00007c4d  GPIO_init                                                                 
00007d09  Power_releaseDependency                                                   
00007dc5  DisplaySharp_vprintf                                                      
00007e7d  Power_setDependency                                                       
00007f31  RF_control                                                                
00007fe5  DisplaySharp_control                                                      
00008095  NodeRadioTask_init                                                        
00008299  NOROM_SetupTrimDevice                                                     
00008299  ti_sysbios_family_arm_cc26xx_Boot_trimDevice                              
00008341  NOROM_SetupAfterColdResetWakeupFromShutDownCfg1                           
000083e5  RF_postCmd                                                                
000085d1  NodeTask_init                                                             
000087b1  __TI_auto_init                                                            
00008851  Graphics_drawLineH                                                        
000088ed  UARTCC26XX_writeCancel                                                    
00008989  __aeabi_memcpy                                                            
00008989  __aeabi_memcpy4                                                           
00008989  __aeabi_memcpy8                                                           
00008989  memcpy                                                                    
00008a25  PIN_open                                                                  
00008bed  UARTCC26XX_swiIntFxn                                                      
00008c85  ti_sysbios_knl_Clock_workFuncDynamic__E                                   
00008d1d  ull_init                                                                  
00008db5  ull_advDoneCb                                                             
00008ed9  SPICC26XXDMA_control                                                      
00009089  ti_sysbios_family_arm_cc26xx_Timer_start__E                               
00009119  ugap_bcastInit                                                            
00009235  scifInitIo                                                                
000092c1  __aeabi_cdcmpeq                                                           
000092c1  __aeabi_cdcmple                                                           
00009347  __aeabi_cdrcmple                                                          
000093cd  uble_checkAddr                                                            
00009453  CC1350_LAUNCHXL_sendExtFlashByte                                          
0000955d  UARTCC26XX_close                                                          
00009665  uble_stackInit                                                            
00009a65  __aeabi_memclr                                                            
00009a65  __aeabi_memclr4                                                           
00009a65  __aeabi_memclr8                                                           
00009a67  __aeabi_memset                                                            
00009a67  __aeabi_memset4                                                           
00009a67  __aeabi_memset8                                                           
00009a6d  memset                                                                    
00009b59  getBleIeeeAddr                                                            
00009bd1  uble_buildAndPostEvt                                                      
00009c49  ull_advStop                                                               
00009d39  NOROM_SetupSetVddrLevel                                                   
00009dad  scifGetTaskStruct                                                         
00009e1d  ti_sysbios_knl_Event_post__E                                              
00009e8d  xdc_runtime_System_formatNum__I                                           
00009efd  PowerCC26XX_initiateCalibration                                           
00009fd5  uble_processGAPMsg                                                        
0000a041  NOROM_SetupGetTrimForAmpcompCtrl                                          
0000a0a9  NOROM_SetupGetTrimForAnabypassValue1                                      
0000a111  NOROM_SysCtrlAdjustRechargeAfterPowerDown                                 
0000a179  NOROM_SysCtrl_DCDC_VoltageConditionalControl                              
0000a1e1  UARTCC26XX_readCancel                                                     
0000a249  __TI_decompress_lzss                                                      
0000a381  NOROM_OSCHF_AttemptToSwitchToXosc                                         
0000a3e5  PIN_add                                                                   
0000a575  NOROM_OSCClockSourceSet                                                   
0000a5d5  PowerCC26XX_calibrate                                                     
0000a695  RF_getCurrentTime                                                         
0000a6f5  UARTCC26XX_control                                                        
0000a755  ugap_bcastSetDuty                                                         
0000a7b5  urfi_getTxPowerVal                                                        
0000a815  Display_doOpen                                                            
0000a871  NodeRadioTask_sendAdcData                                                 
0000a8cd  PowerCC26XX_RCOSC_clockFunc                                               
0000a985  UDMACC26XX_open                                                           
0000a9e1  ti_sysbios_heaps_HeapMem_initPrimary__I                                   
0000aa3d  xdc_runtime_Startup_getState__I                                           
0000aa99  PIN_remove                                                                
0000ac51  scifReinitIo                                                              
0000aca9  scifUninitIo                                                              
0000ad01  GPIO_write                                                                
0000ad55  SceAdc_init                                                               
0000adfd  Graphics_initContext                                                      
0000ae4f  SPICC26XXDMA_close                                                        
0000aea1  ClockP_construct                                                          
0000aef1  NOROM_SetupSetCacheModeAccordingToCcfgSetting                             
0000b081  CC1350_LAUNCHXL_wakeUpExtFlash                                            
0000b0cd  DisplaySharp_clearLines                                                   
0000b119  GPIO_enableInt                                                            
0000b165  copy_in                                                                   
0000b1b1  srand                                                                     
0000b1c7  rand                                                                      
0000b1fd  ull_advStart                                                              
0000b249  urfi_clientEventCb                                                        
0000b295  DisplayUartMin_open                                                       
0000b2e1  PIN_setOutputEnable                                                       
0000b371  __aeabi_d2iz                                                              
0000b3b9  uble_processMsg                                                           
0000b401  ugb_advPostprocessCB                                                      
0000b491  DisplayUartMin_vprintf                                                    
0000b51d  RingBuf_put                                                               
0000b5a5  ResetISR                                                                  
0000b5a5  _c_int00                                                                  
0000b5e9  __aeabi_d2uiz                                                             
0000b62d  scifStartRtcTicks                                                         
0000b6b5  CC1350_LAUNCHXL_shutDownExtFlash                                          
0000b735  PINCC26XX_getConfig                                                       
0000b7b5  SPI_init                                                                  
0000b7f5  SPI_open                                                                  
0000b835  UART_init                                                                 
0000b875  UART_open                                                                 
0000b8b5  __aeabi_uidiv                                                             
0000b8b5  __aeabi_uidivmod                                                          
0000b8f5  scifStartRtcTicksNow                                                      
0000b935  ti_sysbios_family_arm_cc26xx_Timer_setThreshold__I                        
0000b975  HwiP_construct                                                            
0000b9b3  RingBuf_get                                                               
0000b9f1  NOROM_ChipInfo_GetHwRevision                                              
0000ba2d  NOROM_OSC_HPOSCRelativeFrequencyOffsetGet                                 
0000ba69  NOROM_RFCSynthPowerDown                                                   
0000baa5  PowerCC26XX_isStableXOSC_HF                                               
0000bb1d  SwiP_construct                                                            
0000bb95  ti_sysbios_family_arm_m3_Hwi_construct2__E                                
0000bbd1  PIN_setOutputValue                                                        
0000bcb1  __aeabi_f2d                                                               
0000bce9  ugap_clockHandler                                                         
0000bd59  Graphics_drawHorizontalLineOnDisplay                                      
0000bd8f  UDMACC26XX_close                                                          
0000bdc5  strncpy                                                                   
0000bdfb  ti_sysbios_family_arm_cc26xx_Timer_setNextTick__E                         
0000be31  BleAdv_setAdvertiserType                                                  
0000be65  DisplaySharp_close                                                        
0000be99  GPIO_setCallback                                                          
0000becd  NOROM_OSCHF_SwitchToRcOscTurnOffXosc                                      
0000bf01  PIN_setConfig                                                             
0000bf35  PIN_setInterrupt                                                          
0000bf69  Power_releaseConstraint                                                   
0000bf9d  RF_powerConstraintRelease                                                 
0000c039  scifAckAlertEvents                                                        
0000c06d  scifOsalInit                                                              
0000c0d5  ti_sysbios_family_arm_cc26xx_Timer_initDevice__I                          
0000c109  ti_sysbios_knl_Swi_setPri__E                                              
0000c13d  ugap_bcastStart                                                           
0000c171  ull_clockHandler                                                          
0000c1a5  GPIO_hwiIntFxn                                                            
0000c1d5  NOROM_ChipInfo_GetChipType                                                
0000c205  NOROM_SetupSetAonRtcSubSecInc                                             
0000c235  NodeTask_advStatsCB                                                       
0000c265  Power_setConstraint                                                       
0000c355  ti_sysbios_BIOS_atExitFunc__I                                             
0000c385  ti_sysbios_BIOS_startFunc__I                                              
0000c3b5  ti_sysbios_family_arm_cc26xx_Timer_getCurrentTick__E                      
0000c3e5  uble_getPublicAddr                                                        
0000c415  NOROM_RFCOverrideSearch                                                   
0000c471  __aeabi_i2d                                                               
0000c49f  malloc                                                                    
0000c4cd  Graphics_drawPixelOnDisplay                                               
0000c4f9  NOROM_DDI32RegWrite                                                       
0000c525  NOROM_OSCClockSourceGet                                                   
0000c551  NOROM_RFCCpePatchReset                                                    
0000c57d  NOROM_SetupGetTrimForRadcExtCfg                                           
0000c5a9  PINCC26XX_setMux                                                          
0000c62d  SemaphoreP_constructBinary                                                
0000c659  SemaphoreP_createBinary                                                   
0000c735  ti_sysbios_knl_Clock_getTicksUntilInterrupt__E                            
0000c761  ti_sysbios_knl_Event_construct                                            
0000c78d  ti_sysbios_knl_Event_pendTimeout__I                                       
0000c7b9  Display_doPrintf                                                          
0000c7e3  ti_sysbios_knl_Clock_getTimeout__E                                        
0000c80d  xdc_runtime_System_putchar__I                                             
0000c839  Display_doInit                                                            
0000c861  NOROM_AONBatMonTemperatureGetDegC                                         
0000c889  Power_registerNotify                                                      
0000c8b1  RF_runCmd                                                                 
0000c901  SafeHapiVoid                                                              
0000c929  rfSwitchCallback                                                          
0000c951  strncmp                                                                   
0000c979  ugb_advPrepareCB                                                          
0000c9a1  DisplaySharp_clear                                                        
0000c9c5  List_remove                                                               
0000c9e9  NOROM_RFCDoorbellSendTo                                                   
0000ca79  SceAdc_setReportInterval                                                  
0000ca9d  SharpGrLib_init                                                           
0000cac1  _pthread_cleanupFxn                                                       
0000cb09  ti_sysbios_BIOS_registerRTSLock__I                                        
0000cb2d  ti_sysbios_BIOS_removeRTSLock__I                                          
0000cb51  ti_sysbios_family_arm_cc26xx_Timer_getMaxTicks__E                         
0000cb75  List_get                                                                  
0000cb97  List_insert                                                               
0000cbb9  List_put                                                                  
0000cbdb  List_putHead                                                              
0000cbfd  NOROM_RFCAdi3VcoLdoVoltageMode                                            
0000cc1d  NOROM_SetupGetTrimForXoscHfCtl                                            
0000cc3d  PowerCC26XX_schedulerDisable                                              
0000cc5d  PowerCC26XX_schedulerRestore                                              
0000cc7d  Power_unregisterNotify                                                    
0000cd3d  ti_sysbios_BIOS_rtsLock__I                                                
0000cd5d  ti_sysbios_family_arm_cc26xx_Timer_dynamicStub__E                         
0000cd7d  ti_sysbios_knl_Clock_stop__E                                              
0000cd9d  ti_sysbios_knl_Event_checkEvents__I                                       
0000cdbd  ugap_bcastStop                                                            
0000cddd  ull_advRegisterCB                                                         
0000ce1d  xdc_runtime_Error_policyMin__E                                            
0000ce3d  Graphics_fillRectangleOnDisplay                                           
0000ce5b  PIN_close                                                                 
0000ce79  Power_getTransitionLatency                                                
0000ceb5  CC1350_LAUNCHXL_initGeneral                                               
0000ced1  NOROM_ChipInfo_GetChipFamily                                              
0000ceed  NOROM_SetupGetTrimForAmpcompTh2                                           
0000cf09  NOROM_SetupGetTrimForRcOscLfRtuneCtuneTrim                                
0000cf79  RF_powerConstraintSet                                                     
0000d059  ti_sysbios_family_arm_m3_Hwi_clearInterrupt__E                            
0000d059  ti_sysbios_hal_Hwi_HwiProxy_clearInterrupt__E                             
0000d059  ti_sysbios_hal_Hwi_clearInterrupt__E                                      
0000d075  ti_sysbios_knl_Swi_construct2__E                                          
0000d091  Graphics_clearDisplayOnDisplay                                            
0000d0ab  Graphics_setBackgroundColor                                               
0000d0c5  Graphics_setFont                                                          
0000d0df  free                                                                      
0000d0f9  main                                                                      
0000d113  __aeabi_idiv0                                                             
0000d115  BleAdv_Params_init                                                        
0000d15d  NOROM_AONRTCCurrentCompareValueGet                                        
0000d175  NOROM_ChipInfo_GetPackageType                                             
0000d18d  NOROM_OSCHF_TurnOnXosc                                                    
0000d1a5  NOROM_RFCCpeIntGetAndClear                                                
0000d1bd  NOROM_SetupGetTrimForAdcShModeEn                                          
0000d1d5  NOROM_SetupGetTrimForAdcShVbufEn                                          
0000d1ed  NOROM_SetupGetTrimForAmpcompTh1                                           
0000d205  NOROM_SetupGetTrimForDblrLoopFilterResetVoltage                           
0000d21d  NOROM_SetupGetTrimForRcOscLfIBiasTrim                                     
0000d235  NOROM_SetupGetTrimForXoscLfRegulatorAndCmirrwrRatio                       
0000d24d  PIN_getConfig                                                             
0000d265  Power_idleFunc                                                            
0000d27d  RF_cancelCmd                                                              
0000d2c5  UARTCC26XX_init                                                           
0000d2dd  UART_Params_init                                                          
0000d2f5  _args_main                                                                
0000d30d  __aeabi_lmul                                                              
0000d325  scifClearAlertIntSource                                                   
0000d33d  ti_sysbios_BIOS_rtsUnlock__I                                              
0000d355  ti_sysbios_knl_Swi_or__E                                                  
0000d36d  ti_sysbios_rom_cortexm_cc13xx_CC13xx_checkRevision__E                     
0000d385  uble_registerAntSwitchCB                                                  
0000d39d  xdc_runtime_Error_init__E                                                 
0000d3cb  DisplayUartMin_close                                                      
0000d3e1  Graphics_setForegroundColor                                               
0000d3f7  Graphics_translateColorOnDisplay                                          
0000d40d  NOROM_ThisLibraryIsFor_CC13x0_HwRev20AndLater_HaltIfViolated              
0000d439  ti_sysbios_BIOS_exitFunc__I                                               
0000d555  ClockP_usleep                                                             
0000d569  EasyLink_Params_init                                                      
0000d57d  List_clearList                                                            
0000d591  NOROM_AONRTCCurrent64BitValueGet                                          
0000d5a5  PIN_getInputValue                                                         
0000d5b9  PIN_getOutputValue                                                        
0000d5cd  RF_Params_init                                                            
0000d631  SPI_Params_init                                                           
0000d645  SceAdc_registerAdcCallback                                                
0000d695  _register_unlock                                                          
0000d69b  _register_lock                                                            
0000d6a3  _nop                                                                      
0000d6a9  strlen                                                                    
0000d6bd  scifOsalRegisterCtrlReadyCallback                                         
0000d6d1  scifOsalRegisterTaskAlertCallback                                         
0000d6e5  ti_sysbios_knl_Clock_doTick__I                                            
0000d6f9  ti_sysbios_knl_Event_Instance_init__E                                     
0000d70d  Graphics_clearDisplay                                                     
0000d71f  Graphics_flushOnDisplay                                                   
0000d731  RingBuf_construct                                                         
0000d743  SemaphoreP_pend                                                           
0000d755  scifStartTasksNbl                                                         
0000d779  xdc_runtime_Startup_exec__I                                               
0000d78b  ClockP_isActive                                                           
0000d79b  HwiP_Params_init                                                          
0000d7ab  ti_sysbios_BIOS_linkedWithIncorrectBootLibrary__E                         
0000d7ad  NOROM_RFCHwIntGetAndClear                                                 
0000d7bd  NOROM_RFCRfTrimSet                                                        
0000d7cd  NOROM_SetupGetTrimForXoscHfFastStart                                      
0000d7dd  NOROM_SetupGetTrimForXoscHfIbiastherm                                     
0000d7ed  PINCC26XX_getPinCount                                                     
0000d81d  SwiP_Params_init                                                          
0000d89d  ti_sysbios_family_arm_m3_Hwi_post__E                                      
0000d89d  ti_sysbios_hal_Hwi_HwiProxy_post__E                                       
0000d89d  ti_sysbios_hal_Hwi_post__E                                                
0000d8bd  xdc_runtime_SysCallback_putch__E                                          
0000d8bd  xdc_runtime_System_SupportProxy_putch__E                                  
0000d8cd  xdc_runtime_SysCallback_ready__E                                          
0000d8cd  xdc_runtime_System_SupportProxy_ready__E                                  
0000d8dd  xdc_runtime_System_vsnprintf__E                                           
0000d8ed  Graphics_flushBuffer                                                      
0000d8fb  NOROM_VIMSModeGet                                                         
0000d909  SPICC26XXDMA_init                                                         
0000d917  __TI_decompress_none                                                      
0000d94f  ti_sysbios_family_arm_cc26xx_TimestampProvider_get32__E                   
0000d94f  xdc_runtime_Timestamp_SupportProxy_get32__E__mangled__                    
0000d95d  Display_doClear                                                           
0000d969  NOROM_CPUcpsid                                                            
0000d975  NOROM_CPUcpsie                                                            
0000d981  NOROM_OSC_HPOSCRelativeFrequencyOffsetToRFCoreFormatConvert               
0000d98d  PIN_registerIntCb                                                         
0000d999  Power_getConstraintMask                                                   
0000d9a5  Power_getDependencyCount                                                  
0000d9b1  RF_powerConstraintGet                                                     
0000d9bd  SemaphoreP_delete                                                         
0000d9ed  __TI_zero_init                                                            
0000d9f9  nodeRadioTask_getNodeAddr                                                 
0000da11  scifGetAlertEvents                                                        
0000da1d  scifOsalLeaveCriticalSection                                              
0000da59  ti_sysbios_knl_Event_Params__init__S                                      
0000daa1  ti_sysbios_knl_Swi_getTrigger__E                                          
0000daad  xdc_runtime_Startup_reset__I                                              
0000dab9  xdc_runtime_Startup_rtsDone__E                                            
0000dac5  BleAdv_stopAdvertising                                                    
0000dacf  ClockP_Params_init                                                        
0000dad9  SPI_close                                                                 
0000dae3  SPI_transfer                                                              
0000daed  SceAdc_start                                                              
0000db01  UART_close                                                                
0000db0b  UART_control                                                              
0000db15  UART_write                                                                
0000db1f  UDMACC26XX_hwiIntFxn                                                      
0000db51  scifOsalDisableTaskAlertInt                                               
0000db5b  scifOsalEnableTaskAlertInt                                                
0000db65  Board_initHook                                                            
0000db6d  DisplaySharp_getType                                                      
0000dbb5  scifOsalEnterCriticalSection                                              
0000dbc5  DisplayUartMin_control                                                    
0000dbcb  DisplayUartMin_getType                                                    
0000dbd1  Display_doParamsInit                                                      
0000dbd7  NOROM_CPUdelay                                                            
0000dbe3  RF_runImmediateCmd                                                        
0000dbe9  UARTCC26XX_readPolling                                                    
0000dbef  UARTCC26XX_writePolling                                                   
0000dbf5  ti_sysbios_family_arm_m3_Hwi_setFunc__E                                   
0000dbfb  ClockP_destruct                                                           
0000dbff  ClockP_getCpuFreq                                                         
0000dc03  ClockP_getTimeout                                                         
0000dc07  ClockP_setTimeout                                                         
0000dc0b  ClockP_start                                                              
0000dc0f  ClockP_stop                                                               
0000dc13  HwiP_destruct                                                             
0000dc17  HwiP_disable                                                              
0000dc1b  HwiP_enableInterrupt                                                      
0000dc1f  HwiP_post                                                                 
0000dc23  HwiP_setFunc                                                              
0000dc27  HwiP_setPriority                                                          
0000dc2b  NOROM_RFCOverrideUpdate                                                   
0000dc2f  PowerCC26XX_switchXOSC_HF                                                 
0000dc33  SemaphoreP_destruct                                                       
0000dc37  SemaphoreP_post                                                           
0000dc3b  SwiP_destruct                                                             
0000dc3f  SwiP_disable                                                              
0000dc43  SwiP_getTrigger                                                           
0000dc47  SwiP_or                                                                   
0000dc4b  SwiP_post                                                                 
0000dc4f  SwiP_setPriority                                                          
0000dc53  SystemP_vsnprintf                                                         
0000dc5b  ti_sysbios_family_arm_cc26xx_Timer_getCount64__E                          
0000dc5f  ti_sysbios_knl_Clock_isActive__E                                          
0000dc63  xdc_runtime_SysCallback_defaultReady                                      
0000dc67  ti_sysbios_BIOS_nullFunc__I                                               
0000dc69  ti_sysbios_knl_Clock_triggerFunc__I                                       
0000dc6b  ti_sysbios_rom_cortexm_cc13xx_CC13xx_badRomRevision__E                    
0000dc6d  xdc_runtime_SysCallback_defaultAbort                                      
0000dc6f  xdc_runtime_SysCallback_defaultExit                                       
0000dc71  xdc_runtime_SysCallback_defaultPutch                                      
00013290  g_sFontFixed6x8                                                           
000133de  Display_defaultParams                                                     
000133df  ubFeModeBias                                                              
00013446  resourceDB                                                                
00013492  xdc_runtime_Text_charTab__A                                               
00013520  inPinTypes                                                                
0001352c  outPinStrengths                                                           
00013538  outPinTypes                                                               
00013560  spiCC26XXDMAHWAttrs                                                       
000135d8  BoardGpioInitTable                                                        
0001360c  scifDriverSetup                                                           
0001363c  UARTCC26XX_fxnTable                                                       
00013664  uartCC26XXHWAttrs                                                         
0001368c  ubTxPowerVal                                                              
000136b4  UART_defaultParams                                                        
000136d8  xdc_runtime_Startup_sfxnTab__A                                            
000136fc  DisplaySharp_fxnTable                                                     
0001371c  DisplayUartMin_fxnTable                                                   
0001373c  SPI_defaultParams                                                         
0001375c  g_sharpFxns                                                               
0001377c  ti_sysbios_knl_Event_Object__DESC__C                                      
000137ec  Display_config                                                            
00013804  PowerCC26XX_config                                                        
0001381c  SPICC26XXDMA_fxnTable                                                     
00013834  SPI_config                                                                
0001384c  displaySharpHWattrs                                                       
0001387c  ti_sysbios_knl_Event_Object__PARAMS__C                                    
000138a8  GPIOCC26XX_config                                                         
000138bc  displayUartHWAttrs                                                        
000138d0  xdc_runtime_Startup_sfxnRts__A                                            
00013924  ubRfMode                                                                  
00013934  RFCC26XX_hwAttrs                                                          
00013940  UART_config                                                               
0001394c  xdc_runtime_Startup_firstFxns__A                                          
00013958  ADCBuf_count                                                              
00013959  ADC_count                                                                 
0001395a  TRNG_count                                                                
0001395b  Display_count                                                             
0001395c  I2C_count                                                                 
0001395d  NVS_count                                                                 
0001395e  PWM_count                                                                 
0001395f  SD_count                                                                  
00013960  SPI_count                                                                 
00013961  UART_count                                                                
00013962  Watchdog_count                                                            
0001396c  PINCC26XX_hwAttrs                                                         
00013974  UDMACC26XX_config                                                         
0001397c  ti_sysbios_knl_Idle_funcList__A                                           
0001398c  udmaHWAttrs                                                               
00013994  ubTxPowerTable                                                            
0001399c  ti_sysbios_family_arm_cc26xx_Timer_funcHookCH1__C                         
000139a0  ti_sysbios_family_arm_cc26xx_Timer_funcHookCH2__C                         
000139a4  ti_sysbios_family_arm_m3_Hwi_swiDisable__C                                
000139a8  ti_sysbios_family_arm_m3_Hwi_swiRestoreHwi__C                             
000139ac  ti_sysbios_heaps_HeapMem_primaryHeapBaseAddr__C                           
000139b0  ti_sysbios_heaps_HeapMem_primaryHeapEndAddr__C                            
000139b4  ti_sysbios_knl_Clock_tickPeriod__C                                        
000139b8  ti_sysbios_knl_Clock_triggerClock__C                                      
000139bc  ti_sysbios_knl_Event_Instance_State_pendQ__O                              
000139c0  ti_sysbios_knl_Task_Object__heap__C                                       
000139c4  xdc_runtime_SysCallback_putchFxn__C                                       
000139c8  xdc_runtime_SysCallback_readyFxn__C                                       
000139cc  xdc_runtime_System_extendFxn__C                                           
000139d0  __TI_static_base__                                                        
00013eac  __TI_Handler_Table_Base                                                   
00013eb8  __TI_Handler_Table_Limit                                                  
00013f10  __TI_CINIT_Base                                                           
00013f90  __TI_CINIT_Limit                                                          
0001ffa8  __ccfg                                                                    
1001a001  ti_sysbios_knl_Semaphore_pend__E                                          
1001a0cd  ti_sysbios_knl_Mailbox_Instance_init__E                                   
1001a195  ti_sysbios_heaps_HeapMem_alloc__E                                         
1001a259  ti_sysbios_knl_Task_Instance_init__E                                      
1001a315  ti_sysbios_family_arm_m3_Hwi_postInit__I                                  
1001a3c5  ti_sysbios_family_arm_m3_Hwi_Instance_init__E                             
1001a465  ti_sysbios_family_arm_cc26xx_Timer_periodicStub__E                        
1001a4f9  ti_sysbios_knl_Task_Instance_finalize__E                                  
1001a58d  ti_sysbios_knl_Mailbox_post__E                                            
1001a611  ti_sysbios_knl_Task_postInit__I                                           
1001a695  ti_sysbios_family_arm_m3_Hwi_initNVIC__E                                  
1001a715  ti_sysbios_knl_Clock_startI__E                                            
1001a791  ti_sysbios_heaps_HeapMem_free__E                                          
1001a809  ti_sysbios_knl_Clock_walkQueueDynamic__E                                  
1001a881  ti_sysbios_knl_Clock_workFunc__E                                          
1001a8f9  ti_sysbios_knl_Mailbox_Instance_finalize__E                               
1001a969  ti_sysbios_knl_Mailbox_pend__E                                            
1001a9d9  ti_sysbios_knl_Task_sleep__E                                              
1001aa49  ti_sysbios_family_arm_m3_Hwi_dispatchC__I                                 
1001aab1  ti_sysbios_family_arm_m3_Hwi_Object__create__S                            
1001ab15  ti_sysbios_family_arm_m3_Hwi_create                                       
1001ab79  ti_sysbios_hal_Hwi_create                                                 
1001abdd  ti_sysbios_knl_Mailbox_create                                             
1001ac41  ti_sysbios_knl_Semaphore_post__E                                          
1001aca5  ti_sysbios_knl_Swi_Instance_init__E                                       
1001ad05  ti_sysbios_knl_Swi_create                                                 
1001ad61  ti_sysbios_knl_Swi_restoreHwi__E                                          
1001adbd  ti_sysbios_knl_Task_Module_startup__E                                     
1001ae19  ti_sysbios_knl_Task_create                                                
1001ae75  ti_sysbios_knl_Task_startCore__E                                          
1001aed1  ti_sysbios_family_arm_m3_Hwi_Instance_finalize__E                         
1001af29  ti_sysbios_family_arm_m3_Hwi_construct                                    
1001af81  ti_sysbios_knl_Mailbox_construct                                          
1001afd9  ti_sysbios_knl_Swi_run__I                                                 
1001b031  ti_sysbios_knl_Swi_schedule__I                                            
1001b085  ti_sysbios_knl_Swi_construct                                              
1001b0d5  ti_sysbios_knl_Swi_runLoop__I                                             
1001b125  ti_sysbios_knl_Task_construct                                             
1001b175  ti_sysbios_knl_Task_schedule__I                                           
1001b1c1  ti_sysbios_family_arm_m3_Hwi_Module_startup__E                            
1001b209  ti_sysbios_heaps_HeapMem_getStats__E                                      
1001b251  ti_sysbios_family_arm_m3_Hwi_disableInterrupt__E                          
1001b251  ti_sysbios_hal_Hwi_HwiProxy_disableInterrupt__E__mangled__                
1001b295  ti_sysbios_family_arm_m3_Hwi_enableInterrupt__E                           
1001b295  ti_sysbios_hal_Hwi_HwiProxy_enableInterrupt__E__mangled__                 
1001b2d9  ti_sysbios_knl_Mailbox_Module_startup__E                                  
1001b31d  ti_sysbios_knl_Swi_post__E                                                
1001b361  ti_sysbios_knl_Task_allBlockedFunction__I                                 
1001b3a5  ti_sysbios_knl_Task_yield__E                                              
1001b3e9  ti_sysbios_knl_Clock_create                                               
1001b425  ti_sysbios_knl_Task_exit__E                                               
1001b45f  ti_sysbios_gates_GateHwi_Instance_init__E                                 
1001b461  ti_sysbios_family_arm_m3_Hwi_getStackInfo__E                              
1001b461  ti_sysbios_hal_Hwi_HwiProxy_getStackInfo__E__mangled__                    
1001b499  ti_sysbios_family_arm_m3_TaskSupport_start__E                             
1001b499  ti_sysbios_knl_Task_SupportProxy_start__E__mangled__                      
1001b4d1  ti_sysbios_heaps_HeapMem_Instance_init__E                                 
1001b509  ti_sysbios_knl_Clock_Instance_init__E                                     
1001b541  ti_sysbios_heaps_HeapMem_init__I                                          
1001b575  ti_sysbios_knl_Clock_construct                                            
1001b5a9  ti_sysbios_knl_Semaphore_create                                           
1001b5dd  SwiP_restore                                                              
1001b5dd  ti_sysbios_knl_Swi_restore__E                                             
1001b611  ti_sysbios_knl_Task_blockI__E                                             
1001b645  ti_sysbios_gates_GateMutex_Object__create__S                              
1001b675  ti_sysbios_gates_GateMutex_create                                         
1001b6a5  ti_sysbios_gates_GateMutex_enter__E                                       
1001b6d5  ClockP_getSystemTicks                                                     
1001b6d5  ti_sysbios_knl_Clock_getTicks__E                                          
1001b705  ti_sysbios_knl_Semaphore_construct                                        
1001b735  ti_sysbios_knl_Task_processVitalTaskFlag__I                               
1001b765  ti_sysbios_family_arm_cc26xx_Timer_postInit__I                            
1001b791  ti_sysbios_family_arm_cc26xx_Timer_startup__E                             
1001b791  ti_sysbios_knl_Clock_TimerProxy_startup__E                                
1001b791  ti_sysbios_knl_Clock_TimerProxy_startup__E__mangled__                     
1001b7bd  ti_sysbios_family_arm_m3_Hwi_Object__get__S                               
1001b7e9  ti_sysbios_gates_GateMutex_construct                                      
1001b815  ti_sysbios_hal_Hwi_initStack                                              
1001b841  ti_sysbios_heaps_HeapMem_Object__create__S                                
1001b86d  ti_sysbios_heaps_HeapMem_Object__get__S                                   
1001b899  ti_sysbios_knl_Mailbox_Object__get__S                                     
1001b8c5  ti_sysbios_knl_Mailbox_postInit__I                                        
1001b8f1  ti_sysbios_knl_Queue_construct                                            
1001b91d  ti_sysbios_knl_Queue_create                                               
1001b949  ti_sysbios_knl_Semaphore_pendTimeout__I                                   
1001b975  ti_sysbios_knl_Swi_Object__get__S                                         
1001b9a1  ti_sysbios_knl_Task_unblockI__E                                           
1001b9cd  ti_sysbios_family_arm_cc26xx_TimestampProvider_get64__E                   
1001b9cd  xdc_runtime_Timestamp_SupportProxy_get64__E                               
1001b9cd  xdc_runtime_Timestamp_SupportProxy_get64__E__mangled__                    
1001b9cd  xdc_runtime_Timestamp_get64__E                                            
1001b9cd  xdc_runtime_Timestamp_get64__E                                            
1001b9f5  ti_sysbios_hal_Hwi_Instance_init__E                                       
1001ba1d  ti_sysbios_knl_Clock_addI__E                                              
1001ba45  ti_sysbios_knl_Task_restore__E                                            
1001ba6d  ti_sysbios_family_arm_cc26xx_Timer_Module_startup__E                      
1001ba91  ti_sysbios_gates_GateHwi_Object__create__S                                
1001bab5  ti_sysbios_BIOS_RtsGateProxy_Object__delete__S                            
1001bab5  ti_sysbios_gates_GateMutex_Object__delete__S                              
1001bab5  ti_sysbios_heaps_HeapMem_Module_GateProxy_Object__delete__S               
1001bad9  ti_sysbios_knl_Clock_Object__delete__S                                    
1001bafd  ti_sysbios_knl_Semaphore_Instance_init__E                                 
1001bb21  ti_sysbios_knl_Semaphore_Object__delete__S                                
1001bb45  ti_sysbios_family_arm_cc26xx_Timer_Module__startupDone__S                 
1001bb45  ti_sysbios_knl_Clock_TimerProxy_Module__startupDone__S__mangled__         
1001bb65  ti_sysbios_family_arm_cc26xx_TimestampProvider_Module_startup__E          
1001bb85  ti_sysbios_family_arm_m3_Hwi_Module__startupDone__S                       
1001bb85  ti_sysbios_hal_Hwi_HwiProxy_Module__startupDone__S__mangled__             
1001bba5  ti_sysbios_family_arm_m3_Hwi_Object__delete__S                            
1001bba5  ti_sysbios_hal_Hwi_HwiProxy_Object__delete__S                             
1001bbc5  ti_sysbios_family_arm_m3_Hwi_excHandler__I                                
1001bbe5  ti_sysbios_gates_GateHwi_Handle__label__S                                 
1001bbe5  xdc_runtime_Main_Module_GateProxy_Handle__label__S                        
1001bbe5  xdc_runtime_System_Module_GateProxy_Handle__label__S                      
1001bbe5  xdc_runtime_System_Module_GateProxy_Handle__label__S__mangled__           
1001bc05  ti_sysbios_gates_GateHwi_Object__delete__S                                
1001bc05  xdc_runtime_System_Module_GateProxy_Object__delete__S                     
1001bc25  ti_sysbios_BIOS_RtsGateProxy_Handle__label__S                             
1001bc25  ti_sysbios_BIOS_RtsGateProxy_Handle__label__S__mangled__                  
1001bc25  ti_sysbios_gates_GateMutex_Handle__label__S                               
1001bc25  ti_sysbios_heaps_HeapMem_Module_GateProxy_Handle__label__S                
1001bc25  ti_sysbios_heaps_HeapMem_Module_GateProxy_Handle__label__S__mangled__     
1001bc45  ti_sysbios_gates_GateMutex_Object__destruct__S                            
1001bc65  ti_sysbios_hal_Hwi_Object__delete__S                                      
1001bc85  ti_sysbios_heaps_HeapMem_Handle__label__S                                 
1001bc85  xdc_runtime_Memory_HeapProxy_Handle__label__S                             
1001bc85  xdc_runtime_Memory_HeapProxy_Handle__label__S__mangled__                  
1001bca5  ti_sysbios_heaps_HeapMem_Object__delete__S                                
1001bca5  xdc_runtime_Memory_HeapProxy_Object__delete__S                            
1001bcc5  ti_sysbios_knl_Clock_Module_startup__E                                    
1001bce5  ti_sysbios_knl_Clock_Object__destruct__S                                  
1001bd05  ti_sysbios_knl_Idle_run__E                                                
1001bd25  ti_sysbios_knl_Mailbox_Object__delete__S                                  
1001bd45  ti_sysbios_knl_Queue_Object__delete__S                                    
1001bd65  ti_sysbios_knl_Queue_Object__get__S                                       
1001bd85  ti_sysbios_knl_Semaphore_Object__destruct__S                              
1001bda5  ti_sysbios_knl_Swi_Object__delete__S                                      
1001bdc5  ti_sysbios_knl_Task_Object__delete__S                                     
1001bde5  ti_sysbios_knl_Task_Object__get__S                                        
1001be05  ti_sysbios_knl_Task_enter__I                                              
1001be25  ti_sysbios_knl_Task_restoreHwi__E                                         
1001be45  ti_sysbios_hal_Hwi_HwiProxy_create                                        
1001be63  ti_sysbios_knl_Clock_logTick__E                                           
1001be65  ti_sysbios_family_arm_m3_Hwi_Object__destruct__S                          
1001be81  ti_sysbios_family_arm_m3_Hwi_setPriority__E                               
1001be9d  ti_sysbios_gates_GateMutex_Instance_init__E                               
1001beb9  ti_sysbios_knl_Clock_scheduleNextTick__E                                  
1001bed5  ti_sysbios_knl_Mailbox_Object__destruct__S                                
1001bef1  ti_sysbios_knl_Queue_Object__destruct__S                                  
1001bf0d  ti_sysbios_knl_Queue_get__E                                               
1001bf29  ti_sysbios_knl_Queue_put__E                                               
1001bf45  ti_sysbios_knl_Swi_Object__destruct__S                                    
1001bf61  ti_sysbios_knl_Task_Object__destruct__S                                   
1001bf7d  ti_sysbios_knl_Task_sleepTimeout__I                                       
1001bf97  ti_sysbios_knl_Swi_Instance_finalize__E                                   
1001bf99  ti_sysbios_gates_GateMutex_leave__E                                       
1001bfb1  ti_sysbios_knl_Task_unblock__E                                            
1001bfc9  ti_sysbios_knl_Clock_Instance_finalize__E                                 
1001bfdf  ti_sysbios_knl_Clock_start__E                                             
1001bff5  ti_sysbios_BIOS_getCpuFreq__E                                             
1001c009  ti_sysbios_family_arm_m3_Hwi_switchFromBootStack__E                       
1001c009  ti_sysbios_hal_Hwi_HwiProxy_switchFromBootStack__E__mangled__             
1001c01d  ti_sysbios_hal_Hwi_Module_startup__E                                      
1001c031  ti_sysbios_BIOS_exit__E                                                   
1001c041  ti_sysbios_BIOS_setThreadType__E                                          
1001c051  ti_sysbios_BIOS_start__E                                                  
1001c061  ti_sysbios_family_arm_m3_Hwi_plug__E                                      
1001c071  ti_sysbios_gates_GateMutex_Instance_finalize__E                           
1001c081  ti_sysbios_hal_Hwi_HwiProxy_Object__create__S                             
1001c091  ti_sysbios_knl_Clock_TimerProxy_getCurrentTick__E                         
1001c0a1  ti_sysbios_knl_Clock_TimerProxy_getMaxTicks__E                            
1001c0b1  ti_sysbios_knl_Clock_TimerProxy_setNextTick__E                            
1001c0c1  ti_sysbios_knl_Semaphore_Instance_finalize__E                             
1001c0d1  ti_sysbios_knl_Swi_disable__E                                             
1001c0e1  ti_sysbios_knl_Swi_enabled__E                                             
1001c0f1  ti_sysbios_knl_Task_disable__E                                            
1001c101  ti_sysbios_heaps_HeapMem_restore__E                                       
1001c10f  ti_sysbios_knl_Queue_empty__E                                             
1001c11d  ti_sysbios_knl_Queue_remove__E                                            
1001c12b  ti_sysbios_family_arm_cc26xx_TimestampProvider_getFreq__E                 
1001c12b  xdc_runtime_Timestamp_SupportProxy_getFreq__E                             
1001c12b  xdc_runtime_Timestamp_SupportProxy_getFreq__E__mangled__                  
1001c12b  xdc_runtime_Timestamp_getFreq__E                                          
1001c12b  xdc_runtime_Timestamp_getFreq__E                                          
1001c139  ti_sysbios_family_arm_m3_Hwi_Params__init__S                              
1001c139  ti_sysbios_hal_Hwi_HwiProxy_Params__init__S                               
1001c139  ti_sysbios_hal_Hwi_HwiProxy_Params__init__S__mangled__                    
1001c145  ti_sysbios_family_arm_m3_Hwi_disableFxn__E                                
1001c151  ti_sysbios_family_arm_m3_Hwi_enableFxn__E                                 
1001c15d  ti_sysbios_family_arm_m3_TaskSupport_getStackAlignment__E                 
1001c15d  ti_sysbios_knl_Task_SupportProxy_getStackAlignment__E__mangled__          
1001c169  ti_sysbios_gates_GateHwi_enter__E                                         
1001c175  ti_sysbios_BIOS_RtsGateProxy_Params__init__S                              
1001c175  ti_sysbios_BIOS_RtsGateProxy_Params__init__S__mangled__                   
1001c175  ti_sysbios_gates_GateMutex_Params__init__S                                
1001c175  ti_sysbios_heaps_HeapMem_Module_GateProxy_Params__init__S                 
1001c175  ti_sysbios_heaps_HeapMem_Module_GateProxy_Params__init__S__mangled__      
1001c181  ti_sysbios_knl_Clock_Params__init__S                                      
1001c18d  ti_sysbios_knl_Clock_getTimerHandle__E                                    
1001c199  ti_sysbios_knl_Mailbox_Params__init__S                                    
1001c1a5  ti_sysbios_knl_Queue_dequeue__E                                           
1001c1b1  ti_sysbios_knl_Queue_enqueue__E                                           
1001c1bd  ti_sysbios_knl_Semaphore_Params__init__S                                  
1001c1c9  ti_sysbios_knl_Swi_Params__init__S                                        
1001c1d5  ti_sysbios_knl_Task_Params__init__S                                       
1001c1e1  ti_sysbios_knl_Task_self__E                                               
1001c1ed  ti_sysbios_hal_Hwi_Instance_finalize__E                                   
1001c1f7  ti_sysbios_family_arm_m3_Hwi_doSwiRestore__I                              
1001c1ff  ti_sysbios_family_arm_m3_Hwi_startup__E                                   
1001c1ff  ti_sysbios_hal_Hwi_HwiProxy_startup__E__mangled__                         
1001c207  ti_sysbios_knl_Idle_loop__E                                               
1001c20f  ti_sysbios_family_arm_m3_Hwi_doTaskRestore__I                             
1001c215  HwiP_restore                                                              
1001c215  ti_sysbios_family_arm_m3_Hwi_restoreFxn__E                                
1001c21b  ti_sysbios_gates_GateHwi_leave__E                                         
1001c227  ti_sysbios_knl_Queue_Instance_init__E                                     
1001c22d  ti_sysbios_knl_Queue_elemClear__E                                         
1001c233  ti_sysbios_knl_Swi_Module_startup__E                                      
1001c239  ti_sysbios_knl_Swi_startup__E                                             
1001c23f  ti_sysbios_knl_Task_enable__E                                             
1001c245  ti_sysbios_BIOS_RtsGateProxy_enter__E                                     
1001c249  ti_sysbios_BIOS_RtsGateProxy_leave__E                                     
1001c24d  ti_sysbios_family_arm_cc26xx_Timer_getExpiredTicks__E                     
1001c251  ti_sysbios_family_arm_cc26xx_Timer_getPeriod__E                           
1001c255  ti_sysbios_family_arm_cc26xx_Timer_setPeriod__E                           
1001c259  ti_sysbios_family_arm_m3_Hwi_delete                                       
1001c25d  ti_sysbios_family_arm_m3_Hwi_destruct                                     
1001c261  ti_sysbios_family_arm_m3_TaskSupport_Module__startupDone__S               
1001c261  ti_sysbios_knl_Task_SupportProxy_Module__startupDone__S__mangled__        
1001c265  ti_sysbios_gates_GateHwi_query__E                                         
1001c265  xdc_runtime_Main_Module_GateProxy_query__E                                
1001c265  xdc_runtime_System_Module_GateProxy_query__E                              
1001c265  xdc_runtime_System_Module_GateProxy_query__E__mangled__                   
1001c269  ti_sysbios_gates_GateMutex_delete                                         
1001c26d  ti_sysbios_gates_GateMutex_destruct                                       
1001c271  ti_sysbios_BIOS_RtsGateProxy_query__E                                     
1001c271  ti_sysbios_BIOS_RtsGateProxy_query__E__mangled__                          
1001c271  ti_sysbios_gates_GateMutex_query__E                                       
1001c271  ti_sysbios_heaps_HeapMem_Module_GateProxy_query__E                        
1001c271  ti_sysbios_heaps_HeapMem_Module_GateProxy_query__E__mangled__             
1001c275  ti_sysbios_hal_Hwi_HwiProxy_Module__startupDone__S                        
1001c279  ti_sysbios_hal_Hwi_HwiProxy_delete                                        
1001c27d  ti_sysbios_hal_Hwi_HwiProxy_disableInterrupt__E                           
1001c27d  ti_sysbios_hal_Hwi_disableInterrupt__E                                    
1001c27d  ti_sysbios_hal_Hwi_disableInterrupt__E                                    
1001c281  ti_sysbios_hal_Hwi_HwiProxy_enableInterrupt__E                            
1001c281  ti_sysbios_hal_Hwi_enableInterrupt__E                                     
1001c281  ti_sysbios_hal_Hwi_enableInterrupt__E                                     
1001c285  ti_sysbios_hal_Hwi_HwiProxy_getStackInfo__E                               
1001c285  ti_sysbios_hal_Hwi_getStackInfo__E                                        
1001c285  ti_sysbios_hal_Hwi_getStackInfo__E                                        
1001c289  ti_sysbios_hal_Hwi_HwiProxy_startup__E                                    
1001c289  ti_sysbios_hal_Hwi_startup__E                                             
1001c289  ti_sysbios_hal_Hwi_startup__E                                             
1001c28d  ti_sysbios_hal_Hwi_HwiProxy_switchFromBootStack__E                        
1001c291  ti_sysbios_hal_Hwi_delete                                                 
1001c295  ti_sysbios_hal_Hwi_switchFromBootStack__E                                 
1001c295  ti_sysbios_hal_Hwi_switchFromBootStack__E                                 
1001c299  ti_sysbios_heaps_HeapMem_Module_GateProxy_enter__E                        
1001c29d  ti_sysbios_heaps_HeapMem_Module_GateProxy_leave__E                        
1001c2a1  ti_sysbios_heaps_HeapMem_isBlocking__E                                    
1001c2a5  ti_sysbios_knl_Clock_TimerProxy_Module__startupDone__S                    
1001c2a9  ti_sysbios_knl_Clock_TimerProxy_getExpiredTicks__E                        
1001c2ad  ti_sysbios_knl_Clock_TimerProxy_getPeriod__E                              
1001c2b1  ti_sysbios_knl_Clock_delete                                               
1001c2b5  ti_sysbios_knl_Clock_destruct                                             
1001c2b9  ti_sysbios_knl_Clock_removeI__E                                           
1001c2bd  ti_sysbios_knl_Clock_setTimeout__E                                        
1001c2c1  ti_sysbios_knl_Mailbox_delete                                             
1001c2c5  ti_sysbios_knl_Mailbox_destruct                                           
1001c2c9  ti_sysbios_knl_Queue_delete                                               
1001c2cd  ti_sysbios_knl_Queue_destruct                                             
1001c2d1  ti_sysbios_knl_Queue_head__E                                              
1001c2d5  ti_sysbios_knl_Queue_next__E                                              
1001c2d9  ti_sysbios_knl_Semaphore_delete                                           
1001c2dd  ti_sysbios_knl_Semaphore_destruct                                         
1001c2e1  ti_sysbios_knl_Swi_delete                                                 
1001c2e5  ti_sysbios_knl_Swi_destruct                                               
1001c2e9  ti_sysbios_knl_Swi_postInit__I                                            
1001c2ed  ti_sysbios_knl_Task_SupportProxy_Module__startupDone__S                   
1001c2f1  ti_sysbios_knl_Task_SupportProxy_getStackAlignment__E                     
1001c2f5  ti_sysbios_knl_Task_SupportProxy_start__E                                 
1001c2f9  ti_sysbios_knl_Task_SupportProxy_swap__E                                  
1001c2fd  ti_sysbios_knl_Task_delete                                                
1001c301  ti_sysbios_knl_Task_destruct                                              
1001c305  ti_sysbios_knl_Task_startup__E                                            
1001c309  xdc_runtime_Startup_startMods__I                                          
1001c401  xdc_runtime_Core_createObject__I                                          
1001c483  xdc_runtime_Error_policySpin__E                                           
1001c485  xdc_runtime_Memory_alloc__E                                               
1001c4f5  xdc_runtime_Core_deleteObject__I                                          
1001c555  xdc_runtime_Startup_exec__E                                               
1001c5a5  xdc_runtime_Assert_raise__I                                               
1001c5ed  xdc_runtime_Core_assignParams__I                                          
1001c635  xdc_runtime_Core_constructObject__I                                       
1001c67d  xdc_runtime_System_atexit__E                                              
1001c6b5  xdc_runtime_System_processAtExit__E                                       
1001c6e9  xdc_runtime_Core_assignLabel__I                                           
1001c719  xdc_runtime_Text_cordText__E                                              
1001c745  xdc_runtime_System_abort__E                                               
1001c765  xdc_runtime_Error_raiseX__E                                               
1001c781  xdc_runtime_Memory_valloc__E                                              
1001c79d  xdc_runtime_Core_destructObject__I                                        
1001c7b5  xdc_runtime_Error_check__E                                                
1001c7cd  xdc_runtime_System_exit__E                                                
1001c7e5  xdc_runtime_Text_ropeText__E                                              
1001c7fd  xdc_runtime_Memory_free__E                                                
1001c80d  xdc_runtime_SysCallback_abort__E                                          
1001c80d  xdc_runtime_System_SupportProxy_abort__E                                  
1001c81d  xdc_runtime_SysCallback_exit__E                                           
1001c81d  xdc_runtime_System_SupportProxy_exit__E                                   
1001c82d  xdc_runtime_Timestamp_SupportProxy_get32__E                               
1001c82d  xdc_runtime_Timestamp_get32__E                                            
1001c82d  xdc_runtime_Timestamp_get32__E                                            
1001c849  xdc_runtime_Memory_calloc__E                                              
1001c855  xdc_runtime_Memory_getMaxDefaultTypeAlign__E                              
1001c875  xdc_runtime_Gate_leaveSystem__E                                           
1001c87b  xdc_runtime_System_Module_startup__E                                      
1001c881  xdc_runtime_Gate_enterSystem__E                                           
1001c885  xdc_runtime_Memory_HeapProxy_alloc__E                                     
1001c889  xdc_runtime_Memory_HeapProxy_free__E                                      
1001c88d  xdc_runtime_System_Module_GateProxy_enter__E                              
1001c891  xdc_runtime_System_Module_GateProxy_leave__E                              
1001c895  xdc_runtime_System_abortSpin__E                                           
1001c897  xdc_runtime_System_exitSpin__E                                            
1001c899  ti_sysbios_family_arm_m3_Hwi_dispatch__I                                  
1001c969  ti_sysbios_family_arm_m3_TaskSupport_buildTaskStack                       
1001c9b5  ti_sysbios_family_arm_m3_Hwi_initStacks__E                                
1001c9fd  ti_sysbios_family_arm_m3_Hwi_excHandlerAsm__I                             
1001ca1d  ti_sysbios_family_xxx_Hwi_switchAndRunFunc                                
1001ca3b  ti_sysbios_family_arm_m3_Hwi_pendSV__I                                    
1001ca53  ti_sysbios_family_arm_m3_Hwi_return                                       
1001ca55  ti_sysbios_family_arm_m3_TaskSupport_glue                                 
1001ca65  ti_sysbios_family_arm_m3_TaskSupport_swap__E                              
1001ca65  ti_sysbios_knl_Task_SupportProxy_swap__E__mangled__                       
1001ca6d  ti_sysbios_knl_Task_swapReturn                                            
1001ca97  ti_sysbios_rom_cortexm_cc13xx_CC13xx_getRevision__E                       
20000000  ti_sysbios_family_arm_m3_Hwi_ramVectors                                   
20000100  ti_sysbios_knl_Task_Module__state__V                                      
20000144  ti_sysbios_family_arm_m3_Hwi_Module__state__V                             
20000178  ti_sysbios_knl_Clock_Module__state__V                                     
200001a4  ti_sysbios_BIOS_Module__state__V                                          
200001c8  ti_sysbios_knl_Swi_Module__state__V                                       
200001e4  ti_sysbios_family_arm_cc26xx_Timer_Module__state__V                       
200001ec  ti_sysbios_family_arm_cc26xx_TimestampProvider_Module__state__V           
200001f0  xdc_runtime_Startup_Module__state__V                                      
200001f8  xdc_runtime_System_Module__state__V                                       
20000200  xdc_runtime_Memory_Module__state__V                                       
200018a0  ti_sysbios_knl_Task_Instance_State_0_stack__A                             
20001aa0  spiCC26XXDMAObjects                                                       
20001c68  uartCC26XXObjects                                                         
20001f20  ti_sysbios_family_arm_m3_Hwi_dispatchTable                                
200022c0  nodeRadioTask                                                             
20002310  nodeTask                                                                  
20002360  urAdvCmd                                                                  
200023a8  displaySharpObject                                                        
20002534  cBcastDuty                                                                
20002558  fastReportTimeoutClock                                                    
2000257c  uartCC26XXRingBuffer                                                      
2000259c  udmaObjects                                                               
20002680  radioAccessSem                                                            
2000269c  radioResultSem                                                            
2000276c  nodeEvent                                                                 
20002780  radioOperationEvent                                                       
2000280c  displayUartObject                                                         
20002818  PowerCC26XX_taskKey                                                       
2000281c  PowerCC26XX_swiKey                                                        
20002848  propAdvFrame                                                              
20002850  tlmAdvFrame                                                               
20002858  ubBDAddr                                                                  
20002860  uidAdvFrame                                                               
20002868  urlAdvFrame                                                               
20002878  ClockP_tickPeriod                                                         
2000287c  blePinHandle                                                              
20002885  driverlib_release_0_52354                                                 
20002888  __primary_heap_start__                                                    
20003888  __primary_heap_end__                                                      
20003888  pinUpperBound                                                             
2000388c  pinLowerBound                                                             
20003920  pinHandleTable                                                            
2000399c  PowerCC26XX_module                                                        
20003b38  pOverrides_sl_lr                                                          
20003b9c  pOverrides_hsm                                                            
20003bfc  pOverrides_ook                                                            
20003c58  pOverrides_lrm                                                            
20003d58  pOverrides_fsk                                                            
20003dac  ti_sysbios_gates_GateMutex_Object__table__V                               
20003e00  ubRfRegOverride                                                           
20003e54  ti_sysbios_knl_Task_Object__table__V                                      
20003ea0  ti_sysbios_family_arm_cc26xx_Timer_Object__table__V                       
20003ee8  RF_pProp_fsk                                                              
20003eec  RF_pProp_lrm                                                              
20003ef0  RF_pProp_ook                                                              
20003ef4  RF_pProp_hsm                                                              
20003ef8  RF_pProp_sl_lr                                                            
20003efc  RF_pProp_2_4G_fsk                                                         
20003f00  RF_pCmdPropRadioDivSetup_fsk                                              
20003f04  RF_pCmdPropRadioDivSetup_lrm                                              
20003f08  RF_pCmdPropRadioDivSetup_ook                                              
20003f0c  RF_pCmdRadioSetup_hsm                                                     
20003f10  RF_pCmdPropRadioDivSetup_sl_lr                                            
20003f14  RF_pCmdPropRadioSetup_2_4G_fsk                                            
20003f18  RF_pCmdTxHS                                                               
20003f1c  RF_pCmdRxHS                                                               
20003f20  RF_pCmdFs_preDef                                                          
20003f24  RF_pCmdPropTx_preDef                                                      
20003f28  RF_pCmdPropRxAdv_preDef                                                   
20003f64  RF_cmdPropRxAdv_preDef                                                    
20003f94  ti_sysbios_knl_Swi_Module_State_0_readyQ__A                               
20003fc4  ti_sysbios_knl_Swi_Object__table__V                                       
20003ff4  ti_sysbios_knl_Task_Module_State_0_readyQ__A                              
20004024  gpioPinConfigs                                                            
20004050  RF_cmdPropRadioDivSetup                                                   
20004078  RF_cmdPropRadioDivSetup_fsk                                               
200040a0  RF_cmdPropRadioDivSetup_lrm                                               
200040c8  RF_cmdPropRadioDivSetup_ook                                               
200040f0  RF_cmdPropRadioDivSetup_sl_lr                                             
20004118  urSetup                                                                   
20004140  ubParams                                                                  
20004168  RF_cmdRxHS                                                                
2000418c  ti_sysbios_knl_Clock_Object__table__V                                     
200041ac  urAdvParams                                                               
200041cc  xdc_runtime_Error_IgnoreBlock                                             
200041ec  tlmAdvData                                                                
2000420b  uidAdvData                                                                
2000422a  urlAdvData                                                                
20004268  RF_cmdFs                                                                  
20004280  RF_cmdFs_preDef                                                           
20004298  RF_cmdPropTx                                                              
200042b0  RF_cmdPropTx_preDef                                                       
200042c8  RF_cmdRadioSetup_hsm                                                      
20004310  shapeovr                                                                  
20004328  ti_sysbios_family_arm_m3_Hwi_Object__table__V                             
20004340  ti_sysbios_heaps_HeapMem_Object__table__V                                 
20004358  RF_cmdTxHS                                                                
20004393  defaultUrl                                                                
200043a8  RF_prop                                                                   
200043b8  RF_prop_fsk                                                               
200043c8  RF_prop_hsm                                                               
200043d8  RF_prop_lrm                                                               
200043e8  RF_prop_ook                                                               
200043f8  RF_prop_sl_lr                                                             
20004408  blePinTable                                                               
20004428  gpioCallbackFunctions                                                     
20004438  ulState                                                                   
20004446  ti_sysbios_family_arm_m3_Hwi_Module_State_0_excActive__A                  
20004460  buttonPinTable                                                            
20004478  rfTimeCrit                                                                
2000447c  ubleAntSwitchSel                                                          
20004488  hcBcastDuty                                                               
200044a4  _lock                                                                     
200044a8  _unlock                                                                   
200044ac  pinTable                                                                  
200044b4  ti_sysbios_family_arm_m3_Hwi_Module__root__V                              
200044bc  ti_sysbios_gates_GateHwi_Module__root__V                                  
200044c4  ti_sysbios_gates_GateMutex_Module__root__V                                
200044cc  ti_sysbios_hal_Hwi_Module__root__V                                        
200044d4  ti_sysbios_heaps_HeapMem_Module__root__V                                  
200044dc  ti_sysbios_knl_Clock_Module__root__V                                      
200044e4  ti_sysbios_knl_Event_Module__root__V                                      
200044ec  ti_sysbios_knl_Mailbox_Module__root__V                                    
200044f4  ti_sysbios_knl_Queue_Module__root__V                                      
200044fc  ti_sysbios_knl_Semaphore_Module__root__V                                  
20004504  ti_sysbios_knl_Swi_Module__root__V                                        
2000450c  ti_sysbios_knl_Task_Module__root__V                                       
20004514  xdc_runtime_System_Module_State_0_atexitHandlers__A                       
2000451c  urHandle                                                                  
20004520  urAdvHandle                                                               
20004528  main_func_sp                                                              
2000452c  ti_sysbios_family_arm_m3_Hwi_Module_State_0_excContext__A                 
20004530  ti_sysbios_family_arm_m3_Hwi_Module_State_0_excStack__A                   
20004534  ti_sysbios_knl_Task_Module_State_0_idleTask__A                            
20004c00  __stack                                                                   
20005000  __STACK_END                                                               
e000e000  ti_sysbios_family_arm_m3_Hwi_nvic                                         
ffffffff  __TI_pprof_out_hndl                                                       
ffffffff  __TI_prof_data_size                                                       
ffffffff  __TI_prof_data_start                                                      
ffffffff  __binit__                                                                 
ffffffff  __c_args__                                                                
ffffffff  binit                                                                     
UNDEFED   SHT$$INIT_ARRAY$$Base                                                     
UNDEFED   SHT$$INIT_ARRAY$$Limit                                                    

[1096 symbols]
