TI ARM Assembler PC v16.9.9 Sun Nov 25 16:40:50 2018

Tools Copyright (c) 1996-2017 Texas Instruments Incorporated
C:\Users\Stryd\AppData\Local\Temp\{9A419F3E-CE2D-47E3-ABE5-0EE6D6901F8C} PAGE    1

       1                    ;******************************************************************************
       2                    ;* TI ARM C/C++ Codegen                                        PC v16.9.9.LTS *
       3                    ;* Date/Time created: Sun Nov 25 16:40:49 2018                                *
       4                    ;******************************************************************************
       5                            .compiler_opts --abi=eabi --arm_vmrs_si_workaround=off --code_state=16 --diag_wrap=off --embed
       6 00000000                   .thumb
       7                    
       8                    $C$DW$CU        .dwtag  DW_TAG_compile_unit
       9                            .dwattr $C$DW$CU, DW_AT_name("../Application/api_mac.c")
      10                            .dwattr $C$DW$CU, DW_AT_producer("TI TI ARM C/C++ Codegen PC v16.9.9.LTS Copyright (c) 1996-20
      11                            .dwattr $C$DW$CU, DW_AT_TI_version(0x01)
      12                            .dwattr $C$DW$CU, DW_AT_comp_dir("C:\CCSWorkspace\ECG603\collector_cc1350lp\collector_cc1350lp
      13                    
      14                    $C$DW$1 .dwtag  DW_TAG_subprogram
      15                            .dwattr $C$DW$1, DW_AT_name("memcpy")
      16                            .dwattr $C$DW$1, DW_AT_TI_symbol_name("memcpy")
      17                            .dwattr $C$DW$1, DW_AT_type(*$C$DW$T$3)
      18                            .dwattr $C$DW$1, DW_AT_declaration
      19                            .dwattr $C$DW$1, DW_AT_external
      20                            .dwattr $C$DW$1, DW_AT_decl_file("C:/ti/ccsv7/tools/compiler/ti-cgt-arm_16.9.9.LTS/include/str
      21                            .dwattr $C$DW$1, DW_AT_decl_line(0x6b)
      22                            .dwattr $C$DW$1, DW_AT_decl_column(0x16)
      23                    $C$DW$2 .dwtag  DW_TAG_formal_parameter
      24                            .dwattr $C$DW$2, DW_AT_type(*$C$DW$T$3)
      25                    
      26                    $C$DW$3 .dwtag  DW_TAG_formal_parameter
      27                            .dwattr $C$DW$3, DW_AT_type(*$C$DW$T$531)
      28                    
      29                    $C$DW$4 .dwtag  DW_TAG_formal_parameter
      30                            .dwattr $C$DW$4, DW_AT_type(*$C$DW$T$462)
      31                    
      32                            .dwendtag $C$DW$1
      33                    
      34                    
      35                    $C$DW$5 .dwtag  DW_TAG_subprogram
      36                            .dwattr $C$DW$5, DW_AT_name("memset")
      37                            .dwattr $C$DW$5, DW_AT_TI_symbol_name("memset")
      38                            .dwattr $C$DW$5, DW_AT_type(*$C$DW$T$3)
      39                            .dwattr $C$DW$5, DW_AT_declaration
      40                            .dwattr $C$DW$5, DW_AT_external
      41                            .dwattr $C$DW$5, DW_AT_decl_file("C:/ti/ccsv7/tools/compiler/ti-cgt-arm_16.9.9.LTS/include/str
      42                            .dwattr $C$DW$5, DW_AT_decl_line(0x71)
      43                            .dwattr $C$DW$5, DW_AT_decl_column(0x16)
      44                    $C$DW$6 .dwtag  DW_TAG_formal_parameter
      45                            .dwattr $C$DW$6, DW_AT_type(*$C$DW$T$3)
      46                    
      47                    $C$DW$7 .dwtag  DW_TAG_formal_parameter
      48                            .dwattr $C$DW$7, DW_AT_type(*$C$DW$T$10)
      49                    
      50                    $C$DW$8 .dwtag  DW_TAG_formal_parameter
      51                            .dwattr $C$DW$8, DW_AT_type(*$C$DW$T$462)
      52                    
      53                            .dwendtag $C$DW$5
      54                    
      55                    
TI ARM Assembler PC v16.9.9 Sun Nov 25 16:40:50 2018

Tools Copyright (c) 1996-2017 Texas Instruments Incorporated
C:\Users\Stryd\AppData\Local\Temp\{9A419F3E-CE2D-47E3-ABE5-0EE6D6901F8C} PAGE    2

      56                    $C$DW$9 .dwtag  DW_TAG_subprogram
      57                            .dwattr $C$DW$9, DW_AT_name("ICall_searchServiceEntity")
      58                            .dwattr $C$DW$9, DW_AT_TI_symbol_name("ICall_searchServiceEntity")
      59                            .dwattr $C$DW$9, DW_AT_type(*$C$DW$T$220)
      60                            .dwattr $C$DW$9, DW_AT_declaration
      61                            .dwattr $C$DW$9, DW_AT_external
      62                            .dwattr $C$DW$9, DW_AT_decl_file("C:/ti/simplelink_cc13x0_sdk_2_30_00_20/source/ti/ti154stack/
      63                            .dwattr $C$DW$9, DW_AT_decl_line(0x42d)
      64                            .dwattr $C$DW$9, DW_AT_decl_column(0x17)
      65                    $C$DW$10        .dwtag  DW_TAG_formal_parameter
      66                            .dwattr $C$DW$10, DW_AT_type(*$C$DW$T$222)
      67                    
      68                            .dwendtag $C$DW$9
      69                    
      70                    
      71                    $C$DW$11        .dwtag  DW_TAG_subprogram
      72                            .dwattr $C$DW$11, DW_AT_name("icall_directAPI")
      73                            .dwattr $C$DW$11, DW_AT_TI_symbol_name("icall_directAPI")
      74                            .dwattr $C$DW$11, DW_AT_type(*$C$DW$T$100)
      75                            .dwattr $C$DW$11, DW_AT_declaration
      76                            .dwattr $C$DW$11, DW_AT_external
      77                            .dwattr $C$DW$11, DW_AT_decl_file("C:/ti/simplelink_cc13x0_sdk_2_30_00_20/source/ti/ti154stack
      78                            .dwattr $C$DW$11, DW_AT_decl_line(0x445)
      79                            .dwattr $C$DW$11, DW_AT_decl_column(0x0a)
      80                    $C$DW$12        .dwtag  DW_TAG_formal_parameter
      81                            .dwattr $C$DW$12, DW_AT_type(*$C$DW$T$24)
      82                    
      83                    $C$DW$13        .dwtag  DW_TAG_formal_parameter
      84                            .dwattr $C$DW$13, DW_AT_type(*$C$DW$T$103)
      85                    
      86                    $C$DW$14        .dwtag  DW_TAG_unspecified_parameters
      87                    
      88                            .dwendtag $C$DW$11
      89                    
      90                    
      91                    $C$DW$15        .dwtag  DW_TAG_subprogram
      92                            .dwattr $C$DW$15, DW_AT_name("MAC_StartFH")
      93                            .dwattr $C$DW$15, DW_AT_TI_symbol_name("MAC_StartFH")
      94                            .dwattr $C$DW$15, DW_AT_type(*$C$DW$T$27)
      95                            .dwattr $C$DW$15, DW_AT_declaration
      96                            .dwattr $C$DW$15, DW_AT_external
      97                            .dwattr $C$DW$15, DW_AT_decl_file("C:/ti/simplelink_cc13x0_sdk_2_30_00_20/source/ti/ti154stack
      98                            .dwattr $C$DW$15, DW_AT_decl_line(0x5d9)
      99                            .dwattr $C$DW$15, DW_AT_decl_column(0x0e)
     100                            .dwendtag $C$DW$15
     101                    
     102                    
     103                    $C$DW$16        .dwtag  DW_TAG_subprogram
     104                            .dwattr $C$DW$16, DW_AT_name("MAC_EnableFH")
     105                            .dwattr $C$DW$16, DW_AT_TI_symbol_name("MAC_EnableFH")
     106                            .dwattr $C$DW$16, DW_AT_type(*$C$DW$T$27)
     107                            .dwattr $C$DW$16, DW_AT_declaration
     108                            .dwattr $C$DW$16, DW_AT_external
     109                            .dwattr $C$DW$16, DW_AT_decl_file("C:/ti/simplelink_cc13x0_sdk_2_30_00_20/source/ti/ti154stack
     110                            .dwattr $C$DW$16, DW_AT_decl_line(0x5e1)
TI ARM Assembler PC v16.9.9 Sun Nov 25 16:40:50 2018

Tools Copyright (c) 1996-2017 Texas Instruments Incorporated
C:\Users\Stryd\AppData\Local\Temp\{9A419F3E-CE2D-47E3-ABE5-0EE6D6901F8C} PAGE    3

     111                            .dwattr $C$DW$16, DW_AT_decl_column(0x0e)
     112                            .dwendtag $C$DW$16
     113                    
     114                    
     115                    $C$DW$17        .dwtag  DW_TAG_subprogram
     116                            .dwattr $C$DW$17, DW_AT_name("MAC_McpsDataReq")
     117                            .dwattr $C$DW$17, DW_AT_TI_symbol_name("MAC_McpsDataReq")
     118                            .dwattr $C$DW$17, DW_AT_type(*$C$DW$T$27)
     119                            .dwattr $C$DW$17, DW_AT_declaration
     120                            .dwattr $C$DW$17, DW_AT_external
     121                            .dwattr $C$DW$17, DW_AT_decl_file("C:/ti/simplelink_cc13x0_sdk_2_30_00_20/source/ti/ti154stack
     122                            .dwattr $C$DW$17, DW_AT_decl_line(0x5f4)
     123                            .dwattr $C$DW$17, DW_AT_decl_column(0x0e)
     124                    $C$DW$18        .dwtag  DW_TAG_formal_parameter
     125                            .dwattr $C$DW$18, DW_AT_type(*$C$DW$T$544)
     126                    
     127                            .dwendtag $C$DW$17
     128                    
     129                    
     130                    $C$DW$19        .dwtag  DW_TAG_subprogram
     131                            .dwattr $C$DW$19, DW_AT_name("MAC_McpsPurgeReq")
     132                            .dwattr $C$DW$19, DW_AT_TI_symbol_name("MAC_McpsPurgeReq")
     133                            .dwattr $C$DW$19, DW_AT_type(*$C$DW$T$27)
     134                            .dwattr $C$DW$19, DW_AT_declaration
     135                            .dwattr $C$DW$19, DW_AT_external
     136                            .dwattr $C$DW$19, DW_AT_decl_file("C:/ti/simplelink_cc13x0_sdk_2_30_00_20/source/ti/ti154stack
     137                            .dwattr $C$DW$19, DW_AT_decl_line(0x608)
     138                            .dwattr $C$DW$19, DW_AT_decl_column(0x0e)
     139                    $C$DW$20        .dwtag  DW_TAG_formal_parameter
     140                            .dwattr $C$DW$20, DW_AT_type(*$C$DW$T$27)
     141                    
     142                            .dwendtag $C$DW$19
     143                    
     144                    
     145                    $C$DW$21        .dwtag  DW_TAG_subprogram
     146                            .dwattr $C$DW$21, DW_AT_name("MAC_MlmeAssociateReq")
     147                            .dwattr $C$DW$21, DW_AT_TI_symbol_name("MAC_MlmeAssociateReq")
     148                            .dwattr $C$DW$21, DW_AT_type(*$C$DW$T$27)
     149                            .dwattr $C$DW$21, DW_AT_declaration
     150                            .dwattr $C$DW$21, DW_AT_external
     151                            .dwattr $C$DW$21, DW_AT_decl_file("C:/ti/simplelink_cc13x0_sdk_2_30_00_20/source/ti/ti154stack
     152                            .dwattr $C$DW$21, DW_AT_decl_line(0x642)
     153                            .dwattr $C$DW$21, DW_AT_decl_column(0x0e)
     154                    $C$DW$22        .dwtag  DW_TAG_formal_parameter
     155                            .dwattr $C$DW$22, DW_AT_type(*$C$DW$T$547)
     156                    
     157                            .dwendtag $C$DW$21
     158                    
     159                    
     160                    $C$DW$23        .dwtag  DW_TAG_subprogram
     161                            .dwattr $C$DW$23, DW_AT_name("MAC_MlmeAssociateRsp")
     162                            .dwattr $C$DW$23, DW_AT_TI_symbol_name("MAC_MlmeAssociateRsp")
     163                            .dwattr $C$DW$23, DW_AT_type(*$C$DW$T$27)
     164                            .dwattr $C$DW$23, DW_AT_declaration
     165                            .dwattr $C$DW$23, DW_AT_external
TI ARM Assembler PC v16.9.9 Sun Nov 25 16:40:50 2018

Tools Copyright (c) 1996-2017 Texas Instruments Incorporated
C:\Users\Stryd\AppData\Local\Temp\{9A419F3E-CE2D-47E3-ABE5-0EE6D6901F8C} PAGE    4

     166                            .dwattr $C$DW$23, DW_AT_decl_file("C:/ti/simplelink_cc13x0_sdk_2_30_00_20/source/ti/ti154stack
     167                            .dwattr $C$DW$23, DW_AT_decl_line(0x658)
     168                            .dwattr $C$DW$23, DW_AT_decl_column(0x0e)
     169                    $C$DW$24        .dwtag  DW_TAG_formal_parameter
     170                            .dwattr $C$DW$24, DW_AT_type(*$C$DW$T$549)
     171                    
     172                            .dwendtag $C$DW$23
     173                    
     174                    
     175                    $C$DW$25        .dwtag  DW_TAG_subprogram
     176                            .dwattr $C$DW$25, DW_AT_name("MAC_MlmeDisassociateReq")
     177                            .dwattr $C$DW$25, DW_AT_TI_symbol_name("MAC_MlmeDisassociateReq")
     178                            .dwattr $C$DW$25, DW_AT_type(*$C$DW$T$27)
     179                            .dwattr $C$DW$25, DW_AT_declaration
     180                            .dwattr $C$DW$25, DW_AT_external
     181                            .dwattr $C$DW$25, DW_AT_decl_file("C:/ti/simplelink_cc13x0_sdk_2_30_00_20/source/ti/ti154stack
     182                            .dwattr $C$DW$25, DW_AT_decl_line(0x66e)
     183                            .dwattr $C$DW$25, DW_AT_decl_column(0x0e)
     184                    $C$DW$26        .dwtag  DW_TAG_formal_parameter
     185                            .dwattr $C$DW$26, DW_AT_type(*$C$DW$T$551)
     186                    
     187                            .dwendtag $C$DW$25
     188                    
     189                    
     190                    $C$DW$27        .dwtag  DW_TAG_subprogram
     191                            .dwattr $C$DW$27, DW_AT_name("MAC_MlmeGetReq")
     192                            .dwattr $C$DW$27, DW_AT_TI_symbol_name("MAC_MlmeGetReq")
     193                            .dwattr $C$DW$27, DW_AT_type(*$C$DW$T$27)
     194                            .dwattr $C$DW$27, DW_AT_declaration
     195                            .dwattr $C$DW$27, DW_AT_external
     196                            .dwattr $C$DW$27, DW_AT_decl_file("C:/ti/simplelink_cc13x0_sdk_2_30_00_20/source/ti/ti154stack
     197                            .dwattr $C$DW$27, DW_AT_decl_line(0x685)
     198                            .dwattr $C$DW$27, DW_AT_decl_column(0x0e)
     199                    $C$DW$28        .dwtag  DW_TAG_formal_parameter
     200                            .dwattr $C$DW$28, DW_AT_type(*$C$DW$T$27)
     201                    
     202                    $C$DW$29        .dwtag  DW_TAG_formal_parameter
     203                            .dwattr $C$DW$29, DW_AT_type(*$C$DW$T$3)
     204                    
     205                            .dwendtag $C$DW$27
     206                    
     207                    
     208                    $C$DW$30        .dwtag  DW_TAG_subprogram
     209                            .dwattr $C$DW$30, DW_AT_name("MAC_MlmeGetSecurityReq")
     210                            .dwattr $C$DW$30, DW_AT_TI_symbol_name("MAC_MlmeGetSecurityReq")
     211                            .dwattr $C$DW$30, DW_AT_type(*$C$DW$T$27)
     212                            .dwattr $C$DW$30, DW_AT_declaration
     213                            .dwattr $C$DW$30, DW_AT_external
     214                            .dwattr $C$DW$30, DW_AT_decl_file("C:/ti/simplelink_cc13x0_sdk_2_30_00_20/source/ti/ti154stack
     215                            .dwattr $C$DW$30, DW_AT_decl_line(0x69d)
     216                            .dwattr $C$DW$30, DW_AT_decl_column(0x0e)
     217                    $C$DW$31        .dwtag  DW_TAG_formal_parameter
     218                            .dwattr $C$DW$31, DW_AT_type(*$C$DW$T$27)
     219                    
     220                    $C$DW$32        .dwtag  DW_TAG_formal_parameter
TI ARM Assembler PC v16.9.9 Sun Nov 25 16:40:50 2018

Tools Copyright (c) 1996-2017 Texas Instruments Incorporated
C:\Users\Stryd\AppData\Local\Temp\{9A419F3E-CE2D-47E3-ABE5-0EE6D6901F8C} PAGE    5

     221                            .dwattr $C$DW$32, DW_AT_type(*$C$DW$T$3)
     222                    
     223                            .dwendtag $C$DW$30
     224                    
     225                    
     226                    $C$DW$33        .dwtag  DW_TAG_subprogram
     227                            .dwattr $C$DW$33, DW_AT_name("MAC_MlmeGetSecurityReqSize")
     228                            .dwattr $C$DW$33, DW_AT_TI_symbol_name("MAC_MlmeGetSecurityReqSize")
     229                            .dwattr $C$DW$33, DW_AT_type(*$C$DW$T$27)
     230                            .dwattr $C$DW$33, DW_AT_declaration
     231                            .dwattr $C$DW$33, DW_AT_external
     232                            .dwattr $C$DW$33, DW_AT_decl_file("C:/ti/simplelink_cc13x0_sdk_2_30_00_20/source/ti/ti154stack
     233                            .dwattr $C$DW$33, DW_AT_decl_line(0x6b0)
     234                            .dwattr $C$DW$33, DW_AT_decl_column(0x0e)
     235                    $C$DW$34        .dwtag  DW_TAG_formal_parameter
     236                            .dwattr $C$DW$34, DW_AT_type(*$C$DW$T$27)
     237                    
     238                            .dwendtag $C$DW$33
     239                    
     240                    
     241                    $C$DW$35        .dwtag  DW_TAG_subprogram
     242                            .dwattr $C$DW$35, DW_AT_name("MAC_MlmeOrphanRsp")
     243                            .dwattr $C$DW$35, DW_AT_TI_symbol_name("MAC_MlmeOrphanRsp")
     244                            .dwattr $C$DW$35, DW_AT_type(*$C$DW$T$27)
     245                            .dwattr $C$DW$35, DW_AT_declaration
     246                            .dwattr $C$DW$35, DW_AT_external
     247                            .dwattr $C$DW$35, DW_AT_decl_file("C:/ti/simplelink_cc13x0_sdk_2_30_00_20/source/ti/ti154stack
     248                            .dwattr $C$DW$35, DW_AT_decl_line(0x6c6)
     249                            .dwattr $C$DW$35, DW_AT_decl_column(0x0e)
     250                    $C$DW$36        .dwtag  DW_TAG_formal_parameter
     251                            .dwattr $C$DW$36, DW_AT_type(*$C$DW$T$597)
     252                    
     253                            .dwendtag $C$DW$35
     254                    
     255                    
     256                    $C$DW$37        .dwtag  DW_TAG_subprogram
     257                            .dwattr $C$DW$37, DW_AT_name("MAC_MlmePollReq")
     258                            .dwattr $C$DW$37, DW_AT_TI_symbol_name("MAC_MlmePollReq")
     259                            .dwattr $C$DW$37, DW_AT_type(*$C$DW$T$27)
     260                            .dwattr $C$DW$37, DW_AT_declaration
     261                            .dwattr $C$DW$37, DW_AT_external
     262                            .dwattr $C$DW$37, DW_AT_decl_file("C:/ti/simplelink_cc13x0_sdk_2_30_00_20/source/ti/ti154stack
     263                            .dwattr $C$DW$37, DW_AT_decl_line(0x6dd)
     264                            .dwattr $C$DW$37, DW_AT_decl_column(0x0e)
     265                    $C$DW$38        .dwtag  DW_TAG_formal_parameter
     266                            .dwattr $C$DW$38, DW_AT_type(*$C$DW$T$599)
     267                    
     268                            .dwendtag $C$DW$37
     269                    
     270                    
     271                    $C$DW$39        .dwtag  DW_TAG_subprogram
     272                            .dwattr $C$DW$39, DW_AT_name("MAC_MlmeResetReq")
     273                            .dwattr $C$DW$39, DW_AT_TI_symbol_name("MAC_MlmeResetReq")
     274                            .dwattr $C$DW$39, DW_AT_type(*$C$DW$T$27)
     275                            .dwattr $C$DW$39, DW_AT_declaration
TI ARM Assembler PC v16.9.9 Sun Nov 25 16:40:50 2018

Tools Copyright (c) 1996-2017 Texas Instruments Incorporated
C:\Users\Stryd\AppData\Local\Temp\{9A419F3E-CE2D-47E3-ABE5-0EE6D6901F8C} PAGE    6

     276                            .dwattr $C$DW$39, DW_AT_external
     277                            .dwattr $C$DW$39, DW_AT_decl_file("C:/ti/simplelink_cc13x0_sdk_2_30_00_20/source/ti/ti154stack
     278                            .dwattr $C$DW$39, DW_AT_decl_line(0x6f3)
     279                            .dwattr $C$DW$39, DW_AT_decl_column(0x0e)
     280                    $C$DW$40        .dwtag  DW_TAG_formal_parameter
     281                            .dwattr $C$DW$40, DW_AT_type(*$C$DW$T$40)
     282                    
     283                            .dwendtag $C$DW$39
     284                    
     285                    
     286                    $C$DW$41        .dwtag  DW_TAG_subprogram
     287                            .dwattr $C$DW$41, DW_AT_name("MAC_MlmeScanReq")
     288                            .dwattr $C$DW$41, DW_AT_TI_symbol_name("MAC_MlmeScanReq")
     289                            .dwattr $C$DW$41, DW_AT_type(*$C$DW$T$389)
     290                            .dwattr $C$DW$41, DW_AT_declaration
     291                            .dwattr $C$DW$41, DW_AT_external
     292                            .dwattr $C$DW$41, DW_AT_decl_file("C:/ti/simplelink_cc13x0_sdk_2_30_00_20/source/ti/ti154stack
     293                            .dwattr $C$DW$41, DW_AT_decl_line(0x70f)
     294                            .dwattr $C$DW$41, DW_AT_decl_column(0x18)
     295                    $C$DW$42        .dwtag  DW_TAG_formal_parameter
     296                            .dwattr $C$DW$42, DW_AT_type(*$C$DW$T$542)
     297                    
     298                            .dwendtag $C$DW$41
     299                    
     300                    
     301                    $C$DW$43        .dwtag  DW_TAG_subprogram
     302                            .dwattr $C$DW$43, DW_AT_name("MAC_MlmeSetReq")
     303                            .dwattr $C$DW$43, DW_AT_TI_symbol_name("MAC_MlmeSetReq")
     304                            .dwattr $C$DW$43, DW_AT_type(*$C$DW$T$27)
     305                            .dwattr $C$DW$43, DW_AT_declaration
     306                            .dwattr $C$DW$43, DW_AT_external
     307                            .dwattr $C$DW$43, DW_AT_decl_file("C:/ti/simplelink_cc13x0_sdk_2_30_00_20/source/ti/ti154stack
     308                            .dwattr $C$DW$43, DW_AT_decl_line(0x726)
     309                            .dwattr $C$DW$43, DW_AT_decl_column(0x0e)
     310                    $C$DW$44        .dwtag  DW_TAG_formal_parameter
     311                            .dwattr $C$DW$44, DW_AT_type(*$C$DW$T$27)
     312                    
     313                    $C$DW$45        .dwtag  DW_TAG_formal_parameter
     314                            .dwattr $C$DW$45, DW_AT_type(*$C$DW$T$3)
     315                    
     316                            .dwendtag $C$DW$43
     317                    
     318                    
     319                    $C$DW$46        .dwtag  DW_TAG_subprogram
     320                            .dwattr $C$DW$46, DW_AT_name("MAC_MlmeSetSecurityReq")
     321                            .dwattr $C$DW$46, DW_AT_TI_symbol_name("MAC_MlmeSetSecurityReq")
     322                            .dwattr $C$DW$46, DW_AT_type(*$C$DW$T$27)
     323                            .dwattr $C$DW$46, DW_AT_declaration
     324                            .dwattr $C$DW$46, DW_AT_external
     325                            .dwattr $C$DW$46, DW_AT_decl_file("C:/ti/simplelink_cc13x0_sdk_2_30_00_20/source/ti/ti154stack
     326                            .dwattr $C$DW$46, DW_AT_decl_line(0x73e)
     327                            .dwattr $C$DW$46, DW_AT_decl_column(0x0e)
     328                    $C$DW$47        .dwtag  DW_TAG_formal_parameter
     329                            .dwattr $C$DW$47, DW_AT_type(*$C$DW$T$27)
     330                    
TI ARM Assembler PC v16.9.9 Sun Nov 25 16:40:50 2018

Tools Copyright (c) 1996-2017 Texas Instruments Incorporated
C:\Users\Stryd\AppData\Local\Temp\{9A419F3E-CE2D-47E3-ABE5-0EE6D6901F8C} PAGE    7

     331                    $C$DW$48        .dwtag  DW_TAG_formal_parameter
     332                            .dwattr $C$DW$48, DW_AT_type(*$C$DW$T$3)
     333                    
     334                            .dwendtag $C$DW$46
     335                    
     336                    
     337                    $C$DW$49        .dwtag  DW_TAG_subprogram
     338                            .dwattr $C$DW$49, DW_AT_name("MAC_MlmeStartReq")
     339                            .dwattr $C$DW$49, DW_AT_TI_symbol_name("MAC_MlmeStartReq")
     340                            .dwattr $C$DW$49, DW_AT_type(*$C$DW$T$27)
     341                            .dwattr $C$DW$49, DW_AT_declaration
     342                            .dwattr $C$DW$49, DW_AT_external
     343                            .dwattr $C$DW$49, DW_AT_decl_file("C:/ti/simplelink_cc13x0_sdk_2_30_00_20/source/ti/ti154stack
     344                            .dwattr $C$DW$49, DW_AT_decl_line(0x756)
     345                            .dwattr $C$DW$49, DW_AT_decl_column(0x0e)
     346                    $C$DW$50        .dwtag  DW_TAG_formal_parameter
     347                            .dwattr $C$DW$50, DW_AT_type(*$C$DW$T$611)
     348                    
     349                            .dwendtag $C$DW$49
     350                    
     351                    
     352                    $C$DW$51        .dwtag  DW_TAG_subprogram
     353                            .dwattr $C$DW$51, DW_AT_name("MAC_MlmeSyncReq")
     354                            .dwattr $C$DW$51, DW_AT_TI_symbol_name("MAC_MlmeSyncReq")
     355                            .dwattr $C$DW$51, DW_AT_type(*$C$DW$T$27)
     356                            .dwattr $C$DW$51, DW_AT_declaration
     357                            .dwattr $C$DW$51, DW_AT_external
     358                            .dwattr $C$DW$51, DW_AT_decl_file("C:/ti/simplelink_cc13x0_sdk_2_30_00_20/source/ti/ti154stack
     359                            .dwattr $C$DW$51, DW_AT_decl_line(0x76e)
     360                            .dwattr $C$DW$51, DW_AT_decl_column(0x0e)
     361                    $C$DW$52        .dwtag  DW_TAG_formal_parameter
     362                            .dwattr $C$DW$52, DW_AT_type(*$C$DW$T$613)
     363                    
     364                            .dwendtag $C$DW$51
     365                    
     366                    
     367                    $C$DW$53        .dwtag  DW_TAG_subprogram
     368                            .dwattr $C$DW$53, DW_AT_name("MAC_RandomByte")
     369                            .dwattr $C$DW$53, DW_AT_TI_symbol_name("MAC_RandomByte")
     370                            .dwattr $C$DW$53, DW_AT_type(*$C$DW$T$27)
     371                            .dwattr $C$DW$53, DW_AT_declaration
     372                            .dwattr $C$DW$53, DW_AT_external
     373                            .dwattr $C$DW$53, DW_AT_decl_file("C:/ti/simplelink_cc13x0_sdk_2_30_00_20/source/ti/ti154stack
     374                            .dwattr $C$DW$53, DW_AT_decl_line(0x7d4)
     375                            .dwattr $C$DW$53, DW_AT_decl_column(0x0e)
     376                            .dwendtag $C$DW$53
     377                    
     378                    
     379                    $C$DW$54        .dwtag  DW_TAG_subprogram
     380                            .dwattr $C$DW$54, DW_AT_name("macUpdatePanId")
     381                            .dwattr $C$DW$54, DW_AT_TI_symbol_name("macUpdatePanId")
     382                            .dwattr $C$DW$54, DW_AT_declaration
     383                            .dwattr $C$DW$54, DW_AT_external
     384                            .dwattr $C$DW$54, DW_AT_decl_file("C:/ti/simplelink_cc13x0_sdk_2_30_00_20/source/ti/ti154stack
     385                            .dwattr $C$DW$54, DW_AT_decl_line(0x8ce)
TI ARM Assembler PC v16.9.9 Sun Nov 25 16:40:50 2018

Tools Copyright (c) 1996-2017 Texas Instruments Incorporated
C:\Users\Stryd\AppData\Local\Temp\{9A419F3E-CE2D-47E3-ABE5-0EE6D6901F8C} PAGE    8

     386                            .dwattr $C$DW$54, DW_AT_decl_column(0x0d)
     387                    $C$DW$55        .dwtag  DW_TAG_formal_parameter
     388                            .dwattr $C$DW$55, DW_AT_type(*$C$DW$T$34)
     389                    
     390                            .dwendtag $C$DW$54
     391                    
     392                    
     393                    $C$DW$56        .dwtag  DW_TAG_subprogram
     394                            .dwattr $C$DW$56, DW_AT_name("MAC_MlmeWSAsyncReq")
     395                            .dwattr $C$DW$56, DW_AT_TI_symbol_name("MAC_MlmeWSAsyncReq")
     396                            .dwattr $C$DW$56, DW_AT_type(*$C$DW$T$27)
     397                            .dwattr $C$DW$56, DW_AT_declaration
     398                            .dwattr $C$DW$56, DW_AT_external
     399                            .dwattr $C$DW$56, DW_AT_decl_file("C:/ti/simplelink_cc13x0_sdk_2_30_00_20/source/ti/ti154stack
     400                            .dwattr $C$DW$56, DW_AT_decl_line(0x90a)
     401                            .dwattr $C$DW$56, DW_AT_decl_column(0x0e)
     402                    $C$DW$57        .dwtag  DW_TAG_formal_parameter
     403                            .dwattr $C$DW$57, DW_AT_type(*$C$DW$T$616)
     404                    
     405                            .dwendtag $C$DW$56
     406                    
     407                    
     408                    $C$DW$58        .dwtag  DW_TAG_subprogram
     409                            .dwattr $C$DW$58, DW_AT_name("MAC_MlmeGetReqSize")
     410                            .dwattr $C$DW$58, DW_AT_TI_symbol_name("MAC_MlmeGetReqSize")
     411                            .dwattr $C$DW$58, DW_AT_type(*$C$DW$T$27)
     412                            .dwattr $C$DW$58, DW_AT_declaration
     413                            .dwattr $C$DW$58, DW_AT_external
     414                            .dwattr $C$DW$58, DW_AT_decl_file("C:/ti/simplelink_cc13x0_sdk_2_30_00_20/source/ti/ti154stack
     415                            .dwattr $C$DW$58, DW_AT_decl_line(0x91d)
     416                            .dwattr $C$DW$58, DW_AT_decl_column(0x0e)
     417                    $C$DW$59        .dwtag  DW_TAG_formal_parameter
     418                            .dwattr $C$DW$59, DW_AT_type(*$C$DW$T$27)
     419                    
     420                            .dwendtag $C$DW$58
     421                    
     422                    
     423                    $C$DW$60        .dwtag  DW_TAG_subprogram
     424                            .dwattr $C$DW$60, DW_AT_name("MAC_MlmeFHGetReqSize")
     425                            .dwattr $C$DW$60, DW_AT_TI_symbol_name("MAC_MlmeFHGetReqSize")
     426                            .dwattr $C$DW$60, DW_AT_type(*$C$DW$T$27)
     427                            .dwattr $C$DW$60, DW_AT_declaration
     428                            .dwattr $C$DW$60, DW_AT_external
     429                            .dwattr $C$DW$60, DW_AT_decl_file("C:/ti/simplelink_cc13x0_sdk_2_30_00_20/source/ti/ti154stack
     430                            .dwattr $C$DW$60, DW_AT_decl_line(0x927)
     431                            .dwattr $C$DW$60, DW_AT_decl_column(0x0e)
     432                    $C$DW$61        .dwtag  DW_TAG_formal_parameter
     433                            .dwattr $C$DW$61, DW_AT_type(*$C$DW$T$34)
     434                    
     435                            .dwendtag $C$DW$60
     436                    
     437                    
     438                    $C$DW$62        .dwtag  DW_TAG_subprogram
     439                            .dwattr $C$DW$62, DW_AT_name("MAC_MlmeFHSetReq")
     440                            .dwattr $C$DW$62, DW_AT_TI_symbol_name("MAC_MlmeFHSetReq")
TI ARM Assembler PC v16.9.9 Sun Nov 25 16:40:50 2018

Tools Copyright (c) 1996-2017 Texas Instruments Incorporated
C:\Users\Stryd\AppData\Local\Temp\{9A419F3E-CE2D-47E3-ABE5-0EE6D6901F8C} PAGE    9

     441                            .dwattr $C$DW$62, DW_AT_type(*$C$DW$T$27)
     442                            .dwattr $C$DW$62, DW_AT_declaration
     443                            .dwattr $C$DW$62, DW_AT_external
     444                            .dwattr $C$DW$62, DW_AT_decl_file("C:/ti/simplelink_cc13x0_sdk_2_30_00_20/source/ti/ti154stack
     445                            .dwattr $C$DW$62, DW_AT_decl_line(0x940)
     446                            .dwattr $C$DW$62, DW_AT_decl_column(0x0e)
     447                    $C$DW$63        .dwtag  DW_TAG_formal_parameter
     448                            .dwattr $C$DW$63, DW_AT_type(*$C$DW$T$34)
     449                    
     450                    $C$DW$64        .dwtag  DW_TAG_formal_parameter
     451                            .dwattr $C$DW$64, DW_AT_type(*$C$DW$T$3)
     452                    
     453                            .dwendtag $C$DW$62
     454                    
     455                    
     456                    $C$DW$65        .dwtag  DW_TAG_subprogram
     457                            .dwattr $C$DW$65, DW_AT_name("MAC_MlmeFHGetReq")
     458                            .dwattr $C$DW$65, DW_AT_TI_symbol_name("MAC_MlmeFHGetReq")
     459                            .dwattr $C$DW$65, DW_AT_type(*$C$DW$T$27)
     460                            .dwattr $C$DW$65, DW_AT_declaration
     461                            .dwattr $C$DW$65, DW_AT_external
     462                            .dwattr $C$DW$65, DW_AT_decl_file("C:/ti/simplelink_cc13x0_sdk_2_30_00_20/source/ti/ti154stack
     463                            .dwattr $C$DW$65, DW_AT_decl_line(0x958)
     464                            .dwattr $C$DW$65, DW_AT_decl_column(0x0e)
     465                    $C$DW$66        .dwtag  DW_TAG_formal_parameter
     466                            .dwattr $C$DW$66, DW_AT_type(*$C$DW$T$34)
     467                    
     468                    $C$DW$67        .dwtag  DW_TAG_formal_parameter
     469                            .dwattr $C$DW$67, DW_AT_type(*$C$DW$T$3)
     470                    
     471                            .dwendtag $C$DW$65
     472                    
     473                    
     474                    $C$DW$68        .dwtag  DW_TAG_subprogram
     475                            .dwattr $C$DW$68, DW_AT_name("macWrapperAddDevice")
     476                            .dwattr $C$DW$68, DW_AT_TI_symbol_name("macWrapperAddDevice")
     477                            .dwattr $C$DW$68, DW_AT_type(*$C$DW$T$27)
     478                            .dwattr $C$DW$68, DW_AT_declaration
     479                            .dwattr $C$DW$68, DW_AT_external
     480                            .dwattr $C$DW$68, DW_AT_decl_file("C:/ti/simplelink_cc13x0_sdk_2_30_00_20/source/ti/ti154stack
     481                            .dwattr $C$DW$68, DW_AT_decl_line(0x5d)
     482                            .dwattr $C$DW$68, DW_AT_decl_column(0x0e)
     483                    $C$DW$69        .dwtag  DW_TAG_formal_parameter
     484                            .dwattr $C$DW$69, DW_AT_type(*$C$DW$T$174)
     485                    
     486                            .dwendtag $C$DW$68
     487                    
     488                    
     489                    $C$DW$70        .dwtag  DW_TAG_subprogram
     490                            .dwattr $C$DW$70, DW_AT_name("macWrapperDeleteDevice")
     491                            .dwattr $C$DW$70, DW_AT_TI_symbol_name("macWrapperDeleteDevice")
     492                            .dwattr $C$DW$70, DW_AT_type(*$C$DW$T$27)
     493                            .dwattr $C$DW$70, DW_AT_declaration
     494                            .dwattr $C$DW$70, DW_AT_external
     495                            .dwattr $C$DW$70, DW_AT_decl_file("C:/ti/simplelink_cc13x0_sdk_2_30_00_20/source/ti/ti154stack
TI ARM Assembler PC v16.9.9 Sun Nov 25 16:40:50 2018

Tools Copyright (c) 1996-2017 Texas Instruments Incorporated
C:\Users\Stryd\AppData\Local\Temp\{9A419F3E-CE2D-47E3-ABE5-0EE6D6901F8C} PAGE   10

     496                            .dwattr $C$DW$70, DW_AT_decl_line(0x6c)
     497                            .dwattr $C$DW$70, DW_AT_decl_column(0x10)
     498                    $C$DW$71        .dwtag  DW_TAG_formal_parameter
     499                            .dwattr $C$DW$71, DW_AT_type(*$C$DW$T$177)
     500                    
     501                            .dwendtag $C$DW$70
     502                    
     503                    
     504                    $C$DW$72        .dwtag  DW_TAG_subprogram
     505                            .dwattr $C$DW$72, DW_AT_name("macWrapperDeleteKeyAndAssociatedDevices")
     506                            .dwattr $C$DW$72, DW_AT_TI_symbol_name("macWrapperDeleteKeyAndAssociatedDevices")
     507                            .dwattr $C$DW$72, DW_AT_type(*$C$DW$T$27)
     508                            .dwattr $C$DW$72, DW_AT_declaration
     509                            .dwattr $C$DW$72, DW_AT_external
     510                            .dwattr $C$DW$72, DW_AT_decl_file("C:/ti/simplelink_cc13x0_sdk_2_30_00_20/source/ti/ti154stack
     511                            .dwattr $C$DW$72, DW_AT_decl_line(0x7a)
     512                            .dwattr $C$DW$72, DW_AT_decl_column(0x10)
     513                    $C$DW$73        .dwtag  DW_TAG_formal_parameter
     514                            .dwattr $C$DW$73, DW_AT_type(*$C$DW$T$34)
     515                    
     516                            .dwendtag $C$DW$72
     517                    
     518                    
     519                    $C$DW$74        .dwtag  DW_TAG_subprogram
     520                            .dwattr $C$DW$74, DW_AT_name("macWrapperDeleteAllDevices")
     521                            .dwattr $C$DW$74, DW_AT_TI_symbol_name("macWrapperDeleteAllDevices")
     522                            .dwattr $C$DW$74, DW_AT_type(*$C$DW$T$27)
     523                            .dwattr $C$DW$74, DW_AT_declaration
     524                            .dwattr $C$DW$74, DW_AT_external
     525                            .dwattr $C$DW$74, DW_AT_decl_file("C:/ti/simplelink_cc13x0_sdk_2_30_00_20/source/ti/ti154stack
     526                            .dwattr $C$DW$74, DW_AT_decl_line(0x87)
     527                            .dwattr $C$DW$74, DW_AT_decl_column(0x10)
     528                            .dwendtag $C$DW$74
     529                    
     530                    
     531                    $C$DW$75        .dwtag  DW_TAG_subprogram
     532                            .dwattr $C$DW$75, DW_AT_name("macWrapperGetDefaultSourceKey")
     533                            .dwattr $C$DW$75, DW_AT_TI_symbol_name("macWrapperGetDefaultSourceKey")
     534                            .dwattr $C$DW$75, DW_AT_type(*$C$DW$T$27)
     535                            .dwattr $C$DW$75, DW_AT_declaration
     536                            .dwattr $C$DW$75, DW_AT_external
     537                            .dwattr $C$DW$75, DW_AT_decl_file("C:/ti/simplelink_cc13x0_sdk_2_30_00_20/source/ti/ti154stack
     538                            .dwattr $C$DW$75, DW_AT_decl_line(0x90)
     539                            .dwattr $C$DW$75, DW_AT_decl_column(0x10)
     540                    $C$DW$76        .dwtag  DW_TAG_formal_parameter
     541                            .dwattr $C$DW$76, DW_AT_type(*$C$DW$T$27)
     542                    
     543                    $C$DW$77        .dwtag  DW_TAG_formal_parameter
     544                            .dwattr $C$DW$77, DW_AT_type(*$C$DW$T$892)
     545                    
     546                            .dwendtag $C$DW$75
     547                    
     548                    
     549                    $C$DW$78        .dwtag  DW_TAG_subprogram
     550                            .dwattr $C$DW$78, DW_AT_name("macWrapperAddKeyInitFCtr")
TI ARM Assembler PC v16.9.9 Sun Nov 25 16:40:50 2018

Tools Copyright (c) 1996-2017 Texas Instruments Incorporated
C:\Users\Stryd\AppData\Local\Temp\{9A419F3E-CE2D-47E3-ABE5-0EE6D6901F8C} PAGE   11

     551                            .dwattr $C$DW$78, DW_AT_TI_symbol_name("macWrapperAddKeyInitFCtr")
     552                            .dwattr $C$DW$78, DW_AT_type(*$C$DW$T$27)
     553                            .dwattr $C$DW$78, DW_AT_declaration
     554                            .dwattr $C$DW$78, DW_AT_external
     555                            .dwattr $C$DW$78, DW_AT_decl_file("C:/ti/simplelink_cc13x0_sdk_2_30_00_20/source/ti/ti154stack
     556                            .dwattr $C$DW$78, DW_AT_decl_line(0xb7)
     557                            .dwattr $C$DW$78, DW_AT_decl_column(0x10)
     558                    $C$DW$79        .dwtag  DW_TAG_formal_parameter
     559                            .dwattr $C$DW$79, DW_AT_type(*$C$DW$T$182)
     560                    
     561                            .dwendtag $C$DW$78
     562                    
     563                    $C$DW$80        .dwtag  DW_TAG_variable
     564                            .dwattr $C$DW$80, DW_AT_name("ICall_dispatcher")
     565                            .dwattr $C$DW$80, DW_AT_TI_symbol_name("ICall_dispatcher")
     566                            .dwattr $C$DW$80, DW_AT_type(*$C$DW$T$509)
     567                            .dwattr $C$DW$80, DW_AT_declaration
     568                            .dwattr $C$DW$80, DW_AT_external
     569                            .dwattr $C$DW$80, DW_AT_decl_file("C:/ti/simplelink_cc13x0_sdk_2_30_00_20/source/ti/ti154stack
     570                            .dwattr $C$DW$80, DW_AT_decl_line(0x381)
     571                            .dwattr $C$DW$80, DW_AT_decl_column(0x19)
     572                    
     573 00000000                   .sect   ".data:$O1$$", RW
     574                            .align  4
     575                            .elfsym ||$O1$$||,SYM_SIZE(20)
     576 00000000           ||$O1$$||:
     577 00000000 00000000          .bits   0,8                     ; $O1$$.ApiMac_appEntity @ 0
     578 00000001                   .space  7
     579 00000008 00000000          .bits   0,32                    ; $O1$$.pMacCallbacks @ 64
     580 0000000c                   .space  8
     581                    
     582                    
     583                    ;*********************************************************************
     584                    ;* GROUPED GLOBALS FOR $O1$$                                         *
     585                    ;*********************************************************************
     586          00000000! ApiMac_appEntity:       .set    ||$O1$$||+0
     587                            .global ApiMac_appEntity
     588                    $C$DW$81        .dwtag  DW_TAG_variable
     589                            .dwattr $C$DW$81, DW_AT_name("ApiMac_appEntity")
     590                            .dwattr $C$DW$81, DW_AT_TI_symbol_name("ApiMac_appEntity")
     591                            .dwattr $C$DW$81, DW_AT_location[DW_OP_addr ApiMac_appEntity]
     592                            .dwattr $C$DW$81, DW_AT_type(*$C$DW$T$220)
     593                            .dwattr $C$DW$81, DW_AT_external
     594                            .dwattr $C$DW$81, DW_AT_decl_file("../Application/api_mac.c")
     595                            .dwattr $C$DW$81, DW_AT_decl_line(0xbf)
     596                            .dwattr $C$DW$81, DW_AT_decl_column(0x10)
     597                    
     598          00000001! macEntityID:    .set    ||$O1$$||+1
     599                    $C$DW$82        .dwtag  DW_TAG_variable
     600                            .dwattr $C$DW$82, DW_AT_name("macEntityID")
     601                            .dwattr $C$DW$82, DW_AT_TI_symbol_name("macEntityID")
     602                            .dwattr $C$DW$82, DW_AT_type(*$C$DW$T$220)
     603                            .dwattr $C$DW$82, DW_AT_location[DW_OP_addr macEntityID]
     604                            .dwattr $C$DW$82, DW_AT_decl_file("../Application/api_mac.c")
     605                            .dwattr $C$DW$82, DW_AT_decl_line(0xd0)
TI ARM Assembler PC v16.9.9 Sun Nov 25 16:40:50 2018

Tools Copyright (c) 1996-2017 Texas Instruments Incorporated
C:\Users\Stryd\AppData\Local\Temp\{9A419F3E-CE2D-47E3-ABE5-0EE6D6901F8C} PAGE   12

     606                            .dwattr $C$DW$82, DW_AT_decl_column(0x17)
     607                    
     608          00000004! sem:    .set    ||$O1$$||+4
     609                    $C$DW$83        .dwtag  DW_TAG_variable
     610                            .dwattr $C$DW$83, DW_AT_name("sem")
     611                            .dwattr $C$DW$83, DW_AT_TI_symbol_name("sem")
     612                            .dwattr $C$DW$83, DW_AT_type(*$C$DW$T$794)
     613                            .dwattr $C$DW$83, DW_AT_location[DW_OP_addr sem]
     614                            .dwattr $C$DW$83, DW_AT_decl_file("../Application/api_mac.c")
     615                            .dwattr $C$DW$83, DW_AT_decl_line(0xcb)
     616                            .dwattr $C$DW$83, DW_AT_decl_column(0x18)
     617                    
     618          00000008! pMacCallbacks:  .set    ||$O1$$||+8
     619                    $C$DW$84        .dwtag  DW_TAG_variable
     620                            .dwattr $C$DW$84, DW_AT_name("pMacCallbacks")
     621                            .dwattr $C$DW$84, DW_AT_TI_symbol_name("pMacCallbacks")
     622                            .dwattr $C$DW$84, DW_AT_type(*$C$DW$T$826)
     623                            .dwattr $C$DW$84, DW_AT_location[DW_OP_addr pMacCallbacks]
     624                            .dwattr $C$DW$84, DW_AT_decl_file("../Application/api_mac.c")
     625                            .dwattr $C$DW$84, DW_AT_decl_line(0xce)
     626                            .dwattr $C$DW$84, DW_AT_decl_column(0x1c)
     627                    
     628          0000000C! ApiMac_extAddr: .set    ||$O1$$||+12
     629                            .global ApiMac_extAddr
     630                    $C$DW$85        .dwtag  DW_TAG_variable
     631                            .dwattr $C$DW$85, DW_AT_name("ApiMac_extAddr")
     632                            .dwattr $C$DW$85, DW_AT_TI_symbol_name("ApiMac_extAddr")
     633                            .dwattr $C$DW$85, DW_AT_location[DW_OP_addr ApiMac_extAddr]
     634                            .dwattr $C$DW$85, DW_AT_type(*$C$DW$T$176)
     635                            .dwattr $C$DW$85, DW_AT_external
     636                            .dwattr $C$DW$85, DW_AT_decl_file("../Application/api_mac.c")
     637                            .dwattr $C$DW$85, DW_AT_decl_line(0xc5)
     638                            .dwattr $C$DW$85, DW_AT_decl_column(0x13)
     639                    
     640                    ;       C:\ti\ccsv7\tools\compiler\ti-cgt-arm_16.9.9.LTS\bin\armopt.exe C:/CCSWorkspace/ECG603/collect
     641 00000000                   .sect   ".text:copyApiMacAddrToMacAddr"
     642                            .clink
     643                            .thumbfunc copyApiMacAddrToMacAddr
     644 00000000                   .thumb
     645                            .global copyApiMacAddrToMacAddr
     646                    
     647                    $C$DW$86        .dwtag  DW_TAG_subprogram
     648                            .dwattr $C$DW$86, DW_AT_name("copyApiMacAddrToMacAddr")
     649                            .dwattr $C$DW$86, DW_AT_low_pc(copyApiMacAddrToMacAddr)
     650                            .dwattr $C$DW$86, DW_AT_high_pc(0x00)
     651                            .dwattr $C$DW$86, DW_AT_TI_symbol_name("copyApiMacAddrToMacAddr")
     652                            .dwattr $C$DW$86, DW_AT_external
     653                            .dwattr $C$DW$86, DW_AT_TI_begin_file("../Application/api_mac.c")
     654                            .dwattr $C$DW$86, DW_AT_TI_begin_line(0x71c)
     655                            .dwattr $C$DW$86, DW_AT_TI_begin_column(0x06)
     656                            .dwattr $C$DW$86, DW_AT_decl_file("../Application/api_mac.c")
     657                            .dwattr $C$DW$86, DW_AT_decl_line(0x71c)
     658                            .dwattr $C$DW$86, DW_AT_decl_column(0x06)
     659                            .dwattr $C$DW$86, DW_AT_TI_max_frame_size(0x00)
     660                            .dwpsn  file "../Application/api_mac.c",line 1821,column 1,is_stmt,address copyApiMacAddrToMac
TI ARM Assembler PC v16.9.9 Sun Nov 25 16:40:50 2018

Tools Copyright (c) 1996-2017 Texas Instruments Incorporated
C:\Users\Stryd\AppData\Local\Temp\{9A419F3E-CE2D-47E3-ABE5-0EE6D6901F8C} PAGE   13

     661                    
     662                            .dwfde $C$DW$CIE, copyApiMacAddrToMacAddr
     663                    $C$DW$87        .dwtag  DW_TAG_formal_parameter
     664                            .dwattr $C$DW$87, DW_AT_name("pDst")
     665                            .dwattr $C$DW$87, DW_AT_TI_symbol_name("pDst")
     666                            .dwattr $C$DW$87, DW_AT_type(*$C$DW$T$143)
     667                            .dwattr $C$DW$87, DW_AT_location[DW_OP_reg0]
     668                    
     669                    $C$DW$88        .dwtag  DW_TAG_formal_parameter
     670                            .dwattr $C$DW$88, DW_AT_name("pSrc")
     671                            .dwattr $C$DW$88, DW_AT_TI_symbol_name("pSrc")
     672                            .dwattr $C$DW$88, DW_AT_type(*$C$DW$T$726)
     673                            .dwattr $C$DW$88, DW_AT_location[DW_OP_reg1]
     674                    
     675                    
     676                    ;*****************************************************************************
     677                    ;* FUNCTION NAME: copyApiMacAddrToMacAddr                                    *
     678                    ;*                                                                           *
     679                    ;*   Regs Modified     : A2,A3,SR                                            *
     680                    ;*   Regs Used         : A1,A2,A3,LR,SR                                      *
     681                    ;*   Local Frame Size  : 0 Args + 0 Auto + 0 Save = 0 byte                   *
     682                    ;*****************************************************************************
     683                    copyApiMacAddrToMacAddr:
     684                    ;* --------------------------------------------------------------------------*
     685                    ;* A1    assigned to pDst
     686                    $C$DW$89        .dwtag  DW_TAG_variable
     687                            .dwattr $C$DW$89, DW_AT_name("pDst")
     688                            .dwattr $C$DW$89, DW_AT_TI_symbol_name("pDst")
     689                            .dwattr $C$DW$89, DW_AT_type(*$C$DW$T$735)
     690                            .dwattr $C$DW$89, DW_AT_location[DW_OP_reg0]
     691                    
     692                    ;* A2    assigned to pSrc
     693                    $C$DW$90        .dwtag  DW_TAG_variable
     694                            .dwattr $C$DW$90, DW_AT_name("pSrc")
     695                            .dwattr $C$DW$90, DW_AT_TI_symbol_name("pSrc")
     696                            .dwattr $C$DW$90, DW_AT_type(*$C$DW$T$727)
     697                            .dwattr $C$DW$90, DW_AT_location[DW_OP_reg1]
     698                    
     699                            .dwcfi  cfa_offset, 0
     700                            .dwpsn  file "../Application/api_mac.c",line 1823,column 5,is_stmt,isa 1
     701 00000000 7A0A              LDRB      A3, [A2, #8]          ; [DPU_3_PIPE] |1823|  ; [ORIG 16-BIT INS]
     702 00000002 7202              STRB      A3, [A1, #8]          ; [DPU_3_PIPE] |1823|  ; [ORIG 16-BIT INS]
     703                            .dwpsn  file "../Application/api_mac.c",line 1824,column 5,is_stmt,isa 1
     704 00000004 7A0A              LDRB      A3, [A2, #8]          ; [DPU_3_PIPE] |1824|  ; [ORIG 16-BIT INS]
     705 00000006 2A02              CMP       A3, #2                ; [DPU_3_PIPE] |1824|  ; [ORIG 16-BIT INS]
     706 00000008 D004              BEQ       ||$C$L1||             ; [DPU_3_PIPE] |1824|  ; [ORIG 16-BIT INS]
     707                            ; BRANCHCC OCCURS {||$C$L1||}    ; [] |1824| 
     708                    ;* --------------------------------------------------------------------------*
     709                            .dwcfi  remember_state
     710                            .dwpsn  file "../Application/api_mac.c",line 1830,column 9,is_stmt,isa 1
     711 0000000a 680A              LDR       A3, [A2, #0]          ; [DPU_3_PIPE] |1830|  ; [ORIG 16-BIT INS]
     712 0000000c 6002              STR       A3, [A1, #0]          ; [DPU_3_PIPE] |1830|  ; [ORIG 16-BIT INS]
     713 0000000e 6849              LDR       A2, [A2, #4]          ; [DPU_3_PIPE] |1830|  ; [ORIG 16-BIT INS]
     714 00000010 6041              STR       A2, [A1, #4]          ; [DPU_3_PIPE] |1830|  ; [ORIG 16-BIT INS]
     715                    $C$DW$91        .dwtag  DW_TAG_TI_branch
TI ARM Assembler PC v16.9.9 Sun Nov 25 16:40:50 2018

Tools Copyright (c) 1996-2017 Texas Instruments Incorporated
C:\Users\Stryd\AppData\Local\Temp\{9A419F3E-CE2D-47E3-ABE5-0EE6D6901F8C} PAGE   14

     716                            .dwattr $C$DW$91, DW_AT_low_pc(0x00)
     717                            .dwattr $C$DW$91, DW_AT_TI_return
     718                    
     719 00000012 4770              BX        LR                    ; [DPU_3_PIPE]  ; [ORIG 16-BIT INS]
     720                            ; BRANCH OCCURS                  ; [] 
     721                            .dwcfi  restore_state
     722                    ;* --------------------------------------------------------------------------*
     723 00000014           ||$C$L1||:    
     724                            .dwpsn  file "../Application/api_mac.c",line 1826,column 9,is_stmt,isa 1
     725 00000014 8809              LDRH      A2, [A2, #0]          ; [DPU_3_PIPE] |1826|  ; [ORIG 16-BIT INS]
     726 00000016 8001              STRH      A2, [A1, #0]          ; [DPU_3_PIPE] |1826|  ; [ORIG 16-BIT INS]
     727                    ;* --------------------------------------------------------------------------*
     728                    $C$DW$92        .dwtag  DW_TAG_TI_branch
     729                            .dwattr $C$DW$92, DW_AT_low_pc(0x00)
     730                            .dwattr $C$DW$92, DW_AT_TI_return
     731                    
     732 00000018 4770              BX        LR                    ; [DPU_3_PIPE]  ; [ORIG 16-BIT INS]
     733                            ; BRANCH OCCURS                  ; [] 
     734                            .dwattr $C$DW$86, DW_AT_TI_end_file("../Application/api_mac.c")
     735                            .dwattr $C$DW$86, DW_AT_TI_end_line(0x728)
     736                            .dwattr $C$DW$86, DW_AT_TI_end_column(0x01)
     737                            .dwendentry
     738                            .dwendtag $C$DW$86
     739                    
     740 00000000                   .sect   ".text:convertTxOptions"
     741                            .clink
     742                            .thumbfunc convertTxOptions
     743 00000000                   .thumb
     744                            .global convertTxOptions
     745                    
     746                    $C$DW$93        .dwtag  DW_TAG_subprogram
     747                            .dwattr $C$DW$93, DW_AT_name("convertTxOptions")
     748                            .dwattr $C$DW$93, DW_AT_low_pc(convertTxOptions)
     749                            .dwattr $C$DW$93, DW_AT_high_pc(0x00)
     750                            .dwattr $C$DW$93, DW_AT_TI_symbol_name("convertTxOptions")
     751                            .dwattr $C$DW$93, DW_AT_external
     752                            .dwattr $C$DW$93, DW_AT_type(*$C$DW$T$108)
     753                            .dwattr $C$DW$93, DW_AT_TI_begin_file("../Application/api_mac.c")
     754                            .dwattr $C$DW$93, DW_AT_TI_begin_line(0x7af)
     755                            .dwattr $C$DW$93, DW_AT_TI_begin_column(0x0a)
     756                            .dwattr $C$DW$93, DW_AT_decl_file("../Application/api_mac.c")
     757                            .dwattr $C$DW$93, DW_AT_decl_line(0x7af)
     758                            .dwattr $C$DW$93, DW_AT_decl_column(0x0a)
     759                            .dwattr $C$DW$93, DW_AT_TI_max_frame_size(0x10)
     760                            .dwpsn  file "../Application/api_mac.c",line 1968,column 1,is_stmt,address convertTxOptions,is
     761                    
     762                            .dwfde $C$DW$CIE, convertTxOptions
     763                    $C$DW$94        .dwtag  DW_TAG_formal_parameter
     764                            .dwattr $C$DW$94, DW_AT_name("txOptions")
     765                            .dwattr $C$DW$94, DW_AT_TI_symbol_name("txOptions")
     766                            .dwattr $C$DW$94, DW_AT_type(*$C$DW$T$398)
     767                            .dwattr $C$DW$94, DW_AT_location[DW_OP_breg13 8]
     768                    
     769                    
     770                    ;*****************************************************************************
TI ARM Assembler PC v16.9.9 Sun Nov 25 16:40:50 2018

Tools Copyright (c) 1996-2017 Texas Instruments Incorporated
C:\Users\Stryd\AppData\Local\Temp\{9A419F3E-CE2D-47E3-ABE5-0EE6D6901F8C} PAGE   15

     771                    ;* FUNCTION NAME: convertTxOptions                                           *
     772                    ;*                                                                           *
     773                    ;*   Regs Modified     : A1,A2,V4,SP,LR,SR                                   *
     774                    ;*   Regs Used         : A1,A2,V4,SP,LR,SR                                   *
     775                    ;*   Local Frame Size  : 0 Args + 0 Auto + 8 Save = 8 byte                   *
     776                    ;*****************************************************************************
     777                    convertTxOptions:
     778                    ;* --------------------------------------------------------------------------*
     779                    ;* A1    assigned to retVal
     780                    $C$DW$95        .dwtag  DW_TAG_variable
     781                            .dwattr $C$DW$95, DW_AT_name("retVal")
     782                            .dwattr $C$DW$95, DW_AT_TI_symbol_name("retVal")
     783                            .dwattr $C$DW$95, DW_AT_type(*$C$DW$T$10)
     784                            .dwattr $C$DW$95, DW_AT_location[DW_OP_reg0]
     785                    
     786                            .dwcfi  cfa_offset, 0
     787 00000000 B403              PUSH      {A1, A2}              ; [DPU_3_PIPE]  ; [ORIG 16-BIT INS]
     788                            .dwcfi  cfa_offset, 8
     789                            .dwcfi  save_reg_to_mem, 1, -4
     790                            .dwcfi  save_reg_to_mem, 0, -8
     791 00000002 B580              PUSH      {V4, LR}              ; [DPU_3_PIPE]  ; [ORIG 16-BIT INS]
     792                            .dwcfi  cfa_offset, 16
     793                            .dwcfi  save_reg_to_mem, 14, -12
     794                            .dwcfi  save_reg_to_mem, 7, -16
     795 00000004 AF02              ADD       V4, SP, #8            ; [DPU_3_PIPE]  ; [ORIG 16-BIT INS]
     796                            .dwpsn  file "../Application/api_mac.c",line 1973,column 9,is_stmt,isa 1
     797 00000006 7839              LDRB      A2, [V4, #0]          ; [DPU_3_PIPE] |1973|  ; [ORIG 16-BIT INS]
     798 00000008 2000              MOVS      A1, #0                ; [DPU_3_PIPE] |1973|  ; [ORIG 16-BIT INS]
     799 0000000a 2901              CMP       A2, #1                ; [DPU_3_PIPE] |1973|  ; [ORIG 16-BIT INS]
     800 0000000c BF08              IT        EQ                    ; [DPU_3_PIPE]  ; [ORIG 16-BIT INS]
     801 0000000e 2001              MOVEQ     A1, #1                ; [DPU_3_PIPE] |1973|  ; [ORIG 16-BIT INS]
     802                            .dwpsn  file "../Application/api_mac.c",line 1975,column 5,is_stmt,isa 1
     803 00000010 7879              LDRB      A2, [V4, #1]          ; [DPU_3_PIPE] |1975|  ; [ORIG 16-BIT INS]
     804 00000012 2901              CMP       A2, #1                ; [DPU_3_PIPE] |1975|  ; [ORIG 16-BIT INS]
     805 00000014 BF08              IT        EQ                    ; [DPU_3_PIPE]  ; [ORIG 16-BIT INS]
     806                            .dwpsn  file "../Application/api_mac.c",line 1977,column 9,is_stmt,isa 1
     807 00000016 0004F040          ORREQ     A1, A1, #4            ; [DPU_3_PIPE] |1977|  ; [KEEP 32-BIT INS]
     808                            .dwpsn  file "../Application/api_mac.c",line 1979,column 5,is_stmt,isa 1
     809 0000001a 78B9              LDRB      A2, [V4, #2]          ; [DPU_3_PIPE] |1979|  ; [ORIG 16-BIT INS]
     810 0000001c 2901              CMP       A2, #1                ; [DPU_3_PIPE] |1979|  ; [ORIG 16-BIT INS]
     811 0000001e BF08              IT        EQ                    ; [DPU_3_PIPE]  ; [ORIG 16-BIT INS]
     812                            .dwpsn  file "../Application/api_mac.c",line 1981,column 9,is_stmt,isa 1
     813 00000020 0008F040          ORREQ     A1, A1, #8            ; [DPU_3_PIPE] |1981|  ; [KEEP 32-BIT INS]
     814                            .dwpsn  file "../Application/api_mac.c",line 1983,column 5,is_stmt,isa 1
     815 00000024 78F9              LDRB      A2, [V4, #3]          ; [DPU_3_PIPE] |1983|  ; [ORIG 16-BIT INS]
     816 00000026 2901              CMP       A2, #1                ; [DPU_3_PIPE] |1983|  ; [ORIG 16-BIT INS]
     817 00000028 BF08              IT        EQ                    ; [DPU_3_PIPE]  ; [ORIG 16-BIT INS]
     818                            .dwpsn  file "../Application/api_mac.c",line 1985,column 9,is_stmt,isa 1
     819 0000002a 0010F040          ORREQ     A1, A1, #16           ; [DPU_3_PIPE] |1985|  ; [KEEP 32-BIT INS]
     820                            .dwpsn  file "../Application/api_mac.c",line 1987,column 5,is_stmt,isa 1
     821 0000002e 7939              LDRB      A2, [V4, #4]          ; [DPU_3_PIPE] |1987|  ; [ORIG 16-BIT INS]
     822 00000030 2901              CMP       A2, #1                ; [DPU_3_PIPE] |1987|  ; [ORIG 16-BIT INS]
     823 00000032 BF08              IT        EQ                    ; [DPU_3_PIPE]  ; [ORIG 16-BIT INS]
     824                            .dwpsn  file "../Application/api_mac.c",line 1989,column 9,is_stmt,isa 1
     825 00000034 0020F040          ORREQ     A1, A1, #32           ; [DPU_3_PIPE] |1989|  ; [KEEP 32-BIT INS]
TI ARM Assembler PC v16.9.9 Sun Nov 25 16:40:50 2018

Tools Copyright (c) 1996-2017 Texas Instruments Incorporated
C:\Users\Stryd\AppData\Local\Temp\{9A419F3E-CE2D-47E3-ABE5-0EE6D6901F8C} PAGE   16

     826                            .dwpsn  file "../Application/api_mac.c",line 1991,column 5,is_stmt,isa 1
     827 00000038 7979              LDRB      A2, [V4, #5]          ; [DPU_3_PIPE] |1991|  ; [ORIG 16-BIT INS]
     828 0000003a 2901              CMP       A2, #1                ; [DPU_3_PIPE] |1991|  ; [ORIG 16-BIT INS]
     829 0000003c BF08              IT        EQ                    ; [DPU_3_PIPE]  ; [ORIG 16-BIT INS]
     830                            .dwpsn  file "../Application/api_mac.c",line 1993,column 9,is_stmt,isa 1
     831 0000003e 0040F040          ORREQ     A1, A1, #64           ; [DPU_3_PIPE] |1993|  ; [KEEP 32-BIT INS]
     832                            .dwpsn  file "../Application/api_mac.c",line 1995,column 5,is_stmt,isa 1
     833 00000042 79B9              LDRB      A2, [V4, #6]          ; [DPU_3_PIPE] |1995|  ; [ORIG 16-BIT INS]
     834 00000044 2901              CMP       A2, #1                ; [DPU_3_PIPE] |1995|  ; [ORIG 16-BIT INS]
     835 00000046 BF08              IT        EQ                    ; [DPU_3_PIPE]  ; [ORIG 16-BIT INS]
     836                            .dwpsn  file "../Application/api_mac.c",line 1997,column 9,is_stmt,isa 1
     837 00000048 0080F040          ORREQ     A1, A1, #128          ; [DPU_3_PIPE] |1997|  ; [KEEP 32-BIT INS]
     838                            .dwpsn  file "../Application/api_mac.c",line 1999,column 5,is_stmt,isa 1
     839 0000004c 79F9              LDRB      A2, [V4, #7]          ; [DPU_3_PIPE] |1999|  ; [ORIG 16-BIT INS]
     840 0000004e 2901              CMP       A2, #1                ; [DPU_3_PIPE] |1999|  ; [ORIG 16-BIT INS]
     841 00000050 BF08              IT        EQ                    ; [DPU_3_PIPE]  ; [ORIG 16-BIT INS]
     842                            .dwpsn  file "../Application/api_mac.c",line 2001,column 9,is_stmt,isa 1
     843 00000052 7080F440          ORREQ     A1, A1, #256          ; [DPU_3_PIPE] |2001|  ; [KEEP 32-BIT INS]
     844 00000056 4080E8BD          POP       {V4, LR}              ; [DPU_3_PIPE]  ; [KEEP 32-BIT INS]
     845                            .dwcfi  cfa_offset, 8
     846                            .dwcfi  restore_reg, 14
     847                            .dwcfi  restore_reg, 7
     848 0000005a B002              ADD       SP, SP, #8            ; [DPU_3_PIPE]  ; [ORIG 16-BIT INS]
     849                            .dwcfi  cfa_offset, 0
     850                    $C$DW$96        .dwtag  DW_TAG_TI_branch
     851                            .dwattr $C$DW$96, DW_AT_low_pc(0x00)
     852                            .dwattr $C$DW$96, DW_AT_TI_return
     853                    
     854 0000005c 4770              BX        LR                    ; [DPU_3_PIPE]  ; [ORIG 16-BIT INS]
     855                            ; BRANCH OCCURS                  ; [] 
     856                            .dwattr $C$DW$93, DW_AT_TI_end_file("../Application/api_mac.c")
     857                            .dwattr $C$DW$93, DW_AT_TI_end_line(0x7d4)
     858                            .dwattr $C$DW$93, DW_AT_TI_end_column(0x01)
     859                            .dwendentry
     860                            .dwendtag $C$DW$93
     861                    
     862 00000000                   .sect   ".text:ApiMac_updatePanId"
     863                            .clink
     864                            .thumbfunc ApiMac_updatePanId
     865 00000000                   .thumb
     866                            .global ApiMac_updatePanId
     867                    
     868                    $C$DW$97        .dwtag  DW_TAG_subprogram
     869                            .dwattr $C$DW$97, DW_AT_name("ApiMac_updatePanId")
     870                            .dwattr $C$DW$97, DW_AT_low_pc(ApiMac_updatePanId)
     871                            .dwattr $C$DW$97, DW_AT_high_pc(0x00)
     872                            .dwattr $C$DW$97, DW_AT_TI_symbol_name("ApiMac_updatePanId")
     873                            .dwattr $C$DW$97, DW_AT_external
     874                            .dwattr $C$DW$97, DW_AT_type(*$C$DW$T$389)
     875                            .dwattr $C$DW$97, DW_AT_TI_begin_file("../Application/api_mac.c")
     876                            .dwattr $C$DW$97, DW_AT_TI_begin_line(0x3a7)
     877                            .dwattr $C$DW$97, DW_AT_TI_begin_column(0x11)
     878                            .dwattr $C$DW$97, DW_AT_decl_file("../Application/api_mac.c")
     879                            .dwattr $C$DW$97, DW_AT_decl_line(0x3a7)
     880                            .dwattr $C$DW$97, DW_AT_decl_column(0x11)
TI ARM Assembler PC v16.9.9 Sun Nov 25 16:40:50 2018

Tools Copyright (c) 1996-2017 Texas Instruments Incorporated
C:\Users\Stryd\AppData\Local\Temp\{9A419F3E-CE2D-47E3-ABE5-0EE6D6901F8C} PAGE   17

     881                            .dwattr $C$DW$97, DW_AT_TI_max_frame_size(0x08)
     882                            .dwpsn  file "../Application/api_mac.c",line 936,column 1,is_stmt,address ApiMac_updatePanId,i
     883                    
     884                            .dwfde $C$DW$CIE, ApiMac_updatePanId
     885                    $C$DW$98        .dwtag  DW_TAG_formal_parameter
     886                            .dwattr $C$DW$98, DW_AT_name("panId")
     887                            .dwattr $C$DW$98, DW_AT_TI_symbol_name("panId")
     888                            .dwattr $C$DW$98, DW_AT_type(*$C$DW$T$10)
     889                            .dwattr $C$DW$98, DW_AT_location[DW_OP_reg0]
     890                    
     891                    
     892                    ;*****************************************************************************
     893                    ;* FUNCTION NAME: ApiMac_updatePanId                                         *
     894                    ;*                                                                           *
     895                    ;*   Regs Modified     : A1,A2,A3,A4,V9,SP,LR,SR                             *
     896                    ;*   Regs Used         : A1,A2,A3,A4,V9,SP,LR,SR                             *
     897                    ;*   Local Frame Size  : 0 Args + 0 Auto + 4 Save = 4 byte                   *
     898                    ;*****************************************************************************
     899                    ApiMac_updatePanId:
     900                    ;* --------------------------------------------------------------------------*
     901                    ;* A1    assigned to panId
     902                    $C$DW$99        .dwtag  DW_TAG_variable
     903                            .dwattr $C$DW$99, DW_AT_name("panId")
     904                            .dwattr $C$DW$99, DW_AT_TI_symbol_name("panId")
     905                            .dwattr $C$DW$99, DW_AT_type(*$C$DW$T$948)
     906                            .dwattr $C$DW$99, DW_AT_location[DW_OP_reg0]
     907                    
     908                            .dwcfi  cfa_offset, 0
     909                            .dwpsn  file "../Application/api_mac.c",line 939,column 5,is_stmt,isa 1
     910 00000000 4903              LDR       A2, $C$CON1           ; [DPU_3_PIPE] |939|  ; [ORIG 16-BIT INS]
     911 00000002 4602              MOV       A3, A1                ; [DPU_3_PIPE] |939|  ; [ORIG 16-BIT INS]
     912 00000004 B508              PUSH      {A4, LR}              ; [DPU_3_PIPE]  ; [ORIG 16-BIT INS]
     913                            .dwcfi  cfa_offset, 8
     914                            .dwcfi  save_reg_to_mem, 14, -4
     915                            .dwcfi  save_reg_to_mem, 3, -8
     916 00000006 2018              MOVS      A1, #24               ; [DPU_3_PIPE] |939|  ; [ORIG 16-BIT INS]
     917                    $C$DW$100       .dwtag  DW_TAG_TI_branch
     918                            .dwattr $C$DW$100, DW_AT_low_pc(0x00)
     919                            .dwattr $C$DW$100, DW_AT_name("icall_directAPI")
     920                            .dwattr $C$DW$100, DW_AT_TI_call
     921                    
     922 00000008 FFFEF7FF!         BL        icall_directAPI       ; [DPU_3_PIPE] |939|  ; [KEEP 32-BIT INS]
     923                            ; CALL OCCURS {icall_directAPI }  ; [] |939| 
     924                            .dwpsn  file "../Application/api_mac.c",line 944,column 5,is_stmt,isa 1
     925 0000000c 2000              MOVS      A1, #0                ; [DPU_3_PIPE] |944|  ; [ORIG 16-BIT INS]
     926                    $C$DW$101       .dwtag  DW_TAG_TI_branch
     927                            .dwattr $C$DW$101, DW_AT_low_pc(0x00)
     928                            .dwattr $C$DW$101, DW_AT_TI_return
     929                    
     930 0000000e BD08              POP       {A4, PC}              ; [DPU_3_PIPE]  ; [ORIG 16-BIT INS]
     931                            .dwcfi  cfa_offset, 0
     932                            .dwcfi  restore_reg, 3
     933                            ; BRANCH OCCURS                  ; [] 
     934                            .dwattr $C$DW$97, DW_AT_TI_end_file("../Application/api_mac.c")
     935                            .dwattr $C$DW$97, DW_AT_TI_end_line(0x3b1)
TI ARM Assembler PC v16.9.9 Sun Nov 25 16:40:50 2018

Tools Copyright (c) 1996-2017 Texas Instruments Incorporated
C:\Users\Stryd\AppData\Local\Temp\{9A419F3E-CE2D-47E3-ABE5-0EE6D6901F8C} PAGE   18

     936                            .dwattr $C$DW$97, DW_AT_TI_end_column(0x01)
     937                            .dwendentry
     938                            .dwendtag $C$DW$97
     939                    
     940 00000000                   .sect   ".text:ApiMac_startFH"
     941                            .clink
     942                            .thumbfunc ApiMac_startFH
     943 00000000                   .thumb
     944                            .global ApiMac_startFH
     945                    
     946                    $C$DW$102       .dwtag  DW_TAG_subprogram
     947                            .dwattr $C$DW$102, DW_AT_name("ApiMac_startFH")
     948                            .dwattr $C$DW$102, DW_AT_low_pc(ApiMac_startFH)
     949                            .dwattr $C$DW$102, DW_AT_high_pc(0x00)
     950                            .dwattr $C$DW$102, DW_AT_TI_symbol_name("ApiMac_startFH")
     951                            .dwattr $C$DW$102, DW_AT_external
     952                            .dwattr $C$DW$102, DW_AT_type(*$C$DW$T$389)
     953                            .dwattr $C$DW$102, DW_AT_TI_begin_file("../Application/api_mac.c")
     954                            .dwattr $C$DW$102, DW_AT_TI_begin_line(0x3d1)
     955                            .dwattr $C$DW$102, DW_AT_TI_begin_column(0x11)
     956                            .dwattr $C$DW$102, DW_AT_decl_file("../Application/api_mac.c")
     957                            .dwattr $C$DW$102, DW_AT_decl_line(0x3d1)
     958                            .dwattr $C$DW$102, DW_AT_decl_column(0x11)
     959                            .dwattr $C$DW$102, DW_AT_TI_max_frame_size(0x08)
     960                            .dwpsn  file "../Application/api_mac.c",line 978,column 1,is_stmt,address ApiMac_startFH,isa 1
     961                    
     962                            .dwfde $C$DW$CIE, ApiMac_startFH
     963                    
     964                    ;*****************************************************************************
     965                    ;* FUNCTION NAME: ApiMac_startFH                                             *
     966                    ;*                                                                           *
     967                    ;*   Regs Modified     : A1,A2,A3,A4,V9,SP,LR,SR                             *
     968                    ;*   Regs Used         : A1,A2,A3,A4,V9,SP,LR,SR                             *
     969                    ;*   Local Frame Size  : 0 Args + 0 Auto + 4 Save = 4 byte                   *
     970                    ;*****************************************************************************
     971 00000000           ApiMac_startFH:
     972                    ;* --------------------------------------------------------------------------*
     973                            .dwcfi  cfa_offset, 0
     974                            .dwpsn  file "../Application/api_mac.c",line 979,column 5,is_stmt,isa 1
     975 00000000 4903              LDR       A2, $C$CON2           ; [DPU_3_PIPE] |979|  ; [ORIG 16-BIT INS]
     976 00000002 B508              PUSH      {A4, LR}              ; [DPU_3_PIPE]  ; [ORIG 16-BIT INS]
     977                            .dwcfi  cfa_offset, 8
     978                            .dwcfi  save_reg_to_mem, 14, -4
     979                            .dwcfi  save_reg_to_mem, 3, -8
     980 00000004 2018              MOVS      A1, #24               ; [DPU_3_PIPE] |979|  ; [ORIG 16-BIT INS]
     981                    $C$DW$103       .dwtag  DW_TAG_TI_branch
     982                            .dwattr $C$DW$103, DW_AT_low_pc(0x00)
     983                            .dwattr $C$DW$103, DW_AT_name("icall_directAPI")
     984                            .dwattr $C$DW$103, DW_AT_TI_call
     985                    
     986 00000006 FFFEF7FF!         BL        icall_directAPI       ; [DPU_3_PIPE] |979|  ; [KEEP 32-BIT INS]
     987                            ; CALL OCCURS {icall_directAPI }  ; [] |979| 
     988 0000000a B2C0              UXTB      A1, A1                ; [DPU_3_PIPE] |979|  ; [ORIG 16-BIT INS]
     989                    $C$DW$104       .dwtag  DW_TAG_TI_branch
     990                            .dwattr $C$DW$104, DW_AT_low_pc(0x00)
TI ARM Assembler PC v16.9.9 Sun Nov 25 16:40:50 2018

Tools Copyright (c) 1996-2017 Texas Instruments Incorporated
C:\Users\Stryd\AppData\Local\Temp\{9A419F3E-CE2D-47E3-ABE5-0EE6D6901F8C} PAGE   19

     991                            .dwattr $C$DW$104, DW_AT_TI_return
     992                    
     993 0000000c BD08              POP       {A4, PC}              ; [DPU_3_PIPE]  ; [ORIG 16-BIT INS]
     994                            .dwcfi  cfa_offset, 0
     995                            .dwcfi  restore_reg, 3
     996                            ; BRANCH OCCURS                  ; [] 
     997                            .dwattr $C$DW$102, DW_AT_TI_end_file("../Application/api_mac.c")
     998                            .dwattr $C$DW$102, DW_AT_TI_end_line(0x3d5)
     999                            .dwattr $C$DW$102, DW_AT_TI_end_column(0x01)
    1000                            .dwendentry
    1001                            .dwendtag $C$DW$102
    1002                    
    1003 00000000                   .sect   ".text:ApiMac_secGetDefaultSourceKey"
    1004                            .clink
    1005                            .thumbfunc ApiMac_secGetDefaultSourceKey
    1006 00000000                   .thumb
    1007                            .global ApiMac_secGetDefaultSourceKey
    1008                    
    1009                    $C$DW$105       .dwtag  DW_TAG_subprogram
    1010                            .dwattr $C$DW$105, DW_AT_name("ApiMac_secGetDefaultSourceKey")
    1011                            .dwattr $C$DW$105, DW_AT_low_pc(ApiMac_secGetDefaultSourceKey)
    1012                            .dwattr $C$DW$105, DW_AT_high_pc(0x00)
    1013                            .dwattr $C$DW$105, DW_AT_TI_symbol_name("ApiMac_secGetDefaultSourceKey")
    1014                            .dwattr $C$DW$105, DW_AT_external
    1015                            .dwattr $C$DW$105, DW_AT_type(*$C$DW$T$389)
    1016                            .dwattr $C$DW$105, DW_AT_TI_begin_file("../Application/api_mac.c")
    1017                            .dwattr $C$DW$105, DW_AT_TI_begin_line(0x496)
    1018                            .dwattr $C$DW$105, DW_AT_TI_begin_column(0x11)
    1019                            .dwattr $C$DW$105, DW_AT_decl_file("../Application/api_mac.c")
    1020                            .dwattr $C$DW$105, DW_AT_decl_line(0x496)
    1021                            .dwattr $C$DW$105, DW_AT_decl_column(0x11)
    1022                            .dwattr $C$DW$105, DW_AT_TI_max_frame_size(0x08)
    1023                            .dwpsn  file "../Application/api_mac.c",line 1176,column 1,is_stmt,address ApiMac_secGetDefaul
    1024                    
    1025                            .dwfde $C$DW$CIE, ApiMac_secGetDefaultSourceKey
    1026                    $C$DW$106       .dwtag  DW_TAG_formal_parameter
    1027                            .dwattr $C$DW$106, DW_AT_name("keyId")
    1028                            .dwattr $C$DW$106, DW_AT_TI_symbol_name("keyId")
    1029                            .dwattr $C$DW$106, DW_AT_type(*$C$DW$T$10)
    1030                            .dwattr $C$DW$106, DW_AT_location[DW_OP_reg0]
    1031                    
    1032                    $C$DW$107       .dwtag  DW_TAG_formal_parameter
    1033                            .dwattr $C$DW$107, DW_AT_name("pFrameCounter")
    1034                            .dwattr $C$DW$107, DW_AT_TI_symbol_name("pFrameCounter")
    1035                            .dwattr $C$DW$107, DW_AT_type(*$C$DW$T$565)
    1036                            .dwattr $C$DW$107, DW_AT_location[DW_OP_reg1]
    1037                    
    1038                    
    1039                    ;*****************************************************************************
    1040                    ;* FUNCTION NAME: ApiMac_secGetDefaultSourceKey                              *
    1041                    ;*                                                                           *
    1042                    ;*   Regs Modified     : A1,A2,A3,A4,V9,SP,LR,SR                             *
    1043                    ;*   Regs Used         : A1,A2,A3,A4,V9,SP,LR,SR                             *
    1044                    ;*   Local Frame Size  : 0 Args + 0 Auto + 4 Save = 4 byte                   *
    1045                    ;*****************************************************************************
TI ARM Assembler PC v16.9.9 Sun Nov 25 16:40:50 2018

Tools Copyright (c) 1996-2017 Texas Instruments Incorporated
C:\Users\Stryd\AppData\Local\Temp\{9A419F3E-CE2D-47E3-ABE5-0EE6D6901F8C} PAGE   20

    1046                    ApiMac_secGetDefaultSourceKey:
    1047                    ;* --------------------------------------------------------------------------*
    1048                    ;* A4    assigned to pFrameCounter
    1049                    $C$DW$108       .dwtag  DW_TAG_variable
    1050                            .dwattr $C$DW$108, DW_AT_name("pFrameCounter")
    1051                            .dwattr $C$DW$108, DW_AT_TI_symbol_name("pFrameCounter")
    1052                            .dwattr $C$DW$108, DW_AT_type(*$C$DW$T$969)
    1053                            .dwattr $C$DW$108, DW_AT_location[DW_OP_reg3]
    1054                    
    1055                            .dwcfi  cfa_offset, 0
    1056 00000000 B508              PUSH      {A4, LR}              ; [DPU_3_PIPE]  ; [ORIG 16-BIT INS]
    1057                            .dwcfi  cfa_offset, 8
    1058                            .dwcfi  save_reg_to_mem, 14, -4
    1059                            .dwcfi  save_reg_to_mem, 3, -8
    1060 00000002 460B              MOV       A4, A2                ; [DPU_3_PIPE] |1176|  ; [ORIG 16-BIT INS]
    1061                            .dwpsn  file "../Application/api_mac.c",line 1177,column 5,is_stmt,isa 1
    1062 00000004 4903              LDR       A2, $C$CON3           ; [DPU_3_PIPE] |1177|  ; [ORIG 16-BIT INS]
    1063                            .dwpsn  file "../Application/api_mac.c",line 1176,column 1,is_stmt,isa 1
    1064 00000006 4602              MOV       A3, A1                ; [DPU_3_PIPE] |1176|  ; [ORIG 16-BIT INS]
    1065                            .dwpsn  file "../Application/api_mac.c",line 1177,column 5,is_stmt,isa 1
    1066 00000008 2018              MOVS      A1, #24               ; [DPU_3_PIPE] |1177|  ; [ORIG 16-BIT INS]
    1067                    $C$DW$109       .dwtag  DW_TAG_TI_branch
    1068                            .dwattr $C$DW$109, DW_AT_low_pc(0x00)
    1069                            .dwattr $C$DW$109, DW_AT_name("icall_directAPI")
    1070                            .dwattr $C$DW$109, DW_AT_TI_call
    1071                    
    1072 0000000a FFFEF7FF!         BL        icall_directAPI       ; [DPU_3_PIPE] |1177|  ; [KEEP 32-BIT INS]
    1073                            ; CALL OCCURS {icall_directAPI }  ; [] |1177| 
    1074 0000000e B2C0              UXTB      A1, A1                ; [DPU_3_PIPE] |1177|  ; [ORIG 16-BIT INS]
    1075                    $C$DW$110       .dwtag  DW_TAG_TI_branch
    1076                            .dwattr $C$DW$110, DW_AT_low_pc(0x00)
    1077                            .dwattr $C$DW$110, DW_AT_TI_return
    1078                    
    1079 00000010 BD08              POP       {A4, PC}              ; [DPU_3_PIPE]  ; [ORIG 16-BIT INS]
    1080                            .dwcfi  cfa_offset, 0
    1081                            .dwcfi  restore_reg, 3
    1082                            ; BRANCH OCCURS                  ; [] 
    1083                            .dwattr $C$DW$105, DW_AT_TI_end_file("../Application/api_mac.c")
    1084                            .dwattr $C$DW$105, DW_AT_TI_end_line(0x49d)
    1085                            .dwattr $C$DW$105, DW_AT_TI_end_column(0x01)
    1086                            .dwendentry
    1087                            .dwendtag $C$DW$105
    1088                    
    1089 00000000                   .sect   ".text:ApiMac_secDeleteKeyAndAssocDevices"
    1090                            .clink
    1091                            .thumbfunc ApiMac_secDeleteKeyAndAssocDevices
    1092 00000000                   .thumb
    1093                            .global ApiMac_secDeleteKeyAndAssocDevices
    1094                    
    1095                    $C$DW$111       .dwtag  DW_TAG_subprogram
    1096                            .dwattr $C$DW$111, DW_AT_name("ApiMac_secDeleteKeyAndAssocDevices")
    1097                            .dwattr $C$DW$111, DW_AT_low_pc(ApiMac_secDeleteKeyAndAssocDevices)
    1098                            .dwattr $C$DW$111, DW_AT_high_pc(0x00)
    1099                            .dwattr $C$DW$111, DW_AT_TI_symbol_name("ApiMac_secDeleteKeyAndAssocDevices")
    1100                            .dwattr $C$DW$111, DW_AT_external
TI ARM Assembler PC v16.9.9 Sun Nov 25 16:40:50 2018

Tools Copyright (c) 1996-2017 Texas Instruments Incorporated
C:\Users\Stryd\AppData\Local\Temp\{9A419F3E-CE2D-47E3-ABE5-0EE6D6901F8C} PAGE   21

    1101                            .dwattr $C$DW$111, DW_AT_type(*$C$DW$T$389)
    1102                            .dwattr $C$DW$111, DW_AT_TI_begin_file("../Application/api_mac.c")
    1103                            .dwattr $C$DW$111, DW_AT_TI_begin_line(0x47c)
    1104                            .dwattr $C$DW$111, DW_AT_TI_begin_column(0x11)
    1105                            .dwattr $C$DW$111, DW_AT_decl_file("../Application/api_mac.c")
    1106                            .dwattr $C$DW$111, DW_AT_decl_line(0x47c)
    1107                            .dwattr $C$DW$111, DW_AT_decl_column(0x11)
    1108                            .dwattr $C$DW$111, DW_AT_TI_max_frame_size(0x08)
    1109                            .dwpsn  file "../Application/api_mac.c",line 1149,column 1,is_stmt,address ApiMac_secDeleteKey
    1110                    
    1111                            .dwfde $C$DW$CIE, ApiMac_secDeleteKeyAndAssocDevices
    1112                    $C$DW$112       .dwtag  DW_TAG_formal_parameter
    1113                            .dwattr $C$DW$112, DW_AT_name("keyIndex")
    1114                            .dwattr $C$DW$112, DW_AT_TI_symbol_name("keyIndex")
    1115                            .dwattr $C$DW$112, DW_AT_type(*$C$DW$T$10)
    1116                            .dwattr $C$DW$112, DW_AT_location[DW_OP_reg0]
    1117                    
    1118                    
    1119                    ;*****************************************************************************
    1120                    ;* FUNCTION NAME: ApiMac_secDeleteKeyAndAssocDevices                         *
    1121                    ;*                                                                           *
    1122                    ;*   Regs Modified     : A1,A2,A3,A4,V9,SP,LR,SR                             *
    1123                    ;*   Regs Used         : A1,A2,A3,A4,V9,SP,LR,SR                             *
    1124                    ;*   Local Frame Size  : 0 Args + 0 Auto + 4 Save = 4 byte                   *
    1125                    ;*****************************************************************************
    1126                    ApiMac_secDeleteKeyAndAssocDevices:
    1127                    ;* --------------------------------------------------------------------------*
    1128                    ;* A1    assigned to keyIndex
    1129                    $C$DW$113       .dwtag  DW_TAG_variable
    1130                            .dwattr $C$DW$113, DW_AT_name("keyIndex")
    1131                            .dwattr $C$DW$113, DW_AT_TI_symbol_name("keyIndex")
    1132                            .dwattr $C$DW$113, DW_AT_type(*$C$DW$T$931)
    1133                            .dwattr $C$DW$113, DW_AT_location[DW_OP_reg0]
    1134                    
    1135                            .dwcfi  cfa_offset, 0
    1136                            .dwpsn  file "../Application/api_mac.c",line 1150,column 5,is_stmt,isa 1
    1137 00000000 4903              LDR       A2, $C$CON4           ; [DPU_3_PIPE] |1150|  ; [ORIG 16-BIT INS]
    1138 00000002 4602              MOV       A3, A1                ; [DPU_3_PIPE] |1150|  ; [ORIG 16-BIT INS]
    1139 00000004 B508              PUSH      {A4, LR}              ; [DPU_3_PIPE]  ; [ORIG 16-BIT INS]
    1140                            .dwcfi  cfa_offset, 8
    1141                            .dwcfi  save_reg_to_mem, 14, -4
    1142                            .dwcfi  save_reg_to_mem, 3, -8
    1143 00000006 2018              MOVS      A1, #24               ; [DPU_3_PIPE] |1150|  ; [ORIG 16-BIT INS]
    1144                    $C$DW$114       .dwtag  DW_TAG_TI_branch
    1145                            .dwattr $C$DW$114, DW_AT_low_pc(0x00)
    1146                            .dwattr $C$DW$114, DW_AT_name("icall_directAPI")
    1147                            .dwattr $C$DW$114, DW_AT_TI_call
    1148                    
    1149 00000008 FFFEF7FF!         BL        icall_directAPI       ; [DPU_3_PIPE] |1150|  ; [KEEP 32-BIT INS]
    1150                            ; CALL OCCURS {icall_directAPI }  ; [] |1150| 
    1151 0000000c B2C0              UXTB      A1, A1                ; [DPU_3_PIPE] |1150|  ; [ORIG 16-BIT INS]
    1152                    $C$DW$115       .dwtag  DW_TAG_TI_branch
    1153                            .dwattr $C$DW$115, DW_AT_low_pc(0x00)
    1154                            .dwattr $C$DW$115, DW_AT_TI_return
    1155                    
TI ARM Assembler PC v16.9.9 Sun Nov 25 16:40:50 2018

Tools Copyright (c) 1996-2017 Texas Instruments Incorporated
C:\Users\Stryd\AppData\Local\Temp\{9A419F3E-CE2D-47E3-ABE5-0EE6D6901F8C} PAGE   22

    1156 0000000e BD08              POP       {A4, PC}              ; [DPU_3_PIPE]  ; [ORIG 16-BIT INS]
    1157                            .dwcfi  cfa_offset, 0
    1158                            .dwcfi  restore_reg, 3
    1159                            ; BRANCH OCCURS                  ; [] 
    1160                            .dwattr $C$DW$111, DW_AT_TI_end_file("../Application/api_mac.c")
    1161                            .dwattr $C$DW$111, DW_AT_TI_end_line(0x482)
    1162                            .dwattr $C$DW$111, DW_AT_TI_end_column(0x01)
    1163                            .dwendentry
    1164                            .dwendtag $C$DW$111
    1165                    
    1166 00000000                   .sect   ".text:ApiMac_secDeleteDevice"
    1167                            .clink
    1168                            .thumbfunc ApiMac_secDeleteDevice
    1169 00000000                   .thumb
    1170                            .global ApiMac_secDeleteDevice
    1171                    
    1172                    $C$DW$116       .dwtag  DW_TAG_subprogram
    1173                            .dwattr $C$DW$116, DW_AT_name("ApiMac_secDeleteDevice")
    1174                            .dwattr $C$DW$116, DW_AT_low_pc(ApiMac_secDeleteDevice)
    1175                            .dwattr $C$DW$116, DW_AT_high_pc(0x00)
    1176                            .dwattr $C$DW$116, DW_AT_TI_symbol_name("ApiMac_secDeleteDevice")
    1177                            .dwattr $C$DW$116, DW_AT_external
    1178                            .dwattr $C$DW$116, DW_AT_type(*$C$DW$T$389)
    1179                            .dwattr $C$DW$116, DW_AT_TI_begin_file("../Application/api_mac.c")
    1180                            .dwattr $C$DW$116, DW_AT_TI_begin_line(0x46f)
    1181                            .dwattr $C$DW$116, DW_AT_TI_begin_column(0x11)
    1182                            .dwattr $C$DW$116, DW_AT_decl_file("../Application/api_mac.c")
    1183                            .dwattr $C$DW$116, DW_AT_decl_line(0x46f)
    1184                            .dwattr $C$DW$116, DW_AT_decl_column(0x11)
    1185                            .dwattr $C$DW$116, DW_AT_TI_max_frame_size(0x08)
    1186                            .dwpsn  file "../Application/api_mac.c",line 1136,column 1,is_stmt,address ApiMac_secDeleteDev
    1187                    
    1188                            .dwfde $C$DW$CIE, ApiMac_secDeleteDevice
    1189                    $C$DW$117       .dwtag  DW_TAG_formal_parameter
    1190                            .dwattr $C$DW$117, DW_AT_name("pExtAddr")
    1191                            .dwattr $C$DW$117, DW_AT_TI_symbol_name("pExtAddr")
    1192                            .dwattr $C$DW$117, DW_AT_type(*$C$DW$T$177)
    1193                            .dwattr $C$DW$117, DW_AT_location[DW_OP_reg0]
    1194                    
    1195                    
    1196                    ;*****************************************************************************
    1197                    ;* FUNCTION NAME: ApiMac_secDeleteDevice                                     *
    1198                    ;*                                                                           *
    1199                    ;*   Regs Modified     : A1,A2,A3,A4,V9,SP,LR,SR                             *
    1200                    ;*   Regs Used         : A1,A2,A3,A4,V9,SP,LR,SR                             *
    1201                    ;*   Local Frame Size  : 0 Args + 0 Auto + 4 Save = 4 byte                   *
    1202                    ;*****************************************************************************
    1203                    ApiMac_secDeleteDevice:
    1204                    ;* --------------------------------------------------------------------------*
    1205                    ;* A3    assigned to pExtAddr
    1206                    $C$DW$118       .dwtag  DW_TAG_variable
    1207                            .dwattr $C$DW$118, DW_AT_name("pExtAddr")
    1208                            .dwattr $C$DW$118, DW_AT_TI_symbol_name("pExtAddr")
    1209                            .dwattr $C$DW$118, DW_AT_type(*$C$DW$T$927)
    1210                            .dwattr $C$DW$118, DW_AT_location[DW_OP_reg2]
TI ARM Assembler PC v16.9.9 Sun Nov 25 16:40:50 2018

Tools Copyright (c) 1996-2017 Texas Instruments Incorporated
C:\Users\Stryd\AppData\Local\Temp\{9A419F3E-CE2D-47E3-ABE5-0EE6D6901F8C} PAGE   23

    1211                    
    1212                            .dwcfi  cfa_offset, 0
    1213                            .dwpsn  file "../Application/api_mac.c",line 1137,column 5,is_stmt,isa 1
    1214 00000000 4903              LDR       A2, $C$CON5           ; [DPU_3_PIPE] |1137|  ; [ORIG 16-BIT INS]
    1215                            .dwpsn  file "../Application/api_mac.c",line 1136,column 1,is_stmt,isa 1
    1216 00000002 4602              MOV       A3, A1                ; [DPU_3_PIPE] |1136|  ; [ORIG 16-BIT INS]
    1217 00000004 B508              PUSH      {A4, LR}              ; [DPU_3_PIPE]  ; [ORIG 16-BIT INS]
    1218                            .dwcfi  cfa_offset, 8
    1219                            .dwcfi  save_reg_to_mem, 14, -4
    1220                            .dwcfi  save_reg_to_mem, 3, -8
    1221                            .dwpsn  file "../Application/api_mac.c",line 1137,column 5,is_stmt,isa 1
    1222 00000006 2018              MOVS      A1, #24               ; [DPU_3_PIPE] |1137|  ; [ORIG 16-BIT INS]
    1223                    $C$DW$119       .dwtag  DW_TAG_TI_branch
    1224                            .dwattr $C$DW$119, DW_AT_low_pc(0x00)
    1225                            .dwattr $C$DW$119, DW_AT_name("icall_directAPI")
    1226                            .dwattr $C$DW$119, DW_AT_TI_call
    1227                    
    1228 00000008 FFFEF7FF!         BL        icall_directAPI       ; [DPU_3_PIPE] |1137|  ; [KEEP 32-BIT INS]
    1229                            ; CALL OCCURS {icall_directAPI }  ; [] |1137| 
    1230 0000000c B2C0              UXTB      A1, A1                ; [DPU_3_PIPE] |1137|  ; [ORIG 16-BIT INS]
    1231                    $C$DW$120       .dwtag  DW_TAG_TI_branch
    1232                            .dwattr $C$DW$120, DW_AT_low_pc(0x00)
    1233                            .dwattr $C$DW$120, DW_AT_TI_return
    1234                    
    1235 0000000e BD08              POP       {A4, PC}              ; [DPU_3_PIPE]  ; [ORIG 16-BIT INS]
    1236                            .dwcfi  cfa_offset, 0
    1237                            .dwcfi  restore_reg, 3
    1238                            ; BRANCH OCCURS                  ; [] 
    1239                            .dwattr $C$DW$116, DW_AT_TI_end_file("../Application/api_mac.c")
    1240                            .dwattr $C$DW$116, DW_AT_TI_end_line(0x473)
    1241                            .dwattr $C$DW$116, DW_AT_TI_end_column(0x01)
    1242                            .dwendentry
    1243                            .dwendtag $C$DW$116
    1244                    
    1245 00000000                   .sect   ".text:ApiMac_secDeleteAllDevices"
    1246                            .clink
    1247                            .thumbfunc ApiMac_secDeleteAllDevices
    1248 00000000                   .thumb
    1249                            .global ApiMac_secDeleteAllDevices
    1250                    
    1251                    $C$DW$121       .dwtag  DW_TAG_subprogram
    1252                            .dwattr $C$DW$121, DW_AT_name("ApiMac_secDeleteAllDevices")
    1253                            .dwattr $C$DW$121, DW_AT_low_pc(ApiMac_secDeleteAllDevices)
    1254                            .dwattr $C$DW$121, DW_AT_high_pc(0x00)
    1255                            .dwattr $C$DW$121, DW_AT_TI_symbol_name("ApiMac_secDeleteAllDevices")
    1256                            .dwattr $C$DW$121, DW_AT_external
    1257                            .dwattr $C$DW$121, DW_AT_type(*$C$DW$T$389)
    1258                            .dwattr $C$DW$121, DW_AT_TI_begin_file("../Application/api_mac.c")
    1259                            .dwattr $C$DW$121, DW_AT_TI_begin_line(0x489)
    1260                            .dwattr $C$DW$121, DW_AT_TI_begin_column(0x11)
    1261                            .dwattr $C$DW$121, DW_AT_decl_file("../Application/api_mac.c")
    1262                            .dwattr $C$DW$121, DW_AT_decl_line(0x489)
    1263                            .dwattr $C$DW$121, DW_AT_decl_column(0x11)
    1264                            .dwattr $C$DW$121, DW_AT_TI_max_frame_size(0x08)
    1265                            .dwpsn  file "../Application/api_mac.c",line 1162,column 1,is_stmt,address ApiMac_secDeleteAll
TI ARM Assembler PC v16.9.9 Sun Nov 25 16:40:50 2018

Tools Copyright (c) 1996-2017 Texas Instruments Incorporated
C:\Users\Stryd\AppData\Local\Temp\{9A419F3E-CE2D-47E3-ABE5-0EE6D6901F8C} PAGE   24

    1266                    
    1267                            .dwfde $C$DW$CIE, ApiMac_secDeleteAllDevices
    1268                    
    1269                    ;*****************************************************************************
    1270                    ;* FUNCTION NAME: ApiMac_secDeleteAllDevices                                 *
    1271                    ;*                                                                           *
    1272                    ;*   Regs Modified     : A1,A2,A3,A4,V9,SP,LR,SR                             *
    1273                    ;*   Regs Used         : A1,A2,A3,A4,V9,SP,LR,SR                             *
    1274                    ;*   Local Frame Size  : 0 Args + 0 Auto + 4 Save = 4 byte                   *
    1275                    ;*****************************************************************************
    1276 00000000           ApiMac_secDeleteAllDevices:
    1277                    ;* --------------------------------------------------------------------------*
    1278                            .dwcfi  cfa_offset, 0
    1279                            .dwpsn  file "../Application/api_mac.c",line 1163,column 5,is_stmt,isa 1
    1280 00000000 4903              LDR       A2, $C$CON6           ; [DPU_3_PIPE] |1163|  ; [ORIG 16-BIT INS]
    1281 00000002 B508              PUSH      {A4, LR}              ; [DPU_3_PIPE]  ; [ORIG 16-BIT INS]
    1282                            .dwcfi  cfa_offset, 8
    1283                            .dwcfi  save_reg_to_mem, 14, -4
    1284                            .dwcfi  save_reg_to_mem, 3, -8
    1285 00000004 2018              MOVS      A1, #24               ; [DPU_3_PIPE] |1163|  ; [ORIG 16-BIT INS]
    1286                    $C$DW$122       .dwtag  DW_TAG_TI_branch
    1287                            .dwattr $C$DW$122, DW_AT_low_pc(0x00)
    1288                            .dwattr $C$DW$122, DW_AT_name("icall_directAPI")
    1289                            .dwattr $C$DW$122, DW_AT_TI_call
    1290                    
    1291 00000006 FFFEF7FF!         BL        icall_directAPI       ; [DPU_3_PIPE] |1163|  ; [KEEP 32-BIT INS]
    1292                            ; CALL OCCURS {icall_directAPI }  ; [] |1163| 
    1293 0000000a B2C0              UXTB      A1, A1                ; [DPU_3_PIPE] |1163|  ; [ORIG 16-BIT INS]
    1294                    $C$DW$123       .dwtag  DW_TAG_TI_branch
    1295                            .dwattr $C$DW$123, DW_AT_low_pc(0x00)
    1296                            .dwattr $C$DW$123, DW_AT_TI_return
    1297                    
    1298 0000000c BD08              POP       {A4, PC}              ; [DPU_3_PIPE]  ; [ORIG 16-BIT INS]
    1299                            .dwcfi  cfa_offset, 0
    1300                            .dwcfi  restore_reg, 3
    1301                            ; BRANCH OCCURS                  ; [] 
    1302                            .dwattr $C$DW$121, DW_AT_TI_end_file("../Application/api_mac.c")
    1303                            .dwattr $C$DW$121, DW_AT_TI_end_line(0x48e)
    1304                            .dwattr $C$DW$121, DW_AT_TI_end_column(0x01)
    1305                            .dwendentry
    1306                            .dwendtag $C$DW$121
    1307                    
    1308 00000000                   .sect   ".text:ApiMac_secAddKeyInitFrameCounter"
    1309                            .clink
    1310                            .thumbfunc ApiMac_secAddKeyInitFrameCounter
    1311 00000000                   .thumb
    1312                            .global ApiMac_secAddKeyInitFrameCounter
    1313                    
    1314                    $C$DW$124       .dwtag  DW_TAG_subprogram
    1315                            .dwattr $C$DW$124, DW_AT_name("ApiMac_secAddKeyInitFrameCounter")
    1316                            .dwattr $C$DW$124, DW_AT_low_pc(ApiMac_secAddKeyInitFrameCounter)
    1317                            .dwattr $C$DW$124, DW_AT_high_pc(0x00)
    1318                            .dwattr $C$DW$124, DW_AT_TI_symbol_name("ApiMac_secAddKeyInitFrameCounter")
    1319                            .dwattr $C$DW$124, DW_AT_external
    1320                            .dwattr $C$DW$124, DW_AT_type(*$C$DW$T$389)
TI ARM Assembler PC v16.9.9 Sun Nov 25 16:40:50 2018

Tools Copyright (c) 1996-2017 Texas Instruments Incorporated
C:\Users\Stryd\AppData\Local\Temp\{9A419F3E-CE2D-47E3-ABE5-0EE6D6901F8C} PAGE   25

    1321                            .dwattr $C$DW$124, DW_AT_TI_begin_file("../Application/api_mac.c")
    1322                            .dwattr $C$DW$124, DW_AT_TI_begin_line(0x4a5)
    1323                            .dwattr $C$DW$124, DW_AT_TI_begin_column(0x11)
    1324                            .dwattr $C$DW$124, DW_AT_decl_file("../Application/api_mac.c")
    1325                            .dwattr $C$DW$124, DW_AT_decl_line(0x4a5)
    1326                            .dwattr $C$DW$124, DW_AT_decl_column(0x11)
    1327                            .dwattr $C$DW$124, DW_AT_TI_max_frame_size(0x08)
    1328                            .dwpsn  file "../Application/api_mac.c",line 1191,column 1,is_stmt,address ApiMac_secAddKeyIni
    1329                    
    1330                            .dwfde $C$DW$CIE, ApiMac_secAddKeyInitFrameCounter
    1331                    $C$DW$125       .dwtag  DW_TAG_formal_parameter
    1332                            .dwattr $C$DW$125, DW_AT_name("pInfo")
    1333                            .dwattr $C$DW$125, DW_AT_TI_symbol_name("pInfo")
    1334                            .dwattr $C$DW$125, DW_AT_type(*$C$DW$T$182)
    1335                            .dwattr $C$DW$125, DW_AT_location[DW_OP_reg0]
    1336                    
    1337                    
    1338                    ;*****************************************************************************
    1339                    ;* FUNCTION NAME: ApiMac_secAddKeyInitFrameCounter                           *
    1340                    ;*                                                                           *
    1341                    ;*   Regs Modified     : A1,A2,A3,A4,V9,SP,LR,SR                             *
    1342                    ;*   Regs Used         : A1,A2,A3,A4,V9,SP,LR,SR                             *
    1343                    ;*   Local Frame Size  : 0 Args + 0 Auto + 4 Save = 4 byte                   *
    1344                    ;*****************************************************************************
    1345                    ApiMac_secAddKeyInitFrameCounter:
    1346                    ;* --------------------------------------------------------------------------*
    1347                    ;* A3    assigned to pInfo
    1348                    $C$DW$126       .dwtag  DW_TAG_variable
    1349                            .dwattr $C$DW$126, DW_AT_name("pInfo")
    1350                            .dwattr $C$DW$126, DW_AT_TI_symbol_name("pInfo")
    1351                            .dwattr $C$DW$126, DW_AT_type(*$C$DW$T$1052)
    1352                            .dwattr $C$DW$126, DW_AT_location[DW_OP_reg2]
    1353                    
    1354                            .dwcfi  cfa_offset, 0
    1355                            .dwpsn  file "../Application/api_mac.c",line 1192,column 5,is_stmt,isa 1
    1356 00000000 4903              LDR       A2, $C$CON7           ; [DPU_3_PIPE] |1192|  ; [ORIG 16-BIT INS]
    1357                            .dwpsn  file "../Application/api_mac.c",line 1191,column 1,is_stmt,isa 1
    1358 00000002 4602              MOV       A3, A1                ; [DPU_3_PIPE] |1191|  ; [ORIG 16-BIT INS]
    1359 00000004 B508              PUSH      {A4, LR}              ; [DPU_3_PIPE]  ; [ORIG 16-BIT INS]
    1360                            .dwcfi  cfa_offset, 8
    1361                            .dwcfi  save_reg_to_mem, 14, -4
    1362                            .dwcfi  save_reg_to_mem, 3, -8
    1363                            .dwpsn  file "../Application/api_mac.c",line 1192,column 5,is_stmt,isa 1
    1364 00000006 2018              MOVS      A1, #24               ; [DPU_3_PIPE] |1192|  ; [ORIG 16-BIT INS]
    1365                    $C$DW$127       .dwtag  DW_TAG_TI_branch
    1366                            .dwattr $C$DW$127, DW_AT_low_pc(0x00)
    1367                            .dwattr $C$DW$127, DW_AT_name("icall_directAPI")
    1368                            .dwattr $C$DW$127, DW_AT_TI_call
    1369                    
    1370 00000008 FFFEF7FF!         BL        icall_directAPI       ; [DPU_3_PIPE] |1192|  ; [KEEP 32-BIT INS]
    1371                            ; CALL OCCURS {icall_directAPI }  ; [] |1192| 
    1372 0000000c B2C0              UXTB      A1, A1                ; [DPU_3_PIPE] |1192|  ; [ORIG 16-BIT INS]
    1373                    $C$DW$128       .dwtag  DW_TAG_TI_branch
    1374                            .dwattr $C$DW$128, DW_AT_low_pc(0x00)
    1375                            .dwattr $C$DW$128, DW_AT_TI_return
TI ARM Assembler PC v16.9.9 Sun Nov 25 16:40:50 2018

Tools Copyright (c) 1996-2017 Texas Instruments Incorporated
C:\Users\Stryd\AppData\Local\Temp\{9A419F3E-CE2D-47E3-ABE5-0EE6D6901F8C} PAGE   26

    1376                    
    1377 0000000e BD08              POP       {A4, PC}              ; [DPU_3_PIPE]  ; [ORIG 16-BIT INS]
    1378                            .dwcfi  cfa_offset, 0
    1379                            .dwcfi  restore_reg, 3
    1380                            ; BRANCH OCCURS                  ; [] 
    1381                            .dwattr $C$DW$124, DW_AT_TI_end_file("../Application/api_mac.c")
    1382                            .dwattr $C$DW$124, DW_AT_TI_end_line(0x4ac)
    1383                            .dwattr $C$DW$124, DW_AT_TI_end_column(0x01)
    1384                            .dwendentry
    1385                            .dwendtag $C$DW$124
    1386                    
    1387 00000000                   .sect   ".text:ApiMac_secAddDevice"
    1388                            .clink
    1389                            .thumbfunc ApiMac_secAddDevice
    1390 00000000                   .thumb
    1391                            .global ApiMac_secAddDevice
    1392                    
    1393                    $C$DW$129       .dwtag  DW_TAG_subprogram
    1394                            .dwattr $C$DW$129, DW_AT_name("ApiMac_secAddDevice")
    1395                            .dwattr $C$DW$129, DW_AT_low_pc(ApiMac_secAddDevice)
    1396                            .dwattr $C$DW$129, DW_AT_high_pc(0x00)
    1397                            .dwattr $C$DW$129, DW_AT_TI_symbol_name("ApiMac_secAddDevice")
    1398                            .dwattr $C$DW$129, DW_AT_external
    1399                            .dwattr $C$DW$129, DW_AT_type(*$C$DW$T$389)
    1400                            .dwattr $C$DW$129, DW_AT_TI_begin_file("../Application/api_mac.c")
    1401                            .dwattr $C$DW$129, DW_AT_TI_begin_line(0x463)
    1402                            .dwattr $C$DW$129, DW_AT_TI_begin_column(0x11)
    1403                            .dwattr $C$DW$129, DW_AT_decl_file("../Application/api_mac.c")
    1404                            .dwattr $C$DW$129, DW_AT_decl_line(0x463)
    1405                            .dwattr $C$DW$129, DW_AT_decl_column(0x11)
    1406                            .dwattr $C$DW$129, DW_AT_TI_max_frame_size(0x08)
    1407                            .dwpsn  file "../Application/api_mac.c",line 1124,column 1,is_stmt,address ApiMac_secAddDevice
    1408                    
    1409                            .dwfde $C$DW$CIE, ApiMac_secAddDevice
    1410                    $C$DW$130       .dwtag  DW_TAG_formal_parameter
    1411                            .dwattr $C$DW$130, DW_AT_name("pAddDevice")
    1412                            .dwattr $C$DW$130, DW_AT_TI_symbol_name("pAddDevice")
    1413                            .dwattr $C$DW$130, DW_AT_type(*$C$DW$T$174)
    1414                            .dwattr $C$DW$130, DW_AT_location[DW_OP_reg0]
    1415                    
    1416                    
    1417                    ;*****************************************************************************
    1418                    ;* FUNCTION NAME: ApiMac_secAddDevice                                        *
    1419                    ;*                                                                           *
    1420                    ;*   Regs Modified     : A1,A2,A3,A4,V9,SP,LR,SR                             *
    1421                    ;*   Regs Used         : A1,A2,A3,A4,V9,SP,LR,SR                             *
    1422                    ;*   Local Frame Size  : 0 Args + 0 Auto + 4 Save = 4 byte                   *
    1423                    ;*****************************************************************************
    1424                    ApiMac_secAddDevice:
    1425                    ;* --------------------------------------------------------------------------*
    1426                    ;* A3    assigned to pAddDevice
    1427                    $C$DW$131       .dwtag  DW_TAG_variable
    1428                            .dwattr $C$DW$131, DW_AT_name("pAddDevice")
    1429                            .dwattr $C$DW$131, DW_AT_TI_symbol_name("pAddDevice")
    1430                            .dwattr $C$DW$131, DW_AT_type(*$C$DW$T$1049)
TI ARM Assembler PC v16.9.9 Sun Nov 25 16:40:50 2018

Tools Copyright (c) 1996-2017 Texas Instruments Incorporated
C:\Users\Stryd\AppData\Local\Temp\{9A419F3E-CE2D-47E3-ABE5-0EE6D6901F8C} PAGE   27

    1431                            .dwattr $C$DW$131, DW_AT_location[DW_OP_reg2]
    1432                    
    1433                            .dwcfi  cfa_offset, 0
    1434                            .dwpsn  file "../Application/api_mac.c",line 1125,column 5,is_stmt,isa 1
    1435 00000000 4903              LDR       A2, $C$CON8           ; [DPU_3_PIPE] |1125|  ; [ORIG 16-BIT INS]
    1436                            .dwpsn  file "../Application/api_mac.c",line 1124,column 1,is_stmt,isa 1
    1437 00000002 4602              MOV       A3, A1                ; [DPU_3_PIPE] |1124|  ; [ORIG 16-BIT INS]
    1438 00000004 B508              PUSH      {A4, LR}              ; [DPU_3_PIPE]  ; [ORIG 16-BIT INS]
    1439                            .dwcfi  cfa_offset, 8
    1440                            .dwcfi  save_reg_to_mem, 14, -4
    1441                            .dwcfi  save_reg_to_mem, 3, -8
    1442                            .dwpsn  file "../Application/api_mac.c",line 1125,column 5,is_stmt,isa 1
    1443 00000006 2018              MOVS      A1, #24               ; [DPU_3_PIPE] |1125|  ; [ORIG 16-BIT INS]
    1444                    $C$DW$132       .dwtag  DW_TAG_TI_branch
    1445                            .dwattr $C$DW$132, DW_AT_low_pc(0x00)
    1446                            .dwattr $C$DW$132, DW_AT_name("icall_directAPI")
    1447                            .dwattr $C$DW$132, DW_AT_TI_call
    1448                    
    1449 00000008 FFFEF7FF!         BL        icall_directAPI       ; [DPU_3_PIPE] |1125|  ; [KEEP 32-BIT INS]
    1450                            ; CALL OCCURS {icall_directAPI }  ; [] |1125| 
    1451 0000000c B2C0              UXTB      A1, A1                ; [DPU_3_PIPE] |1125|  ; [ORIG 16-BIT INS]
    1452                    $C$DW$133       .dwtag  DW_TAG_TI_branch
    1453                            .dwattr $C$DW$133, DW_AT_low_pc(0x00)
    1454                            .dwattr $C$DW$133, DW_AT_TI_return
    1455                    
    1456 0000000e BD08              POP       {A4, PC}              ; [DPU_3_PIPE]  ; [ORIG 16-BIT INS]
    1457                            .dwcfi  cfa_offset, 0
    1458                            .dwcfi  restore_reg, 3
    1459                            ; BRANCH OCCURS                  ; [] 
    1460                            .dwattr $C$DW$129, DW_AT_TI_end_file("../Application/api_mac.c")
    1461                            .dwattr $C$DW$129, DW_AT_TI_end_line(0x468)
    1462                            .dwattr $C$DW$129, DW_AT_TI_end_column(0x01)
    1463                            .dwendentry
    1464                            .dwendtag $C$DW$129
    1465                    
    1466 00000000                   .sect   ".text:ApiMac_registerCallbacks"
    1467                            .clink
    1468                            .thumbfunc ApiMac_registerCallbacks
    1469 00000000                   .thumb
    1470                            .global ApiMac_registerCallbacks
    1471                    
    1472                    $C$DW$134       .dwtag  DW_TAG_subprogram
    1473                            .dwattr $C$DW$134, DW_AT_name("ApiMac_registerCallbacks")
    1474                            .dwattr $C$DW$134, DW_AT_low_pc(ApiMac_registerCallbacks)
    1475                            .dwattr $C$DW$134, DW_AT_high_pc(0x00)
    1476                            .dwattr $C$DW$134, DW_AT_TI_symbol_name("ApiMac_registerCallbacks")
    1477                            .dwattr $C$DW$134, DW_AT_external
    1478                            .dwattr $C$DW$134, DW_AT_TI_begin_file("../Application/api_mac.c")
    1479                            .dwattr $C$DW$134, DW_AT_TI_begin_line(0x129)
    1480                            .dwattr $C$DW$134, DW_AT_TI_begin_column(0x06)
    1481                            .dwattr $C$DW$134, DW_AT_decl_file("../Application/api_mac.c")
    1482                            .dwattr $C$DW$134, DW_AT_decl_line(0x129)
    1483                            .dwattr $C$DW$134, DW_AT_decl_column(0x06)
    1484                            .dwattr $C$DW$134, DW_AT_TI_max_frame_size(0x00)
    1485                            .dwpsn  file "../Application/api_mac.c",line 298,column 1,is_stmt,address ApiMac_registerCallb
TI ARM Assembler PC v16.9.9 Sun Nov 25 16:40:50 2018

Tools Copyright (c) 1996-2017 Texas Instruments Incorporated
C:\Users\Stryd\AppData\Local\Temp\{9A419F3E-CE2D-47E3-ABE5-0EE6D6901F8C} PAGE   28

    1486                    
    1487                            .dwfde $C$DW$CIE, ApiMac_registerCallbacks
    1488                    $C$DW$135       .dwtag  DW_TAG_formal_parameter
    1489                            .dwattr $C$DW$135, DW_AT_name("pCallbacks")
    1490                            .dwattr $C$DW$135, DW_AT_TI_symbol_name("pCallbacks")
    1491                            .dwattr $C$DW$135, DW_AT_type(*$C$DW$T$826)
    1492                            .dwattr $C$DW$135, DW_AT_location[DW_OP_reg0]
    1493                    
    1494                    
    1495                    ;*****************************************************************************
    1496                    ;* FUNCTION NAME: ApiMac_registerCallbacks                                   *
    1497                    ;*                                                                           *
    1498                    ;*   Regs Modified     : A2                                                  *
    1499                    ;*   Regs Used         : A1,A2,LR                                            *
    1500                    ;*   Local Frame Size  : 0 Args + 0 Auto + 0 Save = 0 byte                   *
    1501                    ;*****************************************************************************
    1502                    ApiMac_registerCallbacks:
    1503                    ;* --------------------------------------------------------------------------*
    1504                    ;* A1    assigned to pCallbacks
    1505                    $C$DW$136       .dwtag  DW_TAG_variable
    1506                            .dwattr $C$DW$136, DW_AT_name("pCallbacks")
    1507                            .dwattr $C$DW$136, DW_AT_TI_symbol_name("pCallbacks")
    1508                            .dwattr $C$DW$136, DW_AT_type(*$C$DW$T$984)
    1509                            .dwattr $C$DW$136, DW_AT_location[DW_OP_reg0]
    1510                    
    1511                            .dwcfi  cfa_offset, 0
    1512                            .dwpsn  file "../Application/api_mac.c",line 300,column 5,is_stmt,isa 1
    1513 00000000 4901              LDR       A2, $C$CON9           ; [DPU_3_PIPE] |300|  ; [ORIG 16-BIT INS]
    1514 00000002 6008              STR       A1, [A2, #0]          ; [DPU_3_PIPE] |300|  ; [ORIG 16-BIT INS]
    1515                    $C$DW$137       .dwtag  DW_TAG_TI_branch
    1516                            .dwattr $C$DW$137, DW_AT_low_pc(0x00)
    1517                            .dwattr $C$DW$137, DW_AT_TI_return
    1518                    
    1519 00000004 4770              BX        LR                    ; [DPU_3_PIPE]  ; [ORIG 16-BIT INS]
    1520                            ; BRANCH OCCURS                  ; [] 
    1521                            .dwattr $C$DW$134, DW_AT_TI_end_file("../Application/api_mac.c")
    1522                            .dwattr $C$DW$134, DW_AT_TI_end_line(0x12d)
    1523                            .dwattr $C$DW$134, DW_AT_TI_end_column(0x01)
    1524                            .dwendentry
    1525                            .dwendtag $C$DW$134
    1526                    
    1527 00000000                   .sect   ".text:ApiMac_randomByte"
    1528                            .clink
    1529                            .thumbfunc ApiMac_randomByte
    1530 00000000                   .thumb
    1531                            .global ApiMac_randomByte
    1532                    
    1533                    $C$DW$138       .dwtag  DW_TAG_subprogram
    1534                            .dwattr $C$DW$138, DW_AT_name("ApiMac_randomByte")
    1535                            .dwattr $C$DW$138, DW_AT_low_pc(ApiMac_randomByte)
    1536                            .dwattr $C$DW$138, DW_AT_high_pc(0x00)
    1537                            .dwattr $C$DW$138, DW_AT_TI_symbol_name("ApiMac_randomByte")
    1538                            .dwattr $C$DW$138, DW_AT_external
    1539                            .dwattr $C$DW$138, DW_AT_type(*$C$DW$T$24)
    1540                            .dwattr $C$DW$138, DW_AT_TI_begin_file("../Application/api_mac.c")
TI ARM Assembler PC v16.9.9 Sun Nov 25 16:40:50 2018

Tools Copyright (c) 1996-2017 Texas Instruments Incorporated
C:\Users\Stryd\AppData\Local\Temp\{9A419F3E-CE2D-47E3-ABE5-0EE6D6901F8C} PAGE   29

    1541                            .dwattr $C$DW$138, DW_AT_TI_begin_line(0x39c)
    1542                            .dwattr $C$DW$138, DW_AT_TI_begin_column(0x09)
    1543                            .dwattr $C$DW$138, DW_AT_decl_file("../Application/api_mac.c")
    1544                            .dwattr $C$DW$138, DW_AT_decl_line(0x39c)
    1545                            .dwattr $C$DW$138, DW_AT_decl_column(0x09)
    1546                            .dwattr $C$DW$138, DW_AT_TI_max_frame_size(0x08)
    1547                            .dwpsn  file "../Application/api_mac.c",line 925,column 1,is_stmt,address ApiMac_randomByte,is
    1548                    
    1549                            .dwfde $C$DW$CIE, ApiMac_randomByte
    1550                    
    1551                    ;*****************************************************************************
    1552                    ;* FUNCTION NAME: ApiMac_randomByte                                          *
    1553                    ;*                                                                           *
    1554                    ;*   Regs Modified     : A1,A2,A3,A4,V9,SP,LR,SR                             *
    1555                    ;*   Regs Used         : A1,A2,A3,A4,V9,SP,LR,SR                             *
    1556                    ;*   Local Frame Size  : 0 Args + 0 Auto + 4 Save = 4 byte                   *
    1557                    ;*****************************************************************************
    1558 00000000           ApiMac_randomByte:
    1559                    ;* --------------------------------------------------------------------------*
    1560                            .dwcfi  cfa_offset, 0
    1561                            .dwpsn  file "../Application/api_mac.c",line 926,column 5,is_stmt,isa 1
    1562 00000000 4903              LDR       A2, $C$CON10          ; [DPU_3_PIPE] |926|  ; [ORIG 16-BIT INS]
    1563 00000002 B508              PUSH      {A4, LR}              ; [DPU_3_PIPE]  ; [ORIG 16-BIT INS]
    1564                            .dwcfi  cfa_offset, 8
    1565                            .dwcfi  save_reg_to_mem, 14, -4
    1566                            .dwcfi  save_reg_to_mem, 3, -8
    1567 00000004 2018              MOVS      A1, #24               ; [DPU_3_PIPE] |926|  ; [ORIG 16-BIT INS]
    1568                    $C$DW$139       .dwtag  DW_TAG_TI_branch
    1569                            .dwattr $C$DW$139, DW_AT_low_pc(0x00)
    1570                            .dwattr $C$DW$139, DW_AT_name("icall_directAPI")
    1571                            .dwattr $C$DW$139, DW_AT_TI_call
    1572                    
    1573 00000006 FFFEF7FF!         BL        icall_directAPI       ; [DPU_3_PIPE] |926|  ; [KEEP 32-BIT INS]
    1574                            ; CALL OCCURS {icall_directAPI }  ; [] |926| 
    1575 0000000a B2C0              UXTB      A1, A1                ; [DPU_3_PIPE] |926|  ; [ORIG 16-BIT INS]
    1576                    $C$DW$140       .dwtag  DW_TAG_TI_branch
    1577                            .dwattr $C$DW$140, DW_AT_low_pc(0x00)
    1578                            .dwattr $C$DW$140, DW_AT_TI_return
    1579                    
    1580 0000000c BD08              POP       {A4, PC}              ; [DPU_3_PIPE]  ; [ORIG 16-BIT INS]
    1581                            .dwcfi  cfa_offset, 0
    1582                            .dwcfi  restore_reg, 3
    1583                            ; BRANCH OCCURS                  ; [] 
    1584                            .dwattr $C$DW$138, DW_AT_TI_end_file("../Application/api_mac.c")
    1585                            .dwattr $C$DW$138, DW_AT_TI_end_line(0x3a0)
    1586                            .dwattr $C$DW$138, DW_AT_TI_end_column(0x01)
    1587                            .dwendentry
    1588                            .dwendtag $C$DW$138
    1589                    
    1590 00000000                   .sect   ".text:copyMacAddrToApiMacAddr"
    1591                            .clink
    1592                            .thumbfunc copyMacAddrToApiMacAddr
    1593 00000000                   .thumb
    1594                    
    1595                    $C$DW$141       .dwtag  DW_TAG_subprogram
TI ARM Assembler PC v16.9.9 Sun Nov 25 16:40:50 2018

Tools Copyright (c) 1996-2017 Texas Instruments Incorporated
C:\Users\Stryd\AppData\Local\Temp\{9A419F3E-CE2D-47E3-ABE5-0EE6D6901F8C} PAGE   30

    1596                            .dwattr $C$DW$141, DW_AT_name("copyMacAddrToApiMacAddr")
    1597                            .dwattr $C$DW$141, DW_AT_low_pc(copyMacAddrToApiMacAddr)
    1598                            .dwattr $C$DW$141, DW_AT_high_pc(0x00)
    1599                            .dwattr $C$DW$141, DW_AT_TI_symbol_name("copyMacAddrToApiMacAddr")
    1600                            .dwattr $C$DW$141, DW_AT_TI_begin_file("../Application/api_mac.c")
    1601                            .dwattr $C$DW$141, DW_AT_TI_begin_line(0x63c)
    1602                            .dwattr $C$DW$141, DW_AT_TI_begin_column(0x0d)
    1603                            .dwattr $C$DW$141, DW_AT_decl_file("../Application/api_mac.c")
    1604                            .dwattr $C$DW$141, DW_AT_decl_line(0x63c)
    1605                            .dwattr $C$DW$141, DW_AT_decl_column(0x0d)
    1606                            .dwattr $C$DW$141, DW_AT_TI_max_frame_size(0x00)
    1607                            .dwpsn  file "../Application/api_mac.c",line 1597,column 1,is_stmt,address copyMacAddrToApiMac
    1608                    
    1609                            .dwfde $C$DW$CIE, copyMacAddrToApiMacAddr
    1610                    $C$DW$142       .dwtag  DW_TAG_formal_parameter
    1611                            .dwattr $C$DW$142, DW_AT_name("pDst")
    1612                            .dwattr $C$DW$142, DW_AT_TI_symbol_name("pDst")
    1613                            .dwattr $C$DW$142, DW_AT_type(*$C$DW$T$726)
    1614                            .dwattr $C$DW$142, DW_AT_location[DW_OP_reg0]
    1615                    
    1616                    $C$DW$143       .dwtag  DW_TAG_formal_parameter
    1617                            .dwattr $C$DW$143, DW_AT_name("pSrc")
    1618                            .dwattr $C$DW$143, DW_AT_TI_symbol_name("pSrc")
    1619                            .dwattr $C$DW$143, DW_AT_type(*$C$DW$T$143)
    1620                            .dwattr $C$DW$143, DW_AT_location[DW_OP_reg1]
    1621                    
    1622                    
    1623                    ;*****************************************************************************
    1624                    ;* FUNCTION NAME: copyMacAddrToApiMacAddr                                    *
    1625                    ;*                                                                           *
    1626                    ;*   Regs Modified     : A2,A3,SR                                            *
    1627                    ;*   Regs Used         : A1,A2,A3,LR,SR                                      *
    1628                    ;*   Local Frame Size  : 0 Args + 0 Auto + 0 Save = 0 byte                   *
    1629                    ;*****************************************************************************
    1630                    copyMacAddrToApiMacAddr:
    1631                    ;* --------------------------------------------------------------------------*
    1632                    ;* A3    assigned to $O$C1
    1633                    ;* A1    assigned to pDst
    1634                    $C$DW$144       .dwtag  DW_TAG_variable
    1635                            .dwattr $C$DW$144, DW_AT_name("pDst")
    1636                            .dwattr $C$DW$144, DW_AT_TI_symbol_name("pDst")
    1637                            .dwattr $C$DW$144, DW_AT_type(*$C$DW$T$727)
    1638                            .dwattr $C$DW$144, DW_AT_location[DW_OP_reg0]
    1639                    
    1640                    ;* A2    assigned to pSrc
    1641                    $C$DW$145       .dwtag  DW_TAG_variable
    1642                            .dwattr $C$DW$145, DW_AT_name("pSrc")
    1643                            .dwattr $C$DW$145, DW_AT_TI_symbol_name("pSrc")
    1644                            .dwattr $C$DW$145, DW_AT_type(*$C$DW$T$735)
    1645                            .dwattr $C$DW$145, DW_AT_location[DW_OP_reg1]
    1646                    
    1647                            .dwcfi  cfa_offset, 0
    1648                            .dwpsn  file "../Application/api_mac.c",line 1599,column 5,is_stmt,isa 1
    1649 00000000 7A0A              LDRB      A3, [A2, #8]          ; [DPU_3_PIPE] |1599|  ; [ORIG 16-BIT INS]
    1650                            .dwpsn  file "../Application/api_mac.c",line 1600,column 5,is_stmt,isa 1
TI ARM Assembler PC v16.9.9 Sun Nov 25 16:40:50 2018

Tools Copyright (c) 1996-2017 Texas Instruments Incorporated
C:\Users\Stryd\AppData\Local\Temp\{9A419F3E-CE2D-47E3-ABE5-0EE6D6901F8C} PAGE   31

    1651 00000002 2A02              CMP       A3, #2                ; [DPU_3_PIPE] |1600|  ; [ORIG 16-BIT INS]
    1652                            .dwpsn  file "../Application/api_mac.c",line 1599,column 5,is_stmt,isa 1
    1653 00000004 7202              STRB      A3, [A1, #8]          ; [DPU_3_PIPE] |1599|  ; [ORIG 16-BIT INS]
    1654                            .dwpsn  file "../Application/api_mac.c",line 1600,column 5,is_stmt,isa 1
    1655 00000006 D004              BEQ       ||$C$L2||             ; [DPU_3_PIPE] |1600|  ; [ORIG 16-BIT INS]
    1656                            ; BRANCHCC OCCURS {||$C$L2||}    ; [] |1600| 
    1657                    ;* --------------------------------------------------------------------------*
    1658                            .dwcfi  remember_state
    1659                            .dwpsn  file "../Application/api_mac.c",line 1606,column 9,is_stmt,isa 1
    1660 00000008 680A              LDR       A3, [A2, #0]          ; [DPU_3_PIPE] |1606|  ; [ORIG 16-BIT INS]
    1661 0000000a 6002              STR       A3, [A1, #0]          ; [DPU_3_PIPE] |1606|  ; [ORIG 16-BIT INS]
    1662 0000000c 6849              LDR       A2, [A2, #4]          ; [DPU_3_PIPE] |1606|  ; [ORIG 16-BIT INS]
    1663 0000000e 6041              STR       A2, [A1, #4]          ; [DPU_3_PIPE] |1606|  ; [ORIG 16-BIT INS]
    1664                    $C$DW$146       .dwtag  DW_TAG_TI_branch
    1665                            .dwattr $C$DW$146, DW_AT_low_pc(0x00)
    1666                            .dwattr $C$DW$146, DW_AT_TI_return
    1667                    
    1668 00000010 4770              BX        LR                    ; [DPU_3_PIPE]  ; [ORIG 16-BIT INS]
    1669                            ; BRANCH OCCURS                  ; [] 
    1670                            .dwcfi  restore_state
    1671                    ;* --------------------------------------------------------------------------*
    1672 00000012           ||$C$L2||:    
    1673                            .dwpsn  file "../Application/api_mac.c",line 1602,column 9,is_stmt,isa 1
    1674 00000012 8809              LDRH      A2, [A2, #0]          ; [DPU_3_PIPE] |1602|  ; [ORIG 16-BIT INS]
    1675 00000014 8001              STRH      A2, [A1, #0]          ; [DPU_3_PIPE] |1602|  ; [ORIG 16-BIT INS]
    1676                    ;* --------------------------------------------------------------------------*
    1677                    $C$DW$147       .dwtag  DW_TAG_TI_branch
    1678                            .dwattr $C$DW$147, DW_AT_low_pc(0x00)
    1679                            .dwattr $C$DW$147, DW_AT_TI_return
    1680                    
    1681 00000016 4770              BX        LR                    ; [DPU_3_PIPE]  ; [ORIG 16-BIT INS]
    1682                            ; BRANCH OCCURS                  ; [] 
    1683                            .dwattr $C$DW$141, DW_AT_TI_end_file("../Application/api_mac.c")
    1684                            .dwattr $C$DW$141, DW_AT_TI_end_line(0x649)
    1685                            .dwattr $C$DW$141, DW_AT_TI_end_column(0x01)
    1686                            .dwendentry
    1687                            .dwendtag $C$DW$141
    1688                    
    1689 00000000                   .sect   ".text:copyDataInd"
    1690                            .clink
    1691                            .thumbfunc copyDataInd
    1692 00000000                   .thumb
    1693                    
    1694                    $C$DW$148       .dwtag  DW_TAG_subprogram
    1695                            .dwattr $C$DW$148, DW_AT_name("copyDataInd")
    1696                            .dwattr $C$DW$148, DW_AT_low_pc(copyDataInd)
    1697                            .dwattr $C$DW$148, DW_AT_high_pc(0x00)
    1698                            .dwattr $C$DW$148, DW_AT_TI_symbol_name("copyDataInd")
    1699                            .dwattr $C$DW$148, DW_AT_TI_begin_file("../Application/api_mac.c")
    1700                            .dwattr $C$DW$148, DW_AT_TI_begin_line(0x6fa)
    1701                            .dwattr $C$DW$148, DW_AT_TI_begin_column(0x0d)
    1702                            .dwattr $C$DW$148, DW_AT_decl_file("../Application/api_mac.c")
    1703                            .dwattr $C$DW$148, DW_AT_decl_line(0x6fa)
    1704                            .dwattr $C$DW$148, DW_AT_decl_column(0x0d)
    1705                            .dwattr $C$DW$148, DW_AT_TI_max_frame_size(0x10)
TI ARM Assembler PC v16.9.9 Sun Nov 25 16:40:50 2018

Tools Copyright (c) 1996-2017 Texas Instruments Incorporated
C:\Users\Stryd\AppData\Local\Temp\{9A419F3E-CE2D-47E3-ABE5-0EE6D6901F8C} PAGE   32

    1706                            .dwpsn  file "../Application/api_mac.c",line 1787,column 1,is_stmt,address copyDataInd,isa 1
    1707                    
    1708                            .dwfde $C$DW$CIE, copyDataInd
    1709                    $C$DW$149       .dwtag  DW_TAG_formal_parameter
    1710                            .dwattr $C$DW$149, DW_AT_name("pDst")
    1711                            .dwattr $C$DW$149, DW_AT_TI_symbol_name("pDst")
    1712                            .dwattr $C$DW$149, DW_AT_type(*$C$DW$T$345)
    1713                            .dwattr $C$DW$149, DW_AT_location[DW_OP_reg0]
    1714                    
    1715                    $C$DW$150       .dwtag  DW_TAG_formal_parameter
    1716                            .dwattr $C$DW$150, DW_AT_name("pSrc")
    1717                            .dwattr $C$DW$150, DW_AT_TI_symbol_name("pSrc")
    1718                            .dwattr $C$DW$150, DW_AT_type(*$C$DW$T$759)
    1719                            .dwattr $C$DW$150, DW_AT_location[DW_OP_reg1]
    1720                    
    1721                    
    1722                    ;*****************************************************************************
    1723                    ;* FUNCTION NAME: copyDataInd                                                *
    1724                    ;*                                                                           *
    1725                    ;*   Regs Modified     : A1,A2,A3,A4,V1,V2,V9,SP,LR,SR                       *
    1726                    ;*   Regs Used         : A1,A2,A3,A4,V1,V2,V9,SP,LR,SR                       *
    1727                    ;*   Local Frame Size  : 0 Args + 0 Auto + 12 Save = 12 byte                 *
    1728                    ;*****************************************************************************
    1729                    copyDataInd:
    1730                    ;* --------------------------------------------------------------------------*
    1731                    ;* V2    assigned to pDst
    1732                    $C$DW$151       .dwtag  DW_TAG_variable
    1733                            .dwattr $C$DW$151, DW_AT_name("pDst")
    1734                            .dwattr $C$DW$151, DW_AT_TI_symbol_name("pDst")
    1735                            .dwattr $C$DW$151, DW_AT_type(*$C$DW$T$995)
    1736                            .dwattr $C$DW$151, DW_AT_location[DW_OP_reg5]
    1737                    
    1738                    ;* V1    assigned to pSrc
    1739                    $C$DW$152       .dwtag  DW_TAG_variable
    1740                            .dwattr $C$DW$152, DW_AT_name("pSrc")
    1741                            .dwattr $C$DW$152, DW_AT_TI_symbol_name("pSrc")
    1742                            .dwattr $C$DW$152, DW_AT_type(*$C$DW$T$760)
    1743                            .dwattr $C$DW$152, DW_AT_location[DW_OP_reg4]
    1744                    
    1745                            .dwcfi  cfa_offset, 0
    1746 00000000 B538              PUSH      {A4, V1, V2, LR}      ; [DPU_3_PIPE]  ; [ORIG 16-BIT INS]
    1747                            .dwcfi  cfa_offset, 16
    1748                            .dwcfi  save_reg_to_mem, 14, -4
    1749                            .dwcfi  save_reg_to_mem, 5, -8
    1750                            .dwcfi  save_reg_to_mem, 4, -12
    1751                            .dwcfi  save_reg_to_mem, 3, -16
    1752 00000002 460C              MOV       V1, A2                ; [DPU_3_PIPE] |1787|  ; [ORIG 16-BIT INS]
    1753                            .dwpsn  file "../Application/api_mac.c",line 1789,column 5,is_stmt,isa 1
    1754 00000004 2244              MOVS      A3, #68               ; [DPU_3_PIPE] |1789|  ; [ORIG 16-BIT INS]
    1755                            .dwpsn  file "../Application/api_mac.c",line 1787,column 1,is_stmt,isa 1
    1756 00000006 4605              MOV       V2, A1                ; [DPU_3_PIPE] |1787|  ; [ORIG 16-BIT INS]
    1757                            .dwpsn  file "../Application/api_mac.c",line 1789,column 5,is_stmt,isa 1
    1758 00000008 2100              MOVS      A2, #0                ; [DPU_3_PIPE] |1789|  ; [ORIG 16-BIT INS]
    1759                    $C$DW$153       .dwtag  DW_TAG_TI_branch
    1760                            .dwattr $C$DW$153, DW_AT_low_pc(0x00)
TI ARM Assembler PC v16.9.9 Sun Nov 25 16:40:50 2018

Tools Copyright (c) 1996-2017 Texas Instruments Incorporated
C:\Users\Stryd\AppData\Local\Temp\{9A419F3E-CE2D-47E3-ABE5-0EE6D6901F8C} PAGE   33

    1761                            .dwattr $C$DW$153, DW_AT_name("memset")
    1762                            .dwattr $C$DW$153, DW_AT_TI_call
    1763                    
    1764 0000000a FFFEF7FF!         BL        memset                ; [DPU_3_PIPE] |1789|  ; [KEEP 32-BIT INS]
    1765                            ; CALL OCCURS {memset }          ; [] |1789| 
    1766                            .dwpsn  file "../Application/api_mac.c",line 1792,column 5,is_stmt,isa 1
    1767 0000000e 0128F104          ADD       A2, V1, #40           ; [DPU_3_PIPE] |1792|  ; [KEEP 32-BIT INS]
    1768 00000012 4628              MOV       A1, V2                ; [DPU_3_PIPE] |1792|  ; [ORIG 16-BIT INS]
    1769                    $C$DW$154       .dwtag  DW_TAG_TI_branch
    1770                            .dwattr $C$DW$154, DW_AT_low_pc(0x00)
    1771                            .dwattr $C$DW$154, DW_AT_name("copyMacAddrToApiMacAddr")
    1772                            .dwattr $C$DW$154, DW_AT_TI_call
    1773                    
    1774 00000014 FFFEF7FF!         BL        copyMacAddrToApiMacAddr ; [DPU_3_PIPE] |1792|  ; [KEEP 32-BIT INS]
    1775                            ; CALL OCCURS {copyMacAddrToApiMacAddr }  ; [] |1792| 
    1776                            .dwpsn  file "../Application/api_mac.c",line 1793,column 5,is_stmt,isa 1
    1777 00000018 0132F104          ADD       A2, V1, #50           ; [DPU_3_PIPE] |1793|  ; [KEEP 32-BIT INS]
    1778 0000001c 000AF105          ADD       A1, V2, #10           ; [DPU_3_PIPE] |1793|  ; [KEEP 32-BIT INS]
    1779                    $C$DW$155       .dwtag  DW_TAG_TI_branch
    1780                            .dwattr $C$DW$155, DW_AT_low_pc(0x00)
    1781                            .dwattr $C$DW$155, DW_AT_name("copyMacAddrToApiMacAddr")
    1782                            .dwattr $C$DW$155, DW_AT_TI_call
    1783                    
    1784 00000020 FFFEF7FF!         BL        copyMacAddrToApiMacAddr ; [DPU_3_PIPE] |1793|  ; [KEEP 32-BIT INS]
    1785                            ; CALL OCCURS {copyMacAddrToApiMacAddr }  ; [] |1793| 
    1786                            .dwpsn  file "../Application/api_mac.c",line 1794,column 5,is_stmt,isa 1
    1787 00000024 6BE0              LDR       A1, [V1, #60]         ; [DPU_3_PIPE] |1794|  ; [ORIG 16-BIT INS]
    1788 00000026 6168              STR       A1, [V2, #20]         ; [DPU_3_PIPE] |1794|  ; [ORIG 16-BIT INS]
    1789                            .dwpsn  file "../Application/api_mac.c",line 1795,column 5,is_stmt,isa 1
    1790 00000028 0040F8B4          LDRH      A1, [V1, #64]         ; [DPU_3_PIPE] |1795|  ; [KEEP 32-BIT INS]
    1791 0000002c 8328              STRH      A1, [V2, #24]         ; [DPU_3_PIPE] |1795|  ; [ORIG 16-BIT INS]
    1792                            .dwpsn  file "../Application/api_mac.c",line 1796,column 5,is_stmt,isa 1
    1793 0000002e 0042F8B4          LDRH      A1, [V1, #66]         ; [DPU_3_PIPE] |1796|  ; [KEEP 32-BIT INS]
    1794 00000032 8368              STRH      A1, [V2, #26]         ; [DPU_3_PIPE] |1796|  ; [ORIG 16-BIT INS]
    1795                            .dwpsn  file "../Application/api_mac.c",line 1797,column 5,is_stmt,isa 1
    1796 00000034 0044F8B4          LDRH      A1, [V1, #68]         ; [DPU_3_PIPE] |1797|  ; [KEEP 32-BIT INS]
    1797 00000038 83A8              STRH      A1, [V2, #28]         ; [DPU_3_PIPE] |1797|  ; [ORIG 16-BIT INS]
    1798                            .dwpsn  file "../Application/api_mac.c",line 1798,column 5,is_stmt,isa 1
    1799 0000003a 0046F894          LDRB      A1, [V1, #70]         ; [DPU_3_PIPE] |1798|  ; [KEEP 32-BIT INS]
    1800 0000003e 77A8              STRB      A1, [V2, #30]         ; [DPU_3_PIPE] |1798|  ; [ORIG 16-BIT INS]
    1801                            .dwpsn  file "../Application/api_mac.c",line 1799,column 5,is_stmt,isa 1
    1802 00000040 0047F894          LDRB      A1, [V1, #71]         ; [DPU_3_PIPE] |1799|  ; [KEEP 32-BIT INS]
    1803 00000044 77E8              STRB      A1, [V2, #31]         ; [DPU_3_PIPE] |1799|  ; [ORIG 16-BIT INS]
    1804                            .dwpsn  file "../Application/api_mac.c",line 1800,column 5,is_stmt,isa 1
    1805 00000046 0048F994          LDRSB     A1, [V1, #72]         ; [DPU_3_PIPE] |1800|  ; [KEEP 32-BIT INS]
    1806 0000004a 0020F885          STRB      A1, [V2, #32]         ; [DPU_3_PIPE] |1800|  ; [KEEP 32-BIT INS]
    1807                            .dwpsn  file "../Application/api_mac.c",line 1801,column 5,is_stmt,isa 1
    1808 0000004e 0049F894          LDRB      A1, [V1, #73]         ; [DPU_3_PIPE] |1801|  ; [KEEP 32-BIT INS]
    1809 00000052 0021F885          STRB      A1, [V2, #33]         ; [DPU_3_PIPE] |1801|  ; [KEEP 32-BIT INS]
    1810                            .dwpsn  file "../Application/api_mac.c",line 1802,column 5,is_stmt,isa 1
    1811 00000056 0050F8B4          LDRH      A1, [V1, #80]         ; [DPU_3_PIPE] |1802|  ; [KEEP 32-BIT INS]
    1812 0000005a 8468              STRH      A1, [V2, #34]         ; [DPU_3_PIPE] |1802|  ; [ORIG 16-BIT INS]
    1813                            .dwpsn  file "../Application/api_mac.c",line 1803,column 5,is_stmt,isa 1
    1814 0000005c 6CE0              LDR       A1, [V1, #76]         ; [DPU_3_PIPE] |1803|  ; [ORIG 16-BIT INS]
    1815 0000005e 6268              STR       A1, [V2, #36]         ; [DPU_3_PIPE] |1803|  ; [ORIG 16-BIT INS]
TI ARM Assembler PC v16.9.9 Sun Nov 25 16:40:50 2018

Tools Copyright (c) 1996-2017 Texas Instruments Incorporated
C:\Users\Stryd\AppData\Local\Temp\{9A419F3E-CE2D-47E3-ABE5-0EE6D6901F8C} PAGE   34

    1816                            .dwpsn  file "../Application/api_mac.c",line 1804,column 5,is_stmt,isa 1
    1817 00000060 7BA0              LDRB      A1, [V1, #14]         ; [DPU_3_PIPE] |1804|  ; [ORIG 16-BIT INS]
    1818 00000062 0028F885          STRB      A1, [V2, #40]         ; [DPU_3_PIPE] |1804|  ; [KEEP 32-BIT INS]
    1819                            .dwpsn  file "../Application/api_mac.c",line 1805,column 5,is_stmt,isa 1
    1820 00000066 0052F894          LDRB      A1, [V1, #82]         ; [DPU_3_PIPE] |1805|  ; [KEEP 32-BIT INS]
    1821 0000006a 0029F885          STRB      A1, [V2, #41]         ; [DPU_3_PIPE] |1805|  ; [KEEP 32-BIT INS]
    1822                            .dwpsn  file "../Application/api_mac.c",line 1806,column 5,is_stmt,isa 1
    1823 0000006e 6D60              LDR       A1, [V1, #84]         ; [DPU_3_PIPE] |1806|  ; [ORIG 16-BIT INS]
    1824                            .dwpsn  file "../Application/api_mac.c",line 1807,column 5,is_stmt,isa 1
    1825 00000070 220B              MOVS      A3, #11               ; [DPU_3_PIPE] |1807|  ; [ORIG 16-BIT INS]
    1826 00000072 011CF104          ADD       A2, V1, #28           ; [DPU_3_PIPE] |1807|  ; [KEEP 32-BIT INS]
    1827                            .dwpsn  file "../Application/api_mac.c",line 1806,column 5,is_stmt,isa 1
    1828 00000076 62E8              STR       A1, [V2, #44]         ; [DPU_3_PIPE] |1806|  ; [ORIG 16-BIT INS]
    1829                            .dwpsn  file "../Application/api_mac.c",line 1807,column 5,is_stmt,isa 1
    1830 00000078 0030F105          ADD       A1, V2, #48           ; [DPU_3_PIPE] |1807|  ; [KEEP 32-BIT INS]
    1831                    $C$DW$156       .dwtag  DW_TAG_TI_branch
    1832                            .dwattr $C$DW$156, DW_AT_low_pc(0x00)
    1833                            .dwattr $C$DW$156, DW_AT_name("memcpy")
    1834                            .dwattr $C$DW$156, DW_AT_TI_call
    1835                    
    1836 0000007c FFFEF7FF!         BL        memcpy                ; [DPU_3_PIPE] |1807|  ; [KEEP 32-BIT INS]
    1837                            ; CALL OCCURS {memcpy }          ; [] |1807| 
    1838                            .dwpsn  file "../Application/api_mac.c",line 1810,column 5,is_stmt,isa 1
    1839 00000080 8920              LDRH      A1, [V1, #8]          ; [DPU_3_PIPE] |1810|  ; [ORIG 16-BIT INS]
    1840 00000082 0040F8A5          STRH      A1, [V2, #64]         ; [DPU_3_PIPE] |1810|  ; [KEEP 32-BIT INS]
    1841                            .dwpsn  file "../Application/api_mac.c",line 1811,column 5,is_stmt,isa 1
    1842 00000086 6860              LDR       A1, [V1, #4]          ; [DPU_3_PIPE] |1811|  ; [ORIG 16-BIT INS]
    1843 00000088 63E8              STR       A1, [V2, #60]         ; [DPU_3_PIPE] |1811|  ; [ORIG 16-BIT INS]
    1844                    $C$DW$157       .dwtag  DW_TAG_TI_branch
    1845                            .dwattr $C$DW$157, DW_AT_low_pc(0x00)
    1846                            .dwattr $C$DW$157, DW_AT_TI_return
    1847                    
    1848 0000008a BD38              POP       {A4, V1, V2, PC}      ; [DPU_3_PIPE]  ; [ORIG 16-BIT INS]
    1849                            .dwcfi  cfa_offset, 0
    1850                            .dwcfi  restore_reg, 5
    1851                            .dwcfi  restore_reg, 4
    1852                            .dwcfi  restore_reg, 3
    1853                            ; BRANCH OCCURS                  ; [] 
    1854                            .dwattr $C$DW$148, DW_AT_TI_end_file("../Application/api_mac.c")
    1855                            .dwattr $C$DW$148, DW_AT_TI_end_line(0x714)
    1856                            .dwattr $C$DW$148, DW_AT_TI_end_column(0x01)
    1857                            .dwendentry
    1858                            .dwendtag $C$DW$148
    1859                    
    1860                    ;**     Parameter deleted: dest == 24;
    1861                    ;**     Parameter deleted: src == ApiMac_appEntity;
    1862 00000000                   .sect   ".text:ICall_sendServiceMsg"
    1863                            .clink
    1864                            .thumbfunc ICall_sendServiceMsg
    1865 00000000                   .thumb
    1866                    
    1867                    $C$DW$158       .dwtag  DW_TAG_subprogram
    1868                            .dwattr $C$DW$158, DW_AT_name("ICall_sendServiceMsg")
    1869                            .dwattr $C$DW$158, DW_AT_low_pc(ICall_sendServiceMsg)
    1870                            .dwattr $C$DW$158, DW_AT_high_pc(0x00)
TI ARM Assembler PC v16.9.9 Sun Nov 25 16:40:50 2018

Tools Copyright (c) 1996-2017 Texas Instruments Incorporated
C:\Users\Stryd\AppData\Local\Temp\{9A419F3E-CE2D-47E3-ABE5-0EE6D6901F8C} PAGE   35

    1871                            .dwattr $C$DW$158, DW_AT_TI_symbol_name("ICall_sendServiceMsg")
    1872                            .dwattr $C$DW$158, DW_AT_type(*$C$DW$T$469)
    1873                            .dwattr $C$DW$158, DW_AT_TI_begin_file("C:/ti/simplelink_cc13x0_sdk_2_30_00_20/source/ti/ti154
    1874                            .dwattr $C$DW$158, DW_AT_TI_begin_line(0x73d)
    1875                            .dwattr $C$DW$158, DW_AT_TI_begin_column(0x01)
    1876                            .dwattr $C$DW$158, DW_AT_decl_file("C:/ti/simplelink_cc13x0_sdk_2_30_00_20/source/ti/ti154stac
    1877                            .dwattr $C$DW$158, DW_AT_decl_line(0x73d)
    1878                            .dwattr $C$DW$158, DW_AT_decl_column(0x01)
    1879                            .dwattr $C$DW$158, DW_AT_TI_max_frame_size(0x18)
    1880                            .dwpsn  file "C:/ti/simplelink_cc13x0_sdk_2_30_00_20/source/ti/ti154stack/icall/src/inc/icall.
    1881                    
    1882                            .dwfde $C$DW$CIE, ICall_sendServiceMsg
    1883                    $C$DW$159       .dwtag  DW_TAG_formal_parameter
    1884                            .dwattr $C$DW$159, DW_AT_name("format")
    1885                            .dwattr $C$DW$159, DW_AT_TI_symbol_name("format")
    1886                            .dwattr $C$DW$159, DW_AT_type(*$C$DW$T$10)
    1887                            .dwattr $C$DW$159, DW_AT_location[DW_OP_reg0]
    1888                    
    1889                    $C$DW$160       .dwtag  DW_TAG_formal_parameter
    1890                            .dwattr $C$DW$160, DW_AT_name("msg")
    1891                            .dwattr $C$DW$160, DW_AT_TI_symbol_name("msg")
    1892                            .dwattr $C$DW$160, DW_AT_type(*$C$DW$T$3)
    1893                            .dwattr $C$DW$160, DW_AT_location[DW_OP_reg1]
    1894                    
    1895                    
    1896                    ;*****************************************************************************
    1897                    ;* FUNCTION NAME: ICall_sendServiceMsg                                       *
    1898                    ;*                                                                           *
    1899                    ;*   Regs Modified     : A1,A2,A3,A4,V9,SP,LR,SR                             *
    1900                    ;*   Regs Used         : A1,A2,A3,A4,V9,SP,LR,SR                             *
    1901                    ;*   Local Frame Size  : 0 Args + 16 Auto + 4 Save = 20 byte                 *
    1902                    ;*****************************************************************************
    1903                    ICall_sendServiceMsg:
    1904                    ;* --------------------------------------------------------------------------*
    1905                    $C$DW$161       .dwtag  DW_TAG_variable
    1906                            .dwattr $C$DW$161, DW_AT_name("args")
    1907                            .dwattr $C$DW$161, DW_AT_TI_symbol_name("args")
    1908                            .dwattr $C$DW$161, DW_AT_type(*$C$DW$T$1086)
    1909                            .dwattr $C$DW$161, DW_AT_location[DW_OP_breg13 0]
    1910                    
    1911                    ;* A4    assigned to $O$C1
    1912                    ;* A3    assigned to src
    1913                    $C$DW$162       .dwtag  DW_TAG_variable
    1914                            .dwattr $C$DW$162, DW_AT_name("src")
    1915                            .dwattr $C$DW$162, DW_AT_TI_symbol_name("src")
    1916                            .dwattr $C$DW$162, DW_AT_type(*$C$DW$T$932)
    1917                            .dwattr $C$DW$162, DW_AT_location[DW_OP_reg2]
    1918                    
    1919                    ;* A1    assigned to format
    1920                    $C$DW$163       .dwtag  DW_TAG_variable
    1921                            .dwattr $C$DW$163, DW_AT_name("format")
    1922                            .dwattr $C$DW$163, DW_AT_TI_symbol_name("format")
    1923                            .dwattr $C$DW$163, DW_AT_type(*$C$DW$T$935)
    1924                            .dwattr $C$DW$163, DW_AT_location[DW_OP_reg0]
    1925                    
TI ARM Assembler PC v16.9.9 Sun Nov 25 16:40:50 2018

Tools Copyright (c) 1996-2017 Texas Instruments Incorporated
C:\Users\Stryd\AppData\Local\Temp\{9A419F3E-CE2D-47E3-ABE5-0EE6D6901F8C} PAGE   36

    1926                    ;* A2    assigned to msg
    1927                    $C$DW$164       .dwtag  DW_TAG_variable
    1928                            .dwattr $C$DW$164, DW_AT_name("msg")
    1929                            .dwattr $C$DW$164, DW_AT_TI_symbol_name("msg")
    1930                            .dwattr $C$DW$164, DW_AT_type(*$C$DW$T$803)
    1931                            .dwattr $C$DW$164, DW_AT_location[DW_OP_reg1]
    1932                    
    1933                            .dwcfi  cfa_offset, 0
    1934 00000000 4A0D              LDR       A3, $C$CON13          ; [DPU_3_PIPE] |1856|  ; [ORIG 16-BIT INS]
    1935 00000002 B500              PUSH      {LR}                  ; [DPU_3_PIPE]  ; [ORIG 16-BIT INS]
    1936                            .dwcfi  cfa_offset, 4
    1937                            .dwcfi  save_reg_to_mem, 14, -4
    1938                            .dwpsn  file "C:/ti/simplelink_cc13x0_sdk_2_30_00_20/source/ti/ti154stack/icall/src/inc/icall.
    1939 00000004 2308              MOVS      A4, #8                ; [DPU_3_PIPE] |1858|  ; [ORIG 16-BIT INS]
    1940 00000006 0D14F1AD          SUB       SP, SP, #20           ; [DPU_3_PIPE]  ; [KEEP 32-BIT INS]
    1941                            .dwcfi  cfa_offset, 24
    1942                            .dwpsn  file "C:/ti/simplelink_cc13x0_sdk_2_30_00_20/source/ti/ti154stack/icall/src/inc/icall.
    1943 0000000a 0008F88D          STRB      A1, [SP, #8]          ; [DPU_3_PIPE] |1862|  ; [KEEP 32-BIT INS]
    1944 0000000e 3A08              SUBS      A3, A3, #8            ; [DPU_3_PIPE]  ; [ORIG 16-BIT INS]
    1945                            .dwpsn  file "C:/ti/simplelink_cc13x0_sdk_2_30_00_20/source/ti/ti154stack/icall/src/inc/icall.
    1946 00000010 9103              STR       A2, [SP, #12]         ; [DPU_3_PIPE] |1863|  ; [ORIG 16-BIT INS]
    1947                            .dwpsn  file "C:/ti/simplelink_cc13x0_sdk_2_30_00_20/source/ti/ti154stack/icall/src/inc/icall.
    1948 00000012 4808              LDR       A1, $C$CON12          ; [DPU_3_PIPE] |1864|  ; [ORIG 16-BIT INS]
    1949                            .dwpsn  file "C:/ti/simplelink_cc13x0_sdk_2_30_00_20/source/ti/ti154stack/icall/src/inc/icall.
    1950 00000014 3000F8AD          STRH      A4, [SP, #0]          ; [DPU_3_PIPE] |1858|  ; [KEEP 32-BIT INS]
    1951                            .dwpsn  file "C:/ti/simplelink_cc13x0_sdk_2_30_00_20/source/ti/ti154stack/icall/src/inc/icall.
    1952 00000018 7812              LDRB      A3, [A3, #0]          ; [DPU_3_PIPE] |1856|  ; [ORIG 16-BIT INS]
    1953                            .dwpsn  file "C:/ti/simplelink_cc13x0_sdk_2_30_00_20/source/ti/ti154stack/icall/src/inc/icall.
    1954 0000001a 3002F8AD          STRH      A4, [SP, #2]          ; [DPU_3_PIPE] |1859|  ; [KEEP 32-BIT INS]
    1955                            .dwpsn  file "C:/ti/simplelink_cc13x0_sdk_2_30_00_20/source/ti/ti154stack/icall/src/inc/icall.
    1956 0000001e 6801              LDR       A2, [A1, #0]          ; [DPU_3_PIPE] |1864|  ; [ORIG 16-BIT INS]
    1957                            .dwpsn  file "C:/ti/simplelink_cc13x0_sdk_2_30_00_20/source/ti/ti154stack/icall/src/inc/icall.
    1958 00000020 2004F88D          STRB      A3, [SP, #4]          ; [DPU_3_PIPE] |1860|  ; [KEEP 32-BIT INS]
    1959                            .dwpsn  file "C:/ti/simplelink_cc13x0_sdk_2_30_00_20/source/ti/ti154stack/icall/src/inc/icall.
    1960 00000024 2218              MOVS      A3, #24               ; [DPU_3_PIPE] |1861|  ; [ORIG 16-BIT INS]
    1961                            .dwpsn  file "C:/ti/simplelink_cc13x0_sdk_2_30_00_20/source/ti/ti154stack/icall/src/inc/icall.
    1962 00000026 4668              MOV       A1, SP                ; [DPU_3_PIPE] |1864|  ; [ORIG 16-BIT INS]
    1963                            .dwpsn  file "C:/ti/simplelink_cc13x0_sdk_2_30_00_20/source/ti/ti154stack/icall/src/inc/icall.
    1964 00000028 2006F8AD          STRH      A3, [SP, #6]          ; [DPU_3_PIPE] |1861|  ; [KEEP 32-BIT INS]
    1965                            .dwpsn  file "C:/ti/simplelink_cc13x0_sdk_2_30_00_20/source/ti/ti154stack/icall/src/inc/icall.
    1966                    $C$DW$165       .dwtag  DW_TAG_TI_branch
    1967                            .dwattr $C$DW$165, DW_AT_low_pc(0x00)
    1968                            .dwattr $C$DW$165, DW_AT_TI_call
    1969                            .dwattr $C$DW$165, DW_AT_TI_indirect
    1970                    
    1971 0000002c 4788              BLX       A2                    ; [DPU_3_PIPE] |1864|  ; [ORIG 16-BIT INS]
    1972                            ; CALL OCCURS {}                 ; [] |1864| 
    1973 0000002e B005              ADD       SP, SP, #20           ; [DPU_3_PIPE]  ; [ORIG 16-BIT INS]
    1974                            .dwcfi  cfa_offset, 4
    1975                    $C$DW$166       .dwtag  DW_TAG_TI_branch
    1976                            .dwattr $C$DW$166, DW_AT_low_pc(0x00)
    1977                            .dwattr $C$DW$166, DW_AT_TI_return
    1978                    
    1979 00000030 BD00              POP       {PC}                  ; [DPU_3_PIPE]  ; [ORIG 16-BIT INS]
    1980                            .dwcfi  cfa_offset, 0
TI ARM Assembler PC v16.9.9 Sun Nov 25 16:40:50 2018

Tools Copyright (c) 1996-2017 Texas Instruments Incorporated
C:\Users\Stryd\AppData\Local\Temp\{9A419F3E-CE2D-47E3-ABE5-0EE6D6901F8C} PAGE   37

    1981                            ; BRANCH OCCURS                  ; [] 
    1982                            .dwattr $C$DW$158, DW_AT_TI_end_file("C:/ti/simplelink_cc13x0_sdk_2_30_00_20/source/ti/ti154st
    1983                            .dwattr $C$DW$158, DW_AT_TI_end_line(0x749)
    1984                            .dwattr $C$DW$158, DW_AT_TI_end_column(0x01)
    1985                            .dwendentry
    1986                            .dwendtag $C$DW$158
    1987                    
    1988 00000000                   .sect   ".text:processScanCnf"
    1989                            .clink
    1990                            .thumbfunc processScanCnf
    1991 00000000                   .thumb
    1992                    
    1993                    $C$DW$167       .dwtag  DW_TAG_subprogram
    1994                            .dwattr $C$DW$167, DW_AT_name("processScanCnf")
    1995                            .dwattr $C$DW$167, DW_AT_low_pc(processScanCnf)
    1996                            .dwattr $C$DW$167, DW_AT_high_pc(0x00)
    1997                            .dwattr $C$DW$167, DW_AT_TI_symbol_name("processScanCnf")
    1998                            .dwattr $C$DW$167, DW_AT_TI_begin_file("../Application/api_mac.c")
    1999                            .dwattr $C$DW$167, DW_AT_TI_begin_line(0x6b8)
    2000                            .dwattr $C$DW$167, DW_AT_TI_begin_column(0x0d)
    2001                            .dwattr $C$DW$167, DW_AT_decl_file("../Application/api_mac.c")
    2002                            .dwattr $C$DW$167, DW_AT_decl_line(0x6b8)
    2003                            .dwattr $C$DW$167, DW_AT_decl_column(0x0d)
    2004                            .dwattr $C$DW$167, DW_AT_TI_max_frame_size(0x28)
    2005                            .dwpsn  file "../Application/api_mac.c",line 1721,column 1,is_stmt,address processScanCnf,isa 
    2006                    
    2007                            .dwfde $C$DW$CIE, processScanCnf
    2008                    $C$DW$168       .dwtag  DW_TAG_formal_parameter
    2009                            .dwattr $C$DW$168, DW_AT_name("pCnf")
    2010                            .dwattr $C$DW$168, DW_AT_TI_symbol_name("pCnf")
    2011                            .dwattr $C$DW$168, DW_AT_type(*$C$DW$T$749)
    2012                            .dwattr $C$DW$168, DW_AT_location[DW_OP_reg0]
    2013                    
    2014                    
    2015                    ;*****************************************************************************
    2016                    ;* FUNCTION NAME: processScanCnf                                             *
    2017                    ;*                                                                           *
    2018                    ;*   Regs Modified     : A1,A2,A3,A4,V1,V9,SP,LR,SR                          *
    2019                    ;*   Regs Used         : A1,A2,A3,A4,V1,V9,SP,LR,SR                          *
    2020                    ;*   Local Frame Size  : 0 Args + 28 Auto + 8 Save = 36 byte                 *
    2021                    ;*****************************************************************************
    2022                    processScanCnf:
    2023                    ;* --------------------------------------------------------------------------*
    2024                    $C$DW$169       .dwtag  DW_TAG_variable
    2025                            .dwattr $C$DW$169, DW_AT_name("cnf")
    2026                            .dwattr $C$DW$169, DW_AT_TI_symbol_name("cnf")
    2027                            .dwattr $C$DW$169, DW_AT_type(*$C$DW$T$309)
    2028                            .dwattr $C$DW$169, DW_AT_location[DW_OP_breg13 0]
    2029                    
    2030                    ;* A1    assigned to $O$Y0
    2031                    ;* V1    assigned to pCnf
    2032                    $C$DW$170       .dwtag  DW_TAG_variable
    2033                            .dwattr $C$DW$170, DW_AT_name("pCnf")
    2034                            .dwattr $C$DW$170, DW_AT_TI_symbol_name("pCnf")
    2035                            .dwattr $C$DW$170, DW_AT_type(*$C$DW$T$750)
TI ARM Assembler PC v16.9.9 Sun Nov 25 16:40:50 2018

Tools Copyright (c) 1996-2017 Texas Instruments Incorporated
C:\Users\Stryd\AppData\Local\Temp\{9A419F3E-CE2D-47E3-ABE5-0EE6D6901F8C} PAGE   38

    2036                            .dwattr $C$DW$170, DW_AT_location[DW_OP_reg4]
    2037                    
    2038                            .dwcfi  cfa_offset, 0
    2039 00000000 B510              PUSH      {V1, LR}              ; [DPU_3_PIPE]  ; [ORIG 16-BIT INS]
    2040                            .dwcfi  cfa_offset, 8
    2041                            .dwcfi  save_reg_to_mem, 14, -4
    2042                            .dwcfi  save_reg_to_mem, 4, -8
    2043 00000002 4604              MOV       V1, A1                ; [DPU_3_PIPE] |1721|  ; [ORIG 16-BIT INS]
    2044                            .dwpsn  file "../Application/api_mac.c",line 1726,column 5,is_stmt,isa 1
    2045 00000004 2100              MOVS      A2, #0                ; [DPU_3_PIPE] |1726|  ; [ORIG 16-BIT INS]
    2046 00000006 221C              MOVS      A3, #28               ; [DPU_3_PIPE] |1726|  ; [ORIG 16-BIT INS]
    2047 00000008 0D20F1AD          SUB       SP, SP, #32           ; [DPU_3_PIPE]  ; [KEEP 32-BIT INS]
    2048                            .dwcfi  cfa_offset, 40
    2049 0000000c 4668              MOV       A1, SP                ; [DPU_3_PIPE] |1726|  ; [ORIG 16-BIT INS]
    2050                    $C$DW$171       .dwtag  DW_TAG_TI_branch
    2051                            .dwattr $C$DW$171, DW_AT_low_pc(0x00)
    2052                            .dwattr $C$DW$171, DW_AT_name("memset")
    2053                            .dwattr $C$DW$171, DW_AT_TI_call
    2054                    
    2055 0000000e FFFEF7FF!         BL        memset                ; [DPU_3_PIPE] |1726|  ; [KEEP 32-BIT INS]
    2056                            ; CALL OCCURS {memset }          ; [] |1726| 
    2057                            .dwpsn  file "../Application/api_mac.c",line 1729,column 5,is_stmt,isa 1
    2058 00000012 7860              LDRB      A1, [V1, #1]          ; [DPU_3_PIPE] |1729|  ; [ORIG 16-BIT INS]
    2059 00000014 0000F88D          STRB      A1, [SP, #0]          ; [DPU_3_PIPE] |1729|  ; [KEEP 32-BIT INS]
    2060                            .dwpsn  file "../Application/api_mac.c",line 1731,column 5,is_stmt,isa 1
    2061 00000018 78A0              LDRB      A1, [V1, #2]          ; [DPU_3_PIPE] |1731|  ; [ORIG 16-BIT INS]
    2062 0000001a 0001F88D          STRB      A1, [SP, #1]          ; [DPU_3_PIPE] |1731|  ; [KEEP 32-BIT INS]
    2063                            .dwpsn  file "../Application/api_mac.c",line 1732,column 5,is_stmt,isa 1
    2064 0000001e 78E0              LDRB      A1, [V1, #3]          ; [DPU_3_PIPE] |1732|  ; [ORIG 16-BIT INS]
    2065 00000020 0002F88D          STRB      A1, [SP, #2]          ; [DPU_3_PIPE] |1732|  ; [KEEP 32-BIT INS]
    2066                            .dwpsn  file "../Application/api_mac.c",line 1733,column 5,is_stmt,isa 1
    2067 00000024 7920              LDRB      A1, [V1, #4]          ; [DPU_3_PIPE] |1733|  ; [ORIG 16-BIT INS]
    2068                            .dwpsn  file "../Application/api_mac.c",line 1734,column 5,is_stmt,isa 1
    2069 00000026 2211              MOVS      A3, #17               ; [DPU_3_PIPE] |1734|  ; [ORIG 16-BIT INS]
    2070 00000028 1D61              ADDS      A2, V1, #5            ; [DPU_3_PIPE] |1734|  ; [ORIG 16-BIT INS]
    2071                            .dwpsn  file "../Application/api_mac.c",line 1733,column 5,is_stmt,isa 1
    2072 0000002a 0003F88D          STRB      A1, [SP, #3]          ; [DPU_3_PIPE] |1733|  ; [KEEP 32-BIT INS]
    2073                            .dwpsn  file "../Application/api_mac.c",line 1734,column 5,is_stmt,isa 1
    2074 0000002e A801              ADD       A1, SP, #4            ; [DPU_3_PIPE] |1734|  ; [ORIG 16-BIT INS]
    2075                    $C$DW$172       .dwtag  DW_TAG_TI_branch
    2076                            .dwattr $C$DW$172, DW_AT_low_pc(0x00)
    2077                            .dwattr $C$DW$172, DW_AT_name("memcpy")
    2078                            .dwattr $C$DW$172, DW_AT_TI_call
    2079                    
    2080 00000030 FFFEF7FF!         BL        memcpy                ; [DPU_3_PIPE] |1734|  ; [KEEP 32-BIT INS]
    2081                            ; CALL OCCURS {memcpy }          ; [] |1734| 
    2082                            .dwpsn  file "../Application/api_mac.c",line 1736,column 5,is_stmt,isa 1
    2083 00000034 7DA0              LDRB      A1, [V1, #22]         ; [DPU_3_PIPE] |1736|  ; [ORIG 16-BIT INS]
    2084 00000036 0015F88D          STRB      A1, [SP, #21]         ; [DPU_3_PIPE] |1736|  ; [KEEP 32-BIT INS]
    2085 0000003a B108              CBZ       A1, ||$C$L3||         ; []  ; [ORIG 16-BIT INS]
    2086                            .dwpsn  file "../Application/api_mac.c",line 1747,column 13,is_stmt,isa 1
    2087 0000003c 69A0              LDR       A1, [V1, #24]         ; [DPU_3_PIPE] |1747|  ; [ORIG 16-BIT INS]
    2088 0000003e 9006              STR       A1, [SP, #24]         ; [DPU_3_PIPE] |1747|  ; [ORIG 16-BIT INS]
    2089                    ;* --------------------------------------------------------------------------*
    2090 00000040           ||$C$L3||:    
TI ARM Assembler PC v16.9.9 Sun Nov 25 16:40:50 2018

Tools Copyright (c) 1996-2017 Texas Instruments Incorporated
C:\Users\Stryd\AppData\Local\Temp\{9A419F3E-CE2D-47E3-ABE5-0EE6D6901F8C} PAGE   39

    2091                            .dwpsn  file "../Application/api_mac.c",line 1757,column 5,is_stmt,isa 1
    2092 00000040 4803              LDR       A1, $C$CON15          ; [DPU_3_PIPE] |1757|  ; [ORIG 16-BIT INS]
    2093 00000042 6800              LDR       A1, [A1, #0]          ; [DPU_3_PIPE] |1757|  ; [ORIG 16-BIT INS]
    2094 00000044 6981              LDR       A2, [A1, #24]         ; [DPU_3_PIPE] |1757|  ; [ORIG 16-BIT INS]
    2095 00000046 4668              MOV       A1, SP                ; [DPU_3_PIPE] |1757|  ; [ORIG 16-BIT INS]
    2096                    $C$DW$173       .dwtag  DW_TAG_TI_branch
    2097                            .dwattr $C$DW$173, DW_AT_low_pc(0x00)
    2098                            .dwattr $C$DW$173, DW_AT_TI_call
    2099                            .dwattr $C$DW$173, DW_AT_TI_indirect
    2100                    
    2101 00000048 4788              BLX       A2                    ; [DPU_3_PIPE] |1757|  ; [ORIG 16-BIT INS]
    2102                            ; CALL OCCURS {}                 ; [] |1757| 
    2103 0000004a B008              ADD       SP, SP, #32           ; [DPU_3_PIPE]  ; [ORIG 16-BIT INS]
    2104                            .dwcfi  cfa_offset, 8
    2105                    $C$DW$174       .dwtag  DW_TAG_TI_branch
    2106                            .dwattr $C$DW$174, DW_AT_low_pc(0x00)
    2107                            .dwattr $C$DW$174, DW_AT_TI_return
    2108                    
    2109 0000004c BD10              POP       {V1, PC}              ; [DPU_3_PIPE]  ; [ORIG 16-BIT INS]
    2110                            .dwcfi  cfa_offset, 0
    2111                            .dwcfi  restore_reg, 4
    2112                            ; BRANCH OCCURS                  ; [] 
    2113                            .dwattr $C$DW$167, DW_AT_TI_end_file("../Application/api_mac.c")
    2114                            .dwattr $C$DW$167, DW_AT_TI_end_line(0x6de)
    2115                            .dwattr $C$DW$167, DW_AT_TI_end_column(0x01)
    2116                            .dwendentry
    2117                            .dwendtag $C$DW$167
    2118                    
    2119 00000000                   .sect   ".text:ICall_free"
    2120                            .clink
    2121                            .thumbfunc ICall_free
    2122 00000000                   .thumb
    2123                    
    2124                    $C$DW$175       .dwtag  DW_TAG_subprogram
    2125                            .dwattr $C$DW$175, DW_AT_name("ICall_free")
    2126                            .dwattr $C$DW$175, DW_AT_low_pc(ICall_free)
    2127                            .dwattr $C$DW$175, DW_AT_high_pc(0x00)
    2128                            .dwattr $C$DW$175, DW_AT_TI_symbol_name("ICall_free")
    2129                            .dwattr $C$DW$175, DW_AT_TI_begin_file("C:/ti/simplelink_cc13x0_sdk_2_30_00_20/source/ti/ti154
    2130                            .dwattr $C$DW$175, DW_AT_TI_begin_line(0x7d6)
    2131                            .dwattr $C$DW$175, DW_AT_TI_begin_column(0x0d)
    2132                            .dwattr $C$DW$175, DW_AT_decl_file("C:/ti/simplelink_cc13x0_sdk_2_30_00_20/source/ti/ti154stac
    2133                            .dwattr $C$DW$175, DW_AT_decl_line(0x7d6)
    2134                            .dwattr $C$DW$175, DW_AT_decl_column(0x0d)
    2135                            .dwattr $C$DW$175, DW_AT_TI_max_frame_size(0x10)
    2136                            .dwpsn  file "C:/ti/simplelink_cc13x0_sdk_2_30_00_20/source/ti/ti154stack/icall/src/inc/icall.
    2137                    
    2138                            .dwfde $C$DW$CIE, ICall_free
    2139                    $C$DW$176       .dwtag  DW_TAG_formal_parameter
    2140                            .dwattr $C$DW$176, DW_AT_name("msg")
    2141                            .dwattr $C$DW$176, DW_AT_TI_symbol_name("msg")
    2142                            .dwattr $C$DW$176, DW_AT_type(*$C$DW$T$3)
    2143                            .dwattr $C$DW$176, DW_AT_location[DW_OP_reg0]
    2144                    
    2145                    
TI ARM Assembler PC v16.9.9 Sun Nov 25 16:40:50 2018

Tools Copyright (c) 1996-2017 Texas Instruments Incorporated
C:\Users\Stryd\AppData\Local\Temp\{9A419F3E-CE2D-47E3-ABE5-0EE6D6901F8C} PAGE   40

    2146                    ;*****************************************************************************
    2147                    ;* FUNCTION NAME: ICall_free                                                 *
    2148                    ;*                                                                           *
    2149                    ;*   Regs Modified     : A1,A2,A3,A4,V9,SP,LR,SR                             *
    2150                    ;*   Regs Used         : A1,A2,A3,A4,V9,SP,LR,SR                             *
    2151                    ;*   Local Frame Size  : 0 Args + 8 Auto + 4 Save = 12 byte                  *
    2152                    ;*****************************************************************************
    2153                    ICall_free:
    2154                    ;* --------------------------------------------------------------------------*
    2155                    $C$DW$177       .dwtag  DW_TAG_variable
    2156                            .dwattr $C$DW$177, DW_AT_name("args")
    2157                            .dwattr $C$DW$177, DW_AT_TI_symbol_name("args")
    2158                            .dwattr $C$DW$177, DW_AT_type(*$C$DW$T$1069)
    2159                            .dwattr $C$DW$177, DW_AT_location[DW_OP_breg13 0]
    2160                    
    2161                    ;* A1    assigned to msg
    2162                    $C$DW$178       .dwtag  DW_TAG_variable
    2163                            .dwattr $C$DW$178, DW_AT_name("msg")
    2164                            .dwattr $C$DW$178, DW_AT_TI_symbol_name("msg")
    2165                            .dwattr $C$DW$178, DW_AT_type(*$C$DW$T$803)
    2166                            .dwattr $C$DW$178, DW_AT_location[DW_OP_reg0]
    2167                    
    2168                            .dwcfi  cfa_offset, 0
    2169 00000000 B50E              PUSH      {A2, A3, A4, LR}      ; [DPU_3_PIPE]  ; [ORIG 16-BIT INS]
    2170                            .dwcfi  cfa_offset, 16
    2171                            .dwcfi  save_reg_to_mem, 14, -4
    2172                            .dwcfi  save_reg_to_mem, 3, -8
    2173                            .dwcfi  save_reg_to_mem, 2, -12
    2174                            .dwcfi  save_reg_to_mem, 1, -16
    2175                            .dwpsn  file "C:/ti/simplelink_cc13x0_sdk_2_30_00_20/source/ti/ti154stack/icall/src/inc/icall.
    2176 00000002 2108              MOVS      A2, #8                ; [DPU_3_PIPE] |2009|  ; [ORIG 16-BIT INS]
    2177                            .dwpsn  file "C:/ti/simplelink_cc13x0_sdk_2_30_00_20/source/ti/ti154stack/icall/src/inc/icall.
    2178 00000004 9001              STR       A1, [SP, #4]          ; [DPU_3_PIPE] |2011|  ; [ORIG 16-BIT INS]
    2179                            .dwpsn  file "C:/ti/simplelink_cc13x0_sdk_2_30_00_20/source/ti/ti154stack/icall/src/inc/icall.
    2180 00000006 4805              LDR       A1, $C$CON17          ; [DPU_3_PIPE] |2012|  ; [ORIG 16-BIT INS]
    2181                            .dwpsn  file "C:/ti/simplelink_cc13x0_sdk_2_30_00_20/source/ti/ti154stack/icall/src/inc/icall.
    2182 00000008 1000F8AD          STRH      A2, [SP, #0]          ; [DPU_3_PIPE] |2009|  ; [KEEP 32-BIT INS]
    2183                            .dwpsn  file "C:/ti/simplelink_cc13x0_sdk_2_30_00_20/source/ti/ti154stack/icall/src/inc/icall.
    2184 0000000c 2105              MOVS      A2, #5                ; [DPU_3_PIPE] |2010|  ; [ORIG 16-BIT INS]
    2185 0000000e 1002F8AD          STRH      A2, [SP, #2]          ; [DPU_3_PIPE] |2010|  ; [KEEP 32-BIT INS]
    2186                            .dwpsn  file "C:/ti/simplelink_cc13x0_sdk_2_30_00_20/source/ti/ti154stack/icall/src/inc/icall.
    2187 00000012 6801              LDR       A2, [A1, #0]          ; [DPU_3_PIPE] |2012|  ; [ORIG 16-BIT INS]
    2188 00000014 4668              MOV       A1, SP                ; [DPU_3_PIPE] |2012|  ; [ORIG 16-BIT INS]
    2189                    $C$DW$179       .dwtag  DW_TAG_TI_branch
    2190                            .dwattr $C$DW$179, DW_AT_low_pc(0x00)
    2191                            .dwattr $C$DW$179, DW_AT_TI_call
    2192                            .dwattr $C$DW$179, DW_AT_TI_indirect
    2193                    
    2194 00000016 4788              BLX       A2                    ; [DPU_3_PIPE] |2012|  ; [ORIG 16-BIT INS]
    2195                            ; CALL OCCURS {}                 ; [] |2012| 
    2196                    $C$DW$180       .dwtag  DW_TAG_TI_branch
    2197                            .dwattr $C$DW$180, DW_AT_low_pc(0x00)
    2198                            .dwattr $C$DW$180, DW_AT_TI_return
    2199                    
    2200 00000018 BD0E              POP       {A2, A3, A4, PC}      ; [DPU_3_PIPE]  ; [ORIG 16-BIT INS]
TI ARM Assembler PC v16.9.9 Sun Nov 25 16:40:50 2018

Tools Copyright (c) 1996-2017 Texas Instruments Incorporated
C:\Users\Stryd\AppData\Local\Temp\{9A419F3E-CE2D-47E3-ABE5-0EE6D6901F8C} PAGE   41

    2201                            .dwcfi  cfa_offset, 0
    2202                            .dwcfi  restore_reg, 3
    2203                            .dwcfi  restore_reg, 2
    2204                            .dwcfi  restore_reg, 1
    2205                            ; BRANCH OCCURS                  ; [] 
    2206                            .dwattr $C$DW$175, DW_AT_TI_end_file("C:/ti/simplelink_cc13x0_sdk_2_30_00_20/source/ti/ti154st
    2207                            .dwattr $C$DW$175, DW_AT_TI_end_line(0x7dd)
    2208                            .dwattr $C$DW$175, DW_AT_TI_end_column(0x01)
    2209                            .dwendentry
    2210                            .dwendtag $C$DW$175
    2211                    
    2212 00000000                   .sect   ".text:copyMacPanDescToApiMacPanDesc"
    2213                            .clink
    2214                            .thumbfunc copyMacPanDescToApiMacPanDesc
    2215 00000000                   .thumb
    2216                    
    2217                    $C$DW$181       .dwtag  DW_TAG_subprogram
    2218                            .dwattr $C$DW$181, DW_AT_name("copyMacPanDescToApiMacPanDesc")
    2219                            .dwattr $C$DW$181, DW_AT_low_pc(copyMacPanDescToApiMacPanDesc)
    2220                            .dwattr $C$DW$181, DW_AT_high_pc(0x00)
    2221                            .dwattr $C$DW$181, DW_AT_TI_symbol_name("copyMacPanDescToApiMacPanDesc")
    2222                            .dwattr $C$DW$181, DW_AT_TI_begin_file("../Application/api_mac.c")
    2223                            .dwattr $C$DW$181, DW_AT_TI_begin_line(0x651)
    2224                            .dwattr $C$DW$181, DW_AT_TI_begin_column(0x0d)
    2225                            .dwattr $C$DW$181, DW_AT_decl_file("../Application/api_mac.c")
    2226                            .dwattr $C$DW$181, DW_AT_decl_line(0x651)
    2227                            .dwattr $C$DW$181, DW_AT_decl_column(0x0d)
    2228                            .dwattr $C$DW$181, DW_AT_TI_max_frame_size(0x08)
    2229                            .dwpsn  file "../Application/api_mac.c",line 1619,column 1,is_stmt,address copyMacPanDescToApi
    2230                    
    2231                            .dwfde $C$DW$CIE, copyMacPanDescToApiMacPanDesc
    2232                    $C$DW$182       .dwtag  DW_TAG_formal_parameter
    2233                            .dwattr $C$DW$182, DW_AT_name("pDst")
    2234                            .dwattr $C$DW$182, DW_AT_TI_symbol_name("pDst")
    2235                            .dwattr $C$DW$182, DW_AT_type(*$C$DW$T$191)
    2236                            .dwattr $C$DW$182, DW_AT_location[DW_OP_reg0]
    2237                    
    2238                    $C$DW$183       .dwtag  DW_TAG_formal_parameter
    2239                            .dwattr $C$DW$183, DW_AT_name("pSrc")
    2240                            .dwattr $C$DW$183, DW_AT_TI_symbol_name("pSrc")
    2241                            .dwattr $C$DW$183, DW_AT_type(*$C$DW$T$44)
    2242                            .dwattr $C$DW$183, DW_AT_location[DW_OP_reg1]
    2243                    
    2244                    
    2245                    ;*****************************************************************************
    2246                    ;* FUNCTION NAME: copyMacPanDescToApiMacPanDesc                              *
    2247                    ;*                                                                           *
    2248                    ;*   Regs Modified     : A1,A2,A3,A4,V9,SP,LR,SR                             *
    2249                    ;*   Regs Used         : A1,A2,A3,A4,V9,SP,LR,SR                             *
    2250                    ;*   Local Frame Size  : 0 Args + 0 Auto + 4 Save = 4 byte                   *
    2251                    ;*****************************************************************************
    2252                    copyMacPanDescToApiMacPanDesc:
    2253                    ;* --------------------------------------------------------------------------*
    2254                    ;* A1    assigned to pDst
    2255                    $C$DW$184       .dwtag  DW_TAG_variable
TI ARM Assembler PC v16.9.9 Sun Nov 25 16:40:50 2018

Tools Copyright (c) 1996-2017 Texas Instruments Incorporated
C:\Users\Stryd\AppData\Local\Temp\{9A419F3E-CE2D-47E3-ABE5-0EE6D6901F8C} PAGE   42

    2256                            .dwattr $C$DW$184, DW_AT_name("pDst")
    2257                            .dwattr $C$DW$184, DW_AT_TI_symbol_name("pDst")
    2258                            .dwattr $C$DW$184, DW_AT_type(*$C$DW$T$1039)
    2259                            .dwattr $C$DW$184, DW_AT_location[DW_OP_reg0]
    2260                    
    2261                    ;* A4    assigned to pSrc
    2262                    $C$DW$185       .dwtag  DW_TAG_variable
    2263                            .dwattr $C$DW$185, DW_AT_name("pSrc")
    2264                            .dwattr $C$DW$185, DW_AT_TI_symbol_name("pSrc")
    2265                            .dwattr $C$DW$185, DW_AT_type(*$C$DW$T$739)
    2266                            .dwattr $C$DW$185, DW_AT_location[DW_OP_reg3]
    2267                    
    2268                            .dwcfi  cfa_offset, 0
    2269 00000000 B508              PUSH      {A4, LR}              ; [DPU_3_PIPE]  ; [ORIG 16-BIT INS]
    2270                            .dwcfi  cfa_offset, 8
    2271                            .dwcfi  save_reg_to_mem, 14, -4
    2272                            .dwcfi  save_reg_to_mem, 3, -8
    2273 00000002 460B              MOV       A4, A2                ; [DPU_3_PIPE] |1619|  ; [ORIG 16-BIT INS]
    2274                            .dwpsn  file "../Application/api_mac.c",line 1621,column 5,is_stmt,isa 1
    2275                    $C$DW$186       .dwtag  DW_TAG_TI_branch
    2276                            .dwattr $C$DW$186, DW_AT_low_pc(0x00)
    2277                            .dwattr $C$DW$186, DW_AT_name("copyMacAddrToApiMacAddr")
    2278                            .dwattr $C$DW$186, DW_AT_TI_call
    2279                    
    2280 00000004 FFFEF7FF!         BL        copyMacAddrToApiMacAddr ; [DPU_3_PIPE] |1621|  ; [KEEP 32-BIT INS]
    2281                            ; CALL OCCURS {copyMacAddrToApiMacAddr }  ; [] |1621| 
    2282                            .dwpsn  file "../Application/api_mac.c",line 1622,column 5,is_stmt,isa 1
    2283 00000008 8959              LDRH      A2, [A4, #10]         ; [DPU_3_PIPE] |1622|  ; [ORIG 16-BIT INS]
    2284 0000000a 8141              STRH      A2, [A1, #10]         ; [DPU_3_PIPE] |1622|  ; [ORIG 16-BIT INS]
    2285                            .dwpsn  file "../Application/api_mac.c",line 1623,column 5,is_stmt,isa 1
    2286 0000000c 8999              LDRH      A2, [A4, #12]         ; [DPU_3_PIPE] |1623|  ; [ORIG 16-BIT INS]
    2287 0000000e 8181              STRH      A2, [A1, #12]         ; [DPU_3_PIPE] |1623|  ; [ORIG 16-BIT INS]
    2288                            .dwpsn  file "../Application/api_mac.c",line 1624,column 5,is_stmt,isa 1
    2289 00000010 7B99              LDRB      A2, [A4, #14]         ; [DPU_3_PIPE] |1624|  ; [ORIG 16-BIT INS]
    2290 00000012 7381              STRB      A2, [A1, #14]         ; [DPU_3_PIPE] |1624|  ; [ORIG 16-BIT INS]
    2291                            .dwpsn  file "../Application/api_mac.c",line 1625,column 5,is_stmt,isa 1
    2292 00000014 7BD9              LDRB      A2, [A4, #15]         ; [DPU_3_PIPE] |1625|  ; [ORIG 16-BIT INS]
    2293 00000016 73C1              STRB      A2, [A1, #15]         ; [DPU_3_PIPE] |1625|  ; [ORIG 16-BIT INS]
    2294                            .dwpsn  file "../Application/api_mac.c",line 1626,column 5,is_stmt,isa 1
    2295 00000018 7C19              LDRB      A2, [A4, #16]         ; [DPU_3_PIPE] |1626|  ; [ORIG 16-BIT INS]
    2296 0000001a 2200              MOVS      A3, #0                ; [DPU_3_PIPE] |1626|  ; [ORIG 16-BIT INS]
    2297 0000001c B101              CBZ       A2, ||$C$L4||         ; []  ; [ORIG 16-BIT INS]
    2298 0000001e 2201              MOVS      A3, #1                ; [DPU_3_PIPE] |1626|  ; [ORIG 16-BIT INS]
    2299                    ;* --------------------------------------------------------------------------*
    2300 00000020           ||$C$L4||:    
    2301                            .dwpsn  file "../Application/api_mac.c",line 1627,column 5,is_stmt,isa 1
    2302 00000020 7C59              LDRB      A2, [A4, #17]         ; [DPU_3_PIPE] |1627|  ; [ORIG 16-BIT INS]
    2303 00000022 7441              STRB      A2, [A1, #17]         ; [DPU_3_PIPE] |1627|  ; [ORIG 16-BIT INS]
    2304                            .dwpsn  file "../Application/api_mac.c",line 1628,column 5,is_stmt,isa 1
    2305 00000024 6959              LDR       A2, [A4, #20]         ; [DPU_3_PIPE] |1628|  ; [ORIG 16-BIT INS]
    2306 00000026 6141              STR       A2, [A1, #20]         ; [DPU_3_PIPE] |1628|  ; [ORIG 16-BIT INS]
    2307                            .dwpsn  file "../Application/api_mac.c",line 1629,column 5,is_stmt,isa 1
    2308 00000028 7E19              LDRB      A2, [A4, #24]         ; [DPU_3_PIPE] |1629|  ; [ORIG 16-BIT INS]
    2309                            .dwpsn  file "../Application/api_mac.c",line 1626,column 5,is_stmt,isa 1
    2310 0000002a 7402              STRB      A3, [A1, #16]         ; [DPU_3_PIPE] |1626|  ; [ORIG 16-BIT INS]
TI ARM Assembler PC v16.9.9 Sun Nov 25 16:40:50 2018

Tools Copyright (c) 1996-2017 Texas Instruments Incorporated
C:\Users\Stryd\AppData\Local\Temp\{9A419F3E-CE2D-47E3-ABE5-0EE6D6901F8C} PAGE   43

    2311                            .dwpsn  file "../Application/api_mac.c",line 1629,column 5,is_stmt,isa 1
    2312 0000002c 2200              MOVS      A3, #0                ; [DPU_3_PIPE] |1629|  ; [ORIG 16-BIT INS]
    2313 0000002e B101              CBZ       A2, ||$C$L5||         ; []  ; [ORIG 16-BIT INS]
    2314 00000030 2201              MOVS      A3, #1                ; [DPU_3_PIPE] |1629|  ; [ORIG 16-BIT INS]
    2315                    ;* --------------------------------------------------------------------------*
    2316 00000032           ||$C$L5||:    
    2317 00000032 7602              STRB      A3, [A1, #24]         ; [DPU_3_PIPE] |1629|  ; [ORIG 16-BIT INS]
    2318                            .dwpsn  file "../Application/api_mac.c",line 1630,column 5,is_stmt,isa 1
    2319 00000034 0119F103          ADD       A2, A4, #25           ; [DPU_3_PIPE] |1630|  ; [KEEP 32-BIT INS]
    2320 00000038 220B              MOVS      A3, #11               ; [DPU_3_PIPE] |1630|  ; [ORIG 16-BIT INS]
    2321 0000003a 3019              ADDS      A1, A1, #25           ; [DPU_3_PIPE] |1630|  ; [ORIG 16-BIT INS]
    2322                    $C$DW$187       .dwtag  DW_TAG_TI_branch
    2323                            .dwattr $C$DW$187, DW_AT_low_pc(0x00)
    2324                            .dwattr $C$DW$187, DW_AT_name("memcpy")
    2325                            .dwattr $C$DW$187, DW_AT_TI_call
    2326                    
    2327 0000003c FFFEF7FF!         BL        memcpy                ; [DPU_3_PIPE] |1630|  ; [KEEP 32-BIT INS]
    2328                            ; CALL OCCURS {memcpy }          ; [] |1630| 
    2329                    $C$DW$188       .dwtag  DW_TAG_TI_branch
    2330                            .dwattr $C$DW$188, DW_AT_low_pc(0x00)
    2331                            .dwattr $C$DW$188, DW_AT_TI_return
    2332                    
    2333 00000040 BD08              POP       {A4, PC}              ; [DPU_3_PIPE]  ; [ORIG 16-BIT INS]
    2334                            .dwcfi  cfa_offset, 0
    2335                            .dwcfi  restore_reg, 3
    2336                            ; BRANCH OCCURS                  ; [] 
    2337                            .dwattr $C$DW$181, DW_AT_TI_end_file("../Application/api_mac.c")
    2338                            .dwattr $C$DW$181, DW_AT_TI_end_line(0x65f)
    2339                            .dwattr $C$DW$181, DW_AT_TI_end_column(0x01)
    2340                            .dwendentry
    2341                            .dwendtag $C$DW$181
    2342                    
    2343 00000000                   .sect   ".text:processBeaconNotifyInd"
    2344                            .clink
    2345                            .thumbfunc processBeaconNotifyInd
    2346 00000000                   .thumb
    2347                    
    2348                    $C$DW$189       .dwtag  DW_TAG_subprogram
    2349                            .dwattr $C$DW$189, DW_AT_name("processBeaconNotifyInd")
    2350                            .dwattr $C$DW$189, DW_AT_low_pc(processBeaconNotifyInd)
    2351                            .dwattr $C$DW$189, DW_AT_high_pc(0x00)
    2352                            .dwattr $C$DW$189, DW_AT_TI_symbol_name("processBeaconNotifyInd")
    2353                            .dwattr $C$DW$189, DW_AT_TI_begin_file("../Application/api_mac.c")
    2354                            .dwattr $C$DW$189, DW_AT_TI_begin_line(0x666)
    2355                            .dwattr $C$DW$189, DW_AT_TI_begin_column(0x0d)
    2356                            .dwattr $C$DW$189, DW_AT_decl_file("../Application/api_mac.c")
    2357                            .dwattr $C$DW$189, DW_AT_decl_line(0x666)
    2358                            .dwattr $C$DW$189, DW_AT_decl_column(0x0d)
    2359                            .dwattr $C$DW$189, DW_AT_TI_max_frame_size(0x50)
    2360                            .dwpsn  file "../Application/api_mac.c",line 1639,column 1,is_stmt,address processBeaconNotify
    2361                    
    2362                            .dwfde $C$DW$CIE, processBeaconNotifyInd
    2363                    $C$DW$190       .dwtag  DW_TAG_formal_parameter
    2364                            .dwattr $C$DW$190, DW_AT_name("pInd")
    2365                            .dwattr $C$DW$190, DW_AT_TI_symbol_name("pInd")
TI ARM Assembler PC v16.9.9 Sun Nov 25 16:40:50 2018

Tools Copyright (c) 1996-2017 Texas Instruments Incorporated
C:\Users\Stryd\AppData\Local\Temp\{9A419F3E-CE2D-47E3-ABE5-0EE6D6901F8C} PAGE   44

    2366                            .dwattr $C$DW$190, DW_AT_type(*$C$DW$T$745)
    2367                            .dwattr $C$DW$190, DW_AT_location[DW_OP_reg0]
    2368                    
    2369                    
    2370                    ;*****************************************************************************
    2371                    ;* FUNCTION NAME: processBeaconNotifyInd                                     *
    2372                    ;*                                                                           *
    2373                    ;*   Regs Modified     : A1,A2,A3,A4,V1,V4,V9,SP,LR,SR                       *
    2374                    ;*   Regs Used         : A1,A2,A3,A4,V1,V4,V9,SP,LR,SR                       *
    2375                    ;*   Local Frame Size  : 0 Args + 64 Auto + 12 Save = 76 byte                *
    2376                    ;*****************************************************************************
    2377                    processBeaconNotifyInd:
    2378                    ;* --------------------------------------------------------------------------*
    2379                    $C$DW$191       .dwtag  DW_TAG_variable
    2380                            .dwattr $C$DW$191, DW_AT_name("ind")
    2381                            .dwattr $C$DW$191, DW_AT_TI_symbol_name("ind")
    2382                            .dwattr $C$DW$191, DW_AT_type(*$C$DW$T$299)
    2383                            .dwattr $C$DW$191, DW_AT_location[DW_OP_breg13 0]
    2384                    
    2385                    ;* A2    assigned to $O$C1
    2386                    ;* A2    assigned to $O$C2
    2387                    ;* A2    assigned to $O$v1
    2388                    ;* V1    assigned to pInd
    2389                    $C$DW$192       .dwtag  DW_TAG_variable
    2390                            .dwattr $C$DW$192, DW_AT_name("pInd")
    2391                            .dwattr $C$DW$192, DW_AT_TI_symbol_name("pInd")
    2392                            .dwattr $C$DW$192, DW_AT_type(*$C$DW$T$746)
    2393                            .dwattr $C$DW$192, DW_AT_location[DW_OP_reg4]
    2394                    
    2395                    ;* A1    assigned to pAddrList
    2396                    $C$DW$193       .dwtag  DW_TAG_variable
    2397                            .dwattr $C$DW$193, DW_AT_name("pAddrList")
    2398                            .dwattr $C$DW$193, DW_AT_TI_symbol_name("pAddrList")
    2399                            .dwattr $C$DW$193, DW_AT_type(*$C$DW$T$190)
    2400                            .dwattr $C$DW$193, DW_AT_location[DW_OP_reg0]
    2401                    
    2402                            .dwcfi  cfa_offset, 0
    2403 00000000 B590              PUSH      {V1, V4, LR}          ; [DPU_3_PIPE]  ; [ORIG 16-BIT INS]
    2404                            .dwcfi  cfa_offset, 12
    2405                            .dwcfi  save_reg_to_mem, 14, -4
    2406                            .dwcfi  save_reg_to_mem, 7, -8
    2407                            .dwcfi  save_reg_to_mem, 4, -12
    2408 00000002 4604              MOV       V1, A1                ; [DPU_3_PIPE] |1639|  ; [ORIG 16-BIT INS]
    2409                            .dwpsn  file "../Application/api_mac.c",line 1644,column 5,is_stmt,isa 1
    2410 00000004 2100              MOVS      A2, #0                ; [DPU_3_PIPE] |1644|  ; [ORIG 16-BIT INS]
    2411 00000006 2240              MOVS      A3, #64               ; [DPU_3_PIPE] |1644|  ; [ORIG 16-BIT INS]
    2412 00000008 0D44F1AD          SUB       SP, SP, #68           ; [DPU_3_PIPE]  ; [KEEP 32-BIT INS]
    2413                            .dwcfi  cfa_offset, 80
    2414 0000000c 4668              MOV       A1, SP                ; [DPU_3_PIPE] |1644|  ; [ORIG 16-BIT INS]
    2415                    $C$DW$194       .dwtag  DW_TAG_TI_branch
    2416                            .dwattr $C$DW$194, DW_AT_low_pc(0x00)
    2417                            .dwattr $C$DW$194, DW_AT_name("memset")
    2418                            .dwattr $C$DW$194, DW_AT_TI_call
    2419                    
    2420 0000000e FFFEF7FF!         BL        memset                ; [DPU_3_PIPE] |1644|  ; [KEEP 32-BIT INS]
TI ARM Assembler PC v16.9.9 Sun Nov 25 16:40:50 2018

Tools Copyright (c) 1996-2017 Texas Instruments Incorporated
C:\Users\Stryd\AppData\Local\Temp\{9A419F3E-CE2D-47E3-ABE5-0EE6D6901F8C} PAGE   45

    2421                            ; CALL OCCURS {memset }          ; [] |1644| 
    2422                            .dwpsn  file "../Application/api_mac.c",line 1647,column 5,is_stmt,isa 1
    2423 00000012 78A0              LDRB      A1, [V1, #2]          ; [DPU_3_PIPE] |1647|  ; [ORIG 16-BIT INS]
    2424 00000014 0000F88D          STRB      A1, [SP, #0]          ; [DPU_3_PIPE] |1647|  ; [KEEP 32-BIT INS]
    2425                            .dwpsn  file "../Application/api_mac.c",line 1648,column 5,is_stmt,isa 1
    2426 00000018 78E0              LDRB      A1, [V1, #3]          ; [DPU_3_PIPE] |1648|  ; [ORIG 16-BIT INS]
    2427 0000001a 0001F88D          STRB      A1, [SP, #1]          ; [DPU_3_PIPE] |1648|  ; [KEEP 32-BIT INS]
    2428                            .dwpsn  file "../Application/api_mac.c",line 1650,column 5,is_stmt,isa 1
    2429 0000001e 0000F89D          LDRB      A1, [SP, #0]          ; [DPU_3_PIPE] |1650|  ; [KEEP 32-BIT INS]
    2430 00000022 BB00              CBNZ      A1, ||$C$L9||         ; []  ; [ORIG 16-BIT INS]
    2431                            ; BRANCHCC OCCURS {||$C$L9||}    ; [] |1650| 
    2432                    ;* --------------------------------------------------------------------------*
    2433                            .dwpsn  file "../Application/api_mac.c",line 1655,column 9,is_stmt,isa 1
    2434 00000024 6861              LDR       A2, [V1, #4]          ; [DPU_3_PIPE] |1655|  ; [ORIG 16-BIT INS]
    2435 00000026 B111              CBZ       A2, ||$C$L6||         ; []  ; [ORIG 16-BIT INS]
    2436                            ; BRANCHCC OCCURS {||$C$L6||}    ; [] |1655| 
    2437                    ;* --------------------------------------------------------------------------*
    2438                            .dwpsn  file "../Application/api_mac.c",line 1657,column 13,is_stmt,isa 1
    2439 00000028 A801              ADD       A1, SP, #4            ; [DPU_3_PIPE] |1657|  ; [ORIG 16-BIT INS]
    2440                    $C$DW$195       .dwtag  DW_TAG_TI_branch
    2441                            .dwattr $C$DW$195, DW_AT_low_pc(0x00)
    2442                            .dwattr $C$DW$195, DW_AT_name("copyMacPanDescToApiMacPanDesc")
    2443                            .dwattr $C$DW$195, DW_AT_TI_call
    2444                    
    2445 0000002a FFFEF7FF!         BL        copyMacPanDescToApiMacPanDesc ; [DPU_3_PIPE] |1657|  ; [KEEP 32-BIT INS]
    2446                            ; CALL OCCURS {copyMacPanDescToApiMacPanDesc }  ; [] |1657| 
    2447                    ;* --------------------------------------------------------------------------*
    2448 0000002e           ||$C$L6||:    
    2449                            .dwpsn  file "../Application/api_mac.c",line 1663,column 9,is_stmt,isa 1
    2450 0000002e 7A21              LDRB      A2, [V1, #8]          ; [DPU_3_PIPE] |1663|  ; [ORIG 16-BIT INS]
    2451 00000030 0207F001          AND       A3, A2, #7            ; [DPU_3_PIPE] |1663|  ; [KEEP 32-BIT INS]
    2452 00000034 2028F88D          STRB      A3, [SP, #40]         ; [DPU_3_PIPE] |1663|  ; [KEEP 32-BIT INS]
    2453                            .dwpsn  file "../Application/api_mac.c",line 1662,column 9,is_stmt,isa 1
    2454 00000038 68E0              LDR       A1, [V1, #12]         ; [DPU_3_PIPE] |1662|  ; [ORIG 16-BIT INS]
    2455                            .dwpsn  file "../Application/api_mac.c",line 1667,column 9,is_stmt,isa 1
    2456 0000003a 7028F89D          LDRB      V4, [SP, #40]         ; [DPU_3_PIPE] |1667|  ; [KEEP 32-BIT INS]
    2457                            .dwpsn  file "../Application/api_mac.c",line 1665,column 9,is_stmt,isa 1
    2458 0000003e 1102F3C1          UBFX      A2, A2, #4, #3        ; [DPU_3_PIPE] |1665|  ; [KEEP 32-BIT INS]
    2459 00000042 1030F88D          STRB      A2, [SP, #48]         ; [DPU_3_PIPE] |1665|  ; [KEEP 32-BIT INS]
    2460 00000046 B127              CBZ       V4, ||$C$L7||         ; []  ; [ORIG 16-BIT INS]
    2461                            .dwpsn  file "../Application/api_mac.c",line 1667,column 9,is_stmt,isa 1
    2462                            ; BRANCHCC OCCURS {||$C$L7||}    ; [] |1667| 
    2463                    ;* --------------------------------------------------------------------------*
    2464                            .dwpsn  file "../Application/api_mac.c",line 1670,column 13,is_stmt,isa 1
    2465 00000048 1028F89D          LDRB      A2, [SP, #40]         ; [DPU_3_PIPE] |1670|  ; [KEEP 32-BIT INS]
    2466                            .dwpsn  file "../Application/api_mac.c",line 1669,column 13,is_stmt,isa 1
    2467 0000004c 900B              STR       A1, [SP, #44]         ; [DPU_3_PIPE] |1669|  ; [ORIG 16-BIT INS]
    2468                            .dwpsn  file "../Application/api_mac.c",line 1670,column 13,is_stmt,isa 1
    2469 0000004e 0041EB00          ADD       A1, A1, A2, LSL #1    ; [DPU_3_PIPE] |1670|  ; [KEEP 32-BIT INS]
    2470                    ;* --------------------------------------------------------------------------*
    2471 00000052           ||$C$L7||:    
    2472                            .dwpsn  file "../Application/api_mac.c",line 1672,column 9,is_stmt,isa 1
    2473 00000052 7030F89D          LDRB      V4, [SP, #48]         ; [DPU_3_PIPE] |1672|  ; [KEEP 32-BIT INS]
    2474 00000056 B107              CBZ       V4, ||$C$L8||         ; []  ; [ORIG 16-BIT INS]
    2475                            .dwpsn  file "../Application/api_mac.c",line 1674,column 13,is_stmt,isa 1
TI ARM Assembler PC v16.9.9 Sun Nov 25 16:40:50 2018

Tools Copyright (c) 1996-2017 Texas Instruments Incorporated
C:\Users\Stryd\AppData\Local\Temp\{9A419F3E-CE2D-47E3-ABE5-0EE6D6901F8C} PAGE   46

    2476 00000058 900D              STR       A1, [SP, #52]         ; [DPU_3_PIPE] |1674|  ; [ORIG 16-BIT INS]
    2477                    ;* --------------------------------------------------------------------------*
    2478 0000005a           ||$C$L8||:    
    2479                            .dwpsn  file "../Application/api_mac.c",line 1678,column 9,is_stmt,isa 1
    2480 0000005a 7C20              LDRB      A1, [V1, #16]         ; [DPU_3_PIPE] |1678|  ; [ORIG 16-BIT INS]
    2481 0000005c 0038F88D          STRB      A1, [SP, #56]         ; [DPU_3_PIPE] |1678|  ; [KEEP 32-BIT INS]
    2482                            .dwpsn  file "../Application/api_mac.c",line 1679,column 9,is_stmt,isa 1
    2483 00000060 6967              LDR       V4, [V1, #20]         ; [DPU_3_PIPE] |1679|  ; [ORIG 16-BIT INS]
    2484 00000062 970F              STR       V4, [SP, #60]         ; [DPU_3_PIPE] |1679|  ; [ORIG 16-BIT INS]
    2485                            .dwpsn  file "../Application/api_mac.c",line 1680,column 5,is_stmt,isa 1
    2486 00000064 E019              B         ||$C$L11||            ; [DPU_3_PIPE] |1680|  ; [ORIG 16-BIT INS]
    2487                            ; BRANCH OCCURS {||$C$L11||}     ; [] |1680| 
    2488                    ;* --------------------------------------------------------------------------*
    2489 00000066           ||$C$L9||:    
    2490                            .dwpsn  file "../Application/api_mac.c",line 1684,column 9,is_stmt,isa 1
    2491 00000066 6861              LDR       A2, [V1, #4]          ; [DPU_3_PIPE] |1684|  ; [ORIG 16-BIT INS]
    2492 00000068 B111              CBZ       A2, ||$C$L10||        ; []  ; [ORIG 16-BIT INS]
    2493                            ; BRANCHCC OCCURS {||$C$L10||}   ; [] |1684| 
    2494                    ;* --------------------------------------------------------------------------*
    2495                            .dwpsn  file "../Application/api_mac.c",line 1686,column 13,is_stmt,isa 1
    2496 0000006a A801              ADD       A1, SP, #4            ; [DPU_3_PIPE] |1686|  ; [ORIG 16-BIT INS]
    2497                    $C$DW$196       .dwtag  DW_TAG_TI_branch
    2498                            .dwattr $C$DW$196, DW_AT_low_pc(0x00)
    2499                            .dwattr $C$DW$196, DW_AT_name("copyMacPanDescToApiMacPanDesc")
    2500                            .dwattr $C$DW$196, DW_AT_TI_call
    2501                    
    2502 0000006c FFFEF7FF!         BL        copyMacPanDescToApiMacPanDesc ; [DPU_3_PIPE] |1686|  ; [KEEP 32-BIT INS]
    2503                            ; CALL OCCURS {copyMacPanDescToApiMacPanDesc }  ; [] |1686| 
    2504                    ;* --------------------------------------------------------------------------*
    2505 00000070           ||$C$L10||:    
    2506                            .dwpsn  file "../Application/api_mac.c",line 1693,column 9,is_stmt,isa 1
    2507 00000070 7A67              LDRB      V4, [V1, #9]          ; [DPU_3_PIPE] |1693|  ; [ORIG 16-BIT INS]
    2508 00000072 7029F88D          STRB      V4, [SP, #41]         ; [DPU_3_PIPE] |1693|  ; [KEEP 32-BIT INS]
    2509                            .dwpsn  file "../Application/api_mac.c",line 1695,column 9,is_stmt,isa 1
    2510 00000076 7AA3              LDRB      A4, [V1, #10]         ; [DPU_3_PIPE] |1695|  ; [ORIG 16-BIT INS]
    2511 00000078 302AF88D          STRB      A4, [SP, #42]         ; [DPU_3_PIPE] |1695|  ; [KEEP 32-BIT INS]
    2512                            .dwpsn  file "../Application/api_mac.c",line 1691,column 9,is_stmt,isa 1
    2513 0000007c 7A20              LDRB      A1, [V1, #8]          ; [DPU_3_PIPE] |1691|  ; [ORIG 16-BIT INS]
    2514 0000007e 0028F88D          STRB      A1, [SP, #40]         ; [DPU_3_PIPE] |1691|  ; [KEEP 32-BIT INS]
    2515                            .dwpsn  file "../Application/api_mac.c",line 1697,column 9,is_stmt,isa 1
    2516 00000082 7AE2              LDRB      A3, [V1, #11]         ; [DPU_3_PIPE] |1697|  ; [ORIG 16-BIT INS]
    2517 00000084 202BF88D          STRB      A3, [SP, #43]         ; [DPU_3_PIPE] |1697|  ; [KEEP 32-BIT INS]
    2518                            .dwpsn  file "../Application/api_mac.c",line 1699,column 9,is_stmt,isa 1
    2519 00000088 7B21              LDRB      A2, [V1, #12]         ; [DPU_3_PIPE] |1699|  ; [ORIG 16-BIT INS]
    2520 0000008a 102CF88D          STRB      A2, [SP, #44]         ; [DPU_3_PIPE] |1699|  ; [KEEP 32-BIT INS]
    2521                            .dwpsn  file "../Application/api_mac.c",line 1701,column 9,is_stmt,isa 1
    2522 0000008e 7B67              LDRB      V4, [V1, #13]         ; [DPU_3_PIPE] |1701|  ; [ORIG 16-BIT INS]
    2523 00000090 702DF88D          STRB      V4, [SP, #45]         ; [DPU_3_PIPE] |1701|  ; [KEEP 32-BIT INS]
    2524                            .dwpsn  file "../Application/api_mac.c",line 1703,column 9,is_stmt,isa 1
    2525 00000094 89E3              LDRH      A4, [V1, #14]         ; [DPU_3_PIPE] |1703|  ; [ORIG 16-BIT INS]
    2526 00000096 302EF8AD          STRH      A4, [SP, #46]         ; [DPU_3_PIPE] |1703|  ; [KEEP 32-BIT INS]
    2527                    ;* --------------------------------------------------------------------------*
    2528 0000009a           ||$C$L11||:    
    2529                            .dwpsn  file "../Application/api_mac.c",line 1712,column 5,is_stmt,isa 1
    2530 0000009a 4803              LDR       A1, $C$CON18          ; [DPU_3_PIPE] |1712|  ; [ORIG 16-BIT INS]
TI ARM Assembler PC v16.9.9 Sun Nov 25 16:40:50 2018

Tools Copyright (c) 1996-2017 Texas Instruments Incorporated
C:\Users\Stryd\AppData\Local\Temp\{9A419F3E-CE2D-47E3-ABE5-0EE6D6901F8C} PAGE   47

    2531 0000009c 6800              LDR       A1, [A1, #0]          ; [DPU_3_PIPE] |1712|  ; [ORIG 16-BIT INS]
    2532 0000009e 6901              LDR       A2, [A1, #16]         ; [DPU_3_PIPE] |1712|  ; [ORIG 16-BIT INS]
    2533 000000a0 4668              MOV       A1, SP                ; [DPU_3_PIPE] |1712|  ; [ORIG 16-BIT INS]
    2534                    $C$DW$197       .dwtag  DW_TAG_TI_branch
    2535                            .dwattr $C$DW$197, DW_AT_low_pc(0x00)
    2536                            .dwattr $C$DW$197, DW_AT_TI_call
    2537                            .dwattr $C$DW$197, DW_AT_TI_indirect
    2538                    
    2539 000000a2 4788              BLX       A2                    ; [DPU_3_PIPE] |1712|  ; [ORIG 16-BIT INS]
    2540                            ; CALL OCCURS {}                 ; [] |1712| 
    2541 000000a4 B011              ADD       SP, SP, #68           ; [DPU_3_PIPE]  ; [ORIG 16-BIT INS]
    2542                            .dwcfi  cfa_offset, 12
    2543                    $C$DW$198       .dwtag  DW_TAG_TI_branch
    2544                            .dwattr $C$DW$198, DW_AT_low_pc(0x00)
    2545                            .dwattr $C$DW$198, DW_AT_TI_return
    2546                    
    2547 000000a6 BD90              POP       {V1, V4, PC}          ; [DPU_3_PIPE]  ; [ORIG 16-BIT INS]
    2548                            .dwcfi  cfa_offset, 0
    2549                            .dwcfi  restore_reg, 7
    2550                            .dwcfi  restore_reg, 4
    2551                            ; BRANCH OCCURS                  ; [] 
    2552                            .dwattr $C$DW$189, DW_AT_TI_end_file("../Application/api_mac.c")
    2553                            .dwattr $C$DW$189, DW_AT_TI_end_line(0x6b1)
    2554                            .dwattr $C$DW$189, DW_AT_TI_end_column(0x01)
    2555                            .dwendentry
    2556                            .dwendtag $C$DW$189
    2557                    
    2558 00000000                   .sect   ".text:ApiMac_buildMsgCapInfo"
    2559                            .clink
    2560                            .thumbfunc ApiMac_buildMsgCapInfo
    2561 00000000                   .thumb
    2562                            .global ApiMac_buildMsgCapInfo
    2563                    
    2564                    $C$DW$199       .dwtag  DW_TAG_subprogram
    2565                            .dwattr $C$DW$199, DW_AT_name("ApiMac_buildMsgCapInfo")
    2566                            .dwattr $C$DW$199, DW_AT_low_pc(ApiMac_buildMsgCapInfo)
    2567                            .dwattr $C$DW$199, DW_AT_high_pc(0x00)
    2568                            .dwattr $C$DW$199, DW_AT_TI_symbol_name("ApiMac_buildMsgCapInfo")
    2569                            .dwattr $C$DW$199, DW_AT_external
    2570                            .dwattr $C$DW$199, DW_AT_TI_begin_file("../Application/api_mac.c")
    2571                            .dwattr $C$DW$199, DW_AT_TI_begin_line(0x43d)
    2572                            .dwattr $C$DW$199, DW_AT_TI_begin_column(0x06)
    2573                            .dwattr $C$DW$199, DW_AT_decl_file("../Application/api_mac.c")
    2574                            .dwattr $C$DW$199, DW_AT_decl_line(0x43d)
    2575                            .dwattr $C$DW$199, DW_AT_decl_column(0x06)
    2576                            .dwattr $C$DW$199, DW_AT_TI_max_frame_size(0x08)
    2577                            .dwpsn  file "../Application/api_mac.c",line 1086,column 1,is_stmt,address ApiMac_buildMsgCapI
    2578                    
    2579                            .dwfde $C$DW$CIE, ApiMac_buildMsgCapInfo
    2580                    $C$DW$200       .dwtag  DW_TAG_formal_parameter
    2581                            .dwattr $C$DW$200, DW_AT_name("cInfo")
    2582                            .dwattr $C$DW$200, DW_AT_TI_symbol_name("cInfo")
    2583                            .dwattr $C$DW$200, DW_AT_type(*$C$DW$T$10)
    2584                            .dwattr $C$DW$200, DW_AT_location[DW_OP_reg0]
    2585                    
TI ARM Assembler PC v16.9.9 Sun Nov 25 16:40:50 2018

Tools Copyright (c) 1996-2017 Texas Instruments Incorporated
C:\Users\Stryd\AppData\Local\Temp\{9A419F3E-CE2D-47E3-ABE5-0EE6D6901F8C} PAGE   48

    2586                    $C$DW$201       .dwtag  DW_TAG_formal_parameter
    2587                            .dwattr $C$DW$201, DW_AT_name("pPBcapInfo")
    2588                            .dwattr $C$DW$201, DW_AT_TI_symbol_name("pPBcapInfo")
    2589                            .dwattr $C$DW$201, DW_AT_type(*$C$DW$T$829)
    2590                            .dwattr $C$DW$201, DW_AT_location[DW_OP_reg1]
    2591                    
    2592                    
    2593                    ;*****************************************************************************
    2594                    ;* FUNCTION NAME: ApiMac_buildMsgCapInfo                                     *
    2595                    ;*                                                                           *
    2596                    ;*   Regs Modified     : A1,V4,SP,SR                                         *
    2597                    ;*   Regs Used         : A1,A2,V4,SP,LR,SR                                   *
    2598                    ;*   Local Frame Size  : 0 Args + 0 Auto + 8 Save = 8 byte                   *
    2599                    ;*****************************************************************************
    2600                    ApiMac_buildMsgCapInfo:
    2601                    ;* --------------------------------------------------------------------------*
    2602                    ;* V4    assigned to cInfo
    2603                    $C$DW$202       .dwtag  DW_TAG_variable
    2604                            .dwattr $C$DW$202, DW_AT_name("cInfo")
    2605                            .dwattr $C$DW$202, DW_AT_TI_symbol_name("cInfo")
    2606                            .dwattr $C$DW$202, DW_AT_type(*$C$DW$T$931)
    2607                            .dwattr $C$DW$202, DW_AT_location[DW_OP_reg7]
    2608                    
    2609                    ;* A2    assigned to pPBcapInfo
    2610                    $C$DW$203       .dwtag  DW_TAG_variable
    2611                            .dwattr $C$DW$203, DW_AT_name("pPBcapInfo")
    2612                            .dwattr $C$DW$203, DW_AT_TI_symbol_name("pPBcapInfo")
    2613                            .dwattr $C$DW$203, DW_AT_type(*$C$DW$T$987)
    2614                            .dwattr $C$DW$203, DW_AT_location[DW_OP_reg1]
    2615                    
    2616                            .dwcfi  cfa_offset, 0
    2617 00000000 B580              PUSH      {V4, LR}              ; [DPU_3_PIPE]  ; [ORIG 16-BIT INS]
    2618                            .dwcfi  cfa_offset, 8
    2619                            .dwcfi  save_reg_to_mem, 14, -4
    2620                            .dwcfi  save_reg_to_mem, 7, -8
    2621 00000002 4607              MOV       V4, A1                ; [DPU_3_PIPE] |1086|  ; [ORIG 16-BIT INS]
    2622                            .dwpsn  file "../Application/api_mac.c",line 1087,column 5,is_stmt,isa 1
    2623 00000004 0878              LSRS      A1, V4, #1            ; [DPU_3_PIPE] |1087|  ; [ORIG 16-BIT INS]
    2624 00000006 BF24              ITT       CS                    ; [DPU_3_PIPE]  ; [ORIG 16-BIT INS]
    2625                            .dwpsn  file "../Application/api_mac.c",line 1089,column 9,is_stmt,isa 1
    2626 00000008 2001              MOVCS     A1, #1                ; [DPU_3_PIPE] |1089|  ; [ORIG 16-BIT INS]
    2627 0000000a 7008              STRBCS    A1, [A2, #0]          ; [DPU_3_PIPE] |1089|  ; [ORIG 16-BIT INS]
    2628                            .dwpsn  file "../Application/api_mac.c",line 1092,column 5,is_stmt,isa 1
    2629 0000000c 08B8              LSRS      A1, V4, #2            ; [DPU_3_PIPE] |1092|  ; [ORIG 16-BIT INS]
    2630 0000000e BF24              ITT       CS                    ; [DPU_3_PIPE]  ; [ORIG 16-BIT INS]
    2631                            .dwpsn  file "../Application/api_mac.c",line 1094,column 9,is_stmt,isa 1
    2632 00000010 2001              MOVCS     A1, #1                ; [DPU_3_PIPE] |1094|  ; [ORIG 16-BIT INS]
    2633 00000012 7048              STRBCS    A1, [A2, #1]          ; [DPU_3_PIPE] |1094|  ; [ORIG 16-BIT INS]
    2634                            .dwpsn  file "../Application/api_mac.c",line 1097,column 5,is_stmt,isa 1
    2635 00000014 08F8              LSRS      A1, V4, #3            ; [DPU_3_PIPE] |1097|  ; [ORIG 16-BIT INS]
    2636 00000016 BF24              ITT       CS                    ; [DPU_3_PIPE]  ; [ORIG 16-BIT INS]
    2637                            .dwpsn  file "../Application/api_mac.c",line 1099,column 9,is_stmt,isa 1
    2638 00000018 2001              MOVCS     A1, #1                ; [DPU_3_PIPE] |1099|  ; [ORIG 16-BIT INS]
    2639 0000001a 7088              STRBCS    A1, [A2, #2]          ; [DPU_3_PIPE] |1099|  ; [ORIG 16-BIT INS]
    2640                            .dwpsn  file "../Application/api_mac.c",line 1102,column 5,is_stmt,isa 1
TI ARM Assembler PC v16.9.9 Sun Nov 25 16:40:50 2018

Tools Copyright (c) 1996-2017 Texas Instruments Incorporated
C:\Users\Stryd\AppData\Local\Temp\{9A419F3E-CE2D-47E3-ABE5-0EE6D6901F8C} PAGE   49

    2641 0000001c 0938              LSRS      A1, V4, #4            ; [DPU_3_PIPE] |1102|  ; [ORIG 16-BIT INS]
    2642 0000001e BF24              ITT       CS                    ; [DPU_3_PIPE]  ; [ORIG 16-BIT INS]
    2643                            .dwpsn  file "../Application/api_mac.c",line 1104,column 9,is_stmt,isa 1
    2644 00000020 2001              MOVCS     A1, #1                ; [DPU_3_PIPE] |1104|  ; [ORIG 16-BIT INS]
    2645 00000022 70C8              STRBCS    A1, [A2, #3]          ; [DPU_3_PIPE] |1104|  ; [ORIG 16-BIT INS]
    2646                            .dwpsn  file "../Application/api_mac.c",line 1107,column 5,is_stmt,isa 1
    2647 00000024 09F8              LSRS      A1, V4, #7            ; [DPU_3_PIPE] |1107|  ; [ORIG 16-BIT INS]
    2648 00000026 BF24              ITT       CS                    ; [DPU_3_PIPE]  ; [ORIG 16-BIT INS]
    2649                            .dwpsn  file "../Application/api_mac.c",line 1109,column 9,is_stmt,isa 1
    2650 00000028 2001              MOVCS     A1, #1                ; [DPU_3_PIPE] |1109|  ; [ORIG 16-BIT INS]
    2651 0000002a 7108              STRBCS    A1, [A2, #4]          ; [DPU_3_PIPE] |1109|  ; [ORIG 16-BIT INS]
    2652                            .dwpsn  file "../Application/api_mac.c",line 1112,column 5,is_stmt,isa 1
    2653 0000002c 077FF037          BICS      V4, V4, #127          ; [DPU_3_PIPE] |1112|  ; [KEEP 32-BIT INS]
    2654 00000030 BF1C              ITT       NE                    ; [DPU_3_PIPE]  ; [ORIG 16-BIT INS]
    2655                            .dwpsn  file "../Application/api_mac.c",line 1114,column 9,is_stmt,isa 1
    2656 00000032 2001              MOVNE     A1, #1                ; [DPU_3_PIPE] |1114|  ; [ORIG 16-BIT INS]
    2657 00000034 7148              STRBNE    A1, [A2, #5]          ; [DPU_3_PIPE] |1114|  ; [ORIG 16-BIT INS]
    2658                    $C$DW$204       .dwtag  DW_TAG_TI_branch
    2659                            .dwattr $C$DW$204, DW_AT_low_pc(0x00)
    2660                            .dwattr $C$DW$204, DW_AT_TI_return
    2661                    
    2662 00000036 BD80              POP       {V4, PC}              ; [DPU_3_PIPE]  ; [ORIG 16-BIT INS]
    2663                            .dwcfi  cfa_offset, 0
    2664                            .dwcfi  restore_reg, 7
    2665                            ; BRANCH OCCURS                  ; [] 
    2666                            .dwattr $C$DW$199, DW_AT_TI_end_file("../Application/api_mac.c")
    2667                            .dwattr $C$DW$199, DW_AT_TI_end_line(0x45c)
    2668                            .dwattr $C$DW$199, DW_AT_TI_end_column(0x01)
    2669                            .dwendentry
    2670                            .dwendtag $C$DW$199
    2671                    
    2672 00000000                   .sect   ".text:processIncomingICallMsg"
    2673                            .clink
    2674                            .thumbfunc processIncomingICallMsg
    2675 00000000                   .thumb
    2676                    
    2677                    $C$DW$205       .dwtag  DW_TAG_subprogram
    2678                            .dwattr $C$DW$205, DW_AT_name("processIncomingICallMsg")
    2679                            .dwattr $C$DW$205, DW_AT_low_pc(processIncomingICallMsg)
    2680                            .dwattr $C$DW$205, DW_AT_high_pc(0x00)
    2681                            .dwattr $C$DW$205, DW_AT_TI_symbol_name("processIncomingICallMsg")
    2682                            .dwattr $C$DW$205, DW_AT_type(*$C$DW$T$108)
    2683                            .dwattr $C$DW$205, DW_AT_TI_begin_file("../Application/api_mac.c")
    2684                            .dwattr $C$DW$205, DW_AT_TI_begin_line(0x4ce)
    2685                            .dwattr $C$DW$205, DW_AT_TI_begin_column(0x11)
    2686                            .dwattr $C$DW$205, DW_AT_decl_file("../Application/api_mac.c")
    2687                            .dwattr $C$DW$205, DW_AT_decl_line(0x4ce)
    2688                            .dwattr $C$DW$205, DW_AT_decl_column(0x11)
    2689                            .dwattr $C$DW$205, DW_AT_TI_max_frame_size(0x58)
    2690                            .dwpsn  file "../Application/api_mac.c",line 1231,column 1,is_stmt,address processIncomingICal
    2691                    
    2692                            .dwfde $C$DW$CIE, processIncomingICallMsg
    2693                    $C$DW$206       .dwtag  DW_TAG_formal_parameter
    2694                            .dwattr $C$DW$206, DW_AT_name("pMsg")
    2695                            .dwattr $C$DW$206, DW_AT_TI_symbol_name("pMsg")
TI ARM Assembler PC v16.9.9 Sun Nov 25 16:40:50 2018

Tools Copyright (c) 1996-2017 Texas Instruments Incorporated
C:\Users\Stryd\AppData\Local\Temp\{9A419F3E-CE2D-47E3-ABE5-0EE6D6901F8C} PAGE   50

    2696                            .dwattr $C$DW$206, DW_AT_type(*$C$DW$T$788)
    2697                            .dwattr $C$DW$206, DW_AT_location[DW_OP_reg0]
    2698                    
    2699                    
    2700                    ;*****************************************************************************
    2701                    ;* FUNCTION NAME: processIncomingICallMsg                                    *
    2702                    ;*                                                                           *
    2703                    ;*   Regs Modified     : A1,A2,A3,A4,V1,V2,V4,V9,SP,LR,SR                    *
    2704                    ;*   Regs Used         : A1,A2,A3,A4,V1,V2,V4,V9,SP,LR,SR                    *
    2705                    ;*   Local Frame Size  : 0 Args + 68 Auto + 16 Save = 84 byte                *
    2706                    ;*****************************************************************************
    2707                    processIncomingICallMsg:
    2708                    ;* --------------------------------------------------------------------------*
    2709                    ;* A1    assigned to $O$C1
    2710                    ;* A1    assigned to $O$C2
    2711                    ;* A1    assigned to $O$C3
    2712                    ;* V4    assigned to $O$v1
    2713                    ;* V1    assigned to pMsg
    2714                    $C$DW$207       .dwtag  DW_TAG_variable
    2715                            .dwattr $C$DW$207, DW_AT_name("pMsg")
    2716                            .dwattr $C$DW$207, DW_AT_TI_symbol_name("pMsg")
    2717                            .dwattr $C$DW$207, DW_AT_type(*$C$DW$T$789)
    2718                            .dwattr $C$DW$207, DW_AT_location[DW_OP_reg4]
    2719                    
    2720                    ;* A2    assigned to pData
    2721                    $C$DW$208       .dwtag  DW_TAG_variable
    2722                            .dwattr $C$DW$208, DW_AT_name("pData")
    2723                            .dwattr $C$DW$208, DW_AT_TI_symbol_name("pData")
    2724                            .dwattr $C$DW$208, DW_AT_type(*$C$DW$T$732)
    2725                            .dwattr $C$DW$208, DW_AT_location[DW_OP_reg1]
    2726                    
    2727                            .dwcfi  cfa_offset, 0
    2728 00000000 B5B0              PUSH      {V1, V2, V4, LR}      ; [DPU_3_PIPE]  ; [ORIG 16-BIT INS]
    2729                            .dwcfi  cfa_offset, 16
    2730                            .dwcfi  save_reg_to_mem, 14, -4
    2731                            .dwcfi  save_reg_to_mem, 7, -8
    2732                            .dwcfi  save_reg_to_mem, 5, -12
    2733                            .dwcfi  save_reg_to_mem, 4, -16
    2734 00000002 4604              MOV       V1, A1                ; [DPU_3_PIPE] |1231|  ; [ORIG 16-BIT INS]
    2735                            .dwpsn  file "../Application/api_mac.c",line 1240,column 9,is_stmt,isa 1
    2736 00000004 48C6              LDR       A1, $C$CON20          ; [DPU_3_PIPE] |1240|  ; [ORIG 16-BIT INS]
    2737 00000006 6807              LDR       V4, [A1, #0]          ; [DPU_3_PIPE] |1240|  ; [ORIG 16-BIT INS]
    2738 00000008 0D48F1AD          SUB       SP, SP, #72           ; [DPU_3_PIPE]  ; [KEEP 32-BIT INS]
    2739                            .dwcfi  cfa_offset, 88
    2740 0000000c 2F00              CMP       V4, #0                ; [DPU_3_PIPE] |1240|  ; [ORIG 16-BIT INS]
    2741 0000000e AFFEF43F!         BEQ       ||$C$L36||            ; [DPU_3_PIPE] |1240|  ; [KEEP 32-BIT INS]
    2742                            ; BRANCHCC OCCURS {||$C$L36||}   ; [] |1240| 
    2743                    ;* --------------------------------------------------------------------------*
    2744 00000012 7820              LDRB      A1, [V1, #0]          ; [DPU_3_PIPE] |1240|  ; [ORIG 16-BIT INS]
    2745 00000014 1E40              SUBS      A1, A1, #1            ; [DPU_3_PIPE] |1240|  ; [ORIG 16-BIT INS]
    2746 00000016 2811              CMP       A1, #17               ; [DPU_3_PIPE] |1240|  ; [ORIG 16-BIT INS]
    2747 00000018 AFFEF63F!         BHI       ||$C$L36||            ; [DPU_3_PIPE] |1240|  ; [KEEP 32-BIT INS]
    2748                            ; BRANCHCC OCCURS {||$C$L36||}   ; [] |1240| 
    2749                    ;* --------------------------------------------------------------------------*
    2750 0000001c F010E8DF          TBH       [PC, A1, LSL #1]      ; [] |1240|  ; [KEEP 32-BIT INS]
TI ARM Assembler PC v16.9.9 Sun Nov 25 16:40:50 2018

Tools Copyright (c) 1996-2017 Texas Instruments Incorporated
C:\Users\Stryd\AppData\Local\Temp\{9A419F3E-CE2D-47E3-ABE5-0EE6D6901F8C} PAGE   51

    2751                            ; BRANCH OCCURS                  ; [] |1240| 
    2752 00000020           ||$C$C437||:
    2753 00000020 0163      ||$C$SW1||:     .half   (||$C$L33||-||$C$C437||)/2      ; 1
    2754 00000022 014F              .half   (||$C$L32||-||$C$C437||)/2      ; 2
    2755 00000024 0135              .half   (||$C$L31||-||$C$C437||)/2      ; 3
    2756 00000026 0120              .half   (||$C$L30||-||$C$C437||)/2      ; 4
    2757 00000028 0119              .half   (||$C$L29||-||$C$C437||)/2      ; 5
    2758 0000002a 0103              .half   (||$C$L28||-||$C$C437||)/2      ; 6
    2759 0000002c 00F1              .half   (||$C$L24||-||$C$C437||)/2      ; 7
    2760 0000002e 00E3              .half   (||$C$L23||-||$C$C437||)/2      ; 8
    2761 00000030 00C3              .half   (||$C$L22||-||$C$C437||)/2      ; 9
    2762 00000032 00B2              .half   (||$C$L21||-||$C$C437||)/2      ; 10
    2763 00000034 008D              .half   (||$C$L20||-||$C$C437||)/2      ; 11
    2764 00000036 005D              .half   (||$C$L18||-||$C$C437||)/2      ; 12
    2765 00000038 0053              .half   (||$C$L17||-||$C$C437||)/2      ; 13
    2766 0000003a 0042              .half   (||$C$L16||-||$C$C437||)/2      ; 14
    2767 0000003c 017E              .half   (||$C$L36||-||$C$C437||)/2      ; 0
    2768 0000003e 002A              .half   (||$C$L14||-||$C$C437||)/2      ; 16
    2769 00000040 001C              .half   (||$C$L13||-||$C$C437||)/2      ; 17
    2770 00000042 0012              .half   (||$C$L12||-||$C$C437||)/2      ; 18
    2771                            .align  2
    2772                    ;* --------------------------------------------------------------------------*
    2773 00000044           ||$C$L12||:    
    2774                            .dwpsn  file "../Application/api_mac.c",line 1552,column 17,is_stmt,isa 1
    2775 00000044 6BF8              LDR       A1, [V4, #60]         ; [DPU_3_PIPE] |1552|  ; [ORIG 16-BIT INS]
    2776 00000046 2800              CMP       A1, #0                ; [DPU_3_PIPE] |1552|  ; [ORIG 16-BIT INS]
    2777 00000048 AFFEF43F!         BEQ       ||$C$L36||            ; [DPU_3_PIPE] |1552|  ; [KEEP 32-BIT INS]
    2778                            ; BRANCHCC OCCURS {||$C$L36||}   ; [] |1552| 
    2779                    ;* --------------------------------------------------------------------------*
    2780                            .dwpsn  file "../Application/api_mac.c",line 1558,column 21,is_stmt,isa 1
    2781 0000004c 4668              MOV       A1, SP                ; [DPU_3_PIPE] |1558|  ; [ORIG 16-BIT INS]
    2782 0000004e 4621              MOV       A2, V1                ; [DPU_3_PIPE] |1558|  ; [ORIG 16-BIT INS]
    2783                    $C$DW$209       .dwtag  DW_TAG_TI_branch
    2784                            .dwattr $C$DW$209, DW_AT_low_pc(0x00)
    2785                            .dwattr $C$DW$209, DW_AT_name("copyDataInd")
    2786                            .dwattr $C$DW$209, DW_AT_TI_call
    2787                    
    2788 00000050 FFFEF7FF!         BL        copyDataInd           ; [DPU_3_PIPE] |1558|  ; [KEEP 32-BIT INS]
    2789                            ; CALL OCCURS {copyDataInd }     ; [] |1558| 
    2790                            .dwpsn  file "../Application/api_mac.c",line 1562,column 21,is_stmt,isa 1
    2791 00000054 6BF9              LDR       A2, [V4, #60]         ; [DPU_3_PIPE] |1562|  ; [ORIG 16-BIT INS]
    2792 00000056 E15F              B         ||$C$L34||            ; [DPU_3_PIPE] |1562|  ; [ORIG 16-BIT INS]
    2793                            ; BRANCH OCCURS {||$C$L34||}     ; [] |1562| 
    2794                    ;* --------------------------------------------------------------------------*
    2795 00000058           ||$C$L13||:    
    2796                            .dwpsn  file "../Application/api_mac.c",line 1567,column 17,is_stmt,isa 1
    2797 00000058 6C38              LDR       A1, [V4, #64]         ; [DPU_3_PIPE] |1567|  ; [ORIG 16-BIT INS]
    2798 0000005a 2800              CMP       A1, #0                ; [DPU_3_PIPE] |1567|  ; [ORIG 16-BIT INS]
    2799 0000005c AFFEF43F!         BEQ       ||$C$L36||            ; [DPU_3_PIPE] |1567|  ; [KEEP 32-BIT INS]
    2800                            ; BRANCHCC OCCURS {||$C$L36||}   ; [] |1567| 
    2801                    ;* --------------------------------------------------------------------------*
    2802                            .dwpsn  file "../Application/api_mac.c",line 1573,column 21,is_stmt,isa 1
    2803 00000060 4668              MOV       A1, SP                ; [DPU_3_PIPE] |1573|  ; [ORIG 16-BIT INS]
    2804 00000062 2100              MOVS      A2, #0                ; [DPU_3_PIPE] |1573|  ; [ORIG 16-BIT INS]
    2805 00000064 2201              MOVS      A3, #1                ; [DPU_3_PIPE] |1573|  ; [ORIG 16-BIT INS]
TI ARM Assembler PC v16.9.9 Sun Nov 25 16:40:50 2018

Tools Copyright (c) 1996-2017 Texas Instruments Incorporated
C:\Users\Stryd\AppData\Local\Temp\{9A419F3E-CE2D-47E3-ABE5-0EE6D6901F8C} PAGE   52

    2806                    $C$DW$210       .dwtag  DW_TAG_TI_branch
    2807                            .dwattr $C$DW$210, DW_AT_low_pc(0x00)
    2808                            .dwattr $C$DW$210, DW_AT_name("memset")
    2809                            .dwattr $C$DW$210, DW_AT_TI_call
    2810                    
    2811 00000066 FFFEF7FF!         BL        memset                ; [DPU_3_PIPE] |1573|  ; [KEEP 32-BIT INS]
    2812                            ; CALL OCCURS {memset }          ; [] |1573| 
    2813                            .dwpsn  file "../Application/api_mac.c",line 1576,column 21,is_stmt,isa 1
    2814 0000006a 7860              LDRB      A1, [V1, #1]          ; [DPU_3_PIPE] |1576|  ; [ORIG 16-BIT INS]
    2815 0000006c 0000F88D          STRB      A1, [SP, #0]          ; [DPU_3_PIPE] |1576|  ; [KEEP 32-BIT INS]
    2816                            .dwpsn  file "../Application/api_mac.c",line 1579,column 21,is_stmt,isa 1
    2817 00000070 6C39              LDR       A2, [V4, #64]         ; [DPU_3_PIPE] |1579|  ; [ORIG 16-BIT INS]
    2818 00000072 E151              B         ||$C$L34||            ; [DPU_3_PIPE] |1579|  ; [ORIG 16-BIT INS]
    2819                            ; BRANCH OCCURS {||$C$L34||}     ; [] |1579| 
    2820                    ;* --------------------------------------------------------------------------*
    2821 00000074           ||$C$L14||:    
    2822                            .dwpsn  file "../Application/api_mac.c",line 1443,column 17,is_stmt,isa 1
    2823 00000074 6AF8              LDR       A1, [V4, #44]         ; [DPU_3_PIPE] |1443|  ; [ORIG 16-BIT INS]
    2824 00000076 2800              CMP       A1, #0                ; [DPU_3_PIPE] |1443|  ; [ORIG 16-BIT INS]
    2825 00000078 AFFEF43F!         BEQ       ||$C$L36||            ; [DPU_3_PIPE] |1443|  ; [KEEP 32-BIT INS]
    2826                            ; BRANCHCC OCCURS {||$C$L36||}   ; [] |1443| 
    2827                    ;* --------------------------------------------------------------------------*
    2828                            .dwpsn  file "../Application/api_mac.c",line 1449,column 21,is_stmt,isa 1
    2829 0000007c 4668              MOV       A1, SP                ; [DPU_3_PIPE] |1449|  ; [ORIG 16-BIT INS]
    2830 0000007e 2100              MOVS      A2, #0                ; [DPU_3_PIPE] |1449|  ; [ORIG 16-BIT INS]
    2831 00000080 220E              MOVS      A3, #14               ; [DPU_3_PIPE] |1449|  ; [ORIG 16-BIT INS]
    2832                    $C$DW$211       .dwtag  DW_TAG_TI_branch
    2833                            .dwattr $C$DW$211, DW_AT_low_pc(0x00)
    2834                            .dwattr $C$DW$211, DW_AT_name("memset")
    2835                            .dwattr $C$DW$211, DW_AT_TI_call
    2836                    
    2837 00000082 FFFEF7FF!         BL        memset                ; [DPU_3_PIPE] |1449|  ; [KEEP 32-BIT INS]
    2838                            ; CALL OCCURS {memset }          ; [] |1449| 
    2839                            .dwpsn  file "../Application/api_mac.c",line 1452,column 21,is_stmt,isa 1
    2840 00000086 1CA1              ADDS      A2, V1, #2            ; [DPU_3_PIPE] |1452|  ; [ORIG 16-BIT INS]
    2841 00000088 4668              MOV       A1, SP                ; [DPU_3_PIPE] |1452|  ; [ORIG 16-BIT INS]
    2842                    $C$DW$212       .dwtag  DW_TAG_TI_branch
    2843                            .dwattr $C$DW$212, DW_AT_low_pc(0x00)
    2844                            .dwattr $C$DW$212, DW_AT_name("copyMacAddrToApiMacAddr")
    2845                            .dwattr $C$DW$212, DW_AT_TI_call
    2846                    
    2847 0000008a FFFEF7FF!         BL        copyMacAddrToApiMacAddr ; [DPU_3_PIPE] |1452|  ; [KEEP 32-BIT INS]
    2848                            ; CALL OCCURS {copyMacAddrToApiMacAddr }  ; [] |1452| 
    2849                            .dwpsn  file "../Application/api_mac.c",line 1455,column 21,is_stmt,isa 1
    2850 0000008e 7BA5              LDRB      V2, [V1, #14]         ; [DPU_3_PIPE] |1455|  ; [ORIG 16-BIT INS]
    2851                            .dwpsn  file "../Application/api_mac.c",line 1454,column 21,is_stmt,isa 1
    2852 00000090 89A1              LDRH      A2, [V1, #12]         ; [DPU_3_PIPE] |1454|  ; [ORIG 16-BIT INS]
    2853                            .dwpsn  file "../Application/api_mac.c",line 1455,column 21,is_stmt,isa 1
    2854 00000092 2200              MOVS      A3, #0                ; [DPU_3_PIPE] |1455|  ; [ORIG 16-BIT INS]
    2855                            .dwpsn  file "../Application/api_mac.c",line 1454,column 21,is_stmt,isa 1
    2856 00000094 100AF8AD          STRH      A2, [SP, #10]         ; [DPU_3_PIPE] |1454|  ; [KEEP 32-BIT INS]
    2857 00000098 B105              CBZ       V2, ||$C$L15||        ; []  ; [ORIG 16-BIT INS]
    2858                            .dwpsn  file "../Application/api_mac.c",line 1455,column 21,is_stmt,isa 1
    2859 0000009a 2201              MOVS      A3, #1                ; [DPU_3_PIPE] |1455|  ; [ORIG 16-BIT INS]
    2860                    ;* --------------------------------------------------------------------------*
TI ARM Assembler PC v16.9.9 Sun Nov 25 16:40:50 2018

Tools Copyright (c) 1996-2017 Texas Instruments Incorporated
C:\Users\Stryd\AppData\Local\Temp\{9A419F3E-CE2D-47E3-ABE5-0EE6D6901F8C} PAGE   53

    2861 0000009c           ||$C$L15||:    
    2862 0000009c 200CF88D          STRB      A3, [SP, #12]         ; [DPU_3_PIPE] |1455|  ; [KEEP 32-BIT INS]
    2863                            .dwpsn  file "../Application/api_mac.c",line 1458,column 21,is_stmt,isa 1
    2864 000000a0 6AF9              LDR       A2, [V4, #44]         ; [DPU_3_PIPE] |1458|  ; [ORIG 16-BIT INS]
    2865 000000a2 E13A              B         ||$C$L35||            ; [DPU_3_PIPE] |1458|  ; [ORIG 16-BIT INS]
    2866                            ; BRANCH OCCURS {||$C$L35||}     ; [] |1458| 
    2867                    ;* --------------------------------------------------------------------------*
    2868 000000a4           ||$C$L16||:    
    2869                            .dwpsn  file "../Application/api_mac.c",line 1534,column 17,is_stmt,isa 1
    2870 000000a4 6BB8              LDR       A1, [V4, #56]         ; [DPU_3_PIPE] |1534|  ; [ORIG 16-BIT INS]
    2871 000000a6 2800              CMP       A1, #0                ; [DPU_3_PIPE] |1534|  ; [ORIG 16-BIT INS]
    2872 000000a8 AFFEF43F!         BEQ       ||$C$L36||            ; [DPU_3_PIPE] |1534|  ; [KEEP 32-BIT INS]
    2873                            ; BRANCHCC OCCURS {||$C$L36||}   ; [] |1534| 
    2874                    ;* --------------------------------------------------------------------------*
    2875                            .dwpsn  file "../Application/api_mac.c",line 1540,column 21,is_stmt,isa 1
    2876 000000ac 4668              MOV       A1, SP                ; [DPU_3_PIPE] |1540|  ; [ORIG 16-BIT INS]
    2877 000000ae 2100              MOVS      A2, #0                ; [DPU_3_PIPE] |1540|  ; [ORIG 16-BIT INS]
    2878 000000b0 2202              MOVS      A3, #2                ; [DPU_3_PIPE] |1540|  ; [ORIG 16-BIT INS]
    2879                    $C$DW$213       .dwtag  DW_TAG_TI_branch
    2880                            .dwattr $C$DW$213, DW_AT_low_pc(0x00)
    2881                            .dwattr $C$DW$213, DW_AT_name("memset")
    2882                            .dwattr $C$DW$213, DW_AT_TI_call
    2883                    
    2884 000000b2 FFFEF7FF!         BL        memset                ; [DPU_3_PIPE] |1540|  ; [KEEP 32-BIT INS]
    2885                            ; CALL OCCURS {memset }          ; [] |1540| 
    2886                            .dwpsn  file "../Application/api_mac.c",line 1544,column 21,is_stmt,isa 1
    2887 000000b6 78A5              LDRB      V2, [V1, #2]          ; [DPU_3_PIPE] |1544|  ; [ORIG 16-BIT INS]
    2888 000000b8 5001F88D          STRB      V2, [SP, #1]          ; [DPU_3_PIPE] |1544|  ; [KEEP 32-BIT INS]
    2889                            .dwpsn  file "../Application/api_mac.c",line 1543,column 21,is_stmt,isa 1
    2890 000000bc 7860              LDRB      A1, [V1, #1]          ; [DPU_3_PIPE] |1543|  ; [ORIG 16-BIT INS]
    2891 000000be 0000F88D          STRB      A1, [SP, #0]          ; [DPU_3_PIPE] |1543|  ; [KEEP 32-BIT INS]
    2892                            .dwpsn  file "../Application/api_mac.c",line 1547,column 21,is_stmt,isa 1
    2893 000000c2 6BB9              LDR       A2, [V4, #56]         ; [DPU_3_PIPE] |1547|  ; [ORIG 16-BIT INS]
    2894 000000c4 E128              B         ||$C$L34||            ; [DPU_3_PIPE] |1547|  ; [ORIG 16-BIT INS]
    2895                            ; BRANCH OCCURS {||$C$L34||}     ; [] |1547| 
    2896                    ;* --------------------------------------------------------------------------*
    2897 000000c6           ||$C$L17||:    
    2898                            .dwpsn  file "../Application/api_mac.c",line 1520,column 17,is_stmt,isa 1
    2899 000000c6 6B78              LDR       A1, [V4, #52]         ; [DPU_3_PIPE] |1520|  ; [ORIG 16-BIT INS]
    2900 000000c8 2800              CMP       A1, #0                ; [DPU_3_PIPE] |1520|  ; [ORIG 16-BIT INS]
    2901 000000ca AFFEF43F!         BEQ       ||$C$L36||            ; [DPU_3_PIPE] |1520|  ; [KEEP 32-BIT INS]
    2902                            ; BRANCHCC OCCURS {||$C$L36||}   ; [] |1520| 
    2903                    ;* --------------------------------------------------------------------------*
    2904                            .dwpsn  file "../Application/api_mac.c",line 1526,column 21,is_stmt,isa 1
    2905 000000ce 4668              MOV       A1, SP                ; [DPU_3_PIPE] |1526|  ; [ORIG 16-BIT INS]
    2906 000000d0 4621              MOV       A2, V1                ; [DPU_3_PIPE] |1526|  ; [ORIG 16-BIT INS]
    2907                    $C$DW$214       .dwtag  DW_TAG_TI_branch
    2908                            .dwattr $C$DW$214, DW_AT_low_pc(0x00)
    2909                            .dwattr $C$DW$214, DW_AT_name("copyDataInd")
    2910                            .dwattr $C$DW$214, DW_AT_TI_call
    2911                    
    2912 000000d2 FFFEF7FF!         BL        copyDataInd           ; [DPU_3_PIPE] |1526|  ; [KEEP 32-BIT INS]
    2913                            ; CALL OCCURS {copyDataInd }     ; [] |1526| 
    2914                            .dwpsn  file "../Application/api_mac.c",line 1529,column 21,is_stmt,isa 1
    2915 000000d6 6B79              LDR       A2, [V4, #52]         ; [DPU_3_PIPE] |1529|  ; [ORIG 16-BIT INS]
TI ARM Assembler PC v16.9.9 Sun Nov 25 16:40:50 2018

Tools Copyright (c) 1996-2017 Texas Instruments Incorporated
C:\Users\Stryd\AppData\Local\Temp\{9A419F3E-CE2D-47E3-ABE5-0EE6D6901F8C} PAGE   54

    2916 000000d8 E11E              B         ||$C$L34||            ; [DPU_3_PIPE] |1529|  ; [ORIG 16-BIT INS]
    2917                            ; BRANCH OCCURS {||$C$L34||}     ; [] |1529| 
    2918                    ;* --------------------------------------------------------------------------*
    2919 000000da           ||$C$L18||:    
    2920                            .dwpsn  file "../Application/api_mac.c",line 1489,column 17,is_stmt,isa 1
    2921 000000da 6B38              LDR       A1, [V4, #48]         ; [DPU_3_PIPE] |1489|  ; [ORIG 16-BIT INS]
    2922 000000dc B308              CBZ       A1, ||$C$L19||        ; []  ; [ORIG 16-BIT INS]
    2923                            ; BRANCHCC OCCURS {||$C$L19||}   ; [] |1489| 
    2924                    ;* --------------------------------------------------------------------------*
    2925                            .dwpsn  file "../Application/api_mac.c",line 1495,column 21,is_stmt,isa 1
    2926 000000de 4668              MOV       A1, SP                ; [DPU_3_PIPE] |1495|  ; [ORIG 16-BIT INS]
    2927 000000e0 2100              MOVS      A2, #0                ; [DPU_3_PIPE] |1495|  ; [ORIG 16-BIT INS]
    2928 000000e2 2214              MOVS      A3, #20               ; [DPU_3_PIPE] |1495|  ; [ORIG 16-BIT INS]
    2929                    $C$DW$215       .dwtag  DW_TAG_TI_branch
    2930                            .dwattr $C$DW$215, DW_AT_low_pc(0x00)
    2931                            .dwattr $C$DW$215, DW_AT_name("memset")
    2932                            .dwattr $C$DW$215, DW_AT_TI_call
    2933                    
    2934 000000e4 FFFEF7FF!         BL        memset                ; [DPU_3_PIPE] |1495|  ; [KEEP 32-BIT INS]
    2935                            ; CALL OCCURS {memset }          ; [] |1495| 
    2936                            .dwpsn  file "../Application/api_mac.c",line 1499,column 21,is_stmt,isa 1
    2937 000000e8 78A5              LDRB      V2, [V1, #2]          ; [DPU_3_PIPE] |1499|  ; [ORIG 16-BIT INS]
    2938 000000ea 5001F88D          STRB      V2, [SP, #1]          ; [DPU_3_PIPE] |1499|  ; [KEEP 32-BIT INS]
    2939                            .dwpsn  file "../Application/api_mac.c",line 1500,column 21,is_stmt,isa 1
    2940 000000ee 68A3              LDR       A4, [V1, #8]          ; [DPU_3_PIPE] |1500|  ; [ORIG 16-BIT INS]
    2941 000000f0 9301              STR       A4, [SP, #4]          ; [DPU_3_PIPE] |1500|  ; [ORIG 16-BIT INS]
    2942                            .dwpsn  file "../Application/api_mac.c",line 1501,column 21,is_stmt,isa 1
    2943 000000f2 89A2              LDRH      A3, [V1, #12]         ; [DPU_3_PIPE] |1501|  ; [ORIG 16-BIT INS]
    2944 000000f4 2008F8AD          STRH      A3, [SP, #8]          ; [DPU_3_PIPE] |1501|  ; [KEEP 32-BIT INS]
    2945                            .dwpsn  file "../Application/api_mac.c",line 1502,column 21,is_stmt,isa 1
    2946 000000f8 7BA1              LDRB      A2, [V1, #14]         ; [DPU_3_PIPE] |1502|  ; [ORIG 16-BIT INS]
    2947 000000fa 100AF88D          STRB      A2, [SP, #10]         ; [DPU_3_PIPE] |1502|  ; [KEEP 32-BIT INS]
    2948                            .dwpsn  file "../Application/api_mac.c",line 1498,column 21,is_stmt,isa 1
    2949 000000fe 7860              LDRB      A1, [V1, #1]          ; [DPU_3_PIPE] |1498|  ; [ORIG 16-BIT INS]
    2950 00000100 0000F88D          STRB      A1, [SP, #0]          ; [DPU_3_PIPE] |1498|  ; [KEEP 32-BIT INS]
    2951                            .dwpsn  file "../Application/api_mac.c",line 1503,column 21,is_stmt,isa 1
    2952 00000104 7BE5              LDRB      V2, [V1, #15]         ; [DPU_3_PIPE] |1503|  ; [ORIG 16-BIT INS]
    2953 00000106 500BF88D          STRB      V2, [SP, #11]         ; [DPU_3_PIPE] |1503|  ; [KEEP 32-BIT INS]
    2954                            .dwpsn  file "../Application/api_mac.c",line 1504,column 21,is_stmt,isa 1
    2955 0000010a 7C23              LDRB      A4, [V1, #16]         ; [DPU_3_PIPE] |1504|  ; [ORIG 16-BIT INS]
    2956 0000010c 300CF88D          STRB      A4, [SP, #12]         ; [DPU_3_PIPE] |1504|  ; [KEEP 32-BIT INS]
    2957                            .dwpsn  file "../Application/api_mac.c",line 1505,column 21,is_stmt,isa 1
    2958 00000110 2011F994          LDRSB     A3, [V1, #17]         ; [DPU_3_PIPE] |1505|  ; [KEEP 32-BIT INS]
    2959 00000114 200DF88D          STRB      A3, [SP, #13]         ; [DPU_3_PIPE] |1505|  ; [KEEP 32-BIT INS]
    2960                            .dwpsn  file "../Application/api_mac.c",line 1506,column 21,is_stmt,isa 1
