TI ARM Assembler PC v16.9.9 Sun Nov 25 16:40:45 2018

Tools Copyright (c) 1996-2017 Texas Instruments Incorporated
C:\Users\Stryd\AppData\Local\Temp\{20FABBE7-6C1F-4BB7-B116-814D10534D3D} PAGE    1

       1                    ;******************************************************************************
       2                    ;* TI ARM C/C++ Codegen                                        PC v16.9.9.LTS *
       3                    ;* Date/Time created: Sun Nov 25 16:40:45 2018                                *
       4                    ;******************************************************************************
       5                            .compiler_opts --abi=eabi --arm_vmrs_si_workaround=off --code_state=16 --diag_wrap=off --embed
       6 00000000                   .thumb
       7                    
       8                    $C$DW$CU        .dwtag  DW_TAG_compile_unit
       9                            .dwattr $C$DW$CU, DW_AT_name("../Application/ICall/icall_cc2650.c")
      10                            .dwattr $C$DW$CU, DW_AT_producer("TI TI ARM C/C++ Codegen PC v16.9.9.LTS Copyright (c) 1996-20
      11                            .dwattr $C$DW$CU, DW_AT_TI_version(0x01)
      12                            .dwattr $C$DW$CU, DW_AT_comp_dir("C:\CCSWorkspace\ECG603\collector_cc1350lp\collector_cc1350lp
      13                    
      14                    $C$DW$1 .dwtag  DW_TAG_subprogram
      15                            .dwattr $C$DW$1, DW_AT_name("__clz")
      16                            .dwattr $C$DW$1, DW_AT_TI_symbol_name("__clz")
      17                            .dwattr $C$DW$1, DW_AT_type(*$C$DW$T$10)
      18                            .dwattr $C$DW$1, DW_AT_declaration
      19                            .dwattr $C$DW$1, DW_AT_external
      20                    $C$DW$2 .dwtag  DW_TAG_formal_parameter
      21                            .dwattr $C$DW$2, DW_AT_type(*$C$DW$T$10)
      22                    
      23                            .dwendtag $C$DW$1
      24                    
      25                    
      26                    $C$DW$3 .dwtag  DW_TAG_subprogram
      27                            .dwattr $C$DW$3, DW_AT_name("halAssertHandler")
      28                            .dwattr $C$DW$3, DW_AT_TI_symbol_name("halAssertHandler")
      29                            .dwattr $C$DW$3, DW_AT_declaration
      30                            .dwattr $C$DW$3, DW_AT_external
      31                            .dwattr $C$DW$3, DW_AT_decl_file("C:/ti/simplelink_cc13x0_sdk_2_30_00_20/source/ti/ti154stack/
      32                            .dwattr $C$DW$3, DW_AT_decl_line(0xdd)
      33                            .dwattr $C$DW$3, DW_AT_decl_column(0x0d)
      34                            .dwendtag $C$DW$3
      35                    
      36                    
      37                    $C$DW$4 .dwtag  DW_TAG_subprogram
      38                            .dwattr $C$DW$4, DW_AT_name("ICall_enterCSImpl")
      39                            .dwattr $C$DW$4, DW_AT_TI_symbol_name("ICall_enterCSImpl")
      40                            .dwattr $C$DW$4, DW_AT_type(*$C$DW$T$124)
      41                            .dwattr $C$DW$4, DW_AT_declaration
      42                            .dwattr $C$DW$4, DW_AT_external
      43                            .dwattr $C$DW$4, DW_AT_decl_file("C:/ti/simplelink_cc13x0_sdk_2_30_00_20/source/ti/ti154stack/
      44                            .dwattr $C$DW$4, DW_AT_decl_line(0x3c)
      45                            .dwattr $C$DW$4, DW_AT_decl_column(0x16)
      46                            .dwendtag $C$DW$4
      47                    
      48                    
      49                    $C$DW$5 .dwtag  DW_TAG_subprogram
      50                            .dwattr $C$DW$5, DW_AT_name("ICall_leaveCSImpl")
      51                            .dwattr $C$DW$5, DW_AT_TI_symbol_name("ICall_leaveCSImpl")
      52                            .dwattr $C$DW$5, DW_AT_declaration
      53                            .dwattr $C$DW$5, DW_AT_external
      54                            .dwattr $C$DW$5, DW_AT_decl_file("C:/ti/simplelink_cc13x0_sdk_2_30_00_20/source/ti/ti154stack/
      55                            .dwattr $C$DW$5, DW_AT_decl_line(0x3d)
TI ARM Assembler PC v16.9.9 Sun Nov 25 16:40:45 2018

Tools Copyright (c) 1996-2017 Texas Instruments Incorporated
C:\Users\Stryd\AppData\Local\Temp\{20FABBE7-6C1F-4BB7-B116-814D10534D3D} PAGE    2

      56                            .dwattr $C$DW$5, DW_AT_decl_column(0x0d)
      57                    $C$DW$6 .dwtag  DW_TAG_formal_parameter
      58                            .dwattr $C$DW$6, DW_AT_type(*$C$DW$T$124)
      59                    
      60                            .dwendtag $C$DW$5
      61                    
      62                    
      63                    $C$DW$7 .dwtag  DW_TAG_subprogram
      64                            .dwattr $C$DW$7, DW_AT_name("ICall_mallocImpl")
      65                            .dwattr $C$DW$7, DW_AT_TI_symbol_name("ICall_mallocImpl")
      66                            .dwattr $C$DW$7, DW_AT_type(*$C$DW$T$3)
      67                            .dwattr $C$DW$7, DW_AT_declaration
      68                            .dwattr $C$DW$7, DW_AT_external
      69                            .dwattr $C$DW$7, DW_AT_decl_file("C:/ti/simplelink_cc13x0_sdk_2_30_00_20/source/ti/ti154stack/
      70                            .dwattr $C$DW$7, DW_AT_decl_line(0x3e)
      71                            .dwattr $C$DW$7, DW_AT_decl_column(0x0e)
      72                    $C$DW$8 .dwtag  DW_TAG_formal_parameter
      73                            .dwattr $C$DW$8, DW_AT_type(*$C$DW$T$72)
      74                    
      75                            .dwendtag $C$DW$7
      76                    
      77                    
      78                    $C$DW$9 .dwtag  DW_TAG_subprogram
      79                            .dwattr $C$DW$9, DW_AT_name("ICall_freeImpl")
      80                            .dwattr $C$DW$9, DW_AT_TI_symbol_name("ICall_freeImpl")
      81                            .dwattr $C$DW$9, DW_AT_declaration
      82                            .dwattr $C$DW$9, DW_AT_external
      83                            .dwattr $C$DW$9, DW_AT_decl_file("C:/ti/simplelink_cc13x0_sdk_2_30_00_20/source/ti/ti154stack/
      84                            .dwattr $C$DW$9, DW_AT_decl_line(0x3f)
      85                            .dwattr $C$DW$9, DW_AT_decl_column(0x0d)
      86                    $C$DW$10        .dwtag  DW_TAG_formal_parameter
      87                            .dwattr $C$DW$10, DW_AT_type(*$C$DW$T$3)
      88                    
      89                            .dwendtag $C$DW$9
      90                    
      91                    
      92                    $C$DW$11        .dwtag  DW_TAG_subprogram
      93                            .dwattr $C$DW$11, DW_AT_name("Power_getTransitionState")
      94                            .dwattr $C$DW$11, DW_AT_TI_symbol_name("Power_getTransitionState")
      95                            .dwattr $C$DW$11, DW_AT_type(*$C$DW$T$72)
      96                            .dwattr $C$DW$11, DW_AT_declaration
      97                            .dwattr $C$DW$11, DW_AT_external
      98                            .dwattr $C$DW$11, DW_AT_decl_file("C:/ti/simplelink_cc13x0_sdk_2_30_00_20/source/ti/drivers/Po
      99                            .dwattr $C$DW$11, DW_AT_decl_line(0x103)
     100                            .dwattr $C$DW$11, DW_AT_decl_column(0x0f)
     101                            .dwendtag $C$DW$11
     102                    
     103                    
     104                    $C$DW$12        .dwtag  DW_TAG_subprogram
     105                            .dwattr $C$DW$12, DW_AT_name("Power_registerNotify")
     106                            .dwattr $C$DW$12, DW_AT_TI_symbol_name("Power_registerNotify")
     107                            .dwattr $C$DW$12, DW_AT_type(*$C$DW$T$73)
     108                            .dwattr $C$DW$12, DW_AT_declaration
     109                            .dwattr $C$DW$12, DW_AT_external
     110                            .dwattr $C$DW$12, DW_AT_decl_file("C:/ti/simplelink_cc13x0_sdk_2_30_00_20/source/ti/drivers/Po
TI ARM Assembler PC v16.9.9 Sun Nov 25 16:40:45 2018

Tools Copyright (c) 1996-2017 Texas Instruments Incorporated
C:\Users\Stryd\AppData\Local\Temp\{20FABBE7-6C1F-4BB7-B116-814D10534D3D} PAGE    3

     111                            .dwattr $C$DW$12, DW_AT_decl_line(0x159)
     112                            .dwattr $C$DW$12, DW_AT_decl_column(0x0e)
     113                    $C$DW$13        .dwtag  DW_TAG_formal_parameter
     114                            .dwattr $C$DW$13, DW_AT_type(*$C$DW$T$170)
     115                    
     116                    $C$DW$14        .dwtag  DW_TAG_formal_parameter
     117                            .dwattr $C$DW$14, DW_AT_type(*$C$DW$T$72)
     118                    
     119                    $C$DW$15        .dwtag  DW_TAG_formal_parameter
     120                            .dwattr $C$DW$15, DW_AT_type(*$C$DW$T$76)
     121                    
     122                    $C$DW$16        .dwtag  DW_TAG_formal_parameter
     123                            .dwattr $C$DW$16, DW_AT_type(*$C$DW$T$41)
     124                    
     125                            .dwendtag $C$DW$12
     126                    
     127                    
     128                    $C$DW$17        .dwtag  DW_TAG_subprogram
     129                            .dwattr $C$DW$17, DW_AT_name("Power_releaseConstraint")
     130                            .dwattr $C$DW$17, DW_AT_TI_symbol_name("Power_releaseConstraint")
     131                            .dwattr $C$DW$17, DW_AT_type(*$C$DW$T$73)
     132                            .dwattr $C$DW$17, DW_AT_declaration
     133                            .dwattr $C$DW$17, DW_AT_external
     134                            .dwattr $C$DW$17, DW_AT_decl_file("C:/ti/simplelink_cc13x0_sdk_2_30_00_20/source/ti/drivers/Po
     135                            .dwattr $C$DW$17, DW_AT_decl_line(0x181)
     136                            .dwattr $C$DW$17, DW_AT_decl_column(0x0e)
     137                    $C$DW$18        .dwtag  DW_TAG_formal_parameter
     138                            .dwattr $C$DW$18, DW_AT_type(*$C$DW$T$72)
     139                    
     140                            .dwendtag $C$DW$17
     141                    
     142                    
     143                    $C$DW$19        .dwtag  DW_TAG_subprogram
     144                            .dwattr $C$DW$19, DW_AT_name("Power_releaseDependency")
     145                            .dwattr $C$DW$19, DW_AT_TI_symbol_name("Power_releaseDependency")
     146                            .dwattr $C$DW$19, DW_AT_type(*$C$DW$T$73)
     147                            .dwattr $C$DW$19, DW_AT_declaration
     148                            .dwattr $C$DW$19, DW_AT_external
     149                            .dwattr $C$DW$19, DW_AT_decl_file("C:/ti/simplelink_cc13x0_sdk_2_30_00_20/source/ti/drivers/Po
     150                            .dwattr $C$DW$19, DW_AT_decl_line(0x19a)
     151                            .dwattr $C$DW$19, DW_AT_decl_column(0x0e)
     152                    $C$DW$20        .dwtag  DW_TAG_formal_parameter
     153                            .dwattr $C$DW$20, DW_AT_type(*$C$DW$T$72)
     154                    
     155                            .dwendtag $C$DW$19
     156                    
     157                    
     158                    $C$DW$21        .dwtag  DW_TAG_subprogram
     159                            .dwattr $C$DW$21, DW_AT_name("Power_setConstraint")
     160                            .dwattr $C$DW$21, DW_AT_TI_symbol_name("Power_setConstraint")
     161                            .dwattr $C$DW$21, DW_AT_type(*$C$DW$T$73)
     162                            .dwattr $C$DW$21, DW_AT_declaration
     163                            .dwattr $C$DW$21, DW_AT_external
     164                            .dwattr $C$DW$21, DW_AT_decl_file("C:/ti/simplelink_cc13x0_sdk_2_30_00_20/source/ti/drivers/Po
     165                            .dwattr $C$DW$21, DW_AT_decl_line(0x1b6)
TI ARM Assembler PC v16.9.9 Sun Nov 25 16:40:45 2018

Tools Copyright (c) 1996-2017 Texas Instruments Incorporated
C:\Users\Stryd\AppData\Local\Temp\{20FABBE7-6C1F-4BB7-B116-814D10534D3D} PAGE    4

     166                            .dwattr $C$DW$21, DW_AT_decl_column(0x0e)
     167                    $C$DW$22        .dwtag  DW_TAG_formal_parameter
     168                            .dwattr $C$DW$22, DW_AT_type(*$C$DW$T$72)
     169                    
     170                            .dwendtag $C$DW$21
     171                    
     172                    
     173                    $C$DW$23        .dwtag  DW_TAG_subprogram
     174                            .dwattr $C$DW$23, DW_AT_name("Power_setDependency")
     175                            .dwattr $C$DW$23, DW_AT_TI_symbol_name("Power_setDependency")
     176                            .dwattr $C$DW$23, DW_AT_type(*$C$DW$T$73)
     177                            .dwattr $C$DW$23, DW_AT_declaration
     178                            .dwattr $C$DW$23, DW_AT_external
     179                            .dwattr $C$DW$23, DW_AT_decl_file("C:/ti/simplelink_cc13x0_sdk_2_30_00_20/source/ti/drivers/Po
     180                            .dwattr $C$DW$23, DW_AT_decl_line(0x1da)
     181                            .dwattr $C$DW$23, DW_AT_decl_column(0x0e)
     182                    $C$DW$24        .dwtag  DW_TAG_formal_parameter
     183                            .dwattr $C$DW$24, DW_AT_type(*$C$DW$T$72)
     184                    
     185                            .dwendtag $C$DW$23
     186                    
     187                    
     188                    $C$DW$25        .dwtag  DW_TAG_subprogram
     189                            .dwattr $C$DW$25, DW_AT_name("PowerCC26XX_getXoscStartupTime")
     190                            .dwattr $C$DW$25, DW_AT_TI_symbol_name("PowerCC26XX_getXoscStartupTime")
     191                            .dwattr $C$DW$25, DW_AT_type(*$C$DW$T$22)
     192                            .dwattr $C$DW$25, DW_AT_declaration
     193                            .dwattr $C$DW$25, DW_AT_external
     194                            .dwattr $C$DW$25, DW_AT_decl_file("C:/ti/simplelink_cc13x0_sdk_2_30_00_20/source/ti/drivers/po
     195                            .dwattr $C$DW$25, DW_AT_decl_line(0x229)
     196                            .dwattr $C$DW$25, DW_AT_decl_column(0x0a)
     197                    $C$DW$26        .dwtag  DW_TAG_formal_parameter
     198                            .dwattr $C$DW$26, DW_AT_type(*$C$DW$T$22)
     199                    
     200                            .dwendtag $C$DW$25
     201                    
     202                    
     203                    $C$DW$27        .dwtag  DW_TAG_subprogram
     204                            .dwattr $C$DW$27, DW_AT_name("PowerCC26XX_isStableXOSC_HF")
     205                            .dwattr $C$DW$27, DW_AT_TI_symbol_name("PowerCC26XX_isStableXOSC_HF")
     206                            .dwattr $C$DW$27, DW_AT_type(*$C$DW$T$40)
     207                            .dwattr $C$DW$27, DW_AT_declaration
     208                            .dwattr $C$DW$27, DW_AT_external
     209                            .dwattr $C$DW$27, DW_AT_decl_file("C:/ti/simplelink_cc13x0_sdk_2_30_00_20/source/ti/drivers/po
     210                            .dwattr $C$DW$27, DW_AT_decl_line(0x255)
     211                            .dwattr $C$DW$27, DW_AT_decl_column(0x06)
     212                            .dwendtag $C$DW$27
     213                    
     214                    
     215                    $C$DW$28        .dwtag  DW_TAG_subprogram
     216                            .dwattr $C$DW$28, DW_AT_name("PowerCC26XX_switchXOSC_HF")
     217                            .dwattr $C$DW$28, DW_AT_TI_symbol_name("PowerCC26XX_switchXOSC_HF")
     218                            .dwattr $C$DW$28, DW_AT_declaration
     219                            .dwattr $C$DW$28, DW_AT_external
     220                            .dwattr $C$DW$28, DW_AT_decl_file("C:/ti/simplelink_cc13x0_sdk_2_30_00_20/source/ti/drivers/po
TI ARM Assembler PC v16.9.9 Sun Nov 25 16:40:45 2018

Tools Copyright (c) 1996-2017 Texas Instruments Incorporated
C:\Users\Stryd\AppData\Local\Temp\{20FABBE7-6C1F-4BB7-B116-814D10534D3D} PAGE    5

     221                            .dwattr $C$DW$28, DW_AT_decl_line(0x265)
     222                            .dwattr $C$DW$28, DW_AT_decl_column(0x06)
     223                            .dwendtag $C$DW$28
     224                    
     225 00000000                   .sect   ".const:events$1"
     226                            .align  4
     227                            .elfsym events$1,SYM_SIZE(4)
     228 00000000           events$1:
     229 00000000 0000000F          .bits   15,32                   ; events$1[0] @ 0
     230                    
     231 00000000                   .sect   ".data:$O1$$", RW
     232                            .align  4
     233                            .elfsym ||$O1$$||,SYM_SIZE(8)
     234 00000000           ||$O1$$||:
     235 00000000 00000000          .bits   0,8                     ; $O1$$.ICallPlatform_pwrActivityCount @ 0
     236 00000000 00000000          .bits   0,24
     237 00000004 00000006          .bits   6,32                    ; $O1$$.ICallPlatform_pwrCfgACAction @ 32
     238                    
     239                    
     240                    ;*********************************************************************
     241                    ;* GROUPED GLOBALS FOR $O1$$                                         *
     242                    ;*********************************************************************
     243          00000000! ICallPlatform_pwrActivityCount: .set    ||$O1$$||+0
     244                    $C$DW$29        .dwtag  DW_TAG_variable
     245                            .dwattr $C$DW$29, DW_AT_name("ICallPlatform_pwrActivityCount")
     246                            .dwattr $C$DW$29, DW_AT_TI_symbol_name("ICallPlatform_pwrActivityCount")
     247                            .dwattr $C$DW$29, DW_AT_type(*$C$DW$T$31)
     248                            .dwattr $C$DW$29, DW_AT_location[DW_OP_addr ICallPlatform_pwrActivityCount]
     249                            .dwattr $C$DW$29, DW_AT_decl_file("../Application/ICall/icall_cc2650.c")
     250                            .dwattr $C$DW$29, DW_AT_decl_line(0x51)
     251                            .dwattr $C$DW$29, DW_AT_decl_column(0x16)
     252                    
     253          00000004! ICallPlatform_pwrCfgACAction:   .set    ||$O1$$||+4
     254                    $C$DW$30        .dwtag  DW_TAG_variable
     255                            .dwattr $C$DW$30, DW_AT_name("ICallPlatform_pwrCfgACAction")
     256                            .dwattr $C$DW$30, DW_AT_TI_symbol_name("ICallPlatform_pwrCfgACAction")
     257                            .dwattr $C$DW$30, DW_AT_type(*$C$DW$T$263)
     258                            .dwattr $C$DW$30, DW_AT_location[DW_OP_addr ICallPlatform_pwrCfgACAction]
     259                            .dwattr $C$DW$30, DW_AT_decl_file("../Application/ICall/icall_cc2650.c")
     260                            .dwattr $C$DW$30, DW_AT_decl_line(0x57)
     261                            .dwattr $C$DW$30, DW_AT_decl_column(0x22)
     262                    
     263                    ;       C:\ti\ccsv7\tools\compiler\ti-cgt-arm_16.9.9.LTS\bin\armopt.exe C:/CCSWorkspace/ECG603/collect
     264 00000000                   .sect   ".text:ICallPlatform_pwrDispenseImpl"
     265                            .clink
     266                            .thumbfunc ICallPlatform_pwrDispenseImpl
     267 00000000                   .thumb
     268                    
     269                    $C$DW$31        .dwtag  DW_TAG_subprogram
     270                            .dwattr $C$DW$31, DW_AT_name("ICallPlatform_pwrDispenseImpl")
     271                            .dwattr $C$DW$31, DW_AT_low_pc(ICallPlatform_pwrDispenseImpl)
     272                            .dwattr $C$DW$31, DW_AT_high_pc(0x00)
     273                            .dwattr $C$DW$31, DW_AT_TI_symbol_name("ICallPlatform_pwrDispenseImpl")
     274                            .dwattr $C$DW$31, DW_AT_TI_begin_file("../Application/ICall/icall_cc2650.c")
     275                            .dwattr $C$DW$31, DW_AT_TI_begin_line(0x9c)
TI ARM Assembler PC v16.9.9 Sun Nov 25 16:40:45 2018

Tools Copyright (c) 1996-2017 Texas Instruments Incorporated
C:\Users\Stryd\AppData\Local\Temp\{20FABBE7-6C1F-4BB7-B116-814D10534D3D} PAGE    6

     276                            .dwattr $C$DW$31, DW_AT_TI_begin_column(0x0d)
     277                            .dwattr $C$DW$31, DW_AT_decl_file("../Application/ICall/icall_cc2650.c")
     278                            .dwattr $C$DW$31, DW_AT_decl_line(0x9c)
     279                            .dwattr $C$DW$31, DW_AT_decl_column(0x0d)
     280                            .dwattr $C$DW$31, DW_AT_TI_max_frame_size(0x10)
     281                            .dwpsn  file "../Application/ICall/icall_cc2650.c",line 157,column 1,is_stmt,address ICallPlat
     282                    
     283                            .dwfde $C$DW$CIE, ICallPlatform_pwrDispenseImpl
     284                    $C$DW$32        .dwtag  DW_TAG_formal_parameter
     285                            .dwattr $C$DW$32, DW_AT_name("bitmap")
     286                            .dwattr $C$DW$32, DW_AT_TI_symbol_name("bitmap")
     287                            .dwattr $C$DW$32, DW_AT_type(*$C$DW$T$104)
     288                            .dwattr $C$DW$32, DW_AT_location[DW_OP_reg0]
     289                    
     290                    
     291                    ;*****************************************************************************
     292                    ;* FUNCTION NAME: ICallPlatform_pwrDispenseImpl                              *
     293                    ;*                                                                           *
     294                    ;*   Regs Modified     : A1,A2,A3,A4,V1,V2,V9,SP,LR,SR                       *
     295                    ;*   Regs Used         : A1,A2,A3,A4,V1,V2,V9,SP,LR,SR                       *
     296                    ;*   Local Frame Size  : 0 Args + 0 Auto + 12 Save = 12 byte                 *
     297                    ;*****************************************************************************
     298                    ICallPlatform_pwrDispenseImpl:
     299                    ;* --------------------------------------------------------------------------*
     300                    ;* V1    assigned to bitmap
     301                    $C$DW$33        .dwtag  DW_TAG_variable
     302                            .dwattr $C$DW$33, DW_AT_name("bitmap")
     303                            .dwattr $C$DW$33, DW_AT_TI_symbol_name("bitmap")
     304                            .dwattr $C$DW$33, DW_AT_type(*$C$DW$T$104)
     305                            .dwattr $C$DW$33, DW_AT_location[DW_OP_reg4]
     306                    
     307                    ;* A1    assigned to pos
     308                    $C$DW$34        .dwtag  DW_TAG_variable
     309                            .dwattr $C$DW$34, DW_AT_name("pos")
     310                            .dwattr $C$DW$34, DW_AT_TI_symbol_name("pos")
     311                            .dwattr $C$DW$34, DW_AT_type(*$C$DW$T$10)
     312                            .dwattr $C$DW$34, DW_AT_location[DW_OP_reg0]
     313                    
     314                            .dwcfi  cfa_offset, 0
     315 00000000 B538              PUSH      {A4, V1, V2, LR}      ; [DPU_3_PIPE]  ; [ORIG 16-BIT INS]
     316                            .dwcfi  cfa_offset, 16
     317                            .dwcfi  save_reg_to_mem, 14, -4
     318                            .dwcfi  save_reg_to_mem, 5, -8
     319                            .dwcfi  save_reg_to_mem, 4, -12
     320                            .dwcfi  save_reg_to_mem, 3, -16
     321 00000002 4604              MOV       V1, A1                ; [DPU_3_PIPE] |157|  ; [ORIG 16-BIT INS]
     322                            .dwpsn  file "../Application/ICall/icall_cc2650.c",line 168,column 5,is_stmt,isa 1
     323 00000004 2501              MOVS      V2, #1                ; [DPU_3_PIPE] |168|  ; [ORIG 16-BIT INS]
     324 00000006 E00D              B         ||$C$L3||             ; [DPU_3_PIPE]  ; [ORIG 16-BIT INS]
     325                            ; BRANCH OCCURS {||$C$L3||}      ; [] 
     326                    ;* --------------------------------------------------------------------------*
     327 00000008           ||$C$L1||:    
     328                            .dwpsn  file "../Application/ICall/icall_cc2650.c",line 167,column 5,is_stmt,isa 1
     329 00000008 001FF1C0          RSB       A1, A1, #31           ; [DPU_3_PIPE] |167|  ; [KEEP 32-BIT INS]
     330                            .dwpsn  file "../Application/ICall/icall_cc2650.c",line 168,column 5,is_stmt,isa 1
TI ARM Assembler PC v16.9.9 Sun Nov 25 16:40:45 2018

Tools Copyright (c) 1996-2017 Texas Instruments Incorporated
C:\Users\Stryd\AppData\Local\Temp\{20FABBE7-6C1F-4BB7-B116-814D10534D3D} PAGE    7

     331 0000000c F100FA05          LSL       A2, V2, A1            ; [DPU_3_PIPE] |168|  ; [KEEP 32-BIT INS]
     332                            .dwpsn  file "../Application/ICall/icall_cc2650.c",line 169,column 5,is_stmt,isa 1
     333 00000010 2805              CMP       A1, #5                ; [DPU_3_PIPE] |169|  ; [ORIG 16-BIT INS]
     334                            .dwpsn  file "../Application/ICall/icall_cc2650.c",line 168,column 5,is_stmt,isa 1
     335 00000012 0404EA81          EOR       V1, A2, V1            ; [DPU_3_PIPE] |168|  ; [KEEP 32-BIT INS]
     336                            .dwpsn  file "../Application/ICall/icall_cc2650.c",line 169,column 5,is_stmt,isa 1
     337 00000016 DB03              BLT       ||$C$L2||             ; [DPU_3_PIPE] |169|  ; [ORIG 16-BIT INS]
     338                            ; BRANCHCC OCCURS {||$C$L2||}    ; [] |169| 
     339                    ;* --------------------------------------------------------------------------*
     340                            .dwpsn  file "../Application/ICall/icall_cc2650.c",line 175,column 7,is_stmt,isa 1
     341 00000018 1F40              SUBS      A1, A1, #5            ; [DPU_3_PIPE] |175|  ; [ORIG 16-BIT INS]
     342                    $C$DW$35        .dwtag  DW_TAG_TI_branch
     343                            .dwattr $C$DW$35, DW_AT_low_pc(0x00)
     344                            .dwattr $C$DW$35, DW_AT_name("Power_releaseDependency")
     345                            .dwattr $C$DW$35, DW_AT_TI_call
     346                    
     347 0000001a FFFEF7FF!         BL        Power_releaseDependency ; [DPU_3_PIPE] |175|  ; [KEEP 32-BIT INS]
     348                            ; CALL OCCURS {Power_releaseDependency }  ; [] |175| 
     349                            .dwpsn  file "../Application/ICall/icall_cc2650.c",line 163,column 13,is_stmt,isa 1
     350 0000001e E001              B         ||$C$L3||             ; [DPU_3_PIPE] |163|  ; [ORIG 16-BIT INS]
     351                            ; BRANCH OCCURS {||$C$L3||}      ; [] |163| 
     352                    ;* --------------------------------------------------------------------------*
     353 00000020           ||$C$L2||:    
     354                            .dwpsn  file "../Application/ICall/icall_cc2650.c",line 171,column 7,is_stmt,isa 1
     355                    $C$DW$36        .dwtag  DW_TAG_TI_branch
     356                            .dwattr $C$DW$36, DW_AT_low_pc(0x00)
     357                            .dwattr $C$DW$36, DW_AT_name("Power_releaseConstraint")
     358                            .dwattr $C$DW$36, DW_AT_TI_call
     359                    
     360 00000020 FFFEF7FF!         BL        Power_releaseConstraint ; [DPU_3_PIPE] |171|  ; [KEEP 32-BIT INS]
     361                            ; CALL OCCURS {Power_releaseConstraint }  ; [] |171| 
     362                    ;* --------------------------------------------------------------------------*
     363                    ;*   BEGIN LOOP ||$C$L3||
     364                    ;* --------------------------------------------------------------------------*
     365 00000024           ||$C$L3||:    
     366                            .dwpsn  file "../Application/ICall/icall_cc2650.c",line 163,column 13,is_stmt,isa 1
     367 00000024 F084FAB4          CLZ       A1,V1                 ; [DPU_3_PIPE] |163|  ; [KEEP 32-BIT INS]
     368 00000028 2820              CMP       A1, #32               ; [DPU_3_PIPE] |163|  ; [ORIG 16-BIT INS]
     369 0000002a D1ED              BNE       ||$C$L1||             ; [DPU_3_PIPE] |163|  ; [ORIG 16-BIT INS]
     370                            ; BRANCHCC OCCURS {||$C$L1||}    ; [] |163| 
     371                    ;* --------------------------------------------------------------------------*
     372                    $C$DW$37        .dwtag  DW_TAG_TI_branch
     373                            .dwattr $C$DW$37, DW_AT_low_pc(0x00)
     374                            .dwattr $C$DW$37, DW_AT_TI_return
     375                    
     376 0000002c BD38              POP       {A4, V1, V2, PC}      ; [DPU_3_PIPE]  ; [ORIG 16-BIT INS]
     377                            .dwcfi  cfa_offset, 0
     378                            .dwcfi  restore_reg, 5
     379                            .dwcfi  restore_reg, 4
     380                            .dwcfi  restore_reg, 3
     381                            ; BRANCH OCCURS                  ; [] 
     382                            .dwattr $C$DW$31, DW_AT_TI_end_file("../Application/ICall/icall_cc2650.c")
     383                            .dwattr $C$DW$31, DW_AT_TI_end_line(0xb2)
     384                            .dwattr $C$DW$31, DW_AT_TI_end_column(0x01)
     385                            .dwendentry
TI ARM Assembler PC v16.9.9 Sun Nov 25 16:40:45 2018

Tools Copyright (c) 1996-2017 Texas Instruments Incorporated
C:\Users\Stryd\AppData\Local\Temp\{20FABBE7-6C1F-4BB7-B116-814D10534D3D} PAGE    8

     386                            .dwendtag $C$DW$31
     387                    
     388 00000000                   .sect   ".text:ICallPlatform_pwrRequireImpl"
     389                            .clink
     390                            .thumbfunc ICallPlatform_pwrRequireImpl
     391 00000000                   .thumb
     392                    
     393                    $C$DW$38        .dwtag  DW_TAG_subprogram
     394                            .dwattr $C$DW$38, DW_AT_name("ICallPlatform_pwrRequireImpl")
     395                            .dwattr $C$DW$38, DW_AT_low_pc(ICallPlatform_pwrRequireImpl)
     396                            .dwattr $C$DW$38, DW_AT_high_pc(0x00)
     397                            .dwattr $C$DW$38, DW_AT_TI_symbol_name("ICallPlatform_pwrRequireImpl")
     398                            .dwattr $C$DW$38, DW_AT_TI_begin_file("../Application/ICall/icall_cc2650.c")
     399                            .dwattr $C$DW$38, DW_AT_TI_begin_line(0x7e)
     400                            .dwattr $C$DW$38, DW_AT_TI_begin_column(0x0d)
     401                            .dwattr $C$DW$38, DW_AT_decl_file("../Application/ICall/icall_cc2650.c")
     402                            .dwattr $C$DW$38, DW_AT_decl_line(0x7e)
     403                            .dwattr $C$DW$38, DW_AT_decl_column(0x0d)
     404                            .dwattr $C$DW$38, DW_AT_TI_max_frame_size(0x10)
     405                            .dwpsn  file "../Application/ICall/icall_cc2650.c",line 127,column 1,is_stmt,address ICallPlat
     406                    
     407                            .dwfde $C$DW$CIE, ICallPlatform_pwrRequireImpl
     408                    $C$DW$39        .dwtag  DW_TAG_formal_parameter
     409                            .dwattr $C$DW$39, DW_AT_name("bitmap")
     410                            .dwattr $C$DW$39, DW_AT_TI_symbol_name("bitmap")
     411                            .dwattr $C$DW$39, DW_AT_type(*$C$DW$T$104)
     412                            .dwattr $C$DW$39, DW_AT_location[DW_OP_reg0]
     413                    
     414                    
     415                    ;*****************************************************************************
     416                    ;* FUNCTION NAME: ICallPlatform_pwrRequireImpl                               *
     417                    ;*                                                                           *
     418                    ;*   Regs Modified     : A1,A2,A3,A4,V1,V2,V9,SP,LR,SR                       *
     419                    ;*   Regs Used         : A1,A2,A3,A4,V1,V2,V9,SP,LR,SR                       *
     420                    ;*   Local Frame Size  : 0 Args + 0 Auto + 12 Save = 12 byte                 *
     421                    ;*****************************************************************************
     422                    ICallPlatform_pwrRequireImpl:
     423                    ;* --------------------------------------------------------------------------*
     424                    ;* V1    assigned to bitmap
     425                    $C$DW$40        .dwtag  DW_TAG_variable
     426                            .dwattr $C$DW$40, DW_AT_name("bitmap")
     427                            .dwattr $C$DW$40, DW_AT_TI_symbol_name("bitmap")
     428                            .dwattr $C$DW$40, DW_AT_type(*$C$DW$T$104)
     429                            .dwattr $C$DW$40, DW_AT_location[DW_OP_reg4]
     430                    
     431                    ;* A1    assigned to pos
     432                    $C$DW$41        .dwtag  DW_TAG_variable
     433                            .dwattr $C$DW$41, DW_AT_name("pos")
     434                            .dwattr $C$DW$41, DW_AT_TI_symbol_name("pos")
     435                            .dwattr $C$DW$41, DW_AT_type(*$C$DW$T$10)
     436                            .dwattr $C$DW$41, DW_AT_location[DW_OP_reg0]
     437                    
     438                            .dwcfi  cfa_offset, 0
     439 00000000 B538              PUSH      {A4, V1, V2, LR}      ; [DPU_3_PIPE]  ; [ORIG 16-BIT INS]
     440                            .dwcfi  cfa_offset, 16
TI ARM Assembler PC v16.9.9 Sun Nov 25 16:40:45 2018

Tools Copyright (c) 1996-2017 Texas Instruments Incorporated
C:\Users\Stryd\AppData\Local\Temp\{20FABBE7-6C1F-4BB7-B116-814D10534D3D} PAGE    9

     441                            .dwcfi  save_reg_to_mem, 14, -4
     442                            .dwcfi  save_reg_to_mem, 5, -8
     443                            .dwcfi  save_reg_to_mem, 4, -12
     444                            .dwcfi  save_reg_to_mem, 3, -16
     445 00000002 4604              MOV       V1, A1                ; [DPU_3_PIPE] |127|  ; [ORIG 16-BIT INS]
     446                            .dwpsn  file "../Application/ICall/icall_cc2650.c",line 138,column 5,is_stmt,isa 1
     447 00000004 2501              MOVS      V2, #1                ; [DPU_3_PIPE] |138|  ; [ORIG 16-BIT INS]
     448 00000006 E00D              B         ||$C$L6||             ; [DPU_3_PIPE]  ; [ORIG 16-BIT INS]
     449                            ; BRANCH OCCURS {||$C$L6||}      ; [] 
     450                    ;* --------------------------------------------------------------------------*
     451 00000008           ||$C$L4||:    
     452                            .dwpsn  file "../Application/ICall/icall_cc2650.c",line 137,column 5,is_stmt,isa 1
     453 00000008 001FF1C0          RSB       A1, A1, #31           ; [DPU_3_PIPE] |137|  ; [KEEP 32-BIT INS]
     454                            .dwpsn  file "../Application/ICall/icall_cc2650.c",line 138,column 5,is_stmt,isa 1
     455 0000000c F100FA05          LSL       A2, V2, A1            ; [DPU_3_PIPE] |138|  ; [KEEP 32-BIT INS]
     456                            .dwpsn  file "../Application/ICall/icall_cc2650.c",line 139,column 5,is_stmt,isa 1
     457 00000010 2805              CMP       A1, #5                ; [DPU_3_PIPE] |139|  ; [ORIG 16-BIT INS]
     458                            .dwpsn  file "../Application/ICall/icall_cc2650.c",line 138,column 5,is_stmt,isa 1
     459 00000012 0404EA81          EOR       V1, A2, V1            ; [DPU_3_PIPE] |138|  ; [KEEP 32-BIT INS]
     460                            .dwpsn  file "../Application/ICall/icall_cc2650.c",line 139,column 5,is_stmt,isa 1
     461 00000016 DB03              BLT       ||$C$L5||             ; [DPU_3_PIPE] |139|  ; [ORIG 16-BIT INS]
     462                            ; BRANCHCC OCCURS {||$C$L5||}    ; [] |139| 
     463                    ;* --------------------------------------------------------------------------*
     464                            .dwpsn  file "../Application/ICall/icall_cc2650.c",line 145,column 7,is_stmt,isa 1
     465 00000018 1F40              SUBS      A1, A1, #5            ; [DPU_3_PIPE] |145|  ; [ORIG 16-BIT INS]
     466                    $C$DW$42        .dwtag  DW_TAG_TI_branch
     467                            .dwattr $C$DW$42, DW_AT_low_pc(0x00)
     468                            .dwattr $C$DW$42, DW_AT_name("Power_setDependency")
     469                            .dwattr $C$DW$42, DW_AT_TI_call
     470                    
     471 0000001a FFFEF7FF!         BL        Power_setDependency   ; [DPU_3_PIPE] |145|  ; [KEEP 32-BIT INS]
     472                            ; CALL OCCURS {Power_setDependency }  ; [] |145| 
     473                            .dwpsn  file "../Application/ICall/icall_cc2650.c",line 133,column 13,is_stmt,isa 1
     474 0000001e E001              B         ||$C$L6||             ; [DPU_3_PIPE] |133|  ; [ORIG 16-BIT INS]
     475                            ; BRANCH OCCURS {||$C$L6||}      ; [] |133| 
     476                    ;* --------------------------------------------------------------------------*
     477 00000020           ||$C$L5||:    
     478                            .dwpsn  file "../Application/ICall/icall_cc2650.c",line 141,column 7,is_stmt,isa 1
     479                    $C$DW$43        .dwtag  DW_TAG_TI_branch
     480                            .dwattr $C$DW$43, DW_AT_low_pc(0x00)
     481                            .dwattr $C$DW$43, DW_AT_name("Power_setConstraint")
     482                            .dwattr $C$DW$43, DW_AT_TI_call
     483                    
     484 00000020 FFFEF7FF!         BL        Power_setConstraint   ; [DPU_3_PIPE] |141|  ; [KEEP 32-BIT INS]
     485                            ; CALL OCCURS {Power_setConstraint }  ; [] |141| 
     486                    ;* --------------------------------------------------------------------------*
     487                    ;*   BEGIN LOOP ||$C$L6||
     488                    ;* --------------------------------------------------------------------------*
     489 00000024           ||$C$L6||:    
     490                            .dwpsn  file "../Application/ICall/icall_cc2650.c",line 133,column 13,is_stmt,isa 1
     491 00000024 F084FAB4          CLZ       A1,V1                 ; [DPU_3_PIPE] |133|  ; [KEEP 32-BIT INS]
     492 00000028 2820              CMP       A1, #32               ; [DPU_3_PIPE] |133|  ; [ORIG 16-BIT INS]
     493 0000002a D1ED              BNE       ||$C$L4||             ; [DPU_3_PIPE] |133|  ; [ORIG 16-BIT INS]
     494                            ; BRANCHCC OCCURS {||$C$L4||}    ; [] |133| 
     495                    ;* --------------------------------------------------------------------------*
TI ARM Assembler PC v16.9.9 Sun Nov 25 16:40:45 2018

Tools Copyright (c) 1996-2017 Texas Instruments Incorporated
C:\Users\Stryd\AppData\Local\Temp\{20FABBE7-6C1F-4BB7-B116-814D10534D3D} PAGE   10

     496                    $C$DW$44        .dwtag  DW_TAG_TI_branch
     497                            .dwattr $C$DW$44, DW_AT_low_pc(0x00)
     498                            .dwattr $C$DW$44, DW_AT_TI_return
     499                    
     500 0000002c BD38              POP       {A4, V1, V2, PC}      ; [DPU_3_PIPE]  ; [ORIG 16-BIT INS]
     501                            .dwcfi  cfa_offset, 0
     502                            .dwcfi  restore_reg, 5
     503                            .dwcfi  restore_reg, 4
     504                            .dwcfi  restore_reg, 3
     505                            ; BRANCH OCCURS                  ; [] 
     506                            .dwattr $C$DW$38, DW_AT_TI_end_file("../Application/ICall/icall_cc2650.c")
     507                            .dwattr $C$DW$38, DW_AT_TI_end_line(0x94)
     508                            .dwattr $C$DW$38, DW_AT_TI_end_column(0x01)
     509                            .dwendentry
     510                            .dwendtag $C$DW$38
     511                    
     512 00000000                   .sect   ".text:ICallPlatform_pwrUpdActivityCounter"
     513                            .clink
     514                            .thumbfunc ICallPlatform_pwrUpdActivityCounter
     515 00000000                   .thumb
     516                            .global ICallPlatform_pwrUpdActivityCounter
     517                    
     518                    $C$DW$45        .dwtag  DW_TAG_subprogram
     519                            .dwattr $C$DW$45, DW_AT_name("ICallPlatform_pwrUpdActivityCounter")
     520                            .dwattr $C$DW$45, DW_AT_low_pc(ICallPlatform_pwrUpdActivityCounter)
     521                            .dwattr $C$DW$45, DW_AT_high_pc(0x00)
     522                            .dwattr $C$DW$45, DW_AT_TI_symbol_name("ICallPlatform_pwrUpdActivityCounter")
     523                            .dwattr $C$DW$45, DW_AT_external
     524                            .dwattr $C$DW$45, DW_AT_type(*$C$DW$T$85)
     525                            .dwattr $C$DW$45, DW_AT_TI_begin_file("../Application/ICall/icall_cc2650.c")
     526                            .dwattr $C$DW$45, DW_AT_TI_begin_line(0xb6)
     527                            .dwattr $C$DW$45, DW_AT_TI_begin_column(0x01)
     528                            .dwattr $C$DW$45, DW_AT_decl_file("../Application/ICall/icall_cc2650.c")
     529                            .dwattr $C$DW$45, DW_AT_decl_line(0xb6)
     530                            .dwattr $C$DW$45, DW_AT_decl_column(0x01)
     531                            .dwattr $C$DW$45, DW_AT_TI_max_frame_size(0x10)
     532                            .dwpsn  file "../Application/ICall/icall_cc2650.c",line 183,column 1,is_stmt,address ICallPlat
     533                    
     534                            .dwfde $C$DW$CIE, ICallPlatform_pwrUpdActivityCounter
     535                    $C$DW$46        .dwtag  DW_TAG_formal_parameter
     536                            .dwattr $C$DW$46, DW_AT_name("args")
     537                            .dwattr $C$DW$46, DW_AT_TI_symbol_name("args")
     538                            .dwattr $C$DW$46, DW_AT_type(*$C$DW$T$221)
     539                            .dwattr $C$DW$46, DW_AT_location[DW_OP_reg0]
     540                    
     541                    
     542                    ;*****************************************************************************
     543                    ;* FUNCTION NAME: ICallPlatform_pwrUpdActivityCounter                        *
     544                    ;*                                                                           *
     545                    ;*   Regs Modified     : A1,A2,A3,A4,V1,V2,V9,SP,LR,SR                       *
     546                    ;*   Regs Used         : A1,A2,A3,A4,V1,V2,V9,SP,LR,SR                       *
     547                    ;*   Local Frame Size  : 0 Args + 0 Auto + 12 Save = 12 byte                 *
     548                    ;*****************************************************************************
     549                    ICallPlatform_pwrUpdActivityCounter:
     550                    ;* --------------------------------------------------------------------------*
TI ARM Assembler PC v16.9.9 Sun Nov 25 16:40:45 2018

Tools Copyright (c) 1996-2017 Texas Instruments Incorporated
C:\Users\Stryd\AppData\Local\Temp\{20FABBE7-6C1F-4BB7-B116-814D10534D3D} PAGE   11

     551                    ;* V1    assigned to $O$K14
     552                    ;* V1    assigned to $O$K14
     553                    ;* A1    assigned to $O$v1
     554                    ;* A2    assigned to $O$v1
     555                    ;* V2    assigned to args
     556                    $C$DW$47        .dwtag  DW_TAG_variable
     557                            .dwattr $C$DW$47, DW_AT_name("args")
     558                            .dwattr $C$DW$47, DW_AT_TI_symbol_name("args")
     559                            .dwattr $C$DW$47, DW_AT_type(*$C$DW$T$306)
     560                            .dwattr $C$DW$47, DW_AT_location[DW_OP_reg5]
     561                    
     562                    ;* V2    assigned to state
     563                    $C$DW$48        .dwtag  DW_TAG_variable
     564                            .dwattr $C$DW$48, DW_AT_name("state")
     565                            .dwattr $C$DW$48, DW_AT_TI_symbol_name("state")
     566                            .dwattr $C$DW$48, DW_AT_type(*$C$DW$T$124)
     567                            .dwattr $C$DW$48, DW_AT_location[DW_OP_reg5]
     568                    
     569                    ;* A1    assigned to state
     570                    $C$DW$49        .dwtag  DW_TAG_variable
     571                            .dwattr $C$DW$49, DW_AT_name("state")
     572                            .dwattr $C$DW$49, DW_AT_TI_symbol_name("state")
     573                            .dwattr $C$DW$49, DW_AT_type(*$C$DW$T$124)
     574                            .dwattr $C$DW$49, DW_AT_location[DW_OP_reg0]
     575                    
     576                            .dwcfi  cfa_offset, 0
     577 00000000 B538              PUSH      {A4, V1, V2, LR}      ; [DPU_3_PIPE]  ; [ORIG 16-BIT INS]
     578                            .dwcfi  cfa_offset, 16
     579                            .dwcfi  save_reg_to_mem, 14, -4
     580                            .dwcfi  save_reg_to_mem, 5, -8
     581                            .dwcfi  save_reg_to_mem, 4, -12
     582                            .dwcfi  save_reg_to_mem, 3, -16
     583 00000002 4605              MOV       V2, A1                ; [DPU_3_PIPE] |183|  ; [ORIG 16-BIT INS]
     584                            .dwpsn  file "../Application/ICall/icall_cc2650.c",line 184,column 3,is_stmt,isa 1
     585 00000004 2001              MOVS      A1, #1                ; [DPU_3_PIPE] |184|  ; [ORIG 16-BIT INS]
     586                            .dwpsn  file "../Application/ICall/icall_cc2650.c",line 189,column 5,is_stmt,isa 1
     587 00000006 4C1A              LDR       V1, $C$CON1           ; [DPU_3_PIPE] |189|  ; [ORIG 16-BIT INS]
     588                            .dwpsn  file "../Application/ICall/icall_cc2650.c",line 184,column 3,is_stmt,isa 1
     589 00000008 7168              STRB      A1, [V2, #5]          ; [DPU_3_PIPE] |184|  ; [ORIG 16-BIT INS]
     590                            .dwpsn  file "../Application/ICall/icall_cc2650.c",line 185,column 3,is_stmt,isa 1
     591 0000000a 7928              LDRB      A1, [V2, #4]          ; [DPU_3_PIPE] |185|  ; [ORIG 16-BIT INS]
     592 0000000c B9B0              CBNZ      A1, ||$C$L8||         ; []  ; [ORIG 16-BIT INS]
     593                            ; BRANCHCC OCCURS {||$C$L8||}    ; [] |185| 
     594                    ;* --------------------------------------------------------------------------*
     595                            .dwpsn  file "../Application/ICall/icall_cc2650.c",line 207,column 25,is_stmt,isa 1
     596                    $C$DW$50        .dwtag  DW_TAG_TI_branch
     597                            .dwattr $C$DW$50, DW_AT_low_pc(0x00)
     598                            .dwattr $C$DW$50, DW_AT_name("ICall_enterCSImpl")
     599                            .dwattr $C$DW$50, DW_AT_TI_call
     600                    
     601 0000000e FFFEF7FF!         BL        ICall_enterCSImpl     ; [DPU_3_PIPE] |207|  ; [KEEP 32-BIT INS]
     602                            ; CALL OCCURS {ICall_enterCSImpl }  ; [] |207| 
     603                            .dwpsn  file "../Application/ICall/icall_cc2650.c",line 208,column 5,is_stmt,isa 1
     604 00000012 7821              LDRB      A2, [V1, #0]          ; [DPU_3_PIPE] |208|  ; [ORIG 16-BIT INS]
     605 00000014 2900              CMP       A2, #0                ; [DPU_3_PIPE] |208|  ; [ORIG 16-BIT INS]
TI ARM Assembler PC v16.9.9 Sun Nov 25 16:40:45 2018

Tools Copyright (c) 1996-2017 Texas Instruments Incorporated
C:\Users\Stryd\AppData\Local\Temp\{20FABBE7-6C1F-4BB7-B116-814D10534D3D} PAGE   12

     606 00000016 BF04              ITT       EQ                    ; [DPU_3_PIPE]  ; [ORIG 16-BIT INS]
     607                            .dwpsn  file "../Application/ICall/icall_cc2650.c",line 212,column 7,is_stmt,isa 1
     608 00000018 0407F06F          MVNEQ     V1, #7                ; [DPU_3_PIPE] |212|  ; [KEEP 32-BIT INS]
     609 0000001c 1C05              MOVEQ     V2, A1                ; [DPU_3_PIPE] |212|  ; [ORIG 16-BIT INS]
     610 0000001e D015              BEQ       ||$C$L9||             ; [DPU_3_PIPE] |212|  ; [ORIG 16-BIT INS]
     611                            ; BRANCHCC OCCURS {||$C$L9||}    ; [] |212| 
     612                    ;* --------------------------------------------------------------------------*
     613                            .dwpsn  file "../Application/ICall/icall_cc2650.c",line 214,column 5,is_stmt,isa 1
     614 00000020 1E49              SUBS      A2, A2, #1            ; [DPU_3_PIPE] |214|  ; [ORIG 16-BIT INS]
     615 00000022 B2C9              UXTB      A2, A2                ; [DPU_3_PIPE] |214|  ; [ORIG 16-BIT INS]
     616 00000024 7021              STRB      A2, [V1, #0]          ; [DPU_3_PIPE] |214|  ; [ORIG 16-BIT INS]
     617 00000026 B939              CBNZ      A2, ||$C$L7||         ; []  ; [ORIG 16-BIT INS]
     618                            .dwpsn  file "../Application/ICall/icall_cc2650.c",line 215,column 5,is_stmt,isa 1
     619                            ; BRANCHCC OCCURS {||$C$L7||}    ; [] |215| 
     620                    ;* --------------------------------------------------------------------------*
     621                            .dwpsn  file "../Application/ICall/icall_cc2650.c",line 219,column 7,is_stmt,isa 1
     622                    $C$DW$51        .dwtag  DW_TAG_TI_branch
     623                            .dwattr $C$DW$51, DW_AT_low_pc(0x00)
     624                            .dwattr $C$DW$51, DW_AT_name("ICall_leaveCSImpl")
     625                            .dwattr $C$DW$51, DW_AT_TI_call
     626                    
     627 00000028 FFFEF7FF!         BL        ICall_leaveCSImpl     ; [DPU_3_PIPE] |219|  ; [KEEP 32-BIT INS]
     628                            ; CALL OCCURS {ICall_leaveCSImpl }  ; [] |219| 
     629                            .dwpsn  file "../Application/ICall/icall_cc2650.c",line 220,column 7,is_stmt,isa 1
     630 0000002c 6860              LDR       A1, [V1, #4]          ; [DPU_3_PIPE] |220|  ; [ORIG 16-BIT INS]
     631                    $C$DW$52        .dwtag  DW_TAG_TI_branch
     632                            .dwattr $C$DW$52, DW_AT_low_pc(0x00)
     633                            .dwattr $C$DW$52, DW_AT_name("ICallPlatform_pwrDispenseImpl")
     634                            .dwattr $C$DW$52, DW_AT_TI_call
     635                    
     636 0000002e FFFEF7FF!         BL        ICallPlatform_pwrDispenseImpl ; [DPU_3_PIPE] |220|  ; [KEEP 32-BIT INS]
     637                            ; CALL OCCURS {ICallPlatform_pwrDispenseImpl }  ; [] |220| 
     638                            .dwpsn  file "../Application/ICall/icall_cc2650.c",line 221,column 7,is_stmt,isa 1
     639 00000032 2000              MOVS      A1, #0                ; [DPU_3_PIPE] |221|  ; [ORIG 16-BIT INS]
     640 00000034 7168              STRB      A1, [V2, #5]          ; [DPU_3_PIPE] |221|  ; [ORIG 16-BIT INS]
     641                            .dwpsn  file "../Application/ICall/icall_cc2650.c",line 222,column 5,is_stmt,isa 1
     642 00000036 E018              B         ||$C$L12||            ; [DPU_3_PIPE] |222|  ; [ORIG 16-BIT INS]
     643                            ; BRANCH OCCURS {||$C$L12||}     ; [] |222| 
     644                    ;* --------------------------------------------------------------------------*
     645 00000038           ||$C$L7||:    
     646 00000038 4605              MOV       V2, A1                ; [DPU_3_PIPE]  ; [ORIG 16-BIT INS]
     647                            .dwpsn  file "../Application/ICall/icall_cc2650.c",line 225,column 7,is_stmt,isa 1
     648 0000003a E013              B         ||$C$L11||            ; [DPU_3_PIPE] |225|  ; [ORIG 16-BIT INS]
     649                            ; BRANCH OCCURS {||$C$L11||}     ; [] |225| 
     650                    ;* --------------------------------------------------------------------------*
     651 0000003c           ||$C$L8||:    
     652                            .dwpsn  file "../Application/ICall/icall_cc2650.c",line 188,column 25,is_stmt,isa 1
     653                    $C$DW$53        .dwtag  DW_TAG_TI_branch
     654                            .dwattr $C$DW$53, DW_AT_low_pc(0x00)
     655                            .dwattr $C$DW$53, DW_AT_name("ICall_enterCSImpl")
     656                            .dwattr $C$DW$53, DW_AT_TI_call
     657                    
     658 0000003c FFFEF7FF!         BL        ICall_enterCSImpl     ; [DPU_3_PIPE] |188|  ; [KEEP 32-BIT INS]
     659                            ; CALL OCCURS {ICall_enterCSImpl }  ; [] |188| 
     660 00000040 4605              MOV       V2, A1                ; [DPU_3_PIPE] |188|  ; [ORIG 16-BIT INS]
TI ARM Assembler PC v16.9.9 Sun Nov 25 16:40:45 2018

Tools Copyright (c) 1996-2017 Texas Instruments Incorporated
C:\Users\Stryd\AppData\Local\Temp\{20FABBE7-6C1F-4BB7-B116-814D10534D3D} PAGE   13

     661                            .dwpsn  file "../Application/ICall/icall_cc2650.c",line 189,column 5,is_stmt,isa 1
     662 00000042 7820              LDRB      A1, [V1, #0]          ; [DPU_3_PIPE] |189|  ; [ORIG 16-BIT INS]
     663 00000044 28FF              CMP       A1, #255              ; [DPU_3_PIPE] |189|  ; [ORIG 16-BIT INS]
     664 00000046 D105              BNE       ||$C$L10||            ; [DPU_3_PIPE] |189|  ; [ORIG 16-BIT INS]
     665                            ; BRANCHCC OCCURS {||$C$L10||}   ; [] |189| 
     666                    ;* --------------------------------------------------------------------------*
     667                            .dwpsn  file "../Application/ICall/icall_cc2650.c",line 193,column 7,is_stmt,isa 1
     668 00000048 0406F06F          MVN       V1, #6                ; [DPU_3_PIPE] |193|  ; [KEEP 32-BIT INS]
     669                    ;* --------------------------------------------------------------------------*
     670 0000004c           ||$C$L9||:    
     671                            .dwpsn  file "../Application/ICall/icall_cc2650.c",line 192,column 7,is_stmt,isa 1
     672 0000004c 4628              MOV       A1, V2                ; [DPU_3_PIPE] |192|  ; [ORIG 16-BIT INS]
     673                    $C$DW$54        .dwtag  DW_TAG_TI_branch
     674                            .dwattr $C$DW$54, DW_AT_low_pc(0x00)
     675                            .dwattr $C$DW$54, DW_AT_name("ICall_leaveCSImpl")
     676                            .dwattr $C$DW$54, DW_AT_TI_call
     677                    
     678 0000004e FFFEF7FF!         BL        ICall_leaveCSImpl     ; [DPU_3_PIPE] |192|  ; [KEEP 32-BIT INS]
     679                            ; CALL OCCURS {ICall_leaveCSImpl }  ; [] |192| 
     680                            .dwpsn  file "../Application/ICall/icall_cc2650.c",line 193,column 7,is_stmt,isa 1
     681 00000052 E00B              B         ||$C$L13||            ; [DPU_3_PIPE] |193|  ; [ORIG 16-BIT INS]
     682                            ; BRANCH OCCURS {||$C$L13||}     ; [] |193| 
     683                    ;* --------------------------------------------------------------------------*
     684 00000054           ||$C$L10||:    
     685                            .dwpsn  file "../Application/ICall/icall_cc2650.c",line 195,column 5,is_stmt,isa 1
     686 00000054 1C40              ADDS      A1, A1, #1            ; [DPU_3_PIPE] |195|  ; [ORIG 16-BIT INS]
     687 00000056 B2C0              UXTB      A1, A1                ; [DPU_3_PIPE] |195|  ; [ORIG 16-BIT INS]
     688                            .dwpsn  file "../Application/ICall/icall_cc2650.c",line 196,column 5,is_stmt,isa 1
     689 00000058 2801              CMP       A1, #1                ; [DPU_3_PIPE] |196|  ; [ORIG 16-BIT INS]
     690                            .dwpsn  file "../Application/ICall/icall_cc2650.c",line 195,column 5,is_stmt,isa 1
     691 0000005a 7020              STRB      A1, [V1, #0]          ; [DPU_3_PIPE] |195|  ; [ORIG 16-BIT INS]
     692                            .dwpsn  file "../Application/ICall/icall_cc2650.c",line 196,column 5,is_stmt,isa 1
     693 0000005c D102              BNE       ||$C$L11||            ; [DPU_3_PIPE] |196|  ; [ORIG 16-BIT INS]
     694                            ; BRANCHCC OCCURS {||$C$L11||}   ; [] |196| 
     695                    ;* --------------------------------------------------------------------------*
     696                            .dwpsn  file "../Application/ICall/icall_cc2650.c",line 200,column 7,is_stmt,isa 1
     697 0000005e 6860              LDR       A1, [V1, #4]          ; [DPU_3_PIPE] |200|  ; [ORIG 16-BIT INS]
     698                    $C$DW$55        .dwtag  DW_TAG_TI_branch
     699                            .dwattr $C$DW$55, DW_AT_low_pc(0x00)
     700                            .dwattr $C$DW$55, DW_AT_name("ICallPlatform_pwrRequireImpl")
     701                            .dwattr $C$DW$55, DW_AT_TI_call
     702                    
     703 00000060 FFFEF7FF!         BL        ICallPlatform_pwrRequireImpl ; [DPU_3_PIPE] |200|  ; [KEEP 32-BIT INS]
     704                            ; CALL OCCURS {ICallPlatform_pwrRequireImpl }  ; [] |200| 
     705                    ;* --------------------------------------------------------------------------*
     706 00000064           ||$C$L11||:    
     707                            .dwpsn  file "../Application/ICall/icall_cc2650.c",line 202,column 5,is_stmt,isa 1
     708 00000064 4628              MOV       A1, V2                ; [DPU_3_PIPE] |202|  ; [ORIG 16-BIT INS]
     709                    $C$DW$56        .dwtag  DW_TAG_TI_branch
     710                            .dwattr $C$DW$56, DW_AT_low_pc(0x00)
     711                            .dwattr $C$DW$56, DW_AT_name("ICall_leaveCSImpl")
     712                            .dwattr $C$DW$56, DW_AT_TI_call
     713                    
     714 00000066 FFFEF7FF!         BL        ICall_leaveCSImpl     ; [DPU_3_PIPE] |202|  ; [KEEP 32-BIT INS]
     715                            ; CALL OCCURS {ICall_leaveCSImpl }  ; [] |202| 
TI ARM Assembler PC v16.9.9 Sun Nov 25 16:40:45 2018

Tools Copyright (c) 1996-2017 Texas Instruments Incorporated
C:\Users\Stryd\AppData\Local\Temp\{20FABBE7-6C1F-4BB7-B116-814D10534D3D} PAGE   14

     716                    ;* --------------------------------------------------------------------------*
     717 0000006a           ||$C$L12||:    
     718                            .dwpsn  file "../Application/ICall/icall_cc2650.c",line 228,column 3,is_stmt,isa 1
     719 0000006a 2400              MOVS      V1, #0                ; [DPU_3_PIPE] |228|  ; [ORIG 16-BIT INS]
     720                    ;* --------------------------------------------------------------------------*
     721 0000006c           ||$C$L13||:    
     722 0000006c 4620              MOV       A1, V1                ; [DPU_3_PIPE] |228|  ; [ORIG 16-BIT INS]
     723                    $C$DW$57        .dwtag  DW_TAG_TI_branch
     724                            .dwattr $C$DW$57, DW_AT_low_pc(0x00)
     725                            .dwattr $C$DW$57, DW_AT_TI_return
     726                    
     727 0000006e BD38              POP       {A4, V1, V2, PC}      ; [DPU_3_PIPE]  ; [ORIG 16-BIT INS]
     728                            .dwcfi  cfa_offset, 0
     729                            .dwcfi  restore_reg, 5
     730                            .dwcfi  restore_reg, 4
     731                            .dwcfi  restore_reg, 3
     732                            ; BRANCH OCCURS                  ; [] 
     733                            .dwattr $C$DW$45, DW_AT_TI_end_file("../Application/ICall/icall_cc2650.c")
     734                            .dwattr $C$DW$45, DW_AT_TI_end_line(0xe5)
     735                            .dwattr $C$DW$45, DW_AT_TI_end_column(0x01)
     736                            .dwendentry
     737                            .dwendtag $C$DW$45
     738                    
     739 00000000                   .sect   ".text:ICallPlatform_pwrSwitchXOSCHF"
     740                            .clink
     741                            .thumbfunc ICallPlatform_pwrSwitchXOSCHF
     742 00000000                   .thumb
     743                            .global ICallPlatform_pwrSwitchXOSCHF
     744                    
     745                    $C$DW$58        .dwtag  DW_TAG_subprogram
     746                            .dwattr $C$DW$58, DW_AT_name("ICallPlatform_pwrSwitchXOSCHF")
     747                            .dwattr $C$DW$58, DW_AT_low_pc(ICallPlatform_pwrSwitchXOSCHF)
     748                            .dwattr $C$DW$58, DW_AT_high_pc(0x00)
     749                            .dwattr $C$DW$58, DW_AT_TI_symbol_name("ICallPlatform_pwrSwitchXOSCHF")
     750                            .dwattr $C$DW$58, DW_AT_external
     751                            .dwattr $C$DW$58, DW_AT_type(*$C$DW$T$85)
     752                            .dwattr $C$DW$58, DW_AT_TI_begin_file("../Application/ICall/icall_cc2650.c")
     753                            .dwattr $C$DW$58, DW_AT_TI_begin_line(0x14d)
     754                            .dwattr $C$DW$58, DW_AT_TI_begin_column(0x01)
     755                            .dwattr $C$DW$58, DW_AT_decl_file("../Application/ICall/icall_cc2650.c")
     756                            .dwattr $C$DW$58, DW_AT_decl_line(0x14d)
     757                            .dwattr $C$DW$58, DW_AT_decl_column(0x01)
     758                            .dwattr $C$DW$58, DW_AT_TI_max_frame_size(0x08)
     759                            .dwpsn  file "../Application/ICall/icall_cc2650.c",line 334,column 1,is_stmt,address ICallPlat
     760                    
     761                            .dwfde $C$DW$CIE, ICallPlatform_pwrSwitchXOSCHF
     762                    $C$DW$59        .dwtag  DW_TAG_formal_parameter
     763                            .dwattr $C$DW$59, DW_AT_name("args")
     764                            .dwattr $C$DW$59, DW_AT_TI_symbol_name("args")
     765                            .dwattr $C$DW$59, DW_AT_type(*$C$DW$T$86)
     766                            .dwattr $C$DW$59, DW_AT_location[DW_OP_reg0]
     767                    
     768                    
     769                    ;*****************************************************************************
     770                    ;* FUNCTION NAME: ICallPlatform_pwrSwitchXOSCHF                              *
TI ARM Assembler PC v16.9.9 Sun Nov 25 16:40:45 2018

Tools Copyright (c) 1996-2017 Texas Instruments Incorporated
C:\Users\Stryd\AppData\Local\Temp\{20FABBE7-6C1F-4BB7-B116-814D10534D3D} PAGE   15

     771                    ;*                                                                           *
     772                    ;*   Regs Modified     : A1,A2,A3,A4,V9,SP,LR,SR                             *
     773                    ;*   Regs Used         : A1,A2,A3,A4,V9,SP,LR,SR                             *
     774                    ;*   Local Frame Size  : 0 Args + 0 Auto + 4 Save = 4 byte                   *
     775                    ;*****************************************************************************
     776 00000000           ICallPlatform_pwrSwitchXOSCHF:
     777                    ;* --------------------------------------------------------------------------*
     778                            .dwcfi  cfa_offset, 0
     779 00000000 B508              PUSH      {A4, LR}              ; [DPU_3_PIPE]  ; [ORIG 16-BIT INS]
     780                            .dwcfi  cfa_offset, 8
     781                            .dwcfi  save_reg_to_mem, 14, -4
     782                            .dwcfi  save_reg_to_mem, 3, -8
     783                            .dwpsn  file "../Application/ICall/icall_cc2650.c",line 335,column 3,is_stmt,isa 1
     784                    $C$DW$60        .dwtag  DW_TAG_TI_branch
     785                            .dwattr $C$DW$60, DW_AT_low_pc(0x00)
     786                            .dwattr $C$DW$60, DW_AT_name("PowerCC26XX_switchXOSC_HF")
     787                            .dwattr $C$DW$60, DW_AT_TI_call
     788                    
     789 00000002 FFFEF7FF!         BL        PowerCC26XX_switchXOSC_HF ; [DPU_3_PIPE] |335|  ; [KEEP 32-BIT INS]
     790                            ; CALL OCCURS {PowerCC26XX_switchXOSC_HF }  ; [] |335| 
     791                            .dwpsn  file "../Application/ICall/icall_cc2650.c",line 336,column 3,is_stmt,isa 1
     792 00000006 2000              MOVS      A1, #0                ; [DPU_3_PIPE] |336|  ; [ORIG 16-BIT INS]
     793                    $C$DW$61        .dwtag  DW_TAG_TI_branch
     794                            .dwattr $C$DW$61, DW_AT_low_pc(0x00)
     795                            .dwattr $C$DW$61, DW_AT_TI_return
     796                    
     797 00000008 BD08              POP       {A4, PC}              ; [DPU_3_PIPE]  ; [ORIG 16-BIT INS]
     798                            .dwcfi  cfa_offset, 0
     799                            .dwcfi  restore_reg, 3
     800                            ; BRANCH OCCURS                  ; [] 
     801                            .dwattr $C$DW$58, DW_AT_TI_end_file("../Application/ICall/icall_cc2650.c")
     802                            .dwattr $C$DW$58, DW_AT_TI_end_line(0x151)
     803                            .dwattr $C$DW$58, DW_AT_TI_end_column(0x01)
     804                            .dwendentry
     805                            .dwendtag $C$DW$58
     806                    
     807 00000000                   .sect   ".text:ICallPlatform_pwrRequire"
     808                            .clink
     809                            .thumbfunc ICallPlatform_pwrRequire
     810 00000000                   .thumb
     811                            .global ICallPlatform_pwrRequire
     812                    
     813                    $C$DW$62        .dwtag  DW_TAG_subprogram
     814                            .dwattr $C$DW$62, DW_AT_name("ICallPlatform_pwrRequire")
     815                            .dwattr $C$DW$62, DW_AT_low_pc(ICallPlatform_pwrRequire)
     816                            .dwattr $C$DW$62, DW_AT_high_pc(0x00)
     817                            .dwattr $C$DW$62, DW_AT_TI_symbol_name("ICallPlatform_pwrRequire")
     818                            .dwattr $C$DW$62, DW_AT_external
     819                            .dwattr $C$DW$62, DW_AT_type(*$C$DW$T$85)
     820                            .dwattr $C$DW$62, DW_AT_TI_begin_file("../Application/ICall/icall_cc2650.c")
     821                            .dwattr $C$DW$62, DW_AT_TI_begin_line(0x103)
     822                            .dwattr $C$DW$62, DW_AT_TI_begin_column(0x01)
     823                            .dwattr $C$DW$62, DW_AT_decl_file("../Application/ICall/icall_cc2650.c")
     824                            .dwattr $C$DW$62, DW_AT_decl_line(0x103)
     825                            .dwattr $C$DW$62, DW_AT_decl_column(0x01)
TI ARM Assembler PC v16.9.9 Sun Nov 25 16:40:45 2018

Tools Copyright (c) 1996-2017 Texas Instruments Incorporated
C:\Users\Stryd\AppData\Local\Temp\{20FABBE7-6C1F-4BB7-B116-814D10534D3D} PAGE   16

     826                            .dwattr $C$DW$62, DW_AT_TI_max_frame_size(0x08)
     827                            .dwpsn  file "../Application/ICall/icall_cc2650.c",line 260,column 1,is_stmt,address ICallPlat
     828                    
     829                            .dwfde $C$DW$CIE, ICallPlatform_pwrRequire
     830                    $C$DW$63        .dwtag  DW_TAG_formal_parameter
     831                            .dwattr $C$DW$63, DW_AT_name("args")
     832                            .dwattr $C$DW$63, DW_AT_TI_symbol_name("args")
     833                            .dwattr $C$DW$63, DW_AT_type(*$C$DW$T$224)
     834                            .dwattr $C$DW$63, DW_AT_location[DW_OP_reg0]
     835                    
     836                    
     837                    ;*****************************************************************************
     838                    ;* FUNCTION NAME: ICallPlatform_pwrRequire                                   *
     839                    ;*                                                                           *
     840                    ;*   Regs Modified     : A1,A2,A3,A4,V9,SP,LR,SR                             *
     841                    ;*   Regs Used         : A1,A2,A3,A4,V9,SP,LR,SR                             *
     842                    ;*   Local Frame Size  : 0 Args + 0 Auto + 4 Save = 4 byte                   *
     843                    ;*****************************************************************************
     844                    ICallPlatform_pwrRequire:
     845                    ;* --------------------------------------------------------------------------*
     846                    ;* A1    assigned to $O$C1
     847                    ;* A1    assigned to args
     848                    $C$DW$64        .dwtag  DW_TAG_variable
     849                            .dwattr $C$DW$64, DW_AT_name("args")
     850                            .dwattr $C$DW$64, DW_AT_TI_symbol_name("args")
     851                            .dwattr $C$DW$64, DW_AT_type(*$C$DW$T$292)
     852                            .dwattr $C$DW$64, DW_AT_location[DW_OP_reg0]
     853                    
     854                            .dwcfi  cfa_offset, 0
     855 00000000 B508              PUSH      {A4, LR}              ; [DPU_3_PIPE]  ; [ORIG 16-BIT INS]
     856                            .dwcfi  cfa_offset, 8
     857                            .dwcfi  save_reg_to_mem, 14, -4
     858                            .dwcfi  save_reg_to_mem, 3, -8
     859                            .dwpsn  file "../Application/ICall/icall_cc2650.c",line 261,column 3,is_stmt,isa 1
     860 00000002 6840              LDR       A1, [A1, #4]          ; [DPU_3_PIPE] |261|  ; [ORIG 16-BIT INS]
     861 00000004 4F7FF010          TST       A1, #-16777216        ; [DPU_3_PIPE] |261|  ; [KEEP 32-BIT INS]
     862 00000008 BF18              IT        NE                    ; [DPU_3_PIPE]  ; [ORIG 16-BIT INS]
     863                            .dwpsn  file "../Application/ICall/icall_cc2650.c",line 263,column 5,is_stmt,isa 1
     864 0000000a 0002F06F          MVNNE     A1, #2                ; [DPU_3_PIPE] |263|  ; [KEEP 32-BIT INS]
     865 0000000e D102              BNE       ||$C$L14||            ; [DPU_3_PIPE] |263|  ; [ORIG 16-BIT INS]
     866                            ; BRANCHCC OCCURS {||$C$L14||}   ; [] |263| 
     867                    ;* --------------------------------------------------------------------------*
     868                            .dwpsn  file "../Application/ICall/icall_cc2650.c",line 266,column 3,is_stmt,isa 1
     869                    $C$DW$65        .dwtag  DW_TAG_TI_branch
     870                            .dwattr $C$DW$65, DW_AT_low_pc(0x00)
     871                            .dwattr $C$DW$65, DW_AT_name("ICallPlatform_pwrRequireImpl")
     872                            .dwattr $C$DW$65, DW_AT_TI_call
     873                    
     874 00000010 FFFEF7FF!         BL        ICallPlatform_pwrRequireImpl ; [DPU_3_PIPE] |266|  ; [KEEP 32-BIT INS]
     875                            ; CALL OCCURS {ICallPlatform_pwrRequireImpl }  ; [] |266| 
     876                            .dwpsn  file "../Application/ICall/icall_cc2650.c",line 268,column 3,is_stmt,isa 1
     877 00000014 2000              MOVS      A1, #0                ; [DPU_3_PIPE] |268|  ; [ORIG 16-BIT INS]
     878                    ;* --------------------------------------------------------------------------*
     879                    ||$C$L14||:    
     880                    $C$DW$66        .dwtag  DW_TAG_TI_branch
TI ARM Assembler PC v16.9.9 Sun Nov 25 16:40:45 2018

Tools Copyright (c) 1996-2017 Texas Instruments Incorporated
C:\Users\Stryd\AppData\Local\Temp\{20FABBE7-6C1F-4BB7-B116-814D10534D3D} PAGE   17

     881                            .dwattr $C$DW$66, DW_AT_low_pc(0x00)
     882                            .dwattr $C$DW$66, DW_AT_TI_return
     883                    
     884 00000016 BD08              POP       {A4, PC}              ; [DPU_3_PIPE]  ; [ORIG 16-BIT INS]
     885                            .dwcfi  cfa_offset, 0
     886                            .dwcfi  restore_reg, 3
     887                            ; BRANCH OCCURS                  ; [] 
     888                            .dwattr $C$DW$62, DW_AT_TI_end_file("../Application/ICall/icall_cc2650.c")
     889                            .dwattr $C$DW$62, DW_AT_TI_end_line(0x10d)
     890                            .dwattr $C$DW$62, DW_AT_TI_end_column(0x01)
     891                            .dwendentry
     892                            .dwendtag $C$DW$62
     893                    
     894 00000000                   .sect   ".text:ICallPlatform_pwrRegisterNotify"
     895                            .clink
     896                            .thumbfunc ICallPlatform_pwrRegisterNotify
     897 00000000                   .thumb
     898                            .global ICallPlatform_pwrRegisterNotify
     899                    
     900                    $C$DW$67        .dwtag  DW_TAG_subprogram
     901                            .dwattr $C$DW$67, DW_AT_name("ICallPlatform_pwrRegisterNotify")
     902                            .dwattr $C$DW$67, DW_AT_low_pc(ICallPlatform_pwrRegisterNotify)
     903                            .dwattr $C$DW$67, DW_AT_high_pc(0x00)
     904                            .dwattr $C$DW$67, DW_AT_TI_symbol_name("ICallPlatform_pwrRegisterNotify")
     905                            .dwattr $C$DW$67, DW_AT_external
     906                            .dwattr $C$DW$67, DW_AT_type(*$C$DW$T$85)
     907                            .dwattr $C$DW$67, DW_AT_TI_begin_file("../Application/ICall/icall_cc2650.c")
     908                            .dwattr $C$DW$67, DW_AT_TI_begin_line(0x11f)
     909                            .dwattr $C$DW$67, DW_AT_TI_begin_column(0x01)
     910                            .dwattr $C$DW$67, DW_AT_decl_file("../Application/ICall/icall_cc2650.c")
     911                            .dwattr $C$DW$67, DW_AT_decl_line(0x11f)
     912                            .dwattr $C$DW$67, DW_AT_decl_column(0x01)
     913                            .dwattr $C$DW$67, DW_AT_TI_max_frame_size(0x08)
     914                            .dwpsn  file "../Application/ICall/icall_cc2650.c",line 288,column 1,is_stmt,address ICallPlat
     915                    
     916                            .dwfde $C$DW$CIE, ICallPlatform_pwrRegisterNotify
     917                    $C$DW$68        .dwtag  DW_TAG_variable
     918                            .dwattr $C$DW$68, DW_AT_name("events")
     919                            .dwattr $C$DW$68, DW_AT_TI_symbol_name("events$1")
     920                            .dwattr $C$DW$68, DW_AT_type(*$C$DW$T$265)
     921                            .dwattr $C$DW$68, DW_AT_location[DW_OP_addr events$1]
     922                    
     923                    $C$DW$69        .dwtag  DW_TAG_formal_parameter
     924                            .dwattr $C$DW$69, DW_AT_name("args")
     925                            .dwattr $C$DW$69, DW_AT_TI_symbol_name("args")
     926                            .dwattr $C$DW$69, DW_AT_type(*$C$DW$T$227)
     927                            .dwattr $C$DW$69, DW_AT_location[DW_OP_reg0]
     928                    
     929                    
     930                    ;*****************************************************************************
     931                    ;* FUNCTION NAME: ICallPlatform_pwrRegisterNotify                            *
     932                    ;*                                                                           *
     933                    ;*   Regs Modified     : A1,A2,A3,A4,V1,V9,SP,LR,SR                          *
     934                    ;*   Regs Used         : A1,A2,A3,A4,V1,V9,SP,LR,SR                          *
     935                    ;*   Local Frame Size  : 0 Args + 0 Auto + 8 Save = 8 byte                   *
TI ARM Assembler PC v16.9.9 Sun Nov 25 16:40:45 2018

Tools Copyright (c) 1996-2017 Texas Instruments Incorporated
C:\Users\Stryd\AppData\Local\Temp\{20FABBE7-6C1F-4BB7-B116-814D10534D3D} PAGE   18

     936                    ;*****************************************************************************
     937                    ICallPlatform_pwrRegisterNotify:
     938                    ;* --------------------------------------------------------------------------*
     939                    ;* A1    assigned to $O$obj_0
     940                    ;* V1    assigned to args
     941                    $C$DW$70        .dwtag  DW_TAG_variable
     942                            .dwattr $C$DW$70, DW_AT_name("args")
     943                            .dwattr $C$DW$70, DW_AT_TI_symbol_name("args")
     944                            .dwattr $C$DW$70, DW_AT_type(*$C$DW$T$303)
     945                            .dwattr $C$DW$70, DW_AT_location[DW_OP_reg4]
     946                    
     947                            .dwcfi  cfa_offset, 0
     948 00000000 B510              PUSH      {V1, LR}              ; [DPU_3_PIPE]  ; [ORIG 16-BIT INS]
     949                            .dwcfi  cfa_offset, 8
     950                            .dwcfi  save_reg_to_mem, 14, -4
     951                            .dwcfi  save_reg_to_mem, 4, -8
     952 00000002 4604              MOV       V1, A1                ; [DPU_3_PIPE] |288|  ; [ORIG 16-BIT INS]
     953                            .dwpsn  file "../Application/ICall/icall_cc2650.c",line 300,column 3,is_stmt,isa 1
     954 00000004 68A1              LDR       A2, [V1, #8]          ; [DPU_3_PIPE] |300|  ; [ORIG 16-BIT INS]
     955 00000006 6860              LDR       A1, [V1, #4]          ; [DPU_3_PIPE] |300|  ; [ORIG 16-BIT INS]
     956 00000008 6008              STR       A1, [A2, #0]          ; [DPU_3_PIPE] |300|  ; [ORIG 16-BIT INS]
     957                            .dwpsn  file "../Application/ICall/icall_cc2650.c",line 303,column 5,is_stmt,isa 1
     958 0000000a 2014              MOVS      A1, #20               ; [DPU_3_PIPE] |303|  ; [ORIG 16-BIT INS]
     959                    $C$DW$71        .dwtag  DW_TAG_TI_branch
     960                            .dwattr $C$DW$71, DW_AT_low_pc(0x00)
     961                            .dwattr $C$DW$71, DW_AT_name("ICall_mallocImpl")
     962                            .dwattr $C$DW$71, DW_AT_TI_call
     963                    
     964 0000000c FFFEF7FF!         BL        ICall_mallocImpl      ; [DPU_3_PIPE] |303|  ; [KEEP 32-BIT INS]
     965                            ; CALL OCCURS {ICall_mallocImpl }  ; [] |303| 
     966 00000010 B138              CBZ       A1, ||$C$L15||        ; []  ; [ORIG 16-BIT INS]
     967                            .dwpsn  file "../Application/ICall/icall_cc2650.c",line 304,column 5,is_stmt,isa 1
     968                            ; BRANCHCC OCCURS {||$C$L15||}   ; [] |304| 
     969                    ;* --------------------------------------------------------------------------*
     970                            .dwcfi  remember_state
     971                            .dwpsn  file "../Application/ICall/icall_cc2650.c",line 316,column 5,is_stmt,isa 1
     972 00000012 4905              LDR       A2, $C$CON2           ; [DPU_3_PIPE] |316|  ; [ORIG 16-BIT INS]
     973 00000014 68A3              LDR       A4, [V1, #8]          ; [DPU_3_PIPE] |316|  ; [ORIG 16-BIT INS]
     974 00000016 4A05              LDR       A3, $C$CON3           ; [DPU_3_PIPE] |316|  ; [ORIG 16-BIT INS]
     975 00000018 6809              LDR       A2, [A2, #0]          ; [DPU_3_PIPE] |316|  ; [ORIG 16-BIT INS]
     976                    $C$DW$72        .dwtag  DW_TAG_TI_branch
     977                            .dwattr $C$DW$72, DW_AT_low_pc(0x00)
     978                            .dwattr $C$DW$72, DW_AT_name("Power_registerNotify")
     979                            .dwattr $C$DW$72, DW_AT_TI_call
     980                    
     981 0000001a FFFEF7FF!         BL        Power_registerNotify  ; [DPU_3_PIPE] |316|  ; [KEEP 32-BIT INS]
     982                            ; CALL OCCURS {Power_registerNotify }  ; [] |316| 
     983                            .dwpsn  file "../Application/ICall/icall_cc2650.c",line 320,column 3,is_stmt,isa 1
     984 0000001e 2000              MOVS      A1, #0                ; [DPU_3_PIPE] |320|  ; [ORIG 16-BIT INS]
     985                    $C$DW$73        .dwtag  DW_TAG_TI_branch
     986                            .dwattr $C$DW$73, DW_AT_low_pc(0x00)
     987                            .dwattr $C$DW$73, DW_AT_TI_return
     988                    
     989 00000020 BD10              POP       {V1, PC}              ; [DPU_3_PIPE]  ; [ORIG 16-BIT INS]
     990                            .dwcfi  cfa_offset, 0
TI ARM Assembler PC v16.9.9 Sun Nov 25 16:40:45 2018

Tools Copyright (c) 1996-2017 Texas Instruments Incorporated
C:\Users\Stryd\AppData\Local\Temp\{20FABBE7-6C1F-4BB7-B116-814D10534D3D} PAGE   19

     991                            .dwcfi  restore_reg, 4
     992                            ; BRANCH OCCURS                  ; [] 
     993                            .dwcfi  restore_state
     994                    ;* --------------------------------------------------------------------------*
     995 00000022           ||$C$L15||:    
     996                            .dwpsn  file "../Application/ICall/icall_cc2650.c",line 311,column 7,is_stmt,isa 1
     997 00000022 0003F06F          MVN       A1, #3                ; [DPU_3_PIPE] |311|  ; [KEEP 32-BIT INS]
     998                    ;* --------------------------------------------------------------------------*
     999                    $C$DW$74        .dwtag  DW_TAG_TI_branch
    1000                            .dwattr $C$DW$74, DW_AT_low_pc(0x00)
    1001                            .dwattr $C$DW$74, DW_AT_TI_return
    1002                    
    1003 00000026 BD10              POP       {V1, PC}              ; [DPU_3_PIPE]  ; [ORIG 16-BIT INS]
    1004                            .dwcfi  cfa_offset, 0
    1005                            .dwcfi  restore_reg, 4
    1006                            ; BRANCH OCCURS                  ; [] 
    1007                            .dwattr $C$DW$67, DW_AT_TI_end_file("../Application/ICall/icall_cc2650.c")
    1008                            .dwattr $C$DW$67, DW_AT_TI_end_line(0x141)
    1009                            .dwattr $C$DW$67, DW_AT_TI_end_column(0x01)
    1010                            .dwendentry
    1011                            .dwendtag $C$DW$67
    1012                    
    1013 00000000                   .sect   ".text:ICallPlatform_pwrNotify"
    1014                            .clink
    1015                            .thumbfunc ICallPlatform_pwrNotify
    1016 00000000                   .thumb
    1017                    
    1018                    $C$DW$75        .dwtag  DW_TAG_subprogram
    1019                            .dwattr $C$DW$75, DW_AT_name("ICallPlatform_pwrNotify")
    1020                            .dwattr $C$DW$75, DW_AT_low_pc(ICallPlatform_pwrNotify)
    1021                            .dwattr $C$DW$75, DW_AT_high_pc(0x00)
    1022                            .dwattr $C$DW$75, DW_AT_TI_symbol_name("ICallPlatform_pwrNotify")
    1023                            .dwattr $C$DW$75, DW_AT_type(*$C$DW$T$101)
    1024                            .dwattr $C$DW$75, DW_AT_TI_begin_file("../Application/ICall/icall_cc2650.c")
    1025                            .dwattr $C$DW$75, DW_AT_TI_begin_line(0x5d)
    1026                            .dwattr $C$DW$75, DW_AT_TI_begin_column(0x01)
    1027                            .dwattr $C$DW$75, DW_AT_decl_file("../Application/ICall/icall_cc2650.c")
    1028                            .dwattr $C$DW$75, DW_AT_decl_line(0x5d)
    1029                            .dwattr $C$DW$75, DW_AT_decl_column(0x01)
    1030                            .dwattr $C$DW$75, DW_AT_TI_max_frame_size(0x08)
    1031                            .dwpsn  file "../Application/ICall/icall_cc2650.c",line 95,column 1,is_stmt,address ICallPlatf
    1032                    
    1033                            .dwfde $C$DW$CIE, ICallPlatform_pwrNotify
    1034                    $C$DW$76        .dwtag  DW_TAG_formal_parameter
    1035                            .dwattr $C$DW$76, DW_AT_name("eventType")
    1036                            .dwattr $C$DW$76, DW_AT_TI_symbol_name("eventType")
    1037                            .dwattr $C$DW$76, DW_AT_type(*$C$DW$T$11)
    1038                            .dwattr $C$DW$76, DW_AT_location[DW_OP_reg0]
    1039                    
    1040                    $C$DW$77        .dwtag  DW_TAG_formal_parameter
    1041                            .dwattr $C$DW$77, DW_AT_name("eventArg")
    1042                            .dwattr $C$DW$77, DW_AT_TI_symbol_name("eventArg")
    1043                            .dwattr $C$DW$77, DW_AT_type(*$C$DW$T$41)
    1044                            .dwattr $C$DW$77, DW_AT_location[DW_OP_reg1]
    1045                    
TI ARM Assembler PC v16.9.9 Sun Nov 25 16:40:45 2018

Tools Copyright (c) 1996-2017 Texas Instruments Incorporated
C:\Users\Stryd\AppData\Local\Temp\{20FABBE7-6C1F-4BB7-B116-814D10534D3D} PAGE   20

    1046                    $C$DW$78        .dwtag  DW_TAG_formal_parameter
    1047                            .dwattr $C$DW$78, DW_AT_name("clientArg")
    1048                            .dwattr $C$DW$78, DW_AT_TI_symbol_name("clientArg")
    1049                            .dwattr $C$DW$78, DW_AT_type(*$C$DW$T$41)
    1050                            .dwattr $C$DW$78, DW_AT_location[DW_OP_reg2]
    1051                    
    1052                    
    1053                    ;*****************************************************************************
    1054                    ;* FUNCTION NAME: ICallPlatform_pwrNotify                                    *
    1055                    ;*                                                                           *
    1056                    ;*   Regs Modified     : A1,A2,A3,A4,V1,V9,SP,LR,SR                          *
    1057                    ;*   Regs Used         : A1,A2,A3,A4,V1,V9,SP,LR,SR                          *
    1058                    ;*   Local Frame Size  : 0 Args + 0 Auto + 8 Save = 8 byte                   *
    1059                    ;*****************************************************************************
    1060                    ICallPlatform_pwrNotify:
    1061                    ;* --------------------------------------------------------------------------*
    1062                    ;* V1    assigned to data
    1063                    $C$DW$79        .dwtag  DW_TAG_variable
    1064                            .dwattr $C$DW$79, DW_AT_name("data")
    1065                            .dwattr $C$DW$79, DW_AT_TI_symbol_name("data")
    1066                            .dwattr $C$DW$79, DW_AT_type(*$C$DW$T$117)
    1067                            .dwattr $C$DW$79, DW_AT_location[DW_OP_reg4]
    1068                    
    1069                    ;* A1    assigned to transition
    1070                    $C$DW$80        .dwtag  DW_TAG_variable
    1071                            .dwattr $C$DW$80, DW_AT_name("transition")
    1072                            .dwattr $C$DW$80, DW_AT_TI_symbol_name("transition")
    1073                            .dwattr $C$DW$80, DW_AT_type(*$C$DW$T$110)
    1074                            .dwattr $C$DW$80, DW_AT_location[DW_OP_reg0]
    1075                    
    1076                            .dwcfi  cfa_offset, 0
    1077 00000000 B510              PUSH      {V1, LR}              ; [DPU_3_PIPE]  ; [ORIG 16-BIT INS]
    1078                            .dwcfi  cfa_offset, 8
    1079                            .dwcfi  save_reg_to_mem, 14, -4
    1080                            .dwcfi  save_reg_to_mem, 4, -8
    1081                            .dwpsn  file "../Application/ICall/icall_cc2650.c",line 98,column 3,is_stmt,isa 1
    1082 00000002 1E40              SUBS      A1, A1, #1            ; [DPU_3_PIPE] |98|  ; [ORIG 16-BIT INS]
    1083                            .dwpsn  file "../Application/ICall/icall_cc2650.c",line 95,column 1,is_stmt,isa 1
    1084 00000004 4614              MOV       V1, A3                ; [DPU_3_PIPE] |95|  ; [ORIG 16-BIT INS]
    1085                            .dwpsn  file "../Application/ICall/icall_cc2650.c",line 98,column 3,is_stmt,isa 1
    1086 00000006 D00E              BEQ       ||$C$L19||            ; [DPU_3_PIPE] |98|  ; [ORIG 16-BIT INS]
    1087                            ; BRANCHCC OCCURS {||$C$L19||}   ; [] |98| 
    1088                    ;* --------------------------------------------------------------------------*
    1089 00000008 1E40              SUBS      A1, A1, #1            ; [DPU_3_PIPE] |98|  ; [ORIG 16-BIT INS]
    1090 0000000a D00A              BEQ       ||$C$L18||            ; [DPU_3_PIPE] |98|  ; [ORIG 16-BIT INS]
    1091                            ; BRANCHCC OCCURS {||$C$L18||}   ; [] |98| 
    1092                    ;* --------------------------------------------------------------------------*
    1093 0000000c 1E80              SUBS      A1, A1, #2            ; [DPU_3_PIPE] |98|  ; [ORIG 16-BIT INS]
    1094 0000000e D006              BEQ       ||$C$L17||            ; [DPU_3_PIPE] |98|  ; [ORIG 16-BIT INS]
    1095                            ; BRANCHCC OCCURS {||$C$L17||}   ; [] |98| 
    1096                    ;* --------------------------------------------------------------------------*
    1097 00000010 1F00              SUBS      A1, A1, #4            ; [DPU_3_PIPE] |98|  ; [ORIG 16-BIT INS]
    1098 00000012 D002              BEQ       ||$C$L16||            ; [DPU_3_PIPE] |98|  ; [ORIG 16-BIT INS]
    1099                            ; BRANCHCC OCCURS {||$C$L16||}   ; [] |98| 
    1100                    ;* --------------------------------------------------------------------------*
TI ARM Assembler PC v16.9.9 Sun Nov 25 16:40:45 2018

Tools Copyright (c) 1996-2017 Texas Instruments Incorporated
C:\Users\Stryd\AppData\Local\Temp\{20FABBE7-6C1F-4BB7-B116-814D10534D3D} PAGE   21

    1101                            .dwpsn  file "../Application/ICall/icall_cc2650.c",line 113,column 5,is_stmt,isa 1
    1102                    $C$DW$81        .dwtag  DW_TAG_TI_branch
    1103                            .dwattr $C$DW$81, DW_AT_low_pc(0x00)
    1104                            .dwattr $C$DW$81, DW_AT_name("halAssertHandler")
    1105                            .dwattr $C$DW$81, DW_AT_TI_call
    1106                    
    1107 00000014 FFFEF7FF!         BL        halAssertHandler      ; [DPU_3_PIPE] |113|  ; [KEEP 32-BIT INS]
    1108                            ; CALL OCCURS {halAssertHandler }  ; [] |113| 
    1109                            .dwpsn  file "../Application/ICall/icall_cc2650.c",line 114,column 5,is_stmt,isa 1
    1110 00000018 E006              B         ||$C$L20||            ; [DPU_3_PIPE] |114|  ; [ORIG 16-BIT INS]
    1111                            ; BRANCH OCCURS {||$C$L20||}     ; [] |114| 
    1112                    ;* --------------------------------------------------------------------------*
    1113 0000001a           ||$C$L16||:    
    1114                            .dwpsn  file "../Application/ICall/icall_cc2650.c",line 110,column 5,is_stmt,isa 1
    1115 0000001a 2005              MOVS      A1, #5                ; [DPU_3_PIPE] |110|  ; [ORIG 16-BIT INS]
    1116                            .dwpsn  file "../Application/ICall/icall_cc2650.c",line 111,column 5,is_stmt,isa 1
    1117 0000001c E004              B         ||$C$L20||            ; [DPU_3_PIPE] |111|  ; [ORIG 16-BIT INS]
    1118                            ; BRANCH OCCURS {||$C$L20||}     ; [] |111| 
    1119                    ;* --------------------------------------------------------------------------*
    1120 0000001e           ||$C$L17||:    
    1121                            .dwpsn  file "../Application/ICall/icall_cc2650.c",line 101,column 5,is_stmt,isa 1
    1122 0000001e 2000              MOVS      A1, #0                ; [DPU_3_PIPE] |101|  ; [ORIG 16-BIT INS]
    1123                            .dwpsn  file "../Application/ICall/icall_cc2650.c",line 102,column 5,is_stmt,isa 1
    1124 00000020 E002              B         ||$C$L20||            ; [DPU_3_PIPE] |102|  ; [ORIG 16-BIT INS]
    1125                            ; BRANCH OCCURS {||$C$L20||}     ; [] |102| 
    1126                    ;* --------------------------------------------------------------------------*
    1127 00000022           ||$C$L18||:    
    1128                            .dwpsn  file "../Application/ICall/icall_cc2650.c",line 107,column 5,is_stmt,isa 1
    1129 00000022 2004              MOVS      A1, #4                ; [DPU_3_PIPE] |107|  ; [ORIG 16-BIT INS]
    1130                            .dwpsn  file "../Application/ICall/icall_cc2650.c",line 108,column 5,is_stmt,isa 1
    1131 00000024 E000              B         ||$C$L20||            ; [DPU_3_PIPE] |108|  ; [ORIG 16-BIT INS]
    1132                            ; BRANCH OCCURS {||$C$L20||}     ; [] |108| 
    1133                    ;* --------------------------------------------------------------------------*
    1134 00000026           ||$C$L19||:    
    1135                            .dwpsn  file "../Application/ICall/icall_cc2650.c",line 104,column 5,is_stmt,isa 1
    1136 00000026 2002              MOVS      A1, #2                ; [DPU_3_PIPE] |104|  ; [ORIG 16-BIT INS]
    1137                    ;* --------------------------------------------------------------------------*
    1138 00000028           ||$C$L20||:    
    1139                            .dwpsn  file "../Application/ICall/icall_cc2650.c",line 116,column 3,is_stmt,isa 1
    1140 00000028 6822              LDR       A3, [V1, #0]          ; [DPU_3_PIPE] |116|  ; [ORIG 16-BIT INS]
    1141 0000002a 4621              MOV       A2, V1                ; [DPU_3_PIPE] |116|  ; [ORIG 16-BIT INS]
    1142                    $C$DW$82        .dwtag  DW_TAG_TI_branch
    1143                            .dwattr $C$DW$82, DW_AT_low_pc(0x00)
    1144                            .dwattr $C$DW$82, DW_AT_TI_call
    1145                            .dwattr $C$DW$82, DW_AT_TI_indirect
    1146                    
    1147 0000002c 4790              BLX       A3                    ; [DPU_3_PIPE] |116|  ; [ORIG 16-BIT INS]
    1148                            ; CALL OCCURS {}                 ; [] |116| 
    1149                            .dwpsn  file "../Application/ICall/icall_cc2650.c",line 117,column 3,is_stmt,isa 1
    1150 0000002e 2000              MOVS      A1, #0                ; [DPU_3_PIPE] |117|  ; [ORIG 16-BIT INS]
    1151                    $C$DW$83        .dwtag  DW_TAG_TI_branch
    1152                            .dwattr $C$DW$83, DW_AT_low_pc(0x00)
    1153                            .dwattr $C$DW$83, DW_AT_TI_return
    1154                    
    1155 00000030 BD10              POP       {V1, PC}              ; [DPU_3_PIPE]  ; [ORIG 16-BIT INS]
TI ARM Assembler PC v16.9.9 Sun Nov 25 16:40:45 2018

Tools Copyright (c) 1996-2017 Texas Instruments Incorporated
C:\Users\Stryd\AppData\Local\Temp\{20FABBE7-6C1F-4BB7-B116-814D10534D3D} PAGE   22

    1156                            .dwcfi  cfa_offset, 0
    1157                            .dwcfi  restore_reg, 4
    1158                            ; BRANCH OCCURS                  ; [] 
    1159                            .dwattr $C$DW$75, DW_AT_TI_end_file("../Application/ICall/icall_cc2650.c")
    1160                            .dwattr $C$DW$75, DW_AT_TI_end_line(0x76)
    1161                            .dwattr $C$DW$75, DW_AT_TI_end_column(0x01)
    1162                            .dwendentry
    1163                            .dwendtag $C$DW$75
    1164                    
    1165 00000000                   .sect   ".text:ICallPlatform_pwrIsStableXOSCHF"
    1166                            .clink
    1167                            .thumbfunc ICallPlatform_pwrIsStableXOSCHF
    1168 00000000                   .thumb
    1169                            .global ICallPlatform_pwrIsStableXOSCHF
    1170                    
    1171                    $C$DW$84        .dwtag  DW_TAG_subprogram
    1172                            .dwattr $C$DW$84, DW_AT_name("ICallPlatform_pwrIsStableXOSCHF")
    1173                            .dwattr $C$DW$84, DW_AT_low_pc(ICallPlatform_pwrIsStableXOSCHF)
    1174                            .dwattr $C$DW$84, DW_AT_high_pc(0x00)
    1175                            .dwattr $C$DW$84, DW_AT_TI_symbol_name("ICallPlatform_pwrIsStableXOSCHF")
    1176                            .dwattr $C$DW$84, DW_AT_external
    1177                            .dwattr $C$DW$84, DW_AT_type(*$C$DW$T$85)
    1178                            .dwattr $C$DW$84, DW_AT_TI_begin_file("../Application/ICall/icall_cc2650.c")
    1179                            .dwattr $C$DW$84, DW_AT_TI_begin_line(0x145)
    1180                            .dwattr $C$DW$84, DW_AT_TI_begin_column(0x01)
    1181                            .dwattr $C$DW$84, DW_AT_decl_file("../Application/ICall/icall_cc2650.c")
    1182                            .dwattr $C$DW$84, DW_AT_decl_line(0x145)
    1183                            .dwattr $C$DW$84, DW_AT_decl_column(0x01)
    1184                            .dwattr $C$DW$84, DW_AT_TI_max_frame_size(0x08)
    1185                            .dwpsn  file "../Application/ICall/icall_cc2650.c",line 326,column 1,is_stmt,address ICallPlat
    1186                    
    1187                            .dwfde $C$DW$CIE, ICallPlatform_pwrIsStableXOSCHF
    1188                    $C$DW$85        .dwtag  DW_TAG_formal_parameter
    1189                            .dwattr $C$DW$85, DW_AT_name("args")
    1190                            .dwattr $C$DW$85, DW_AT_TI_symbol_name("args")
    1191                            .dwattr $C$DW$85, DW_AT_type(*$C$DW$T$230)
    1192                            .dwattr $C$DW$85, DW_AT_location[DW_OP_reg0]
    1193                    
    1194                    
    1195                    ;*****************************************************************************
    1196                    ;* FUNCTION NAME: ICallPlatform_pwrIsStableXOSCHF                            *
    1197                    ;*                                                                           *
    1198                    ;*   Regs Modified     : A1,A2,A3,A4,V1,V9,SP,LR,SR                          *
    1199                    ;*   Regs Used         : A1,A2,A3,A4,V1,V9,SP,LR,SR                          *
    1200                    ;*   Local Frame Size  : 0 Args + 0 Auto + 8 Save = 8 byte                   *
    1201                    ;*****************************************************************************
    1202                    ICallPlatform_pwrIsStableXOSCHF:
    1203                    ;* --------------------------------------------------------------------------*
    1204                    ;* V1    assigned to args
    1205                    $C$DW$86        .dwtag  DW_TAG_variable
    1206                            .dwattr $C$DW$86, DW_AT_name("args")
    1207                            .dwattr $C$DW$86, DW_AT_TI_symbol_name("args")
    1208                            .dwattr $C$DW$86, DW_AT_type(*$C$DW$T$287)
    1209                            .dwattr $C$DW$86, DW_AT_location[DW_OP_reg4]
    1210                    
TI ARM Assembler PC v16.9.9 Sun Nov 25 16:40:45 2018

Tools Copyright (c) 1996-2017 Texas Instruments Incorporated
C:\Users\Stryd\AppData\Local\Temp\{20FABBE7-6C1F-4BB7-B116-814D10534D3D} PAGE   23

    1211                            .dwcfi  cfa_offset, 0
    1212 00000000 B510              PUSH      {V1, LR}              ; [DPU_3_PIPE]  ; [ORIG 16-BIT INS]
    1213                            .dwcfi  cfa_offset, 8
    1214                            .dwcfi  save_reg_to_mem, 14, -4
    1215                            .dwcfi  save_reg_to_mem, 4, -8
    1216 00000002 4604              MOV       V1, A1                ; [DPU_3_PIPE] |326|  ; [ORIG 16-BIT INS]
    1217                            .dwpsn  file "../Application/ICall/icall_cc2650.c",line 327,column 3,is_stmt,isa 1
    1218                    $C$DW$87        .dwtag  DW_TAG_TI_branch
    1219                            .dwattr $C$DW$87, DW_AT_low_pc(0x00)
    1220                            .dwattr $C$DW$87, DW_AT_name("PowerCC26XX_isStableXOSC_HF")
    1221                            .dwattr $C$DW$87, DW_AT_TI_call
    1222                    
    1223 00000004 FFFEF7FF!         BL        PowerCC26XX_isStableXOSC_HF ; [DPU_3_PIPE] |327|  ; [KEEP 32-BIT INS]
    1224                            ; CALL OCCURS {PowerCC26XX_isStableXOSC_HF }  ; [] |327| 
    1225 00000008 7120              STRB      A1, [V1, #4]          ; [DPU_3_PIPE] |327|  ; [ORIG 16-BIT INS]
    1226                            .dwpsn  file "../Application/ICall/icall_cc2650.c",line 328,column 3,is_stmt,isa 1
    1227 0000000a 2000              MOVS      A1, #0                ; [DPU_3_PIPE] |328|  ; [ORIG 16-BIT INS]
    1228                    $C$DW$88        .dwtag  DW_TAG_TI_branch
    1229                            .dwattr $C$DW$88, DW_AT_low_pc(0x00)
    1230                            .dwattr $C$DW$88, DW_AT_TI_return
    1231                    
    1232 0000000c BD10              POP       {V1, PC}              ; [DPU_3_PIPE]  ; [ORIG 16-BIT INS]
    1233                            .dwcfi  cfa_offset, 0
    1234                            .dwcfi  restore_reg, 4
    1235                            ; BRANCH OCCURS                  ; [] 
    1236                            .dwattr $C$DW$84, DW_AT_TI_end_file("../Application/ICall/icall_cc2650.c")
    1237                            .dwattr $C$DW$84, DW_AT_TI_end_line(0x149)
    1238                            .dwattr $C$DW$84, DW_AT_TI_end_column(0x01)
    1239                            .dwendentry
    1240                            .dwendtag $C$DW$84
    1241                    
    1242 00000000                   .sect   ".text:ICallPlatform_pwrGetXOSCStartupTime"
    1243                            .clink
    1244                            .thumbfunc ICallPlatform_pwrGetXOSCStartupTime
    1245 00000000                   .thumb
    1246                            .global ICallPlatform_pwrGetXOSCStartupTime
    1247                    
    1248                    $C$DW$89        .dwtag  DW_TAG_subprogram
    1249                            .dwattr $C$DW$89, DW_AT_name("ICallPlatform_pwrGetXOSCStartupTime")
    1250                            .dwattr $C$DW$89, DW_AT_low_pc(ICallPlatform_pwrGetXOSCStartupTime)
    1251                            .dwattr $C$DW$89, DW_AT_high_pc(0x00)
    1252                            .dwattr $C$DW$89, DW_AT_TI_symbol_name("ICallPlatform_pwrGetXOSCStartupTime")
    1253                            .dwattr $C$DW$89, DW_AT_external
    1254                            .dwattr $C$DW$89, DW_AT_type(*$C$DW$T$85)
    1255                            .dwattr $C$DW$89, DW_AT_TI_begin_file("../Application/ICall/icall_cc2650.c")
    1256                            .dwattr $C$DW$89, DW_AT_TI_begin_line(0x15d)
    1257                            .dwattr $C$DW$89, DW_AT_TI_begin_column(0x01)
    1258                            .dwattr $C$DW$89, DW_AT_decl_file("../Application/ICall/icall_cc2650.c")
    1259                            .dwattr $C$DW$89, DW_AT_decl_line(0x15d)
    1260                            .dwattr $C$DW$89, DW_AT_decl_column(0x01)
    1261                            .dwattr $C$DW$89, DW_AT_TI_max_frame_size(0x08)
    1262                            .dwpsn  file "../Application/ICall/icall_cc2650.c",line 350,column 1,is_stmt,address ICallPlat
    1263                    
    1264                            .dwfde $C$DW$CIE, ICallPlatform_pwrGetXOSCStartupTime
    1265                    $C$DW$90        .dwtag  DW_TAG_formal_parameter
TI ARM Assembler PC v16.9.9 Sun Nov 25 16:40:45 2018

Tools Copyright (c) 1996-2017 Texas Instruments Incorporated
C:\Users\Stryd\AppData\Local\Temp\{20FABBE7-6C1F-4BB7-B116-814D10534D3D} PAGE   24

    1266                            .dwattr $C$DW$90, DW_AT_name("args")
    1267                            .dwattr $C$DW$90, DW_AT_TI_symbol_name("args")
    1268                            .dwattr $C$DW$90, DW_AT_type(*$C$DW$T$237)
    1269                            .dwattr $C$DW$90, DW_AT_location[DW_OP_reg0]
    1270                    
    1271                    
    1272                    ;*****************************************************************************
    1273                    ;* FUNCTION NAME: ICallPlatform_pwrGetXOSCStartupTime                        *
    1274                    ;*                                                                           *
    1275                    ;*   Regs Modified     : A1,A2,A3,A4,V1,V9,SP,LR,SR                          *
    1276                    ;*   Regs Used         : A1,A2,A3,A4,V1,V9,SP,LR,SR                          *
    1277                    ;*   Local Frame Size  : 0 Args + 0 Auto + 8 Save = 8 byte                   *
    1278                    ;*****************************************************************************
    1279                    ICallPlatform_pwrGetXOSCStartupTime:
    1280                    ;* --------------------------------------------------------------------------*
    1281                    ;* V1    assigned to args
    1282                    $C$DW$91        .dwtag  DW_TAG_variable
    1283                            .dwattr $C$DW$91, DW_AT_name("args")
    1284                            .dwattr $C$DW$91, DW_AT_TI_symbol_name("args")
    1285                            .dwattr $C$DW$91, DW_AT_type(*$C$DW$T$298)
    1286                            .dwattr $C$DW$91, DW_AT_location[DW_OP_reg4]
    1287                    
    1288                            .dwcfi  cfa_offset, 0
    1289 00000000 B510              PUSH      {V1, LR}              ; [DPU_3_PIPE]  ; [ORIG 16-BIT INS]
    1290                            .dwcfi  cfa_offset, 8
    1291                            .dwcfi  save_reg_to_mem, 14, -4
    1292                            .dwcfi  save_reg_to_mem, 4, -8
    1293 00000002 4604              MOV       V1, A1                ; [DPU_3_PIPE] |350|  ; [ORIG 16-BIT INS]
    1294                            .dwpsn  file "../Application/ICall/icall_cc2650.c",line 351,column 3,is_stmt,isa 1
    1295 00000004 6860              LDR       A1, [V1, #4]          ; [DPU_3_PIPE] |351|  ; [ORIG 16-BIT INS]
    1296                    $C$DW$92        .dwtag  DW_TAG_TI_branch
    1297                            .dwattr $C$DW$92, DW_AT_low_pc(0x00)
    1298                            .dwattr $C$DW$92, DW_AT_name("PowerCC26XX_getXoscStartupTime")
    1299                            .dwattr $C$DW$92, DW_AT_TI_call
    1300                    
    1301 00000006 FFFEF7FF!         BL        PowerCC26XX_getXoscStartupTime ; [DPU_3_PIPE] |351|  ; [KEEP 32-BIT INS]
    1302                            ; CALL OCCURS {PowerCC26XX_getXoscStartupTime }  ; [] |351| 
    1303 0000000a 60A0              STR       A1, [V1, #8]          ; [DPU_3_PIPE] |351|  ; [ORIG 16-BIT INS]
    1304                            .dwpsn  file "../Application/ICall/icall_cc2650.c",line 352,column 3,is_stmt,isa 1
    1305 0000000c 2000              MOVS      A1, #0                ; [DPU_3_PIPE] |352|  ; [ORIG 16-BIT INS]
    1306                    $C$DW$93        .dwtag  DW_TAG_TI_branch
    1307                            .dwattr $C$DW$93, DW_AT_low_pc(0x00)
    1308                            .dwattr $C$DW$93, DW_AT_TI_return
    1309                    
    1310 0000000e BD10              POP       {V1, PC}              ; [DPU_3_PIPE]  ; [ORIG 16-BIT INS]
    1311                            .dwcfi  cfa_offset, 0
    1312                            .dwcfi  restore_reg, 4
    1313                            ; BRANCH OCCURS                  ; [] 
    1314                            .dwattr $C$DW$89, DW_AT_TI_end_file("../Application/ICall/icall_cc2650.c")
    1315                            .dwattr $C$DW$89, DW_AT_TI_end_line(0x161)
    1316                            .dwattr $C$DW$89, DW_AT_TI_end_column(0x01)
    1317                            .dwendentry
    1318                            .dwendtag $C$DW$89
    1319                    
    1320 00000000                   .sect   ".text:ICallPlatform_pwrGetTransitionState"
TI ARM Assembler PC v16.9.9 Sun Nov 25 16:40:45 2018

Tools Copyright (c) 1996-2017 Texas Instruments Incorporated
C:\Users\Stryd\AppData\Local\Temp\{20FABBE7-6C1F-4BB7-B116-814D10534D3D} PAGE   25

    1321                            .clink
    1322                            .thumbfunc ICallPlatform_pwrGetTransitionState
    1323 00000000                   .thumb
    1324                            .global ICallPlatform_pwrGetTransitionState
    1325                    
    1326                    $C$DW$94        .dwtag  DW_TAG_subprogram
    1327                            .dwattr $C$DW$94, DW_AT_name("ICallPlatform_pwrGetTransitionState")
    1328                            .dwattr $C$DW$94, DW_AT_low_pc(ICallPlatform_pwrGetTransitionState)
    1329                            .dwattr $C$DW$94, DW_AT_high_pc(0x00)
    1330                            .dwattr $C$DW$94, DW_AT_TI_symbol_name("ICallPlatform_pwrGetTransitionState")
    1331                            .dwattr $C$DW$94, DW_AT_external
    1332                            .dwattr $C$DW$94, DW_AT_type(*$C$DW$T$85)
    1333                            .dwattr $C$DW$94, DW_AT_TI_begin_file("../Application/ICall/icall_cc2650.c")
    1334                            .dwattr $C$DW$94, DW_AT_TI_begin_line(0x155)
    1335                            .dwattr $C$DW$94, DW_AT_TI_begin_column(0x01)
    1336                            .dwattr $C$DW$94, DW_AT_decl_file("../Application/ICall/icall_cc2650.c")
    1337                            .dwattr $C$DW$94, DW_AT_decl_line(0x155)
    1338                            .dwattr $C$DW$94, DW_AT_decl_column(0x01)
    1339                            .dwattr $C$DW$94, DW_AT_TI_max_frame_size(0x08)
    1340                            .dwpsn  file "../Application/ICall/icall_cc2650.c",line 342,column 1,is_stmt,address ICallPlat
    1341                    
    1342                            .dwfde $C$DW$CIE, ICallPlatform_pwrGetTransitionState
    1343                    $C$DW$95        .dwtag  DW_TAG_formal_parameter
    1344                            .dwattr $C$DW$95, DW_AT_name("args")
    1345                            .dwattr $C$DW$95, DW_AT_TI_symbol_name("args")
    1346                            .dwattr $C$DW$95, DW_AT_type(*$C$DW$T$234)
    1347                            .dwattr $C$DW$95, DW_AT_location[DW_OP_reg0]
    1348                    
    1349                    
    1350                    ;*****************************************************************************
    1351                    ;* FUNCTION NAME: ICallPlatform_pwrGetTransitionState                        *
    1352                    ;*                                                                           *
    1353                    ;*   Regs Modified     : A1,A2,A3,A4,V1,V9,SP,LR,SR                          *
    1354                    ;*   Regs Used         : A1,A2,A3,A4,V1,V9,SP,LR,SR                          *
    1355                    ;*   Local Frame Size  : 0 Args + 0 Auto + 8 Save = 8 byte                   *
    1356                    ;*****************************************************************************
    1357                    ICallPlatform_pwrGetTransitionState:
    1358                    ;* --------------------------------------------------------------------------*
    1359                    ;* V1    assigned to args
    1360                    $C$DW$96        .dwtag  DW_TAG_variable
    1361                            .dwattr $C$DW$96, DW_AT_name("args")
    1362                            .dwattr $C$DW$96, DW_AT_TI_symbol_name("args")
    1363                            .dwattr $C$DW$96, DW_AT_type(*$C$DW$T$295)
    1364                            .dwattr $C$DW$96, DW_AT_location[DW_OP_reg4]
    1365                    
    1366                            .dwcfi  cfa_offset, 0
    1367 00000000 B510              PUSH      {V1, LR}              ; [DPU_3_PIPE]  ; [ORIG 16-BIT INS]
    1368                            .dwcfi  cfa_offset, 8
    1369                            .dwcfi  save_reg_to_mem, 14, -4
    1370                            .dwcfi  save_reg_to_mem, 4, -8
    1371 00000002 4604              MOV       V1, A1                ; [DPU_3_PIPE] |342|  ; [ORIG 16-BIT INS]
    1372                            .dwpsn  file "../Application/ICall/icall_cc2650.c",line 343,column 3,is_stmt,isa 1
    1373                    $C$DW$97        .dwtag  DW_TAG_TI_branch
    1374                            .dwattr $C$DW$97, DW_AT_low_pc(0x00)
    1375                            .dwattr $C$DW$97, DW_AT_name("Power_getTransitionState")
TI ARM Assembler PC v16.9.9 Sun Nov 25 16:40:45 2018

Tools Copyright (c) 1996-2017 Texas Instruments Incorporated
C:\Users\Stryd\AppData\Local\Temp\{20FABBE7-6C1F-4BB7-B116-814D10534D3D} PAGE   26

    1376                            .dwattr $C$DW$97, DW_AT_TI_call
    1377                    
    1378 00000004 FFFEF7FF!         BL        Power_getTransitionState ; [DPU_3_PIPE] |343|  ; [KEEP 32-BIT INS]
    1379                            ; CALL OCCURS {Power_getTransitionState }  ; [] |343| 
    1380 00000008 6060              STR       A1, [V1, #4]          ; [DPU_3_PIPE] |343|  ; [ORIG 16-BIT INS]
    1381                            .dwpsn  file "../Application/ICall/icall_cc2650.c",line 344,column 3,is_stmt,isa 1
    1382 0000000a 2000              MOVS      A1, #0                ; [DPU_3_PIPE] |344|  ; [ORIG 16-BIT INS]
    1383                    $C$DW$98        .dwtag  DW_TAG_TI_branch
    1384                            .dwattr $C$DW$98, DW_AT_low_pc(0x00)
    1385                            .dwattr $C$DW$98, DW_AT_TI_return
    1386                    
    1387 0000000c BD10              POP       {V1, PC}              ; [DPU_3_PIPE]  ; [ORIG 16-BIT INS]
    1388                            .dwcfi  cfa_offset, 0
    1389                            .dwcfi  restore_reg, 4
    1390                            ; BRANCH OCCURS                  ; [] 
    1391                            .dwattr $C$DW$94, DW_AT_TI_end_file("../Application/ICall/icall_cc2650.c")
    1392                            .dwattr $C$DW$94, DW_AT_TI_end_line(0x159)
    1393                            .dwattr $C$DW$94, DW_AT_TI_end_column(0x01)
    1394                            .dwendentry
    1395                            .dwendtag $C$DW$94
    1396                    
    1397 00000000                   .sect   ".text:ICallPlatform_pwrDispense"
    1398                            .clink
    1399                            .thumbfunc ICallPlatform_pwrDispense
    1400 00000000                   .thumb
    1401                            .global ICallPlatform_pwrDispense
    1402                    
    1403                    $C$DW$99        .dwtag  DW_TAG_subprogram
    1404                            .dwattr $C$DW$99, DW_AT_name("ICallPlatform_pwrDispense")
    1405                            .dwattr $C$DW$99, DW_AT_low_pc(ICallPlatform_pwrDispense)
    1406                            .dwattr $C$DW$99, DW_AT_high_pc(0x00)
    1407                            .dwattr $C$DW$99, DW_AT_TI_symbol_name("ICallPlatform_pwrDispense")
    1408                            .dwattr $C$DW$99, DW_AT_external
    1409                            .dwattr $C$DW$99, DW_AT_type(*$C$DW$T$85)
    1410                            .dwattr $C$DW$99, DW_AT_TI_begin_file("../Application/ICall/icall_cc2650.c")
    1411                            .dwattr $C$DW$99, DW_AT_TI_begin_line(0x111)
    1412                            .dwattr $C$DW$99, DW_AT_TI_begin_column(0x01)
    1413                            .dwattr $C$DW$99, DW_AT_decl_file("../Application/ICall/icall_cc2650.c")
    1414                            .dwattr $C$DW$99, DW_AT_decl_line(0x111)
    1415                            .dwattr $C$DW$99, DW_AT_decl_column(0x01)
    1416                            .dwattr $C$DW$99, DW_AT_TI_max_frame_size(0x08)
    1417                            .dwpsn  file "../Application/ICall/icall_cc2650.c",line 274,column 1,is_stmt,address ICallPlat
    1418                    
    1419                            .dwfde $C$DW$CIE, ICallPlatform_pwrDispense
    1420                    $C$DW$100       .dwtag  DW_TAG_formal_parameter
    1421                            .dwattr $C$DW$100, DW_AT_name("args")
    1422                            .dwattr $C$DW$100, DW_AT_TI_symbol_name("args")
    1423                            .dwattr $C$DW$100, DW_AT_type(*$C$DW$T$224)
    1424                            .dwattr $C$DW$100, DW_AT_location[DW_OP_reg0]
    1425                    
    1426                    
    1427                    ;*****************************************************************************
    1428                    ;* FUNCTION NAME: ICallPlatform_pwrDispense                                  *
    1429                    ;*                                                                           *
    1430                    ;*   Regs Modified     : A1,A2,A3,A4,V9,SP,LR,SR                             *
TI ARM Assembler PC v16.9.9 Sun Nov 25 16:40:45 2018

Tools Copyright (c) 1996-2017 Texas Instruments Incorporated
C:\Users\Stryd\AppData\Local\Temp\{20FABBE7-6C1F-4BB7-B116-814D10534D3D} PAGE   27

    1431                    ;*   Regs Used         : A1,A2,A3,A4,V9,SP,LR,SR                             *
    1432                    ;*   Local Frame Size  : 0 Args + 0 Auto + 4 Save = 4 byte                   *
    1433                    ;*****************************************************************************
    1434                    ICallPlatform_pwrDispense:
    1435                    ;* --------------------------------------------------------------------------*
    1436                    ;* A1    assigned to $O$C1
    1437                    ;* A1    assigned to args
    1438                    $C$DW$101       .dwtag  DW_TAG_variable
    1439                            .dwattr $C$DW$101, DW_AT_name("args")
    1440                            .dwattr $C$DW$101, DW_AT_TI_symbol_name("args")
    1441                            .dwattr $C$DW$101, DW_AT_type(*$C$DW$T$292)
    1442                            .dwattr $C$DW$101, DW_AT_location[DW_OP_reg0]
    1443                    
    1444                            .dwcfi  cfa_offset, 0
    1445 00000000 B508              PUSH      {A4, LR}              ; [DPU_3_PIPE]  ; [ORIG 16-BIT INS]
    1446                            .dwcfi  cfa_offset, 8
    1447                            .dwcfi  save_reg_to_mem, 14, -4
    1448                            .dwcfi  save_reg_to_mem, 3, -8
    1449                            .dwpsn  file "../Application/ICall/icall_cc2650.c",line 275,column 3,is_stmt,isa 1
    1450 00000002 6840              LDR       A1, [A1, #4]          ; [DPU_3_PIPE] |275|  ; [ORIG 16-BIT INS]
    1451 00000004 4F7FF010          TST       A1, #-16777216        ; [DPU_3_PIPE] |275|  ; [KEEP 32-BIT INS]
    1452 00000008 BF18              IT        NE                    ; [DPU_3_PIPE]  ; [ORIG 16-BIT INS]
    1453                            .dwpsn  file "../Application/ICall/icall_cc2650.c",line 277,column 5,is_stmt,isa 1
    1454 0000000a 0002F06F          MVNNE     A1, #2                ; [DPU_3_PIPE] |277|  ; [KEEP 32-BIT INS]
    1455 0000000e D102              BNE       ||$C$L21||            ; [DPU_3_PIPE] |277|  ; [ORIG 16-BIT INS]
    1456                            ; BRANCHCC OCCURS {||$C$L21||}   ; [] |277| 
    1457                    ;* --------------------------------------------------------------------------*
    1458                            .dwpsn  file "../Application/ICall/icall_cc2650.c",line 280,column 3,is_stmt,isa 1
    1459                    $C$DW$102       .dwtag  DW_TAG_TI_branch
    1460                            .dwattr $C$DW$102, DW_AT_low_pc(0x00)
    1461                            .dwattr $C$DW$102, DW_AT_name("ICallPlatform_pwrDispenseImpl")
    1462                            .dwattr $C$DW$102, DW_AT_TI_call
    1463                    
    1464 00000010 FFFEF7FF!         BL        ICallPlatform_pwrDispenseImpl ; [DPU_3_PIPE] |280|  ; [KEEP 32-BIT INS]
    1465                            ; CALL OCCURS {ICallPlatform_pwrDispenseImpl }  ; [] |280| 
    1466                            .dwpsn  file "../Application/ICall/icall_cc2650.c",line 282,column 3,is_stmt,isa 1
    1467 00000014 2000              MOVS      A1, #0                ; [DPU_3_PIPE] |282|  ; [ORIG 16-BIT INS]
    1468                    ;* --------------------------------------------------------------------------*
    1469                    ||$C$L21||:    
    1470                    $C$DW$103       .dwtag  DW_TAG_TI_branch
    1471                            .dwattr $C$DW$103, DW_AT_low_pc(0x00)
    1472                            .dwattr $C$DW$103, DW_AT_TI_return
    1473                    
    1474 00000016 BD08              POP       {A4, PC}              ; [DPU_3_PIPE]  ; [ORIG 16-BIT INS]
    1475                            .dwcfi  cfa_offset, 0
    1476                            .dwcfi  restore_reg, 3
    1477                            ; BRANCH OCCURS                  ; [] 
    1478                            .dwattr $C$DW$99, DW_AT_TI_end_file("../Application/ICall/icall_cc2650.c")
    1479                            .dwattr $C$DW$99, DW_AT_TI_end_line(0x11b)
    1480                            .dwattr $C$DW$99, DW_AT_TI_end_column(0x01)
    1481                            .dwendentry
    1482                            .dwendtag $C$DW$99
    1483                    
    1484 00000000                   .sect   ".text:ICallPlatform_pwrConfigACAction"
    1485                            .clink
TI ARM Assembler PC v16.9.9 Sun Nov 25 16:40:45 2018

Tools Copyright (c) 1996-2017 Texas Instruments Incorporated
C:\Users\Stryd\AppData\Local\Temp\{20FABBE7-6C1F-4BB7-B116-814D10534D3D} PAGE   28

    1486                            .thumbfunc ICallPlatform_pwrConfigACAction
    1487 00000000                   .thumb
    1488                            .global ICallPlatform_pwrConfigACAction
    1489                    
    1490                    $C$DW$104       .dwtag  DW_TAG_subprogram
    1491                            .dwattr $C$DW$104, DW_AT_name("ICallPlatform_pwrConfigACAction")
    1492                            .dwattr $C$DW$104, DW_AT_low_pc(ICallPlatform_pwrConfigACAction)
    1493                            .dwattr $C$DW$104, DW_AT_high_pc(0x00)
    1494                            .dwattr $C$DW$104, DW_AT_TI_symbol_name("ICallPlatform_pwrConfigACAction")
    1495                            .dwattr $C$DW$104, DW_AT_external
    1496                            .dwattr $C$DW$104, DW_AT_type(*$C$DW$T$85)
    1497                            .dwattr $C$DW$104, DW_AT_TI_begin_file("../Application/ICall/icall_cc2650.c")
    1498                            .dwattr $C$DW$104, DW_AT_TI_begin_line(0xe9)
    1499                            .dwattr $C$DW$104, DW_AT_TI_begin_column(0x01)
    1500                            .dwattr $C$DW$104, DW_AT_decl_file("../Application/ICall/icall_cc2650.c")
    1501                            .dwattr $C$DW$104, DW_AT_decl_line(0xe9)
    1502                            .dwattr $C$DW$104, DW_AT_decl_column(0x01)
    1503                            .dwattr $C$DW$104, DW_AT_TI_max_frame_size(0x10)
    1504                            .dwpsn  file "../Application/ICall/icall_cc2650.c",line 234,column 1,is_stmt,address ICallPlat
    1505                    
    1506                            .dwfde $C$DW$CIE, ICallPlatform_pwrConfigACAction
    1507                    $C$DW$105       .dwtag  DW_TAG_formal_parameter
    1508                            .dwattr $C$DW$105, DW_AT_name("args")
    1509                            .dwattr $C$DW$105, DW_AT_TI_symbol_name("args")
    1510                            .dwattr $C$DW$105, DW_AT_type(*$C$DW$T$224)
    1511                            .dwattr $C$DW$105, DW_AT_location[DW_OP_reg0]
    1512                    
    1513                    
    1514                    ;*****************************************************************************
    1515                    ;* FUNCTION NAME: ICallPlatform_pwrConfigACAction                            *
    1516                    ;*                                                                           *
    1517                    ;*   Regs Modified     : A1,A2,A3,A4,V1,V2,V3,V9,SP,LR,SR                    *
    1518                    ;*   Regs Used         : A1,A2,A3,A4,V1,V2,V3,V9,SP,LR,SR                    *
    1519                    ;*   Local Frame Size  : 0 Args + 0 Auto + 16 Save = 16 byte                 *
    1520                    ;*****************************************************************************
    1521                    ICallPlatform_pwrConfigACAction:
    1522                    ;* --------------------------------------------------------------------------*
    1523                    ;* V2    assigned to $O$K13
    1524                    ;* V1    assigned to args
    1525                    $C$DW$106       .dwtag  DW_TAG_variable
    1526                            .dwattr $C$DW$106, DW_AT_name("args")
    1527                            .dwattr $C$DW$106, DW_AT_TI_symbol_name("args")
    1528                            .dwattr $C$DW$106, DW_AT_type(*$C$DW$T$292)
    1529                            .dwattr $C$DW$106, DW_AT_location[DW_OP_reg4]
    1530                    
    1531                    ;* V3    assigned to state
    1532                    $C$DW$107       .dwtag  DW_TAG_variable
    1533                            .dwattr $C$DW$107, DW_AT_name("state")
    1534                            .dwattr $C$DW$107, DW_AT_TI_symbol_name("state")
    1535                            .dwattr $C$DW$107, DW_AT_type(*$C$DW$T$124)
    1536                            .dwattr $C$DW$107, DW_AT_location[DW_OP_reg6]
    1537                    
    1538                            .dwcfi  cfa_offset, 0
    1539 00000000 B570              PUSH      {V1, V2, V3, LR}      ; [DPU_3_PIPE]  ; [ORIG 16-BIT INS]
    1540                            .dwcfi  cfa_offset, 16
TI ARM Assembler PC v16.9.9 Sun Nov 25 16:40:45 2018

Tools Copyright (c) 1996-2017 Texas Instruments Incorporated
C:\Users\Stryd\AppData\Local\Temp\{20FABBE7-6C1F-4BB7-B116-814D10534D3D} PAGE   29

    1541                            .dwcfi  save_reg_to_mem, 14, -4
    1542                            .dwcfi  save_reg_to_mem, 6, -8
    1543                            .dwcfi  save_reg_to_mem, 5, -12
    1544                            .dwcfi  save_reg_to_mem, 4, -16
    1545 00000002 4604              MOV       V1, A1                ; [DPU_3_PIPE] |234|  ; [ORIG 16-BIT INS]
    1546                            .dwpsn  file "../Application/ICall/icall_cc2650.c",line 237,column 3,is_stmt,isa 1
    1547 00000004 6860              LDR       A1, [V1, #4]          ; [DPU_3_PIPE] |237|  ; [ORIG 16-BIT INS]
    1548 00000006 4F7FF010          TST       A1, #-16777216        ; [DPU_3_PIPE] |237|  ; [KEEP 32-BIT INS]
    1549 0000000a BF18              IT        NE                    ; [DPU_3_PIPE]  ; [ORIG 16-BIT INS]
    1550                            .dwpsn  file "../Application/ICall/icall_cc2650.c",line 239,column 5,is_stmt,isa 1
    1551 0000000c 0002F06F          MVNNE     A1, #2                ; [DPU_3_PIPE] |239|  ; [KEEP 32-BIT INS]
    1552 00000010 D111              BNE       ||$C$L23||            ; [DPU_3_PIPE] |239|  ; [ORIG 16-BIT INS]
    1553                            ; BRANCHCC OCCURS {||$C$L23||}   ; [] |239| 
    1554                    ;* --------------------------------------------------------------------------*
    1555                            .dwpsn  file "../Application/ICall/icall_cc2650.c",line 242,column 3,is_stmt,isa 1
    1556                    $C$DW$108       .dwtag  DW_TAG_TI_branch
    1557                            .dwattr $C$DW$108, DW_AT_low_pc(0x00)
    1558                            .dwattr $C$DW$108, DW_AT_name("ICall_enterCSImpl")
    1559                            .dwattr $C$DW$108, DW_AT_TI_call
    1560                    
    1561 00000012 FFFEF7FF!         BL        ICall_enterCSImpl     ; [DPU_3_PIPE] |242|  ; [KEEP 32-BIT INS]
    1562                            ; CALL OCCURS {ICall_enterCSImpl }  ; [] |242| 
    1563                            .dwpsn  file "../Application/ICall/icall_cc2650.c",line 244,column 3,is_stmt,isa 1
    1564 00000016 4D08              LDR       V2, $C$CON4           ; [DPU_3_PIPE] |244|  ; [ORIG 16-BIT INS]
    1565                            .dwpsn  file "../Application/ICall/icall_cc2650.c",line 242,column 3,is_stmt,isa 1
    1566 00000018 4606              MOV       V3, A1                ; [DPU_3_PIPE] |242|  ; [ORIG 16-BIT INS]
    1567                            .dwpsn  file "../Application/ICall/icall_cc2650.c",line 244,column 3,is_stmt,isa 1
    1568 0000001a 7828              LDRB      A1, [V2, #0]          ; [DPU_3_PIPE] |244|  ; [ORIG 16-BIT INS]
    1569 0000001c B128              CBZ       A1, ||$C$L22||        ; []  ; [ORIG 16-BIT INS]
    1570                            ; BRANCHCC OCCURS {||$C$L22||}   ; [] |244| 
    1571                    ;* --------------------------------------------------------------------------*
    1572                            .dwpsn  file "../Application/ICall/icall_cc2650.c",line 247,column 5,is_stmt,isa 1
    1573 0000001e 6868              LDR       A1, [V2, #4]          ; [DPU_3_PIPE] |247|  ; [ORIG 16-BIT INS]
    1574                    $C$DW$109       .dwtag  DW_TAG_TI_branch
    1575                            .dwattr $C$DW$109, DW_AT_low_pc(0x00)
    1576                            .dwattr $C$DW$109, DW_AT_name("ICallPlatform_pwrDispenseImpl")
    1577                            .dwattr $C$DW$109, DW_AT_TI_call
    1578                    
    1579 00000020 FFFEF7FF!         BL        ICallPlatform_pwrDispenseImpl ; [DPU_3_PIPE] |247|  ; [KEEP 32-BIT INS]
    1580                            ; CALL OCCURS {ICallPlatform_pwrDispenseImpl }  ; [] |247| 
    1581                            .dwpsn  file "../Application/ICall/icall_cc2650.c",line 249,column 5,is_stmt,isa 1
    1582 00000024 6860              LDR       A1, [V1, #4]          ; [DPU_3_PIPE] |249|  ; [ORIG 16-BIT INS]
    1583                    $C$DW$110       .dwtag  DW_TAG_TI_branch
    1584                            .dwattr $C$DW$110, DW_AT_low_pc(0x00)
    1585                            .dwattr $C$DW$110, DW_AT_name("ICallPlatform_pwrRequireImpl")
    1586                            .dwattr $C$DW$110, DW_AT_TI_call
    1587                    
    1588 00000026 FFFEF7FF!         BL        ICallPlatform_pwrRequireImpl ; [DPU_3_PIPE] |249|  ; [KEEP 32-BIT INS]
    1589                            ; CALL OCCURS {ICallPlatform_pwrRequireImpl }  ; [] |249| 
    1590                    ;* --------------------------------------------------------------------------*
    1591 0000002a           ||$C$L22||:    
    1592                            .dwpsn  file "../Application/ICall/icall_cc2650.c",line 251,column 3,is_stmt,isa 1
    1593 0000002a 6860              LDR       A1, [V1, #4]          ; [DPU_3_PIPE] |251|  ; [ORIG 16-BIT INS]
    1594 0000002c 6068              STR       A1, [V2, #4]          ; [DPU_3_PIPE] |251|  ; [ORIG 16-BIT INS]
    1595                            .dwpsn  file "../Application/ICall/icall_cc2650.c",line 253,column 3,is_stmt,isa 1
TI ARM Assembler PC v16.9.9 Sun Nov 25 16:40:45 2018

Tools Copyright (c) 1996-2017 Texas Instruments Incorporated
C:\Users\Stryd\AppData\Local\Temp\{20FABBE7-6C1F-4BB7-B116-814D10534D3D} PAGE   30

    1596 0000002e 4630              MOV       A1, V3                ; [DPU_3_PIPE] |253|  ; [ORIG 16-BIT INS]
    1597                    $C$DW$111       .dwtag  DW_TAG_TI_branch
    1598                            .dwattr $C$DW$111, DW_AT_low_pc(0x00)
    1599                            .dwattr $C$DW$111, DW_AT_name("ICall_leaveCSImpl")
    1600                            .dwattr $C$DW$111, DW_AT_TI_call
    1601                    
    1602 00000030 FFFEF7FF!         BL        ICall_leaveCSImpl     ; [DPU_3_PIPE] |253|  ; [KEEP 32-BIT INS]
    1603                            ; CALL OCCURS {ICall_leaveCSImpl }  ; [] |253| 
    1604                            .dwpsn  file "../Application/ICall/icall_cc2650.c",line 254,column 3,is_stmt,isa 1
    1605 00000034 2000              MOVS      A1, #0                ; [DPU_3_PIPE] |254|  ; [ORIG 16-BIT INS]
    1606                    ;* --------------------------------------------------------------------------*
    1607                    ||$C$L23||:    
    1608                    $C$DW$112       .dwtag  DW_TAG_TI_branch
    1609                            .dwattr $C$DW$112, DW_AT_low_pc(0x00)
    1610                            .dwattr $C$DW$112, DW_AT_TI_return
    1611                    
    1612 00000036 BD70              POP       {V1, V2, V3, PC}      ; [DPU_3_PIPE]  ; [ORIG 16-BIT INS]
    1613                            .dwcfi  cfa_offset, 0
    1614                            .dwcfi  restore_reg, 6
    1615                            .dwcfi  restore_reg, 5
    1616                            .dwcfi  restore_reg, 4
    1617                            ; BRANCH OCCURS                  ; [] 
    1618                            .dwattr $C$DW$104, DW_AT_TI_end_file("../Application/ICall/icall_cc2650.c")
    1619                            .dwattr $C$DW$104, DW_AT_TI_end_line(0xff)
    1620                            .dwattr $C$DW$104, DW_AT_TI_end_column(0x01)
    1621                            .dwendentry
    1622                            .dwendtag $C$DW$104
    1623                    
    1624                    ;******************************************************************************
    1625                    ;* CONSTANT TABLE                                                             *
    1626                    ;******************************************************************************
    1627 00000070                   .sect   ".text:ICallPlatform_pwrUpdActivityCounter"
    1628                            .align  4
    1629 00000070 00000000! ||$C$CON1||:    .bits   ||$O1$$||,32
    1630                    ;******************************************************************************
    1631                    ;* CONSTANT TABLE                                                             *
    1632                    ;******************************************************************************
    1633 00000028                   .sect   ".text:ICallPlatform_pwrRegisterNotify"
    1634                            .align  4
    1635 00000028 00000000! ||$C$CON2||:    .bits   events$1,32
    1636                            .align  4
    1637 0000002c 00000000! ||$C$CON3||:    .bits   ICallPlatform_pwrNotify,32
    1638                    ;******************************************************************************
    1639                    ;* CONSTANT TABLE                                                             *
    1640                    ;******************************************************************************
    1641 00000038                   .sect   ".text:ICallPlatform_pwrConfigACAction"
    1642                            .align  4
    1643 00000038 00000000! ||$C$CON4||:    .bits   ||$O1$$||,32
    1644                    ;*****************************************************************************
    1645                    ;* UNDEFINED EXTERNAL REFERENCES                                             *
    1646                    ;*****************************************************************************
    1647                            .global halAssertHandler
    1648                            .global ICall_enterCSImpl
    1649                            .global ICall_leaveCSImpl
    1650                            .global ICall_mallocImpl
TI ARM Assembler PC v16.9.9 Sun Nov 25 16:40:45 2018

Tools Copyright (c) 1996-2017 Texas Instruments Incorporated
C:\Users\Stryd\AppData\Local\Temp\{20FABBE7-6C1F-4BB7-B116-814D10534D3D} PAGE   31

    1651                            .global Power_getTransitionState
    1652                            .global Power_registerNotify
    1653                            .global Power_releaseConstraint
    1654                            .global Power_releaseDependency
    1655                            .global Power_setConstraint
    1656                            .global Power_setDependency
    1657                            .global PowerCC26XX_getXoscStartupTime
    1658                            .global PowerCC26XX_isStableXOSC_HF
    1659                            .global PowerCC26XX_switchXOSC_HF
    1660                    
    1661                    ;******************************************************************************
    1662                    ;* BUILD ATTRIBUTES                                                           *
    1663                    ;******************************************************************************
    1664                            .battr "aeabi", Tag_File, 1, Tag_ABI_PCS_wchar_t(2)
    1665                            .battr "aeabi", Tag_File, 1, Tag_ABI_FP_rounding(0)
    1666                            .battr "aeabi", Tag_File, 1, Tag_ABI_FP_denormal(0)
    1667                            .battr "aeabi", Tag_File, 1, Tag_ABI_FP_exceptions(0)
    1668                            .battr "aeabi", Tag_File, 1, Tag_ABI_FP_number_model(1)
    1669                            .battr "aeabi", Tag_File, 1, Tag_ABI_enum_size(1)
    1670                            .battr "aeabi", Tag_File, 1, Tag_ABI_optimization_goals(0)
    1671                            .battr "aeabi", Tag_File, 1, Tag_ABI_FP_optimization_goals(0)
    1672                            .battr "TI", Tag_File, 1, Tag_Bitfield_layout(2)
    1673                            .battr "aeabi", Tag_File, 1, Tag_ABI_VFP_args(3)
    1674                            .battr "TI", Tag_File, 1, Tag_FP_interface(1)
    1675                    
    1676                    ;******************************************************************************
    1677                    ;* TYPE INFORMATION                                                           *
    1678                    ;******************************************************************************
    1679                    
    1680                    $C$DW$T$152     .dwtag  DW_TAG_enumeration_type
    1681                            .dwattr $C$DW$T$152, DW_AT_byte_size(0x01)
    1682                    $C$DW$113       .dwtag  DW_TAG_enumerator
    1683                            .dwattr $C$DW$113, DW_AT_name("ICALL_RTI_APP_CMD_EVENT")
    1684                            .dwattr $C$DW$113, DW_AT_const_value(0xe0)
    1685                            .dwattr $C$DW$113, DW_AT_decl_file("C:\ti\simplelink_cc13x0_sdk_2_30_00_20\source\ti\ti154stac
    1686                            .dwattr $C$DW$113, DW_AT_decl_line(0x3de)
    1687                            .dwattr $C$DW$113, DW_AT_decl_column(0x04)
    1688                    
    1689                    $C$DW$114       .dwtag  DW_TAG_enumerator
    1690                            .dwattr $C$DW$114, DW_AT_name("ICALL_RTI_STACK_CMD_EVENT")
    1691                            .dwattr $C$DW$114, DW_AT_const_value(0xe1)
    1692                            .dwattr $C$DW$114, DW_AT_decl_file("C:\ti\simplelink_cc13x0_sdk_2_30_00_20\source\ti\ti154stac
    1693                            .dwattr $C$DW$114, DW_AT_decl_line(0x3e0)
    1694                            .dwattr $C$DW$114, DW_AT_decl_column(0x04)
    1695                    
    1696                    $C$DW$115       .dwtag  DW_TAG_enumerator
    1697                            .dwattr $C$DW$115, DW_AT_name("ICALL_RTI_APP_ASYNC_CMD_EVENT")
    1698                            .dwattr $C$DW$115, DW_AT_const_value(0xe2)
    1699                            .dwattr $C$DW$115, DW_AT_decl_file("C:\ti\simplelink_cc13x0_sdk_2_30_00_20\source\ti\ti154stac
    1700                            .dwattr $C$DW$115, DW_AT_decl_line(0x3e2)
    1701                            .dwattr $C$DW$115, DW_AT_decl_column(0x04)
    1702                    
    1703                    $C$DW$116       .dwtag  DW_TAG_enumerator
    1704                            .dwattr $C$DW$116, DW_AT_name("ICALL_RTI_APP_SYNC_CMD_EVENT")
    1705                            .dwattr $C$DW$116, DW_AT_const_value(0xe3)
TI ARM Assembler PC v16.9.9 Sun Nov 25 16:40:45 2018

Tools Copyright (c) 1996-2017 Texas Instruments Incorporated
C:\Users\Stryd\AppData\Local\Temp\{20FABBE7-6C1F-4BB7-B116-814D10534D3D} PAGE   32

    1706                            .dwattr $C$DW$116, DW_AT_decl_file("C:\ti\simplelink_cc13x0_sdk_2_30_00_20\source\ti\ti154stac
    1707                            .dwattr $C$DW$116, DW_AT_decl_line(0x3e4)
    1708                            .dwattr $C$DW$116, DW_AT_decl_column(0x04)
    1709                    
    1710                    $C$DW$117       .dwtag  DW_TAG_enumerator
    1711                            .dwattr $C$DW$117, DW_AT_name("ICALL_RCN_APP_ASYNC_CMD_EVENT")
    1712                            .dwattr $C$DW$117, DW_AT_const_value(0xe4)
    1713                            .dwattr $C$DW$117, DW_AT_decl_file("C:\ti\simplelink_cc13x0_sdk_2_30_00_20\source\ti\ti154stac
    1714                            .dwattr $C$DW$117, DW_AT_decl_line(0x3e6)
    1715                            .dwattr $C$DW$117, DW_AT_decl_column(0x04)
    1716                    
    1717                    $C$DW$118       .dwtag  DW_TAG_enumerator
    1718                            .dwattr $C$DW$118, DW_AT_name("ICALL_RCN_APP_SYNC_CMD_EVENT")
    1719                            .dwattr $C$DW$118, DW_AT_const_value(0xe5)
    1720                            .dwattr $C$DW$118, DW_AT_decl_file("C:\ti\simplelink_cc13x0_sdk_2_30_00_20\source\ti\ti154stac
    1721                            .dwattr $C$DW$118, DW_AT_decl_line(0x3e8)
    1722                            .dwattr $C$DW$118, DW_AT_decl_column(0x04)
    1723                    
    1724                            .dwattr $C$DW$T$152, DW_AT_decl_file("C:\ti\simplelink_cc13x0_sdk_2_30_00_20\source\ti\ti154st
    1725                            .dwattr $C$DW$T$152, DW_AT_decl_line(0x3dc)
    1726                            .dwattr $C$DW$T$152, DW_AT_decl_column(0x01)
    1727                            .dwendtag $C$DW$T$152
    1728                    
    1729                    $C$DW$T$153     .dwtag  DW_TAG_typedef
    1730                            .dwattr $C$DW$T$153, DW_AT_name("ICall_RemotiCmdEvent_t")
    1731                            .dwattr $C$DW$T$153, DW_AT_type(*$C$DW$T$152)
    1732                            .dwattr $C$DW$T$153, DW_AT_language(DW_LANG_C)
    1733                            .dwattr $C$DW$T$153, DW_AT_decl_file("C:\ti\simplelink_cc13x0_sdk_2_30_00_20\source\ti\ti154st
    1734                            .dwattr $C$DW$T$153, DW_AT_decl_line(0x3e9)
    1735                            .dwattr $C$DW$T$153, DW_AT_decl_column(0x02)
    1736                    
    1737                    
    1738                    $C$DW$T$19      .dwtag  DW_TAG_structure_type
    1739                            .dwattr $C$DW$T$19, DW_AT_byte_size(0x08)
    1740                    $C$DW$119       .dwtag  DW_TAG_member
    1741                            .dwattr $C$DW$119, DW_AT_type(*$C$DW$T$10)
    1742                            .dwattr $C$DW$119, DW_AT_name("quot")
    1743                            .dwattr $C$DW$119, DW_AT_TI_symbol_name("quot")
    1744                            .dwattr $C$DW$119, DW_AT_data_member_location[DW_OP_plus_uconst 0x0]
    1745                            .dwattr $C$DW$119, DW_AT_accessibility(DW_ACCESS_public)
    1746                            .dwattr $C$DW$119, DW_AT_decl_file("C:/ti/ccsv7/tools/compiler/ti-cgt-arm_16.9.9.LTS/include/s
    1747                            .dwattr $C$DW$119, DW_AT_decl_line(0x5c)
    1748                            .dwattr $C$DW$119, DW_AT_decl_column(0x16)
    1749                    
    1750                    $C$DW$120       .dwtag  DW_TAG_member
    1751                            .dwattr $C$DW$120, DW_AT_type(*$C$DW$T$10)
    1752                            .dwattr $C$DW$120, DW_AT_name("rem")
    1753                            .dwattr $C$DW$120, DW_AT_TI_symbol_name("rem")
    1754                            .dwattr $C$DW$120, DW_AT_data_member_location[DW_OP_plus_uconst 0x4]
    1755                            .dwattr $C$DW$120, DW_AT_accessibility(DW_ACCESS_public)
    1756                            .dwattr $C$DW$120, DW_AT_decl_file("C:/ti/ccsv7/tools/compiler/ti-cgt-arm_16.9.9.LTS/include/s
    1757                            .dwattr $C$DW$120, DW_AT_decl_line(0x5c)
    1758                            .dwattr $C$DW$120, DW_AT_decl_column(0x1c)
    1759                    
    1760                            .dwattr $C$DW$T$19, DW_AT_decl_file("C:/ti/ccsv7/tools/compiler/ti-cgt-arm_16.9.9.LTS/include/
TI ARM Assembler PC v16.9.9 Sun Nov 25 16:40:45 2018

Tools Copyright (c) 1996-2017 Texas Instruments Incorporated
C:\Users\Stryd\AppData\Local\Temp\{20FABBE7-6C1F-4BB7-B116-814D10534D3D} PAGE   33

    1761                            .dwattr $C$DW$T$19, DW_AT_decl_line(0x5c)
    1762                            .dwattr $C$DW$T$19, DW_AT_decl_column(0x10)
    1763                            .dwendtag $C$DW$T$19
    1764                    
    1765                    $C$DW$T$154     .dwtag  DW_TAG_typedef
    1766                            .dwattr $C$DW$T$154, DW_AT_name("div_t")
    1767                            .dwattr $C$DW$T$154, DW_AT_type(*$C$DW$T$19)
    1768                            .dwattr $C$DW$T$154, DW_AT_language(DW_LANG_C)
    1769                            .dwattr $C$DW$T$154, DW_AT_decl_file("C:/ti/ccsv7/tools/compiler/ti-cgt-arm_16.9.9.LTS/include
    1770                            .dwattr $C$DW$T$154, DW_AT_decl_line(0x5c)
    1771                            .dwattr $C$DW$T$154, DW_AT_decl_column(0x23)
    1772                    
    1773                    
    1774                    $C$DW$T$20      .dwtag  DW_TAG_structure_type
    1775                            .dwattr $C$DW$T$20, DW_AT_byte_size(0x08)
    1776                    $C$DW$121       .dwtag  DW_TAG_member
    1777                            .dwattr $C$DW$121, DW_AT_type(*$C$DW$T$10)
    1778                            .dwattr $C$DW$121, DW_AT_name("quot")
    1779                            .dwattr $C$DW$121, DW_AT_TI_symbol_name("quot")
    1780                            .dwattr $C$DW$121, DW_AT_data_member_location[DW_OP_plus_uconst 0x0]
    1781                            .dwattr $C$DW$121, DW_AT_accessibility(DW_ACCESS_public)
    1782                            .dwattr $C$DW$121, DW_AT_decl_file("C:/ti/ccsv7/tools/compiler/ti-cgt-arm_16.9.9.LTS/include/s
    1783                            .dwattr $C$DW$121, DW_AT_decl_line(0x5e)
    1784                            .dwattr $C$DW$121, DW_AT_decl_column(0x16)
    1785                    
    1786                    $C$DW$122       .dwtag  DW_TAG_member
    1787                            .dwattr $C$DW$122, DW_AT_type(*$C$DW$T$10)
    1788                            .dwattr $C$DW$122, DW_AT_name("rem")
    1789                            .dwattr $C$DW$122, DW_AT_TI_symbol_name("rem")
    1790                            .dwattr $C$DW$122, DW_AT_data_member_location[DW_OP_plus_uconst 0x4]
    1791                            .dwattr $C$DW$122, DW_AT_accessibility(DW_ACCESS_public)
    1792                            .dwattr $C$DW$122, DW_AT_decl_file("C:/ti/ccsv7/tools/compiler/ti-cgt-arm_16.9.9.LTS/include/s
    1793                            .dwattr $C$DW$122, DW_AT_decl_line(0x5e)
    1794                            .dwattr $C$DW$122, DW_AT_decl_column(0x1c)
    1795                    
    1796                            .dwattr $C$DW$T$20, DW_AT_decl_file("C:/ti/ccsv7/tools/compiler/ti-cgt-arm_16.9.9.LTS/include/
    1797                            .dwattr $C$DW$T$20, DW_AT_decl_line(0x5e)
    1798                            .dwattr $C$DW$T$20, DW_AT_decl_column(0x10)
    1799                            .dwendtag $C$DW$T$20
    1800                    
    1801                    $C$DW$T$155     .dwtag  DW_TAG_typedef
    1802                            .dwattr $C$DW$T$155, DW_AT_name("ldiv_t")
    1803                            .dwattr $C$DW$T$155, DW_AT_type(*$C$DW$T$20)
    1804                            .dwattr $C$DW$T$155, DW_AT_language(DW_LANG_C)
    1805                            .dwattr $C$DW$T$155, DW_AT_decl_file("C:/ti/ccsv7/tools/compiler/ti-cgt-arm_16.9.9.LTS/include
    1806                            .dwattr $C$DW$T$155, DW_AT_decl_line(0x5e)
    1807                            .dwattr $C$DW$T$155, DW_AT_decl_column(0x23)
    1808                    
    1809                    
    1810                    $C$DW$T$21      .dwtag  DW_TAG_structure_type
    1811                            .dwattr $C$DW$T$21, DW_AT_byte_size(0x10)
    1812                    $C$DW$123       .dwtag  DW_TAG_member
    1813                            .dwattr $C$DW$123, DW_AT_type(*$C$DW$T$14)
    1814                            .dwattr $C$DW$123, DW_AT_name("quot")
    1815                            .dwattr $C$DW$123, DW_AT_TI_symbol_name("quot")
TI ARM Assembler PC v16.9.9 Sun Nov 25 16:40:45 2018

Tools Copyright (c) 1996-2017 Texas Instruments Incorporated
C:\Users\Stryd\AppData\Local\Temp\{20FABBE7-6C1F-4BB7-B116-814D10534D3D} PAGE   34

    1816                            .dwattr $C$DW$123, DW_AT_data_member_location[DW_OP_plus_uconst 0x0]
    1817                            .dwattr $C$DW$123, DW_AT_accessibility(DW_ACCESS_public)
    1818                            .dwattr $C$DW$123, DW_AT_decl_file("C:/ti/ccsv7/tools/compiler/ti-cgt-arm_16.9.9.LTS/include/s
    1819                            .dwattr $C$DW$123, DW_AT_decl_line(0x61)
    1820                            .dwattr $C$DW$123, DW_AT_decl_column(0x1c)
    1821                    
    1822                    $C$DW$124       .dwtag  DW_TAG_member
    1823                            .dwattr $C$DW$124, DW_AT_type(*$C$DW$T$14)
    1824                            .dwattr $C$DW$124, DW_AT_name("rem")
    1825                            .dwattr $C$DW$124, DW_AT_TI_symbol_name("rem")
    1826                            .dwattr $C$DW$124, DW_AT_data_member_location[DW_OP_plus_uconst 0x8]
    1827                            .dwattr $C$DW$124, DW_AT_accessibility(DW_ACCESS_public)
    1828                            .dwattr $C$DW$124, DW_AT_decl_file("C:/ti/ccsv7/tools/compiler/ti-cgt-arm_16.9.9.LTS/include/s
    1829                            .dwattr $C$DW$124, DW_AT_decl_line(0x61)
    1830                            .dwattr $C$DW$124, DW_AT_decl_column(0x22)
    1831                    
    1832                            .dwattr $C$DW$T$21, DW_AT_decl_file("C:/ti/ccsv7/tools/compiler/ti-cgt-arm_16.9.9.LTS/include/
    1833                            .dwattr $C$DW$T$21, DW_AT_decl_line(0x61)
    1834                            .dwattr $C$DW$T$21, DW_AT_decl_column(0x10)
    1835                            .dwendtag $C$DW$T$21
    1836                    
    1837                    $C$DW$T$156     .dwtag  DW_TAG_typedef
    1838                            .dwattr $C$DW$T$156, DW_AT_name("lldiv_t")
    1839                            .dwattr $C$DW$T$156, DW_AT_type(*$C$DW$T$21)
    1840                            .dwattr $C$DW$T$156, DW_AT_language(DW_LANG_C)
    1841                            .dwattr $C$DW$T$156, DW_AT_decl_file("C:/ti/ccsv7/tools/compiler/ti-cgt-arm_16.9.9.LTS/include
    1842                            .dwattr $C$DW$T$156, DW_AT_decl_line(0x61)
    1843                            .dwattr $C$DW$T$156, DW_AT_decl_column(0x29)
    1844                    
    1845                    
    1846                    $C$DW$T$26      .dwtag  DW_TAG_structure_type
    1847                            .dwattr $C$DW$T$26, DW_AT_byte_size(0x08)
    1848                    $C$DW$125       .dwtag  DW_TAG_member
    1849                            .dwattr $C$DW$125, DW_AT_type(*$C$DW$T$24)
    1850                            .dwattr $C$DW$125, DW_AT_name("pointerStack")
    1851                            .dwattr $C$DW$125, DW_AT_TI_symbol_name("pointerStack")
    1852                            .dwattr $C$DW$125, DW_AT_data_member_location[DW_OP_plus_uconst 0x0]
    1853                            .dwattr $C$DW$125, DW_AT_accessibility(DW_ACCESS_public)
    1854                            .dwattr $C$DW$125, DW_AT_decl_file("C:\ti\simplelink_cc13x0_sdk_2_30_00_20\source\ti\ti154stac
    1855                            .dwattr $C$DW$125, DW_AT_decl_line(0x3f5)
    1856                            .dwattr $C$DW$125, DW_AT_decl_column(0x16)
    1857                    
    1858                    $C$DW$126       .dwtag  DW_TAG_member
    1859                            .dwattr $C$DW$126, DW_AT_type(*$C$DW$T$25)
    1860                            .dwattr $C$DW$126, DW_AT_name("directAPI")
    1861                            .dwattr $C$DW$126, DW_AT_TI_symbol_name("directAPI")
    1862                            .dwattr $C$DW$126, DW_AT_data_member_location[DW_OP_plus_uconst 0x4]
    1863                            .dwattr $C$DW$126, DW_AT_accessibility(DW_ACCESS_public)
    1864                            .dwattr $C$DW$126, DW_AT_decl_file("C:\ti\simplelink_cc13x0_sdk_2_30_00_20\source\ti\ti154stac
    1865                            .dwattr $C$DW$126, DW_AT_decl_line(0x3f6)
    1866                            .dwattr $C$DW$126, DW_AT_decl_column(0x15)
    1867                    
    1868                            .dwattr $C$DW$T$26, DW_AT_decl_file("C:\ti\simplelink_cc13x0_sdk_2_30_00_20\source\ti\ti154sta
    1869                            .dwattr $C$DW$T$26, DW_AT_decl_line(0x3f4)
    1870                            .dwattr $C$DW$T$26, DW_AT_decl_column(0x01)
TI ARM Assembler PC v16.9.9 Sun Nov 25 16:40:45 2018

Tools Copyright (c) 1996-2017 Texas Instruments Incorporated
C:\Users\Stryd\AppData\Local\Temp\{20FABBE7-6C1F-4BB7-B116-814D10534D3D} PAGE   35

    1871                            .dwendtag $C$DW$T$26
    1872                    
    1873                    $C$DW$T$28      .dwtag  DW_TAG_typedef
    1874                            .dwattr $C$DW$T$28, DW_AT_name("icall_directAPIMsg_t")
    1875                            .dwattr $C$DW$T$28, DW_AT_type(*$C$DW$T$26)
    1876                            .dwattr $C$DW$T$28, DW_AT_language(DW_LANG_C)
    1877                            .dwattr $C$DW$T$28, DW_AT_decl_file("C:\ti\simplelink_cc13x0_sdk_2_30_00_20\source\ti\ti154sta
    1878                            .dwattr $C$DW$T$28, DW_AT_decl_line(0x3f7)
    1879                            .dwattr $C$DW$T$28, DW_AT_decl_column(0x03)
    1880                    
    1881                    
    1882                    $C$DW$T$29      .dwtag  DW_TAG_structure_type
    1883                            .dwattr $C$DW$T$29, DW_AT_byte_size(0x14)
    1884                    $C$DW$127       .dwtag  DW_TAG_member
    1885                            .dwattr $C$DW$127, DW_AT_type(*$C$DW$T$27)
    1886                            .dwattr $C$DW$127, DW_AT_name("hdr")
    1887                            .dwattr $C$DW$127, DW_AT_TI_symbol_name("hdr")
    1888                            .dwattr $C$DW$127, DW_AT_data_member_location[DW_OP_plus_uconst 0x0]
    1889                            .dwattr $C$DW$127, DW_AT_accessibility(DW_ACCESS_public)
    1890                            .dwattr $C$DW$127, DW_AT_decl_file("C:\ti\simplelink_cc13x0_sdk_2_30_00_20\source\ti\ti154stac
    1891                            .dwattr $C$DW$127, DW_AT_decl_line(0x3fb)
    1892                            .dwattr $C$DW$127, DW_AT_decl_column(0x10)
    1893                    
    1894                    $C$DW$128       .dwtag  DW_TAG_member
    1895                            .dwattr $C$DW$128, DW_AT_type(*$C$DW$T$28)
    1896                            .dwattr $C$DW$128, DW_AT_name("msg")
    1897                            .dwattr $C$DW$128, DW_AT_TI_symbol_name("msg")
    1898                            .dwattr $C$DW$128, DW_AT_data_member_location[DW_OP_plus_uconst 0xc]
    1899                            .dwattr $C$DW$128, DW_AT_accessibility(DW_ACCESS_public)
    1900                            .dwattr $C$DW$128, DW_AT_decl_file("C:\ti\simplelink_cc13x0_sdk_2_30_00_20\source\ti\ti154stac
    1901                            .dwattr $C$DW$128, DW_AT_decl_line(0x3fc)
    1902                            .dwattr $C$DW$128, DW_AT_decl_column(0x1a)
    1903                    
    1904                            .dwattr $C$DW$T$29, DW_AT_decl_file("C:\ti\simplelink_cc13x0_sdk_2_30_00_20\source\ti\ti154sta
    1905                            .dwattr $C$DW$T$29, DW_AT_decl_line(0x3fa)
    1906                            .dwattr $C$DW$T$29, DW_AT_decl_column(0x01)
    1907                            .dwendtag $C$DW$T$29
    1908                    
    1909                    $C$DW$T$157     .dwtag  DW_TAG_typedef
    1910                            .dwattr $C$DW$T$157, DW_AT_name("icallLiteMsg_t")
    1911                            .dwattr $C$DW$T$157, DW_AT_type(*$C$DW$T$29)
    1912                            .dwattr $C$DW$T$157, DW_AT_language(DW_LANG_C)
    1913                            .dwattr $C$DW$T$157, DW_AT_decl_file("C:\ti\simplelink_cc13x0_sdk_2_30_00_20\source\ti\ti154st
    1914                            .dwattr $C$DW$T$157, DW_AT_decl_line(0x3fd)
    1915                            .dwattr $C$DW$T$157, DW_AT_decl_column(0x03)
    1916                    
    1917                    
    1918                    $C$DW$T$36      .dwtag  DW_TAG_union_type
    1919                            .dwattr $C$DW$T$36, DW_AT_byte_size(0x02)
    1920                    $C$DW$129       .dwtag  DW_TAG_member
    1921                            .dwattr $C$DW$129, DW_AT_type(*$C$DW$T$32)
    1922                            .dwattr $C$DW$129, DW_AT_name("entityId")
    1923                            .dwattr $C$DW$129, DW_AT_TI_symbol_name("entityId")
    1924                            .dwattr $C$DW$129, DW_AT_data_member_location[DW_OP_plus_uconst 0x0]
    1925                            .dwattr $C$DW$129, DW_AT_accessibility(DW_ACCESS_public)
TI ARM Assembler PC v16.9.9 Sun Nov 25 16:40:45 2018

Tools Copyright (c) 1996-2017 Texas Instruments Incorporated
C:\Users\Stryd\AppData\Local\Temp\{20FABBE7-6C1F-4BB7-B116-814D10534D3D} PAGE   36

    1926                            .dwattr $C$DW$129, DW_AT_decl_file("C:\ti\simplelink_cc13x0_sdk_2_30_00_20\source\ti\ti154stac
    1927                            .dwattr $C$DW$129, DW_AT_decl_line(0x1fe)
    1928                            .dwattr $C$DW$129, DW_AT_decl_column(0x14)
    1929                    
    1930                    $C$DW$130       .dwtag  DW_TAG_member
    1931                            .dwattr $C$DW$130, DW_AT_type(*$C$DW$T$35)
    1932                            .dwattr $C$DW$130, DW_AT_name("servId")
    1933                            .dwattr $C$DW$130, DW_AT_TI_symbol_name("servId")
    1934                            .dwattr $C$DW$130, DW_AT_data_member_location[DW_OP_plus_uconst 0x0]
    1935                            .dwattr $C$DW$130, DW_AT_accessibility(DW_ACCESS_public)
    1936                            .dwattr $C$DW$130, DW_AT_decl_file("C:\ti\simplelink_cc13x0_sdk_2_30_00_20\source\ti\ti154stac
    1937                            .dwattr $C$DW$130, DW_AT_decl_line(0x200)
    1938                            .dwattr $C$DW$130, DW_AT_decl_column(0x17)
    1939                    
    1940                            .dwattr $C$DW$T$36, DW_AT_decl_file("C:\ti\simplelink_cc13x0_sdk_2_30_00_20\source\ti\ti154sta
    1941                            .dwattr $C$DW$T$36, DW_AT_decl_line(0x1fc)
    1942                            .dwattr $C$DW$T$36, DW_AT_decl_column(0x03)
    1943                            .dwendtag $C$DW$T$36
    1944                    
    1945                    
    1946                    $C$DW$T$37      .dwtag  DW_TAG_union_type
    1947                            .dwattr $C$DW$T$37, DW_AT_byte_size(0x02)
    1948                    $C$DW$131       .dwtag  DW_TAG_member
    1949                            .dwattr $C$DW$131, DW_AT_type(*$C$DW$T$35)
    1950                            .dwattr $C$DW$131, DW_AT_name("servId")
    1951                            .dwattr $C$DW$131, DW_AT_TI_symbol_name("servId")
    1952                            .dwattr $C$DW$131, DW_AT_data_member_location[DW_OP_plus_uconst 0x0]
    1953                            .dwattr $C$DW$131, DW_AT_accessibility(DW_ACCESS_public)
    1954                            .dwattr $C$DW$131, DW_AT_decl_file("C:\ti\simplelink_cc13x0_sdk_2_30_00_20\source\ti\ti154stac
    1955                            .dwattr $C$DW$131, DW_AT_decl_line(0x211)
    1956                            .dwattr $C$DW$131, DW_AT_decl_column(0x17)
    1957                    
    1958                    $C$DW$132       .dwtag  DW_TAG_member
    1959                            .dwattr $C$DW$132, DW_AT_type(*$C$DW$T$32)
    1960                            .dwattr $C$DW$132, DW_AT_name("entityId")
    1961                            .dwattr $C$DW$132, DW_AT_TI_symbol_name("entityId")
    1962                            .dwattr $C$DW$132, DW_AT_data_member_location[DW_OP_plus_uconst 0x0]
    1963                            .dwattr $C$DW$132, DW_AT_accessibility(DW_ACCESS_public)
    1964                            .dwattr $C$DW$132, DW_AT_decl_file("C:\ti\simplelink_cc13x0_sdk_2_30_00_20\source\ti\ti154stac
    1965                            .dwattr $C$DW$132, DW_AT_decl_line(0x213)
    1966                            .dwattr $C$DW$132, DW_AT_decl_column(0x14)
    1967                    
    1968                            .dwattr $C$DW$T$37, DW_AT_decl_file("C:\ti\simplelink_cc13x0_sdk_2_30_00_20\source\ti\ti154sta
    1969                            .dwattr $C$DW$T$37, DW_AT_decl_line(0x20f)
    1970                            .dwattr $C$DW$T$37, DW_AT_decl_column(0x03)
    1971                            .dwendtag $C$DW$T$37
    1972                    
    1973                    
    1974                    $C$DW$T$38      .dwtag  DW_TAG_structure_type
    1975                            .dwattr $C$DW$T$38, DW_AT_name(".ggroup1")
    1976                            .dwattr $C$DW$T$38, DW_AT_byte_size(0x08)
    1977                    $C$DW$133       .dwtag  DW_TAG_member
    1978                            .dwattr $C$DW$133, DW_AT_type(*$C$DW$T$6)
    1979                            .dwattr $C$DW$133, DW_AT_name("ICallPlatform_pwrActivityCount")
    1980                            .dwattr $C$DW$133, DW_AT_TI_symbol_name("ICallPlatform_pwrActivityCount")
TI ARM Assembler PC v16.9.9 Sun Nov 25 16:40:45 2018

Tools Copyright (c) 1996-2017 Texas Instruments Incorporated
C:\Users\Stryd\AppData\Local\Temp\{20FABBE7-6C1F-4BB7-B116-814D10534D3D} PAGE   37

    1981                            .dwattr $C$DW$133, DW_AT_data_member_location[DW_OP_plus_uconst 0x0]
    1982                            .dwattr $C$DW$133, DW_AT_accessibility(DW_ACCESS_public)
    1983                    
    1984                    $C$DW$134       .dwtag  DW_TAG_member
    1985                            .dwattr $C$DW$134, DW_AT_type(*$C$DW$T$11)
    1986                            .dwattr $C$DW$134, DW_AT_name("ICallPlatform_pwrCfgACAction")
    1987                            .dwattr $C$DW$134, DW_AT_TI_symbol_name("ICallPlatform_pwrCfgACAction")
    1988                            .dwattr $C$DW$134, DW_AT_data_member_location[DW_OP_plus_uconst 0x4]
    1989                            .dwattr $C$DW$134, DW_AT_accessibility(DW_ACCESS_public)
    1990                    
    1991                            .dwendtag $C$DW$T$38
    1992                    
    1993                    
    1994                    $C$DW$T$39      .dwtag  DW_TAG_structure_type
    1995                            .dwattr $C$DW$T$39, DW_AT_name("ClockP_FreqHz")
    1996                            .dwattr $C$DW$T$39, DW_AT_byte_size(0x08)
    1997                    $C$DW$135       .dwtag  DW_TAG_member
    1998                            .dwattr $C$DW$135, DW_AT_type(*$C$DW$T$22)
    1999                            .dwattr $C$DW$135, DW_AT_name("hi")
    2000                            .dwattr $C$DW$135, DW_AT_TI_symbol_name("hi")
    2001                            .dwattr $C$DW$135, DW_AT_data_member_location[DW_OP_plus_uconst 0x0]
    2002                            .dwattr $C$DW$135, DW_AT_accessibility(DW_ACCESS_public)
    2003                            .dwattr $C$DW$135, DW_AT_decl_file("C:/ti/simplelink_cc13x0_sdk_2_30_00_20/source/ti/drivers/d
    2004                            .dwattr $C$DW$135, DW_AT_decl_line(0x5c)
    2005                            .dwattr $C$DW$135, DW_AT_decl_column(0x0e)
    2006                    
    2007                    $C$DW$136       .dwtag  DW_TAG_member
    2008                            .dwattr $C$DW$136, DW_AT_type(*$C$DW$T$22)
    2009                            .dwattr $C$DW$136, DW_AT_name("lo")
    2010                            .dwattr $C$DW$136, DW_AT_TI_symbol_name("lo")
    2011                            .dwattr $C$DW$136, DW_AT_data_member_location[DW_OP_plus_uconst 0x4]
    2012                            .dwattr $C$DW$136, DW_AT_accessibility(DW_ACCESS_public)
    2013                            .dwattr $C$DW$136, DW_AT_decl_file("C:/ti/simplelink_cc13x0_sdk_2_30_00_20/source/ti/drivers/d
    2014                            .dwattr $C$DW$136, DW_AT_decl_line(0x5d)
    2015                            .dwattr $C$DW$136, DW_AT_decl_column(0x0e)
    2016                    
    2017                            .dwattr $C$DW$T$39, DW_AT_decl_file("C:/ti/simplelink_cc13x0_sdk_2_30_00_20/source/ti/drivers/
    2018                            .dwattr $C$DW$T$39, DW_AT_decl_line(0x5b)
    2019                            .dwattr $C$DW$T$39, DW_AT_decl_column(0x10)
    2020                            .dwendtag $C$DW$T$39
    2021                    
    2022                    $C$DW$T$159     .dwtag  DW_TAG_typedef
    2023                            .dwattr $C$DW$T$159, DW_AT_name("ClockP_FreqHz")
    2024                            .dwattr $C$DW$T$159, DW_AT_type(*$C$DW$T$39)
    2025                            .dwattr $C$DW$T$159, DW_AT_language(DW_LANG_C)
    2026                            .dwattr $C$DW$T$159, DW_AT_decl_file("C:/ti/simplelink_cc13x0_sdk_2_30_00_20/source/ti/drivers
    2027                            .dwattr $C$DW$T$159, DW_AT_decl_line(0x5e)
    2028                            .dwattr $C$DW$T$159, DW_AT_decl_column(0x03)
    2029                    
    2030                    
    2031                    $C$DW$T$42      .dwtag  DW_TAG_structure_type
    2032                            .dwattr $C$DW$T$42, DW_AT_name("ClockP_Params")
    2033                            .dwattr $C$DW$T$42, DW_AT_byte_size(0x0c)
    2034                    $C$DW$137       .dwtag  DW_TAG_member
    2035                            .dwattr $C$DW$137, DW_AT_type(*$C$DW$T$40)
TI ARM Assembler PC v16.9.9 Sun Nov 25 16:40:45 2018

Tools Copyright (c) 1996-2017 Texas Instruments Incorporated
C:\Users\Stryd\AppData\Local\Temp\{20FABBE7-6C1F-4BB7-B116-814D10534D3D} PAGE   38

    2036                            .dwattr $C$DW$137, DW_AT_name("startFlag")
    2037                            .dwattr $C$DW$137, DW_AT_TI_symbol_name("startFlag")
    2038                            .dwattr $C$DW$137, DW_AT_data_member_location[DW_OP_plus_uconst 0x0]
    2039                            .dwattr $C$DW$137, DW_AT_accessibility(DW_ACCESS_public)
    2040                            .dwattr $C$DW$137, DW_AT_decl_file("C:/ti/simplelink_cc13x0_sdk_2_30_00_20/source/ti/drivers/d
    2041                            .dwattr $C$DW$137, DW_AT_decl_line(0x8d)
    2042                            .dwattr $C$DW$137, DW_AT_decl_column(0x0f)
    2043                    
    2044                    $C$DW$138       .dwtag  DW_TAG_member
    2045                            .dwattr $C$DW$138, DW_AT_type(*$C$DW$T$22)
    2046                            .dwattr $C$DW$138, DW_AT_name("period")
    2047                            .dwattr $C$DW$138, DW_AT_TI_symbol_name("period")
    2048                            .dwattr $C$DW$138, DW_AT_data_member_location[DW_OP_plus_uconst 0x4]
    2049                            .dwattr $C$DW$138, DW_AT_accessibility(DW_ACCESS_public)
    2050                            .dwattr $C$DW$138, DW_AT_decl_file("C:/ti/simplelink_cc13x0_sdk_2_30_00_20/source/ti/drivers/d
    2051                            .dwattr $C$DW$138, DW_AT_decl_line(0x8e)
    2052                            .dwattr $C$DW$138, DW_AT_decl_column(0x0f)
    2053                    
    2054                    $C$DW$139       .dwtag  DW_TAG_member
    2055                            .dwattr $C$DW$139, DW_AT_type(*$C$DW$T$41)
    2056                            .dwattr $C$DW$139, DW_AT_name("arg")
    2057                            .dwattr $C$DW$139, DW_AT_TI_symbol_name("arg")
    2058                            .dwattr $C$DW$139, DW_AT_data_member_location[DW_OP_plus_uconst 0x8]
    2059                            .dwattr $C$DW$139, DW_AT_accessibility(DW_ACCESS_public)
    2060                            .dwattr $C$DW$139, DW_AT_decl_file("C:/ti/simplelink_cc13x0_sdk_2_30_00_20/source/ti/drivers/d
    2061                            .dwattr $C$DW$139, DW_AT_decl_line(0x8f)
    2062                            .dwattr $C$DW$139, DW_AT_decl_column(0x0f)
    2063                    
    2064                            .dwattr $C$DW$T$42, DW_AT_decl_file("C:/ti/simplelink_cc13x0_sdk_2_30_00_20/source/ti/drivers/
    2065                            .dwattr $C$DW$T$42, DW_AT_decl_line(0x8c)
    2066                            .dwattr $C$DW$T$42, DW_AT_decl_column(0x10)
    2067                            .dwendtag $C$DW$T$42
    2068                    
    2069                    $C$DW$T$160     .dwtag  DW_TAG_typedef
    2070                            .dwattr $C$DW$T$160, DW_AT_name("ClockP_Params")
    2071                            .dwattr $C$DW$T$160, DW_AT_type(*$C$DW$T$42)
    2072                            .dwattr $C$DW$T$160, DW_AT_language(DW_LANG_C)
    2073                            .dwattr $C$DW$T$160, DW_AT_decl_file("C:/ti/simplelink_cc13x0_sdk_2_30_00_20/source/ti/drivers
    2074                            .dwattr $C$DW$T$160, DW_AT_decl_line(0x90)
    2075                            .dwattr $C$DW$T$160, DW_AT_decl_column(0x03)
    2076                    
    2077                    
    2078                    $C$DW$T$161     .dwtag  DW_TAG_enumeration_type
    2079                            .dwattr $C$DW$T$161, DW_AT_name("ClockP_Status")
    2080                            .dwattr $C$DW$T$161, DW_AT_byte_size(0x01)
    2081                    $C$DW$140       .dwtag  DW_TAG_enumerator
    2082                            .dwattr $C$DW$140, DW_AT_name("ClockP_OK")
    2083                            .dwattr $C$DW$140, DW_AT_const_value(0x00)
    2084                            .dwattr $C$DW$140, DW_AT_decl_file("C:/ti/simplelink_cc13x0_sdk_2_30_00_20/source/ti/drivers/d
    2085                            .dwattr $C$DW$140, DW_AT_decl_line(0x64)
    2086                            .dwattr $C$DW$140, DW_AT_decl_column(0x05)
    2087                    
    2088                    $C$DW$141       .dwtag  DW_TAG_enumerator
    2089                            .dwattr $C$DW$141, DW_AT_name("ClockP_FAILURE")
    2090                            .dwattr $C$DW$141, DW_AT_const_value(-1)
TI ARM Assembler PC v16.9.9 Sun Nov 25 16:40:45 2018

Tools Copyright (c) 1996-2017 Texas Instruments Incorporated
C:\Users\Stryd\AppData\Local\Temp\{20FABBE7-6C1F-4BB7-B116-814D10534D3D} PAGE   39

    2091                            .dwattr $C$DW$141, DW_AT_decl_file("C:/ti/simplelink_cc13x0_sdk_2_30_00_20/source/ti/drivers/d
    2092                            .dwattr $C$DW$141, DW_AT_decl_line(0x65)
    2093                            .dwattr $C$DW$141, DW_AT_decl_column(0x05)
    2094                    
    2095                            .dwattr $C$DW$T$161, DW_AT_decl_file("C:/ti/simplelink_cc13x0_sdk_2_30_00_20/source/ti/drivers
    2096                            .dwattr $C$DW$T$161, DW_AT_decl_line(0x63)
    2097                            .dwattr $C$DW$T$161, DW_AT_decl_column(0x0e)
    2098                            .dwendtag $C$DW$T$161
    2099                    
    2100                    $C$DW$T$162     .dwtag  DW_TAG_typedef
    2101                            .dwattr $C$DW$T$162, DW_AT_name("ClockP_Status")
    2102                            .dwattr $C$DW$T$162, DW_AT_type(*$C$DW$T$161)
    2103                            .dwattr $C$DW$T$162, DW_AT_language(DW_LANG_C)
    2104                            .dwattr $C$DW$T$162, DW_AT_decl_file("C:/ti/simplelink_cc13x0_sdk_2_30_00_20/source/ti/drivers
    2105                            .dwattr $C$DW$T$162, DW_AT_decl_line(0x66)
    2106                            .dwattr $C$DW$T$162, DW_AT_decl_column(0x03)
    2107                    
    2108                    
    2109                    $C$DW$T$45      .dwtag  DW_TAG_union_type
    2110                            .dwattr $C$DW$T$45, DW_AT_name("ClockP_Struct")
    2111                            .dwattr $C$DW$T$45, DW_AT_byte_size(0x24)
    2112                    $C$DW$142       .dwtag  DW_TAG_member
    2113                            .dwattr $C$DW$142, DW_AT_type(*$C$DW$T$22)
    2114                            .dwattr $C$DW$142, DW_AT_name("dummy")
    2115                            .dwattr $C$DW$142, DW_AT_TI_symbol_name("dummy")
    2116                            .dwattr $C$DW$142, DW_AT_data_member_location[DW_OP_plus_uconst 0x0]
    2117                            .dwattr $C$DW$142, DW_AT_accessibility(DW_ACCESS_public)
    2118                            .dwattr $C$DW$142, DW_AT_decl_file("C:/ti/simplelink_cc13x0_sdk_2_30_00_20/source/ti/drivers/d
    2119                            .dwattr $C$DW$142, DW_AT_decl_line(0x54)
    2120                            .dwattr $C$DW$142, DW_AT_decl_column(0x0e)
    2121                    
    2122                    $C$DW$143       .dwtag  DW_TAG_member
    2123                            .dwattr $C$DW$143, DW_AT_type(*$C$DW$T$44)
    2124                            .dwattr $C$DW$143, DW_AT_name("data")
    2125                            .dwattr $C$DW$143, DW_AT_TI_symbol_name("data")
    2126                            .dwattr $C$DW$143, DW_AT_data_member_location[DW_OP_plus_uconst 0x0]
    2127                            .dwattr $C$DW$143, DW_AT_accessibility(DW_ACCESS_public)
    2128                            .dwattr $C$DW$143, DW_AT_decl_file("C:/ti/simplelink_cc13x0_sdk_2_30_00_20/source/ti/drivers/d
    2129                            .dwattr $C$DW$143, DW_AT_decl_line(0x55)
    2130                            .dwattr $C$DW$143, DW_AT_decl_column(0x0e)
    2131                    
    2132                            .dwattr $C$DW$T$45, DW_AT_decl_file("C:/ti/simplelink_cc13x0_sdk_2_30_00_20/source/ti/drivers/
    2133                            .dwattr $C$DW$T$45, DW_AT_decl_line(0x53)
    2134                            .dwattr $C$DW$T$45, DW_AT_decl_column(0x0f)
    2135                            .dwendtag $C$DW$T$45
    2136                    
    2137                    $C$DW$T$62      .dwtag  DW_TAG_typedef
    2138                            .dwattr $C$DW$T$62, DW_AT_name("ClockP_Struct")
    2139                            .dwattr $C$DW$T$62, DW_AT_type(*$C$DW$T$45)
    2140                            .dwattr $C$DW$T$62, DW_AT_language(DW_LANG_C)
    2141                            .dwattr $C$DW$T$62, DW_AT_decl_file("C:/ti/simplelink_cc13x0_sdk_2_30_00_20/source/ti/drivers/
    2142                            .dwattr $C$DW$T$62, DW_AT_decl_line(0x56)
    2143                            .dwattr $C$DW$T$62, DW_AT_decl_column(0x03)
    2144                    
    2145                    
TI ARM Assembler PC v16.9.9 Sun Nov 25 16:40:45 2018

Tools Copyright (c) 1996-2017 Texas Instruments Incorporated
C:\Users\Stryd\AppData\Local\Temp\{20FABBE7-6C1F-4BB7-B116-814D10534D3D} PAGE   40

    2146                    $C$DW$T$46      .dwtag  DW_TAG_structure_type
    2147                            .dwattr $C$DW$T$46, DW_AT_name("HwiP_Params")
    2148                            .dwattr $C$DW$T$46, DW_AT_byte_size(0x0c)
    2149                    $C$DW$144       .dwtag  DW_TAG_member
    2150                            .dwattr $C$DW$144, DW_AT_type(*$C$DW$T$41)
    2151                            .dwattr $C$DW$144, DW_AT_name("arg")
    2152                            .dwattr $C$DW$144, DW_AT_TI_symbol_name("arg")
    2153                            .dwattr $C$DW$144, DW_AT_data_member_location[DW_OP_plus_uconst 0x0]
    2154                            .dwattr $C$DW$144, DW_AT_accessibility(DW_ACCESS_public)
    2155                            .dwattr $C$DW$144, DW_AT_decl_file("C:/ti/simplelink_cc13x0_sdk_2_30_00_20/source/ti/drivers/d
    2156                            .dwattr $C$DW$144, DW_AT_decl_line(0x72)
    2157                            .dwattr $C$DW$144, DW_AT_decl_column(0x10)
    2158                    
    2159                    $C$DW$145       .dwtag  DW_TAG_member
    2160                            .dwattr $C$DW$145, DW_AT_type(*$C$DW$T$22)
    2161                            .dwattr $C$DW$145, DW_AT_name("priority")
    2162                            .dwattr $C$DW$145, DW_AT_TI_symbol_name("priority")
    2163                            .dwattr $C$DW$145, DW_AT_data_member_location[DW_OP_plus_uconst 0x4]
    2164                            .dwattr $C$DW$145, DW_AT_accessibility(DW_ACCESS_public)
    2165                            .dwattr $C$DW$145, DW_AT_decl_file("C:/ti/simplelink_cc13x0_sdk_2_30_00_20/source/ti/drivers/d
    2166                            .dwattr $C$DW$145, DW_AT_decl_line(0x73)
    2167                            .dwattr $C$DW$145, DW_AT_decl_column(0x10)
    2168                    
    2169                    $C$DW$146       .dwtag  DW_TAG_member
    2170                            .dwattr $C$DW$146, DW_AT_type(*$C$DW$T$40)
    2171                            .dwattr $C$DW$146, DW_AT_name("enableInt")
    2172                            .dwattr $C$DW$146, DW_AT_TI_symbol_name("enableInt")
    2173                            .dwattr $C$DW$146, DW_AT_data_member_location[DW_OP_plus_uconst 0x8]
    2174                            .dwattr $C$DW$146, DW_AT_accessibility(DW_ACCESS_public)
    2175                            .dwattr $C$DW$146, DW_AT_decl_file("C:/ti/simplelink_cc13x0_sdk_2_30_00_20/source/ti/drivers/d
    2176                            .dwattr $C$DW$146, DW_AT_decl_line(0x74)
    2177                            .dwattr $C$DW$146, DW_AT_decl_column(0x10)
    2178                    
    2179                            .dwattr $C$DW$T$46, DW_AT_decl_file("C:/ti/simplelink_cc13x0_sdk_2_30_00_20/source/ti/drivers/
    2180                            .dwattr $C$DW$T$46, DW_AT_decl_line(0x71)
    2181                            .dwattr $C$DW$T$46, DW_AT_decl_column(0x10)
    2182                            .dwendtag $C$DW$T$46
    2183                    
    2184                    $C$DW$T$163     .dwtag  DW_TAG_typedef
    2185                            .dwattr $C$DW$T$163, DW_AT_name("HwiP_Params")
    2186                            .dwattr $C$DW$T$163, DW_AT_type(*$C$DW$T$46)
    2187                            .dwattr $C$DW$T$163, DW_AT_language(DW_LANG_C)
    2188                            .dwattr $C$DW$T$163, DW_AT_decl_file("C:/ti/simplelink_cc13x0_sdk_2_30_00_20/source/ti/drivers
    2189                            .dwattr $C$DW$T$163, DW_AT_decl_line(0x75)
    2190                            .dwattr $C$DW$T$163, DW_AT_decl_column(0x03)
    2191                    
    2192                    
    2193                    $C$DW$T$164     .dwtag  DW_TAG_enumeration_type
    2194                            .dwattr $C$DW$T$164, DW_AT_name("HwiP_Status")
    2195                            .dwattr $C$DW$T$164, DW_AT_byte_size(0x01)
    2196                    $C$DW$147       .dwtag  DW_TAG_enumerator
    2197                            .dwattr $C$DW$147, DW_AT_name("HwiP_OK")
    2198                            .dwattr $C$DW$147, DW_AT_const_value(0x00)
    2199                            .dwattr $C$DW$147, DW_AT_decl_file("C:/ti/simplelink_cc13x0_sdk_2_30_00_20/source/ti/drivers/d
    2200                            .dwattr $C$DW$147, DW_AT_decl_line(0x5c)
TI ARM Assembler PC v16.9.9 Sun Nov 25 16:40:45 2018

Tools Copyright (c) 1996-2017 Texas Instruments Incorporated
C:\Users\Stryd\AppData\Local\Temp\{20FABBE7-6C1F-4BB7-B116-814D10534D3D} PAGE   41

    2201                            .dwattr $C$DW$147, DW_AT_decl_column(0x05)
    2202                    
    2203                    $C$DW$148       .dwtag  DW_TAG_enumerator
    2204                            .dwattr $C$DW$148, DW_AT_name("HwiP_FAILURE")
    2205                            .dwattr $C$DW$148, DW_AT_const_value(-1)
    2206                            .dwattr $C$DW$148, DW_AT_decl_file("C:/ti/simplelink_cc13x0_sdk_2_30_00_20/source/ti/drivers/d
    2207                            .dwattr $C$DW$148, DW_AT_decl_line(0x5d)
    2208                            .dwattr $C$DW$148, DW_AT_decl_column(0x05)
    2209                    
    2210                            .dwattr $C$DW$T$164, DW_AT_decl_file("C:/ti/simplelink_cc13x0_sdk_2_30_00_20/source/ti/drivers
    2211                            .dwattr $C$DW$T$164, DW_AT_decl_line(0x5b)
    2212                            .dwattr $C$DW$T$164, DW_AT_decl_column(0x0e)
    2213                            .dwendtag $C$DW$T$164
    2214                    
    2215                    $C$DW$T$165     .dwtag  DW_TAG_typedef
    2216                            .dwattr $C$DW$T$165, DW_AT_name("HwiP_Status")
    2217                            .dwattr $C$DW$T$165, DW_AT_type(*$C$DW$T$164)
    2218                            .dwattr $C$DW$T$165, DW_AT_language(DW_LANG_C)
    2219                            .dwattr $C$DW$T$165, DW_AT_decl_file("C:/ti/simplelink_cc13x0_sdk_2_30_00_20/source/ti/drivers
    2220                            .dwattr $C$DW$T$165, DW_AT_decl_line(0x5e)
    2221                            .dwattr $C$DW$T$165, DW_AT_decl_column(0x03)
    2222                    
    2223                    
    2224                    $C$DW$T$48      .dwtag  DW_TAG_union_type
    2225                            .dwattr $C$DW$T$48, DW_AT_name("HwiP_Struct")
    2226                            .dwattr $C$DW$T$48, DW_AT_byte_size(0x1c)
    2227                    $C$DW$149       .dwtag  DW_TAG_member
    2228                            .dwattr $C$DW$149, DW_AT_type(*$C$DW$T$22)
    2229                            .dwattr $C$DW$149, DW_AT_name("dummy")
    2230                            .dwattr $C$DW$149, DW_AT_TI_symbol_name("dummy")
    2231                            .dwattr $C$DW$149, DW_AT_data_member_location[DW_OP_plus_uconst 0x0]
    2232                            .dwattr $C$DW$149, DW_AT_accessibility(DW_ACCESS_public)
    2233                            .dwattr $C$DW$149, DW_AT_decl_file("C:/ti/simplelink_cc13x0_sdk_2_30_00_20/source/ti/drivers/d
    2234                            .dwattr $C$DW$149, DW_AT_decl_line(0x4d)
    2235                            .dwattr $C$DW$149, DW_AT_decl_column(0x0e)
    2236                    
    2237                    $C$DW$150       .dwtag  DW_TAG_member
    2238                            .dwattr $C$DW$150, DW_AT_type(*$C$DW$T$47)
    2239                            .dwattr $C$DW$150, DW_AT_name("data")
    2240                            .dwattr $C$DW$150, DW_AT_TI_symbol_name("data")
    2241                            .dwattr $C$DW$150, DW_AT_data_member_location[DW_OP_plus_uconst 0x0]
    2242                            .dwattr $C$DW$150, DW_AT_accessibility(DW_ACCESS_public)
    2243                            .dwattr $C$DW$150, DW_AT_decl_file("C:/ti/simplelink_cc13x0_sdk_2_30_00_20/source/ti/drivers/d
    2244                            .dwattr $C$DW$150, DW_AT_decl_line(0x4e)
    2245                            .dwattr $C$DW$150, DW_AT_decl_column(0x0e)
    2246                    
    2247                            .dwattr $C$DW$T$48, DW_AT_decl_file("C:/ti/simplelink_cc13x0_sdk_2_30_00_20/source/ti/drivers/
    2248                            .dwattr $C$DW$T$48, DW_AT_decl_line(0x4c)
    2249                            .dwattr $C$DW$T$48, DW_AT_decl_column(0x0f)
    2250                            .dwendtag $C$DW$T$48
    2251                    
    2252                    $C$DW$T$63      .dwtag  DW_TAG_typedef
    2253                            .dwattr $C$DW$T$63, DW_AT_name("HwiP_Struct")
    2254                            .dwattr $C$DW$T$63, DW_AT_type(*$C$DW$T$48)
    2255                            .dwattr $C$DW$T$63, DW_AT_language(DW_LANG_C)
TI ARM Assembler PC v16.9.9 Sun Nov 25 16:40:45 2018

Tools Copyright (c) 1996-2017 Texas Instruments Incorporated
C:\Users\Stryd\AppData\Local\Temp\{20FABBE7-6C1F-4BB7-B116-814D10534D3D} PAGE   42

    2256                            .dwattr $C$DW$T$63, DW_AT_decl_file("C:/ti/simplelink_cc13x0_sdk_2_30_00_20/source/ti/drivers/
    2257                            .dwattr $C$DW$T$63, DW_AT_decl_line(0x4f)
    2258                            .dwattr $C$DW$T$63, DW_AT_decl_column(0x03)
    2259                    
    2260                    
    2261                    $C$DW$T$50      .dwtag  DW_TAG_structure_type
    2262                            .dwattr $C$DW$T$50, DW_AT_name("List_Elem")
    2263                            .dwattr $C$DW$T$50, DW_AT_byte_size(0x08)
    2264                    $C$DW$151       .dwtag  DW_TAG_member
    2265                            .dwattr $C$DW$151, DW_AT_type(*$C$DW$T$49)
    2266                            .dwattr $C$DW$151, DW_AT_name("next")
    2267                            .dwattr $C$DW$151, DW_AT_TI_symbol_name("next")
    2268                            .dwattr $C$DW$151, DW_AT_data_member_location[DW_OP_plus_uconst 0x0]
    2269                            .dwattr $C$DW$151, DW_AT_accessibility(DW_ACCESS_public)
    2270                            .dwattr $C$DW$151, DW_AT_decl_file("C:/ti/simplelink_cc13x0_sdk_2_30_00_20/source/ti/drivers/u
    2271                            .dwattr $C$DW$151, DW_AT_decl_line(0x7f)
    2272                            .dwattr $C$DW$151, DW_AT_decl_column(0x17)
    2273                    
    2274                    $C$DW$152       .dwtag  DW_TAG_member
    2275                            .dwattr $C$DW$152, DW_AT_type(*$C$DW$T$49)
    2276                            .dwattr $C$DW$152, DW_AT_name("prev")
    2277                            .dwattr $C$DW$152, DW_AT_TI_symbol_name("prev")
    2278                            .dwattr $C$DW$152, DW_AT_data_member_location[DW_OP_plus_uconst 0x4]
    2279                            .dwattr $C$DW$152, DW_AT_accessibility(DW_ACCESS_public)
    2280                            .dwattr $C$DW$152, DW_AT_decl_file("C:/ti/simplelink_cc13x0_sdk_2_30_00_20/source/ti/drivers/u
    2281                            .dwattr $C$DW$152, DW_AT_decl_line(0x80)
    2282                            .dwattr $C$DW$152, DW_AT_decl_column(0x17)
    2283                    
    2284                            .dwattr $C$DW$T$50, DW_AT_decl_file("C:/ti/simplelink_cc13x0_sdk_2_30_00_20/source/ti/drivers/
    2285                            .dwattr $C$DW$T$50, DW_AT_decl_line(0x7e)
    2286                            .dwattr $C$DW$T$50, DW_AT_decl_column(0x10)
    2287                            .dwendtag $C$DW$T$50
    2288                    
    2289                    $C$DW$T$51      .dwtag  DW_TAG_typedef
    2290                            .dwattr $C$DW$T$51, DW_AT_name("List_Elem")
    2291                            .dwattr $C$DW$T$51, DW_AT_type(*$C$DW$T$50)
    2292                            .dwattr $C$DW$T$51, DW_AT_language(DW_LANG_C)
    2293                            .dwattr $C$DW$T$51, DW_AT_decl_file("C:/ti/simplelink_cc13x0_sdk_2_30_00_20/source/ti/drivers/
    2294                            .dwattr $C$DW$T$51, DW_AT_decl_line(0x81)
    2295                            .dwattr $C$DW$T$51, DW_AT_decl_column(0x03)
    2296                    
    2297                    $C$DW$T$52      .dwtag  DW_TAG_pointer_type
    2298                            .dwattr $C$DW$T$52, DW_AT_type(*$C$DW$T$51)
    2299                            .dwattr $C$DW$T$52, DW_AT_address_class(0x20)
    2300                    
    2301                    $C$DW$T$49      .dwtag  DW_TAG_pointer_type
    2302                            .dwattr $C$DW$T$49, DW_AT_type(*$C$DW$T$50)
    2303                            .dwattr $C$DW$T$49, DW_AT_address_class(0x20)
    2304                    
    2305                    
    2306                    $C$DW$T$53      .dwtag  DW_TAG_structure_type
    2307                            .dwattr $C$DW$T$53, DW_AT_name("List_List")
    2308                            .dwattr $C$DW$T$53, DW_AT_byte_size(0x08)
    2309                    $C$DW$153       .dwtag  DW_TAG_member
    2310                            .dwattr $C$DW$153, DW_AT_type(*$C$DW$T$52)
TI ARM Assembler PC v16.9.9 Sun Nov 25 16:40:45 2018

Tools Copyright (c) 1996-2017 Texas Instruments Incorporated
C:\Users\Stryd\AppData\Local\Temp\{20FABBE7-6C1F-4BB7-B116-814D10534D3D} PAGE   43

    2311                            .dwattr $C$DW$153, DW_AT_name("head")
    2312                            .dwattr $C$DW$153, DW_AT_TI_symbol_name("head")
    2313                            .dwattr $C$DW$153, DW_AT_data_member_location[DW_OP_plus_uconst 0x0]
    2314                            .dwattr $C$DW$153, DW_AT_accessibility(DW_ACCESS_public)
    2315                            .dwattr $C$DW$153, DW_AT_decl_file("C:/ti/simplelink_cc13x0_sdk_2_30_00_20/source/ti/drivers/u
    2316                            .dwattr $C$DW$153, DW_AT_decl_line(0x84)
    2317                            .dwattr $C$DW$153, DW_AT_decl_column(0x10)
    2318                    
    2319                    $C$DW$154       .dwtag  DW_TAG_member
    2320                            .dwattr $C$DW$154, DW_AT_type(*$C$DW$T$52)
    2321                            .dwattr $C$DW$154, DW_AT_name("tail")
    2322                            .dwattr $C$DW$154, DW_AT_TI_symbol_name("tail")
    2323                            .dwattr $C$DW$154, DW_AT_data_member_location[DW_OP_plus_uconst 0x4]
    2324                            .dwattr $C$DW$154, DW_AT_accessibility(DW_ACCESS_public)
    2325                            .dwattr $C$DW$154, DW_AT_decl_file("C:/ti/simplelink_cc13x0_sdk_2_30_00_20/source/ti/drivers/u
    2326                            .dwattr $C$DW$154, DW_AT_decl_line(0x85)
    2327                            .dwattr $C$DW$154, DW_AT_decl_column(0x10)
    2328                    
    2329                            .dwattr $C$DW$T$53, DW_AT_decl_file("C:/ti/simplelink_cc13x0_sdk_2_30_00_20/source/ti/drivers/
    2330                            .dwattr $C$DW$T$53, DW_AT_decl_line(0x83)
    2331                            .dwattr $C$DW$T$53, DW_AT_decl_column(0x10)
    2332                            .dwendtag $C$DW$T$53
    2333                    
    2334                    $C$DW$T$61      .dwtag  DW_TAG_typedef
    2335                            .dwattr $C$DW$T$61, DW_AT_name("List_List")
    2336                            .dwattr $C$DW$T$61, DW_AT_type(*$C$DW$T$53)
    2337                            .dwattr $C$DW$T$61, DW_AT_language(DW_LANG_C)
    2338                            .dwattr $C$DW$T$61, DW_AT_decl_file("C:/ti/simplelink_cc13x0_sdk_2_30_00_20/source/ti/drivers/
    2339                            .dwattr $C$DW$T$61, DW_AT_decl_line(0x86)
    2340                            .dwattr $C$DW$T$61, DW_AT_decl_column(0x03)
    2341                    
    2342                    
    2343                    $C$DW$T$60      .dwtag  DW_TAG_structure_type
    2344                            .dwattr $C$DW$T$60, DW_AT_name("PowerCC26XX_Config")
    2345                            .dwattr $C$DW$T$60, DW_AT_byte_size(0x18)
    2346                    $C$DW$155       .dwtag  DW_TAG_member
    2347                            .dwattr $C$DW$155, DW_AT_type(*$C$DW$T$56)
    2348                            .dwattr $C$DW$155, DW_AT_name("policyInitFxn")
    2349                            .dwattr $C$DW$155, DW_AT_TI_symbol_name("policyInitFxn")
    2350                            .dwattr $C$DW$155, DW_AT_data_member_location[DW_OP_plus_uconst 0x0]
    2351                            .dwattr $C$DW$155, DW_AT_accessibility(DW_ACCESS_public)
    2352                            .dwattr $C$DW$155, DW_AT_decl_file("C:/ti/simplelink_cc13x0_sdk_2_30_00_20/source/ti/drivers/p
    2353                            .dwattr $C$DW$155, DW_AT_decl_line(0x150)
    2354                            .dwattr $C$DW$155, DW_AT_decl_column(0x19)
    2355                    
    2356                    $C$DW$156       .dwtag  DW_TAG_member
    2357                            .dwattr $C$DW$156, DW_AT_type(*$C$DW$T$57)
    2358                            .dwattr $C$DW$156, DW_AT_name("policyFxn")
    2359                            .dwattr $C$DW$156, DW_AT_TI_symbol_name("policyFxn")
    2360                            .dwattr $C$DW$156, DW_AT_data_member_location[DW_OP_plus_uconst 0x4]
    2361                            .dwattr $C$DW$156, DW_AT_accessibility(DW_ACCESS_public)
    2362                            .dwattr $C$DW$156, DW_AT_decl_file("C:/ti/simplelink_cc13x0_sdk_2_30_00_20/source/ti/drivers/p
    2363                            .dwattr $C$DW$156, DW_AT_decl_line(0x166)
    2364                            .dwattr $C$DW$156, DW_AT_decl_column(0x15)
    2365                    
TI ARM Assembler PC v16.9.9 Sun Nov 25 16:40:45 2018

Tools Copyright (c) 1996-2017 Texas Instruments Incorporated
C:\Users\Stryd\AppData\Local\Temp\{20FABBE7-6C1F-4BB7-B116-814D10534D3D} PAGE   44

    2366                    $C$DW$157       .dwtag  DW_TAG_member
    2367                            .dwattr $C$DW$157, DW_AT_type(*$C$DW$T$59)
    2368                            .dwattr $C$DW$157, DW_AT_name("calibrateFxn")
    2369                            .dwattr $C$DW$157, DW_AT_TI_symbol_name("calibrateFxn")
    2370                            .dwattr $C$DW$157, DW_AT_data_member_location[DW_OP_plus_uconst 0x8]
    2371                            .dwattr $C$DW$157, DW_AT_accessibility(DW_ACCESS_public)
    2372                            .dwattr $C$DW$157, DW_AT_decl_file("C:/ti/simplelink_cc13x0_sdk_2_30_00_20/source/ti/drivers/p
    2373                            .dwattr $C$DW$157, DW_AT_decl_line(0x172)
    2374                            .dwattr $C$DW$157, DW_AT_decl_column(0x0c)
    2375                    
    2376                    $C$DW$158       .dwtag  DW_TAG_member
    2377                            .dwattr $C$DW$158, DW_AT_type(*$C$DW$T$22)
    2378                            .dwattr $C$DW$158, DW_AT_name("maxStandbyDuration")
    2379                            .dwattr $C$DW$158, DW_AT_TI_symbol_name("maxStandbyDuration")
    2380                            .dwattr $C$DW$158, DW_AT_data_member_location[DW_OP_plus_uconst 0xc]
    2381                            .dwattr $C$DW$158, DW_AT_accessibility(DW_ACCESS_public)
    2382                            .dwattr $C$DW$158, DW_AT_decl_file("C:/ti/simplelink_cc13x0_sdk_2_30_00_20/source/ti/drivers/p
    2383                            .dwattr $C$DW$158, DW_AT_decl_line(0x18d)
    2384                            .dwattr $C$DW$158, DW_AT_decl_column(0x0e)
    2385                    
    2386                    $C$DW$159       .dwtag  DW_TAG_member
    2387                            .dwattr $C$DW$159, DW_AT_type(*$C$DW$T$33)
    2388                            .dwattr $C$DW$159, DW_AT_name("vddrRechargeMargin")
    2389                            .dwattr $C$DW$159, DW_AT_TI_symbol_name("vddrRechargeMargin")
    2390                            .dwattr $C$DW$159, DW_AT_data_member_location[DW_OP_plus_uconst 0x10]
    2391                            .dwattr $C$DW$159, DW_AT_accessibility(DW_ACCESS_public)
    2392                            .dwattr $C$DW$159, DW_AT_decl_file("C:/ti/simplelink_cc13x0_sdk_2_30_00_20/source/ti/drivers/p
    2393                            .dwattr $C$DW$159, DW_AT_decl_line(0x19e)
    2394                            .dwattr $C$DW$159, DW_AT_decl_column(0x0e)
    2395                    
    2396                    $C$DW$160       .dwtag  DW_TAG_member
    2397                            .dwattr $C$DW$160, DW_AT_type(*$C$DW$T$40)
    2398                            .dwattr $C$DW$160, DW_AT_name("enableMaxStandbyDuration")
    2399                            .dwattr $C$DW$160, DW_AT_TI_symbol_name("enableMaxStandbyDuration")
    2400                            .dwattr $C$DW$160, DW_AT_data_member_location[DW_OP_plus_uconst 0x12]
    2401                            .dwattr $C$DW$160, DW_AT_accessibility(DW_ACCESS_public)
    2402                            .dwattr $C$DW$160, DW_AT_decl_file("C:/ti/simplelink_cc13x0_sdk_2_30_00_20/source/ti/drivers/p
    2403                            .dwattr $C$DW$160, DW_AT_decl_line(0x1ab)
    2404                            .dwattr $C$DW$160, DW_AT_decl_column(0x0a)
    2405                    
    2406                    $C$DW$161       .dwtag  DW_TAG_member
    2407                            .dwattr $C$DW$161, DW_AT_type(*$C$DW$T$40)
    2408                            .dwattr $C$DW$161, DW_AT_name("enablePolicy")
    2409                            .dwattr $C$DW$161, DW_AT_TI_symbol_name("enablePolicy")
    2410                            .dwattr $C$DW$161, DW_AT_data_member_location[DW_OP_plus_uconst 0x13]
    2411                            .dwattr $C$DW$161, DW_AT_accessibility(DW_ACCESS_public)
    2412                            .dwattr $C$DW$161, DW_AT_decl_file("C:/ti/simplelink_cc13x0_sdk_2_30_00_20/source/ti/drivers/p
    2413                            .dwattr $C$DW$161, DW_AT_decl_line(0x1b8)
    2414                            .dwattr $C$DW$161, DW_AT_decl_column(0x0a)
    2415                    
    2416                    $C$DW$162       .dwtag  DW_TAG_member
    2417                            .dwattr $C$DW$162, DW_AT_type(*$C$DW$T$40)
    2418                            .dwattr $C$DW$162, DW_AT_name("calibrateRCOSC_LF")
    2419                            .dwattr $C$DW$162, DW_AT_TI_symbol_name("calibrateRCOSC_LF")
    2420                            .dwattr $C$DW$162, DW_AT_data_member_location[DW_OP_plus_uconst 0x14]
TI ARM Assembler PC v16.9.9 Sun Nov 25 16:40:45 2018

Tools Copyright (c) 1996-2017 Texas Instruments Incorporated
C:\Users\Stryd\AppData\Local\Temp\{20FABBE7-6C1F-4BB7-B116-814D10534D3D} PAGE   45

    2421                            .dwattr $C$DW$162, DW_AT_accessibility(DW_ACCESS_public)
    2422                            .dwattr $C$DW$162, DW_AT_decl_file("C:/ti/simplelink_cc13x0_sdk_2_30_00_20/source/ti/drivers/p
    2423                            .dwattr $C$DW$162, DW_AT_decl_line(0x1c1)
    2424                            .dwattr $C$DW$162, DW_AT_decl_column(0x0a)
    2425                    
    2426                    $C$DW$163       .dwtag  DW_TAG_member
    2427                            .dwattr $C$DW$163, DW_AT_type(*$C$DW$T$40)
    2428                            .dwattr $C$DW$163, DW_AT_name("calibrateRCOSC_HF")
    2429                            .dwattr $C$DW$163, DW_AT_TI_symbol_name("calibrateRCOSC_HF")
    2430                            .dwattr $C$DW$163, DW_AT_data_member_location[DW_OP_plus_uconst 0x15]
    2431                            .dwattr $C$DW$163, DW_AT_accessibility(DW_ACCESS_public)
    2432                            .dwattr $C$DW$163, DW_AT_decl_file("C:/ti/simplelink_cc13x0_sdk_2_30_00_20/source/ti/drivers/p
    2433                            .dwattr $C$DW$163, DW_AT_decl_line(0x1ca)
    2434                            .dwattr $C$DW$163, DW_AT_decl_column(0x0a)
    2435                    
    2436                            .dwattr $C$DW$T$60, DW_AT_decl_file("C:/ti/simplelink_cc13x0_sdk_2_30_00_20/source/ti/drivers/
    2437                            .dwattr $C$DW$T$60, DW_AT_decl_line(0x149)
    2438                            .dwattr $C$DW$T$60, DW_AT_decl_column(0x10)
    2439                            .dwendtag $C$DW$T$60
    2440                    
    2441                    $C$DW$T$166     .dwtag  DW_TAG_typedef
    2442                            .dwattr $C$DW$T$166, DW_AT_name("PowerCC26XX_Config")
    2443                            .dwattr $C$DW$T$166, DW_AT_type(*$C$DW$T$60)
    2444                            .dwattr $C$DW$T$166, DW_AT_language(DW_LANG_C)
    2445                            .dwattr $C$DW$T$166, DW_AT_decl_file("C:/ti/simplelink_cc13x0_sdk_2_30_00_20/source/ti/drivers
    2446                            .dwattr $C$DW$T$166, DW_AT_decl_line(0x1cb)
    2447                            .dwattr $C$DW$T$166, DW_AT_decl_column(0x03)
    2448                    
    2449                    
    2450                    $C$DW$T$70      .dwtag  DW_TAG_structure_type
    2451                            .dwattr $C$DW$T$70, DW_AT_name("PowerCC26XX_ModuleState")
    2452                            .dwattr $C$DW$T$70, DW_AT_byte_size(0x114)
    2453                    $C$DW$164       .dwtag  DW_TAG_member
    2454                            .dwattr $C$DW$164, DW_AT_type(*$C$DW$T$61)
    2455                            .dwattr $C$DW$164, DW_AT_name("notifyList")
    2456                            .dwattr $C$DW$164, DW_AT_TI_symbol_name("notifyList")
    2457                            .dwattr $C$DW$164, DW_AT_data_member_location[DW_OP_plus_uconst 0x0]
    2458                            .dwattr $C$DW$164, DW_AT_accessibility(DW_ACCESS_public)
    2459                            .dwattr $C$DW$164, DW_AT_decl_file("C:/ti/simplelink_cc13x0_sdk_2_30_00_20/source/ti/drivers/p
    2460                            .dwattr $C$DW$164, DW_AT_decl_line(0x1d4)
    2461                            .dwattr $C$DW$164, DW_AT_decl_column(0x0f)
    2462                    
    2463                    $C$DW$165       .dwtag  DW_TAG_member
    2464                            .dwattr $C$DW$165, DW_AT_type(*$C$DW$T$22)
    2465                            .dwattr $C$DW$165, DW_AT_name("constraintMask")
    2466                            .dwattr $C$DW$165, DW_AT_TI_symbol_name("constraintMask")
    2467                            .dwattr $C$DW$165, DW_AT_data_member_location[DW_OP_plus_uconst 0x8]
    2468                            .dwattr $C$DW$165, DW_AT_accessibility(DW_ACCESS_public)
    2469                            .dwattr $C$DW$165, DW_AT_decl_file("C:/ti/simplelink_cc13x0_sdk_2_30_00_20/source/ti/drivers/p
    2470                            .dwattr $C$DW$165, DW_AT_decl_line(0x1d5)
    2471                            .dwattr $C$DW$165, DW_AT_decl_column(0x0e)
    2472                    
    2473                    $C$DW$166       .dwtag  DW_TAG_member
    2474                            .dwattr $C$DW$166, DW_AT_type(*$C$DW$T$62)
    2475                            .dwattr $C$DW$166, DW_AT_name("clockObj")
TI ARM Assembler PC v16.9.9 Sun Nov 25 16:40:45 2018

Tools Copyright (c) 1996-2017 Texas Instruments Incorporated
C:\Users\Stryd\AppData\Local\Temp\{20FABBE7-6C1F-4BB7-B116-814D10534D3D} PAGE   46

    2476                            .dwattr $C$DW$166, DW_AT_TI_symbol_name("clockObj")
    2477                            .dwattr $C$DW$166, DW_AT_data_member_location[DW_OP_plus_uconst 0xc]
    2478                            .dwattr $C$DW$166, DW_AT_accessibility(DW_ACCESS_public)
    2479                            .dwattr $C$DW$166, DW_AT_decl_file("C:/ti/simplelink_cc13x0_sdk_2_30_00_20/source/ti/drivers/p
    2480                            .dwattr $C$DW$166, DW_AT_decl_line(0x1d6)
    2481                            .dwattr $C$DW$166, DW_AT_decl_column(0x13)
    2482                    
    2483                    $C$DW$167       .dwtag  DW_TAG_member
    2484                            .dwattr $C$DW$167, DW_AT_type(*$C$DW$T$62)
    2485                            .dwattr $C$DW$167, DW_AT_name("xoscClockObj")
    2486                            .dwattr $C$DW$167, DW_AT_TI_symbol_name("xoscClockObj")
    2487                            .dwattr $C$DW$167, DW_AT_data_member_location[DW_OP_plus_uconst 0x30]
    2488                            .dwattr $C$DW$167, DW_AT_accessibility(DW_ACCESS_public)
    2489                            .dwattr $C$DW$167, DW_AT_decl_file("C:/ti/simplelink_cc13x0_sdk_2_30_00_20/source/ti/drivers/p
    2490                            .dwattr $C$DW$167, DW_AT_decl_line(0x1d7)
    2491                            .dwattr $C$DW$167, DW_AT_decl_column(0x13)
    2492                    
    2493                    $C$DW$168       .dwtag  DW_TAG_member
    2494                            .dwattr $C$DW$168, DW_AT_type(*$C$DW$T$62)
    2495                            .dwattr $C$DW$168, DW_AT_name("lfClockObj")
    2496                            .dwattr $C$DW$168, DW_AT_TI_symbol_name("lfClockObj")
    2497                            .dwattr $C$DW$168, DW_AT_data_member_location[DW_OP_plus_uconst 0x54]
    2498                            .dwattr $C$DW$168, DW_AT_accessibility(DW_ACCESS_public)
    2499                            .dwattr $C$DW$168, DW_AT_decl_file("C:/ti/simplelink_cc13x0_sdk_2_30_00_20/source/ti/drivers/p
    2500                            .dwattr $C$DW$168, DW_AT_decl_line(0x1d8)
    2501                            .dwattr $C$DW$168, DW_AT_decl_column(0x13)
    2502                    
    2503                    $C$DW$169       .dwtag  DW_TAG_member
    2504                            .dwattr $C$DW$169, DW_AT_type(*$C$DW$T$62)
    2505                            .dwattr $C$DW$169, DW_AT_name("calClockStruct")
    2506                            .dwattr $C$DW$169, DW_AT_TI_symbol_name("calClockStruct")
    2507                            .dwattr $C$DW$169, DW_AT_data_member_location[DW_OP_plus_uconst 0x78]
    2508                            .dwattr $C$DW$169, DW_AT_accessibility(DW_ACCESS_public)
    2509                            .dwattr $C$DW$169, DW_AT_decl_file("C:/ti/simplelink_cc13x0_sdk_2_30_00_20/source/ti/drivers/p
    2510                            .dwattr $C$DW$169, DW_AT_decl_line(0x1d9)
    2511                            .dwattr $C$DW$169, DW_AT_decl_column(0x13)
    2512                    
    2513                    $C$DW$170       .dwtag  DW_TAG_member
    2514                            .dwattr $C$DW$170, DW_AT_type(*$C$DW$T$63)
    2515                            .dwattr $C$DW$170, DW_AT_name("hwiStruct")
    2516                            .dwattr $C$DW$170, DW_AT_TI_symbol_name("hwiStruct")
    2517                            .dwattr $C$DW$170, DW_AT_data_member_location[DW_OP_plus_uconst 0x9c]
    2518                            .dwattr $C$DW$170, DW_AT_accessibility(DW_ACCESS_public)
    2519                            .dwattr $C$DW$170, DW_AT_decl_file("C:/ti/simplelink_cc13x0_sdk_2_30_00_20/source/ti/drivers/p
    2520                            .dwattr $C$DW$170, DW_AT_decl_line(0x1da)
    2521                            .dwattr $C$DW$170, DW_AT_decl_column(0x11)
    2522                    
    2523                    $C$DW$171       .dwtag  DW_TAG_member
    2524                            .dwattr $C$DW$171, DW_AT_type(*$C$DW$T$64)
    2525                            .dwattr $C$DW$171, DW_AT_name("nDeltaFreqCurr")
    2526                            .dwattr $C$DW$171, DW_AT_TI_symbol_name("nDeltaFreqCurr")
    2527                            .dwattr $C$DW$171, DW_AT_data_member_location[DW_OP_plus_uconst 0xb8]
    2528                            .dwattr $C$DW$171, DW_AT_accessibility(DW_ACCESS_public)
    2529                            .dwattr $C$DW$171, DW_AT_decl_file("C:/ti/simplelink_cc13x0_sdk_2_30_00_20/source/ti/drivers/p
    2530                            .dwattr $C$DW$171, DW_AT_decl_line(0x1db)
TI ARM Assembler PC v16.9.9 Sun Nov 25 16:40:45 2018

Tools Copyright (c) 1996-2017 Texas Instruments Incorporated
C:\Users\Stryd\AppData\Local\Temp\{20FABBE7-6C1F-4BB7-B116-814D10534D3D} PAGE   47

    2531                            .dwattr $C$DW$171, DW_AT_decl_column(0x0d)
    2532                    
    2533                    $C$DW$172       .dwtag  DW_TAG_member
    2534                            .dwattr $C$DW$172, DW_AT_type(*$C$DW$T$64)
    2535                            .dwattr $C$DW$172, DW_AT_name("nCtrimCurr")
    2536                            .dwattr $C$DW$172, DW_AT_TI_symbol_name("nCtrimCurr")
    2537                            .dwattr $C$DW$172, DW_AT_data_member_location[DW_OP_plus_uconst 0xbc]
    2538                            .dwattr $C$DW$172, DW_AT_accessibility(DW_ACCESS_public)
    2539                            .dwattr $C$DW$172, DW_AT_decl_file("C:/ti/simplelink_cc13x0_sdk_2_30_00_20/source/ti/drivers/p
    2540                            .dwattr $C$DW$172, DW_AT_decl_line(0x1dc)
    2541                            .dwattr $C$DW$172, DW_AT_decl_column(0x0d)
    2542                    
    2543                    $C$DW$173       .dwtag  DW_TAG_member
    2544                            .dwattr $C$DW$173, DW_AT_type(*$C$DW$T$64)
    2545                            .dwattr $C$DW$173, DW_AT_name("nCtrimFractCurr")
    2546                            .dwattr $C$DW$173, DW_AT_TI_symbol_name("nCtrimFractCurr")
    2547                            .dwattr $C$DW$173, DW_AT_data_member_location[DW_OP_plus_uconst 0xc0]
    2548                            .dwattr $C$DW$173, DW_AT_accessibility(DW_ACCESS_public)
    2549                            .dwattr $C$DW$173, DW_AT_decl_file("C:/ti/simplelink_cc13x0_sdk_2_30_00_20/source/ti/drivers/p
    2550                            .dwattr $C$DW$173, DW_AT_decl_line(0x1dd)
    2551                            .dwattr $C$DW$173, DW_AT_decl_column(0x0d)
    2552                    
    2553                    $C$DW$174       .dwtag  DW_TAG_member
    2554                            .dwattr $C$DW$174, DW_AT_type(*$C$DW$T$64)
    2555                            .dwattr $C$DW$174, DW_AT_name("nCtrimNew")
    2556                            .dwattr $C$DW$174, DW_AT_TI_symbol_name("nCtrimNew")
    2557                            .dwattr $C$DW$174, DW_AT_data_member_location[DW_OP_plus_uconst 0xc4]
    2558                            .dwattr $C$DW$174, DW_AT_accessibility(DW_ACCESS_public)
    2559                            .dwattr $C$DW$174, DW_AT_decl_file("C:/ti/simplelink_cc13x0_sdk_2_30_00_20/source/ti/drivers/p
    2560                            .dwattr $C$DW$174, DW_AT_decl_line(0x1de)
    2561                            .dwattr $C$DW$174, DW_AT_decl_column(0x0d)
    2562                    
    2563                    $C$DW$175       .dwtag  DW_TAG_member
    2564                            .dwattr $C$DW$175, DW_AT_type(*$C$DW$T$64)
    2565                            .dwattr $C$DW$175, DW_AT_name("nCtrimFractNew")
    2566                            .dwattr $C$DW$175, DW_AT_TI_symbol_name("nCtrimFractNew")
    2567                            .dwattr $C$DW$175, DW_AT_data_member_location[DW_OP_plus_uconst 0xc8]
    2568                            .dwattr $C$DW$175, DW_AT_accessibility(DW_ACCESS_public)
    2569                            .dwattr $C$DW$175, DW_AT_decl_file("C:/ti/simplelink_cc13x0_sdk_2_30_00_20/source/ti/drivers/p
    2570                            .dwattr $C$DW$175, DW_AT_decl_line(0x1df)
    2571                            .dwattr $C$DW$175, DW_AT_decl_column(0x0d)
    2572                    
    2573                    $C$DW$176       .dwtag  DW_TAG_member
    2574                            .dwattr $C$DW$176, DW_AT_type(*$C$DW$T$64)
    2575                            .dwattr $C$DW$176, DW_AT_name("nRtrimNew")
    2576                            .dwattr $C$DW$176, DW_AT_TI_symbol_name("nRtrimNew")
    2577                            .dwattr $C$DW$176, DW_AT_data_member_location[DW_OP_plus_uconst 0xcc]
    2578                            .dwattr $C$DW$176, DW_AT_accessibility(DW_ACCESS_public)
    2579                            .dwattr $C$DW$176, DW_AT_decl_file("C:/ti/simplelink_cc13x0_sdk_2_30_00_20/source/ti/drivers/p
    2580                            .dwattr $C$DW$176, DW_AT_decl_line(0x1e0)
    2581                            .dwattr $C$DW$176, DW_AT_decl_column(0x0d)
    2582                    
    2583                    $C$DW$177       .dwtag  DW_TAG_member
    2584                            .dwattr $C$DW$177, DW_AT_type(*$C$DW$T$64)
    2585                            .dwattr $C$DW$177, DW_AT_name("nRtrimCurr")
TI ARM Assembler PC v16.9.9 Sun Nov 25 16:40:45 2018

Tools Copyright (c) 1996-2017 Texas Instruments Incorporated
C:\Users\Stryd\AppData\Local\Temp\{20FABBE7-6C1F-4BB7-B116-814D10534D3D} PAGE   48

    2586                            .dwattr $C$DW$177, DW_AT_TI_symbol_name("nRtrimCurr")
    2587                            .dwattr $C$DW$177, DW_AT_data_member_location[DW_OP_plus_uconst 0xd0]
    2588                            .dwattr $C$DW$177, DW_AT_accessibility(DW_ACCESS_public)
    2589                            .dwattr $C$DW$177, DW_AT_decl_file("C:/ti/simplelink_cc13x0_sdk_2_30_00_20/source/ti/drivers/p
    2590                            .dwattr $C$DW$177, DW_AT_decl_line(0x1e1)
    2591                            .dwattr $C$DW$177, DW_AT_decl_column(0x0d)
    2592                    
    2593                    $C$DW$178       .dwtag  DW_TAG_member
    2594                            .dwattr $C$DW$178, DW_AT_type(*$C$DW$T$64)
    2595                            .dwattr $C$DW$178, DW_AT_name("nDeltaFreqNew")
    2596                            .dwattr $C$DW$178, DW_AT_TI_symbol_name("nDeltaFreqNew")
    2597                            .dwattr $C$DW$178, DW_AT_data_member_location[DW_OP_plus_uconst 0xd4]
    2598                            .dwattr $C$DW$178, DW_AT_accessibility(DW_ACCESS_public)
    2599                            .dwattr $C$DW$178, DW_AT_decl_file("C:/ti/simplelink_cc13x0_sdk_2_30_00_20/source/ti/drivers/p
    2600                            .dwattr $C$DW$178, DW_AT_decl_line(0x1e2)
    2601                            .dwattr $C$DW$178, DW_AT_decl_column(0x0d)
    2602                    
    2603                    $C$DW$179       .dwtag  DW_TAG_member
    2604                            .dwattr $C$DW$179, DW_AT_type(*$C$DW$T$40)
    2605                            .dwattr $C$DW$179, DW_AT_name("bRefine")
    2606                            .dwattr $C$DW$179, DW_AT_TI_symbol_name("bRefine")
    2607                            .dwattr $C$DW$179, DW_AT_data_member_location[DW_OP_plus_uconst 0xd8]
    2608                            .dwattr $C$DW$179, DW_AT_accessibility(DW_ACCESS_public)
    2609                            .dwattr $C$DW$179, DW_AT_decl_file("C:/ti/simplelink_cc13x0_sdk_2_30_00_20/source/ti/drivers/p
    2610                            .dwattr $C$DW$179, DW_AT_decl_line(0x1e3)
    2611                            .dwattr $C$DW$179, DW_AT_decl_column(0x0a)
    2612                    
    2613                    $C$DW$180       .dwtag  DW_TAG_member
    2614                            .dwattr $C$DW$180, DW_AT_type(*$C$DW$T$22)
    2615                            .dwattr $C$DW$180, DW_AT_name("state")
    2616                            .dwattr $C$DW$180, DW_AT_TI_symbol_name("state")
    2617                            .dwattr $C$DW$180, DW_AT_data_member_location[DW_OP_plus_uconst 0xdc]
    2618                            .dwattr $C$DW$180, DW_AT_accessibility(DW_ACCESS_public)
    2619                            .dwattr $C$DW$180, DW_AT_decl_file("C:/ti/simplelink_cc13x0_sdk_2_30_00_20/source/ti/drivers/p
    2620                            .dwattr $C$DW$180, DW_AT_decl_line(0x1e4)
    2621                            .dwattr $C$DW$180, DW_AT_decl_column(0x0e)
    2622                    
    2623                    $C$DW$181       .dwtag  DW_TAG_member
    2624                            .dwattr $C$DW$181, DW_AT_type(*$C$DW$T$40)
    2625                            .dwattr $C$DW$181, DW_AT_name("xoscPending")
    2626                            .dwattr $C$DW$181, DW_AT_TI_symbol_name("xoscPending")
    2627                            .dwattr $C$DW$181, DW_AT_data_member_location[DW_OP_plus_uconst 0xe0]
    2628                            .dwattr $C$DW$181, DW_AT_accessibility(DW_ACCESS_public)
    2629                            .dwattr $C$DW$181, DW_AT_decl_file("C:/ti/simplelink_cc13x0_sdk_2_30_00_20/source/ti/drivers/p
    2630                            .dwattr $C$DW$181, DW_AT_decl_line(0x1e5)
    2631                            .dwattr $C$DW$181, DW_AT_decl_column(0x0a)
    2632                    
    2633                    $C$DW$182       .dwtag  DW_TAG_member
    2634                            .dwattr $C$DW$182, DW_AT_type(*$C$DW$T$40)
    2635                            .dwattr $C$DW$182, DW_AT_name("calLF")
    2636                            .dwattr $C$DW$182, DW_AT_TI_symbol_name("calLF")
    2637                            .dwattr $C$DW$182, DW_AT_data_member_location[DW_OP_plus_uconst 0xe1]
    2638                            .dwattr $C$DW$182, DW_AT_accessibility(DW_ACCESS_public)
    2639                            .dwattr $C$DW$182, DW_AT_decl_file("C:/ti/simplelink_cc13x0_sdk_2_30_00_20/source/ti/drivers/p
    2640                            .dwattr $C$DW$182, DW_AT_decl_line(0x1e6)
TI ARM Assembler PC v16.9.9 Sun Nov 25 16:40:45 2018

Tools Copyright (c) 1996-2017 Texas Instruments Incorporated
C:\Users\Stryd\AppData\Local\Temp\{20FABBE7-6C1F-4BB7-B116-814D10534D3D} PAGE   49

    2641                            .dwattr $C$DW$182, DW_AT_decl_column(0x0a)
    2642                    
    2643                    $C$DW$183       .dwtag  DW_TAG_member
    2644                            .dwattr $C$DW$183, DW_AT_type(*$C$DW$T$30)
    2645                            .dwattr $C$DW$183, DW_AT_name("hwiState")
    2646                            .dwattr $C$DW$183, DW_AT_TI_symbol_name("hwiState")
    2647                            .dwattr $C$DW$183, DW_AT_data_member_location[DW_OP_plus_uconst 0xe2]
    2648                            .dwattr $C$DW$183, DW_AT_accessibility(DW_ACCESS_public)
    2649                            .dwattr $C$DW$183, DW_AT_decl_file("C:/ti/simplelink_cc13x0_sdk_2_30_00_20/source/ti/drivers/p
    2650                            .dwattr $C$DW$183, DW_AT_decl_line(0x1e7)
    2651                            .dwattr $C$DW$183, DW_AT_decl_column(0x0d)
    2652                    
    2653                    $C$DW$184       .dwtag  DW_TAG_member
    2654                            .dwattr $C$DW$184, DW_AT_type(*$C$DW$T$40)
    2655                            .dwattr $C$DW$184, DW_AT_name("busyCal")
    2656                            .dwattr $C$DW$184, DW_AT_TI_symbol_name("busyCal")
    2657                            .dwattr $C$DW$184, DW_AT_data_member_location[DW_OP_plus_uconst 0xe3]
    2658                            .dwattr $C$DW$184, DW_AT_accessibility(DW_ACCESS_public)
    2659                            .dwattr $C$DW$184, DW_AT_decl_file("C:/ti/simplelink_cc13x0_sdk_2_30_00_20/source/ti/drivers/p
    2660                            .dwattr $C$DW$184, DW_AT_decl_line(0x1e8)
    2661                            .dwattr $C$DW$184, DW_AT_decl_column(0x0a)
    2662                    
    2663                    $C$DW$185       .dwtag  DW_TAG_member
    2664                            .dwattr $C$DW$185, DW_AT_type(*$C$DW$T$30)
    2665                            .dwattr $C$DW$185, DW_AT_name("calStep")
    2666                            .dwattr $C$DW$185, DW_AT_TI_symbol_name("calStep")
    2667                            .dwattr $C$DW$185, DW_AT_data_member_location[DW_OP_plus_uconst 0xe4]
    2668                            .dwattr $C$DW$185, DW_AT_accessibility(DW_ACCESS_public)
    2669                            .dwattr $C$DW$185, DW_AT_decl_file("C:/ti/simplelink_cc13x0_sdk_2_30_00_20/source/ti/drivers/p
    2670                            .dwattr $C$DW$185, DW_AT_decl_line(0x1e9)
    2671                            .dwattr $C$DW$185, DW_AT_decl_column(0x0d)
    2672                    
    2673                    $C$DW$186       .dwtag  DW_TAG_member
    2674                            .dwattr $C$DW$186, DW_AT_type(*$C$DW$T$40)
    2675                            .dwattr $C$DW$186, DW_AT_name("firstLF")
    2676                            .dwattr $C$DW$186, DW_AT_TI_symbol_name("firstLF")
    2677                            .dwattr $C$DW$186, DW_AT_data_member_location[DW_OP_plus_uconst 0xe5]
    2678                            .dwattr $C$DW$186, DW_AT_accessibility(DW_ACCESS_public)
    2679                            .dwattr $C$DW$186, DW_AT_decl_file("C:/ti/simplelink_cc13x0_sdk_2_30_00_20/source/ti/drivers/p
    2680                            .dwattr $C$DW$186, DW_AT_decl_line(0x1ea)
    2681                            .dwattr $C$DW$186, DW_AT_decl_column(0x0a)
    2682                    
    2683                    $C$DW$187       .dwtag  DW_TAG_member
    2684                            .dwattr $C$DW$187, DW_AT_type(*$C$DW$T$40)
    2685                            .dwattr $C$DW$187, DW_AT_name("enablePolicy")
    2686                            .dwattr $C$DW$187, DW_AT_TI_symbol_name("enablePolicy")
    2687                            .dwattr $C$DW$187, DW_AT_data_member_location[DW_OP_plus_uconst 0xe6]
    2688                            .dwattr $C$DW$187, DW_AT_accessibility(DW_ACCESS_public)
    2689                            .dwattr $C$DW$187, DW_AT_decl_file("C:/ti/simplelink_cc13x0_sdk_2_30_00_20/source/ti/drivers/p
    2690                            .dwattr $C$DW$187, DW_AT_decl_line(0x1eb)
    2691                            .dwattr $C$DW$187, DW_AT_decl_column(0x0a)
    2692                    
    2693                    $C$DW$188       .dwtag  DW_TAG_member
    2694                            .dwattr $C$DW$188, DW_AT_type(*$C$DW$T$40)
    2695                            .dwattr $C$DW$188, DW_AT_name("initialized")
TI ARM Assembler PC v16.9.9 Sun Nov 25 16:40:45 2018

Tools Copyright (c) 1996-2017 Texas Instruments Incorporated
C:\Users\Stryd\AppData\Local\Temp\{20FABBE7-6C1F-4BB7-B116-814D10534D3D} PAGE   50

    2696                            .dwattr $C$DW$188, DW_AT_TI_symbol_name("initialized")
    2697                            .dwattr $C$DW$188, DW_AT_data_member_location[DW_OP_plus_uconst 0xe7]
    2698                            .dwattr $C$DW$188, DW_AT_accessibility(DW_ACCESS_public)
    2699                            .dwattr $C$DW$188, DW_AT_decl_file("C:/ti/simplelink_cc13x0_sdk_2_30_00_20/source/ti/drivers/p
    2700                            .dwattr $C$DW$188, DW_AT_decl_line(0x1ec)
    2701                            .dwattr $C$DW$188, DW_AT_decl_column(0x0a)
    2702                    
    2703                    $C$DW$189       .dwtag  DW_TAG_member
    2704                            .dwattr $C$DW$189, DW_AT_type(*$C$DW$T$65)
    2705                            .dwattr $C$DW$189, DW_AT_name("constraintCounts")
    2706                            .dwattr $C$DW$189, DW_AT_TI_symbol_name("constraintCounts")
    2707                            .dwattr $C$DW$189, DW_AT_data_member_location[DW_OP_plus_uconst 0xe8]
    2708                            .dwattr $C$DW$189, DW_AT_accessibility(DW_ACCESS_public)
    2709                            .dwattr $C$DW$189, DW_AT_decl_file("C:/ti/simplelink_cc13x0_sdk_2_30_00_20/source/ti/drivers/p
    2710                            .dwattr $C$DW$189, DW_AT_decl_line(0x1f0)
    2711                            .dwattr $C$DW$189, DW_AT_decl_column(0x0d)
    2712                    
    2713                    $C$DW$190       .dwtag  DW_TAG_member
    2714                            .dwattr $C$DW$190, DW_AT_type(*$C$DW$T$66)
    2715                            .dwattr $C$DW$190, DW_AT_name("resourceCounts")
    2716                            .dwattr $C$DW$190, DW_AT_TI_symbol_name("resourceCounts")
    2717                            .dwattr $C$DW$190, DW_AT_data_member_location[DW_OP_plus_uconst 0xef]
    2718                            .dwattr $C$DW$190, DW_AT_accessibility(DW_ACCESS_public)
    2719                            .dwattr $C$DW$190, DW_AT_decl_file("C:/ti/simplelink_cc13x0_sdk_2_30_00_20/source/ti/drivers/p
    2720                            .dwattr $C$DW$190, DW_AT_decl_line(0x1f2)
    2721                            .dwattr $C$DW$190, DW_AT_decl_column(0x0d)
    2722                    
    2723                    $C$DW$191       .dwtag  DW_TAG_member
    2724                            .dwattr $C$DW$191, DW_AT_type(*$C$DW$T$69)
    2725                            .dwattr $C$DW$191, DW_AT_name("resourceHandlers")
    2726                            .dwattr $C$DW$191, DW_AT_TI_symbol_name("resourceHandlers")
    2727                            .dwattr $C$DW$191, DW_AT_data_member_location[DW_OP_plus_uconst 0x104]
    2728                            .dwattr $C$DW$191, DW_AT_accessibility(DW_ACCESS_public)
    2729                            .dwattr $C$DW$191, DW_AT_decl_file("C:/ti/simplelink_cc13x0_sdk_2_30_00_20/source/ti/drivers/p
    2730                            .dwattr $C$DW$191, DW_AT_decl_line(0x1f4)
    2731                            .dwattr $C$DW$191, DW_AT_decl_column(0x14)
    2732                    
    2733                    $C$DW$192       .dwtag  DW_TAG_member
    2734                            .dwattr $C$DW$192, DW_AT_type(*$C$DW$T$57)
    2735                            .dwattr $C$DW$192, DW_AT_name("policyFxn")
    2736                            .dwattr $C$DW$192, DW_AT_TI_symbol_name("policyFxn")
    2737                            .dwattr $C$DW$192, DW_AT_data_member_location[DW_OP_plus_uconst 0x110]
    2738                            .dwattr $C$DW$192, DW_AT_accessibility(DW_ACCESS_public)
    2739                            .dwattr $C$DW$192, DW_AT_decl_file("C:/ti/simplelink_cc13x0_sdk_2_30_00_20/source/ti/drivers/p
    2740                            .dwattr $C$DW$192, DW_AT_decl_line(0x1f6)
    2741                            .dwattr $C$DW$192, DW_AT_decl_column(0x15)
    2742                    
    2743                            .dwattr $C$DW$T$70, DW_AT_decl_file("C:/ti/simplelink_cc13x0_sdk_2_30_00_20/source/ti/drivers/
    2744                            .dwattr $C$DW$T$70, DW_AT_decl_line(0x1d3)
    2745                            .dwattr $C$DW$T$70, DW_AT_decl_column(0x10)
    2746                            .dwendtag $C$DW$T$70
    2747                    
    2748                    $C$DW$T$167     .dwtag  DW_TAG_typedef
    2749                            .dwattr $C$DW$T$167, DW_AT_name("PowerCC26XX_ModuleState")
    2750                            .dwattr $C$DW$T$167, DW_AT_type(*$C$DW$T$70)
TI ARM Assembler PC v16.9.9 Sun Nov 25 16:40:45 2018

Tools Copyright (c) 1996-2017 Texas Instruments Incorporated
C:\Users\Stryd\AppData\Local\Temp\{20FABBE7-6C1F-4BB7-B116-814D10534D3D} PAGE   51

    2751                            .dwattr $C$DW$T$167, DW_AT_language(DW_LANG_C)
    2752                            .dwattr $C$DW$T$167, DW_AT_decl_file("C:/ti/simplelink_cc13x0_sdk_2_30_00_20/source/ti/drivers
    2753                            .dwattr $C$DW$T$167, DW_AT_decl_line(0x1f7)
    2754                            .dwattr $C$DW$T$167, DW_AT_decl_column(0x03)
    2755                    
    2756                    
    2757                    $C$DW$T$71      .dwtag  DW_TAG_structure_type
    2758                            .dwattr $C$DW$T$71, DW_AT_name("PowerCC26XX_ResourceRecord")
    2759                            .dwattr $C$DW$T$71, DW_AT_byte_size(0x04)
    2760                    $C$DW$193       .dwtag  DW_TAG_member
    2761                            .dwattr $C$DW$193, DW_AT_type(*$C$DW$T$30)
    2762                            .dwattr $C$DW$193, DW_AT_name("flags")
    2763                            .dwattr $C$DW$193, DW_AT_TI_symbol_name("flags")
    2764                            .dwattr $C$DW$193, DW_AT_data_member_location[DW_OP_plus_uconst 0x0]
    2765                            .dwattr $C$DW$193, DW_AT_accessibility(DW_ACCESS_public)
    2766                            .dwattr $C$DW$193, DW_AT_decl_file("C:/ti/simplelink_cc13x0_sdk_2_30_00_20/source/ti/drivers/p
    2767                            .dwattr $C$DW$193, DW_AT_decl_line(0x143)
    2768                            .dwattr $C$DW$193, DW_AT_decl_column(0x0d)
    2769                    
    2770                    $C$DW$194       .dwtag  DW_TAG_member
    2771                            .dwattr $C$DW$194, DW_AT_type(*$C$DW$T$33)
    2772                            .dwattr $C$DW$194, DW_AT_name("driverlibID")
    2773                            .dwattr $C$DW$194, DW_AT_TI_symbol_name("driverlibID")
    2774                            .dwattr $C$DW$194, DW_AT_data_member_location[DW_OP_plus_uconst 0x2]
    2775                            .dwattr $C$DW$194, DW_AT_accessibility(DW_ACCESS_public)
    2776                            .dwattr $C$DW$194, DW_AT_decl_file("C:/ti/simplelink_cc13x0_sdk_2_30_00_20/source/ti/drivers/p
    2777                            .dwattr $C$DW$194, DW_AT_decl_line(0x144)
    2778                            .dwattr $C$DW$194, DW_AT_decl_column(0x0e)
    2779                    
    2780                            .dwattr $C$DW$T$71, DW_AT_decl_file("C:/ti/simplelink_cc13x0_sdk_2_30_00_20/source/ti/drivers/
    2781                            .dwattr $C$DW$T$71, DW_AT_decl_line(0x142)
    2782                            .dwattr $C$DW$T$71, DW_AT_decl_column(0x10)
    2783                            .dwendtag $C$DW$T$71
    2784                    
    2785                    $C$DW$T$168     .dwtag  DW_TAG_typedef
    2786                            .dwattr $C$DW$T$168, DW_AT_name("PowerCC26XX_ResourceRecord")
    2787                            .dwattr $C$DW$T$168, DW_AT_type(*$C$DW$T$71)
    2788                            .dwattr $C$DW$T$168, DW_AT_language(DW_LANG_C)
    2789                            .dwattr $C$DW$T$168, DW_AT_decl_file("C:/ti/simplelink_cc13x0_sdk_2_30_00_20/source/ti/drivers
    2790                            .dwattr $C$DW$T$168, DW_AT_decl_line(0x145)
    2791                            .dwattr $C$DW$T$168, DW_AT_decl_column(0x03)
    2792                    
    2793                    
    2794                    $C$DW$T$77      .dwtag  DW_TAG_structure_type
    2795                            .dwattr $C$DW$T$77, DW_AT_name("Power_NotifyObj_")
    2796                            .dwattr $C$DW$T$77, DW_AT_byte_size(0x14)
    2797                    $C$DW$195       .dwtag  DW_TAG_member
    2798                            .dwattr $C$DW$195, DW_AT_type(*$C$DW$T$51)
    2799                            .dwattr $C$DW$195, DW_AT_name("link")
    2800                            .dwattr $C$DW$195, DW_AT_TI_symbol_name("link")
    2801                            .dwattr $C$DW$195, DW_AT_data_member_location[DW_OP_plus_uconst 0x0]
    2802                            .dwattr $C$DW$195, DW_AT_accessibility(DW_ACCESS_public)
    2803                            .dwattr $C$DW$195, DW_AT_decl_file("C:/ti/simplelink_cc13x0_sdk_2_30_00_20/source/ti/drivers/P
    2804                            .dwattr $C$DW$195, DW_AT_decl_line(0x7a)
    2805                            .dwattr $C$DW$195, DW_AT_decl_column(0x0f)
TI ARM Assembler PC v16.9.9 Sun Nov 25 16:40:45 2018

Tools Copyright (c) 1996-2017 Texas Instruments Incorporated
C:\Users\Stryd\AppData\Local\Temp\{20FABBE7-6C1F-4BB7-B116-814D10534D3D} PAGE   52

    2806                    
    2807                    $C$DW$196       .dwtag  DW_TAG_member
    2808                            .dwattr $C$DW$196, DW_AT_type(*$C$DW$T$72)
    2809                            .dwattr $C$DW$196, DW_AT_name("eventTypes")
    2810                            .dwattr $C$DW$196, DW_AT_TI_symbol_name("eventTypes")
    2811                            .dwattr $C$DW$196, DW_AT_data_member_location[DW_OP_plus_uconst 0x8]
    2812                            .dwattr $C$DW$196, DW_AT_accessibility(DW_ACCESS_public)
    2813                            .dwattr $C$DW$196, DW_AT_decl_file("C:/ti/simplelink_cc13x0_sdk_2_30_00_20/source/ti/drivers/P
    2814                            .dwattr $C$DW$196, DW_AT_decl_line(0x7b)
    2815                            .dwattr $C$DW$196, DW_AT_decl_column(0x13)
    2816                    
    2817                    $C$DW$197       .dwtag  DW_TAG_member
    2818                            .dwattr $C$DW$197, DW_AT_type(*$C$DW$T$76)
    2819                            .dwattr $C$DW$197, DW_AT_name("notifyFxn")
    2820                            .dwattr $C$DW$197, DW_AT_TI_symbol_name("notifyFxn")
    2821                            .dwattr $C$DW$197, DW_AT_data_member_location[DW_OP_plus_uconst 0xc]
    2822                            .dwattr $C$DW$197, DW_AT_accessibility(DW_ACCESS_public)
    2823                            .dwattr $C$DW$197, DW_AT_decl_file("C:/ti/simplelink_cc13x0_sdk_2_30_00_20/source/ti/drivers/P
    2824                            .dwattr $C$DW$197, DW_AT_decl_line(0x7c)
    2825                            .dwattr $C$DW$197, DW_AT_decl_column(0x15)
    2826                    
    2827                    $C$DW$198       .dwtag  DW_TAG_member
    2828                            .dwattr $C$DW$198, DW_AT_type(*$C$DW$T$41)
    2829                            .dwattr $C$DW$198, DW_AT_name("clientArg")
    2830                            .dwattr $C$DW$198, DW_AT_TI_symbol_name("clientArg")
    2831                            .dwattr $C$DW$198, DW_AT_data_member_location[DW_OP_plus_uconst 0x10]
    2832                            .dwattr $C$DW$198, DW_AT_accessibility(DW_ACCESS_public)
    2833                            .dwattr $C$DW$198, DW_AT_decl_file("C:/ti/simplelink_cc13x0_sdk_2_30_00_20/source/ti/drivers/P
    2834                            .dwattr $C$DW$198, DW_AT_decl_line(0x7d)
    2835                            .dwattr $C$DW$198, DW_AT_decl_column(0x0f)
    2836                    
    2837                            .dwattr $C$DW$T$77, DW_AT_decl_file("C:/ti/simplelink_cc13x0_sdk_2_30_00_20/source/ti/drivers/
    2838                            .dwattr $C$DW$T$77, DW_AT_decl_line(0x79)
    2839                            .dwattr $C$DW$T$77, DW_AT_decl_column(0x10)
    2840                            .dwendtag $C$DW$T$77
    2841                    
    2842                    $C$DW$T$169     .dwtag  DW_TAG_typedef
    2843                            .dwattr $C$DW$T$169, DW_AT_name("Power_NotifyObj")
    2844                            .dwattr $C$DW$T$169, DW_AT_type(*$C$DW$T$77)
    2845                            .dwattr $C$DW$T$169, DW_AT_language(DW_LANG_C)
    2846                            .dwattr $C$DW$T$169, DW_AT_decl_file("C:/ti/simplelink_cc13x0_sdk_2_30_00_20/source/ti/drivers
    2847                            .dwattr $C$DW$T$169, DW_AT_decl_line(0x7e)
    2848                            .dwattr $C$DW$T$169, DW_AT_decl_column(0x03)
    2849                    
    2850                    $C$DW$T$170     .dwtag  DW_TAG_pointer_type
    2851                            .dwattr $C$DW$T$170, DW_AT_type(*$C$DW$T$169)
    2852                            .dwattr $C$DW$T$170, DW_AT_address_class(0x20)
    2853                    
    2854                    
    2855                    $C$DW$T$78      .dwtag  DW_TAG_structure_type
    2856                            .dwattr $C$DW$T$78, DW_AT_name("_ICall_LiteCmdStatus_")
    2857                            .dwattr $C$DW$T$78, DW_AT_byte_size(0x01)
    2858                    $C$DW$199       .dwtag  DW_TAG_member
    2859                            .dwattr $C$DW$199, DW_AT_type(*$C$DW$T$31)
    2860                            .dwattr $C$DW$199, DW_AT_name("cmdId")
TI ARM Assembler PC v16.9.9 Sun Nov 25 16:40:45 2018

Tools Copyright (c) 1996-2017 Texas Instruments Incorporated
C:\Users\Stryd\AppData\Local\Temp\{20FABBE7-6C1F-4BB7-B116-814D10534D3D} PAGE   53

    2861                            .dwattr $C$DW$199, DW_AT_TI_symbol_name("cmdId")
    2862                            .dwattr $C$DW$199, DW_AT_data_member_location[DW_OP_plus_uconst 0x0]
    2863                            .dwattr $C$DW$199, DW_AT_accessibility(DW_ACCESS_public)
    2864                            .dwattr $C$DW$199, DW_AT_decl_file("C:\ti\simplelink_cc13x0_sdk_2_30_00_20\source\ti\ti154stac
    2865                            .dwattr $C$DW$199, DW_AT_decl_line(0x3f0)
    2866                            .dwattr $C$DW$199, DW_AT_decl_column(0x11)
    2867                    
    2868                            .dwattr $C$DW$T$78, DW_AT_decl_file("C:\ti\simplelink_cc13x0_sdk_2_30_00_20\source\ti\ti154sta
    2869                            .dwattr $C$DW$T$78, DW_AT_decl_line(0x3ee)
    2870                            .dwattr $C$DW$T$78, DW_AT_decl_column(0x10)
    2871                            .dwendtag $C$DW$T$78
    2872                    
    2873                    $C$DW$T$172     .dwtag  DW_TAG_typedef
    2874                            .dwattr $C$DW$T$172, DW_AT_name("ICall_LiteCmdStatus")
    2875                            .dwattr $C$DW$T$172, DW_AT_type(*$C$DW$T$78)
    2876                            .dwattr $C$DW$T$172, DW_AT_language(DW_LANG_C)
    2877                            .dwattr $C$DW$T$172, DW_AT_decl_file("C:\ti\simplelink_cc13x0_sdk_2_30_00_20\source\ti\ti154st
    2878                            .dwattr $C$DW$T$172, DW_AT_decl_line(0x3f1)
    2879                            .dwattr $C$DW$T$172, DW_AT_decl_column(0x03)
    2880                    
    2881                    $C$DW$T$2       .dwtag  DW_TAG_unspecified_type
    2882                            .dwattr $C$DW$T$2, DW_AT_name("void")
    2883                    
    2884                    $C$DW$T$3       .dwtag  DW_TAG_pointer_type
    2885                            .dwattr $C$DW$T$3, DW_AT_type(*$C$DW$T$2)
    2886                            .dwattr $C$DW$T$3, DW_AT_address_class(0x20)
    2887                    
    2888                    $C$DW$T$173     .dwtag  DW_TAG_typedef
    2889                            .dwattr $C$DW$T$173, DW_AT_name("ClockP_Handle")
    2890                            .dwattr $C$DW$T$173, DW_AT_type(*$C$DW$T$3)
    2891                            .dwattr $C$DW$T$173, DW_AT_language(DW_LANG_C)
    2892                            .dwattr $C$DW$T$173, DW_AT_decl_file("C:/ti/simplelink_cc13x0_sdk_2_30_00_20/source/ti/drivers
    2893                            .dwattr $C$DW$T$173, DW_AT_decl_line(0x6f)
    2894                            .dwattr $C$DW$T$173, DW_AT_decl_column(0x10)
    2895                    
    2896                    $C$DW$T$174     .dwtag  DW_TAG_typedef
    2897                            .dwattr $C$DW$T$174, DW_AT_name("HwiP_Handle")
    2898                            .dwattr $C$DW$T$174, DW_AT_type(*$C$DW$T$3)
    2899                            .dwattr $C$DW$T$174, DW_AT_language(DW_LANG_C)
    2900                            .dwattr $C$DW$T$174, DW_AT_decl_file("C:/ti/simplelink_cc13x0_sdk_2_30_00_20/source/ti/drivers
    2901                            .dwattr $C$DW$T$174, DW_AT_decl_line(0x56)
    2902                            .dwattr $C$DW$T$174, DW_AT_decl_column(0x10)
    2903                    
    2904                    $C$DW$T$175     .dwtag  DW_TAG_typedef
    2905                            .dwattr $C$DW$T$175, DW_AT_name("ICall_Semaphore")
    2906                            .dwattr $C$DW$T$175, DW_AT_type(*$C$DW$T$3)
    2907                            .dwattr $C$DW$T$175, DW_AT_language(DW_LANG_C)
    2908                            .dwattr $C$DW$T$175, DW_AT_decl_file("C:\ti\simplelink_cc13x0_sdk_2_30_00_20\source\ti\ti154st
    2909                            .dwattr $C$DW$T$175, DW_AT_decl_line(0x1ac)
    2910                            .dwattr $C$DW$T$175, DW_AT_decl_column(0x0f)
    2911                    
    2912                    $C$DW$T$90      .dwtag  DW_TAG_typedef
    2913                            .dwattr $C$DW$T$90, DW_AT_name("ICall_SyncHandle")
    2914                            .dwattr $C$DW$T$90, DW_AT_type(*$C$DW$T$3)
    2915                            .dwattr $C$DW$T$90, DW_AT_language(DW_LANG_C)
TI ARM Assembler PC v16.9.9 Sun Nov 25 16:40:45 2018

Tools Copyright (c) 1996-2017 Texas Instruments Incorporated
C:\Users\Stryd\AppData\Local\Temp\{20FABBE7-6C1F-4BB7-B116-814D10534D3D} PAGE   54

    2916                            .dwattr $C$DW$T$90, DW_AT_decl_file("C:\ti\simplelink_cc13x0_sdk_2_30_00_20\source\ti\ti154sta
    2917                            .dwattr $C$DW$T$90, DW_AT_decl_line(0x1aa)
    2918                            .dwattr $C$DW$T$90, DW_AT_decl_column(0x0f)
    2919                    
    2920                    $C$DW$T$134     .dwtag  DW_TAG_typedef
    2921                            .dwattr $C$DW$T$134, DW_AT_name("ICall_TimerID")
    2922                            .dwattr $C$DW$T$134, DW_AT_type(*$C$DW$T$3)
    2923                            .dwattr $C$DW$T$134, DW_AT_language(DW_LANG_C)
    2924                            .dwattr $C$DW$T$134, DW_AT_decl_file("C:\ti\simplelink_cc13x0_sdk_2_30_00_20\source\ti\ti154st
    2925                            .dwattr $C$DW$T$134, DW_AT_decl_line(0x1b7)
    2926                            .dwattr $C$DW$T$134, DW_AT_decl_column(0x0f)
    2927                    
    2928                    
    2929                    $C$DW$T$54      .dwtag  DW_TAG_subroutine_type
    2930                            .dwattr $C$DW$T$54, DW_AT_language(DW_LANG_C)
    2931                            .dwendtag $C$DW$T$54
    2932                    
    2933                    $C$DW$T$55      .dwtag  DW_TAG_pointer_type
    2934                            .dwattr $C$DW$T$55, DW_AT_type(*$C$DW$T$54)
    2935                            .dwattr $C$DW$T$55, DW_AT_address_class(0x20)
    2936                    
    2937                    $C$DW$T$150     .dwtag  DW_TAG_typedef
    2938                            .dwattr $C$DW$T$150, DW_AT_name("APPASRTINTF_callAssrtHndler")
    2939                            .dwattr $C$DW$T$150, DW_AT_type(*$C$DW$T$55)
    2940                            .dwattr $C$DW$T$150, DW_AT_language(DW_LANG_C)
    2941                            .dwattr $C$DW$T$150, DW_AT_decl_file("C:/ti/simplelink_cc13x0_sdk_2_30_00_20/source/ti/ti154st
    2942                            .dwattr $C$DW$T$150, DW_AT_decl_line(0x43)
    2943                            .dwattr $C$DW$T$150, DW_AT_decl_column(0x10)
    2944                    
    2945                    $C$DW$T$57      .dwtag  DW_TAG_typedef
    2946                            .dwattr $C$DW$T$57, DW_AT_name("Power_PolicyFxn")
    2947                            .dwattr $C$DW$T$57, DW_AT_type(*$C$DW$T$55)
    2948                            .dwattr $C$DW$T$57, DW_AT_language(DW_LANG_C)
    2949                            .dwattr $C$DW$T$57, DW_AT_decl_file("C:/ti/simplelink_cc13x0_sdk_2_30_00_20/source/ti/drivers/
    2950                            .dwattr $C$DW$T$57, DW_AT_decl_line(0x69)
    2951                            .dwattr $C$DW$T$57, DW_AT_decl_column(0x10)
    2952                    
    2953                    $C$DW$T$56      .dwtag  DW_TAG_typedef
    2954                            .dwattr $C$DW$T$56, DW_AT_name("Power_PolicyInitFxn")
    2955                            .dwattr $C$DW$T$56, DW_AT_type(*$C$DW$T$55)
    2956                            .dwattr $C$DW$T$56, DW_AT_language(DW_LANG_C)
    2957                            .dwattr $C$DW$T$56, DW_AT_decl_file("C:/ti/simplelink_cc13x0_sdk_2_30_00_20/source/ti/drivers/
    2958                            .dwattr $C$DW$T$56, DW_AT_decl_line(0x64)
    2959                            .dwattr $C$DW$T$56, DW_AT_decl_column(0x10)
    2960                    
    2961                    $C$DW$T$178     .dwtag  DW_TAG_typedef
    2962                            .dwattr $C$DW$T$178, DW_AT_name("__TI_atexit_fn")
    2963                            .dwattr $C$DW$T$178, DW_AT_type(*$C$DW$T$55)
    2964                            .dwattr $C$DW$T$178, DW_AT_language(DW_LANG_C)
    2965                            .dwattr $C$DW$T$178, DW_AT_decl_file("C:/ti/ccsv7/tools/compiler/ti-cgt-arm_16.9.9.LTS/include
    2966                            .dwattr $C$DW$T$178, DW_AT_decl_line(0xb9)
    2967                            .dwattr $C$DW$T$178, DW_AT_decl_column(0x14)
    2968                    
    2969                    
    2970                    $C$DW$T$82      .dwtag  DW_TAG_subroutine_type
TI ARM Assembler PC v16.9.9 Sun Nov 25 16:40:45 2018

Tools Copyright (c) 1996-2017 Texas Instruments Incorporated
C:\Users\Stryd\AppData\Local\Temp\{20FABBE7-6C1F-4BB7-B116-814D10534D3D} PAGE   55

    2971                            .dwattr $C$DW$T$82, DW_AT_language(DW_LANG_C)
    2972                    $C$DW$200       .dwtag  DW_TAG_formal_parameter
    2973                            .dwattr $C$DW$200, DW_AT_type(*$C$DW$T$80)
    2974                    
    2975                            .dwendtag $C$DW$T$82
    2976                    
    2977                    $C$DW$T$83      .dwtag  DW_TAG_pointer_type
    2978                            .dwattr $C$DW$T$83, DW_AT_type(*$C$DW$T$82)
    2979                            .dwattr $C$DW$T$83, DW_AT_address_class(0x20)
    2980                    
    2981                    
    2982                    $C$DW$T$112     .dwtag  DW_TAG_subroutine_type
    2983                            .dwattr $C$DW$T$112, DW_AT_language(DW_LANG_C)
