TI ARM Assembler PC v16.9.9 Sun Nov 25 16:40:48 2018

Tools Copyright (c) 1996-2017 Texas Instruments Incorporated
C:\Users\Stryd\AppData\Local\Temp\{8719FFD6-004A-4401-8DC3-4DA83C6CF1D8} PAGE    1

       1                    ;******************************************************************************
       2                    ;* TI ARM C/C++ Codegen                                        PC v16.9.9.LTS *
       3                    ;* Date/Time created: Sun Nov 25 16:40:47 2018                                *
       4                    ;******************************************************************************
       5                            .compiler_opts --abi=eabi --arm_vmrs_si_workaround=off --code_state=16 --diag_wrap=off --embed
       6 00000000                   .thumb
       7                    
       8                    $C$DW$CU        .dwtag  DW_TAG_compile_unit
       9                            .dwattr $C$DW$CU, DW_AT_name("../Application/MAC/OSAL/osal.c")
      10                            .dwattr $C$DW$CU, DW_AT_producer("TI TI ARM C/C++ Codegen PC v16.9.9.LTS Copyright (c) 1996-20
      11                            .dwattr $C$DW$CU, DW_AT_TI_version(0x01)
      12                            .dwattr $C$DW$CU, DW_AT_comp_dir("C:\CCSWorkspace\ECG603\collector_cc1350lp\collector_cc1350lp
      13                    
      14                    ;*****************************************************************************
      15                    ;* FUNCTION SYNONYMS                                                         *
      16                    ;*****************************************************************************
      17                            .symalias osal_rand, Onboard_rand
      18                    
      19                    $C$DW$1 .dwtag  DW_TAG_subprogram
      20                            .dwattr $C$DW$1, DW_AT_name("__builtin_strlen")
      21                            .dwattr $C$DW$1, DW_AT_TI_symbol_name("__builtin_strlen")
      22                            .dwattr $C$DW$1, DW_AT_type(*$C$DW$T$11)
      23                            .dwattr $C$DW$1, DW_AT_declaration
      24                            .dwattr $C$DW$1, DW_AT_external
      25                    $C$DW$2 .dwtag  DW_TAG_formal_parameter
      26                            .dwattr $C$DW$2, DW_AT_type(*$C$DW$T$360)
      27                    
      28                            .dwendtag $C$DW$1
      29                    
      30                    
      31                    $C$DW$3 .dwtag  DW_TAG_subprogram
      32                            .dwattr $C$DW$3, DW_AT_name("strlen")
      33                            .dwattr $C$DW$3, DW_AT_TI_symbol_name("strlen")
      34                            .dwattr $C$DW$3, DW_AT_type(*$C$DW$T$102)
      35                            .dwattr $C$DW$3, DW_AT_declaration
      36                            .dwattr $C$DW$3, DW_AT_external
      37                            .dwattr $C$DW$3, DW_AT_decl_file("C:/ti/ccsv7/tools/compiler/ti-cgt-arm_16.9.9.LTS/include/str
      38                            .dwattr $C$DW$3, DW_AT_decl_line(0x51)
      39                            .dwattr $C$DW$3, DW_AT_decl_column(0x14)
      40                    $C$DW$4 .dwtag  DW_TAG_formal_parameter
      41                            .dwattr $C$DW$4, DW_AT_type(*$C$DW$T$360)
      42                    
      43                            .dwendtag $C$DW$3
      44                    
      45                    
      46                    $C$DW$5 .dwtag  DW_TAG_subprogram
      47                            .dwattr $C$DW$5, DW_AT_name("memset")
      48                            .dwattr $C$DW$5, DW_AT_TI_symbol_name("memset")
      49                            .dwattr $C$DW$5, DW_AT_type(*$C$DW$T$3)
      50                            .dwattr $C$DW$5, DW_AT_declaration
      51                            .dwattr $C$DW$5, DW_AT_external
      52                            .dwattr $C$DW$5, DW_AT_decl_file("C:/ti/ccsv7/tools/compiler/ti-cgt-arm_16.9.9.LTS/include/str
      53                            .dwattr $C$DW$5, DW_AT_decl_line(0x71)
      54                            .dwattr $C$DW$5, DW_AT_decl_column(0x16)
      55                    $C$DW$6 .dwtag  DW_TAG_formal_parameter
TI ARM Assembler PC v16.9.9 Sun Nov 25 16:40:48 2018

Tools Copyright (c) 1996-2017 Texas Instruments Incorporated
C:\Users\Stryd\AppData\Local\Temp\{8719FFD6-004A-4401-8DC3-4DA83C6CF1D8} PAGE    2

      56                            .dwattr $C$DW$6, DW_AT_type(*$C$DW$T$3)
      57                    
      58                    $C$DW$7 .dwtag  DW_TAG_formal_parameter
      59                            .dwattr $C$DW$7, DW_AT_type(*$C$DW$T$10)
      60                    
      61                    $C$DW$8 .dwtag  DW_TAG_formal_parameter
      62                            .dwattr $C$DW$8, DW_AT_type(*$C$DW$T$102)
      63                    
      64                            .dwendtag $C$DW$5
      65                    
      66                    
      67                    $C$DW$9 .dwtag  DW_TAG_subprogram
      68                            .dwattr $C$DW$9, DW_AT_name("ltoa")
      69                            .dwattr $C$DW$9, DW_AT_TI_symbol_name("ltoa")
      70                            .dwattr $C$DW$9, DW_AT_type(*$C$DW$T$10)
      71                            .dwattr $C$DW$9, DW_AT_declaration
      72                            .dwattr $C$DW$9, DW_AT_external
      73                            .dwattr $C$DW$9, DW_AT_decl_file("C:/ti/ccsv7/tools/compiler/ti-cgt-arm_16.9.9.LTS/include/std
      74                            .dwattr $C$DW$9, DW_AT_decl_line(0x98)
      75                            .dwattr $C$DW$9, DW_AT_decl_column(0x1c)
      76                    $C$DW$10        .dwtag  DW_TAG_formal_parameter
      77                            .dwattr $C$DW$10, DW_AT_type(*$C$DW$T$12)
      78                    
      79                    $C$DW$11        .dwtag  DW_TAG_formal_parameter
      80                            .dwattr $C$DW$11, DW_AT_type(*$C$DW$T$329)
      81                    
      82                            .dwendtag $C$DW$9
      83                    
      84                    
      85                    $C$DW$12        .dwtag  DW_TAG_subprogram
      86                            .dwattr $C$DW$12, DW_AT_name("HAL_APPASRT_callAssrtHanlder")
      87                            .dwattr $C$DW$12, DW_AT_TI_symbol_name("HAL_APPASRT_callAssrtHanlder")
      88                            .dwattr $C$DW$12, DW_AT_declaration
      89                            .dwattr $C$DW$12, DW_AT_external
      90                            .dwattr $C$DW$12, DW_AT_decl_file("C:\ti\simplelink_cc13x0_sdk_2_30_00_20\source\ti\ti154stack
      91                            .dwattr $C$DW$12, DW_AT_decl_line(0x51)
      92                            .dwattr $C$DW$12, DW_AT_decl_column(0x0d)
      93                            .dwendtag $C$DW$12
      94                    
      95                    
      96                    $C$DW$13        .dwtag  DW_TAG_subprogram
      97                            .dwattr $C$DW$13, DW_AT_name("osal_mem_alloc")
      98                            .dwattr $C$DW$13, DW_AT_TI_symbol_name("osal_mem_alloc")
      99                            .dwattr $C$DW$13, DW_AT_type(*$C$DW$T$3)
     100                            .dwattr $C$DW$13, DW_AT_declaration
     101                            .dwattr $C$DW$13, DW_AT_external
     102                            .dwattr $C$DW$13, DW_AT_decl_file("..\Application\MAC\OSAL\osal_memory.h")
     103                            .dwattr $C$DW$13, DW_AT_decl_line(0x67)
     104                            .dwattr $C$DW$13, DW_AT_decl_column(0x09)
     105                    $C$DW$14        .dwtag  DW_TAG_formal_parameter
     106                            .dwattr $C$DW$14, DW_AT_type(*$C$DW$T$73)
     107                    
     108                            .dwendtag $C$DW$13
     109                    
     110                    
TI ARM Assembler PC v16.9.9 Sun Nov 25 16:40:48 2018

Tools Copyright (c) 1996-2017 Texas Instruments Incorporated
C:\Users\Stryd\AppData\Local\Temp\{8719FFD6-004A-4401-8DC3-4DA83C6CF1D8} PAGE    3

     111                    $C$DW$15        .dwtag  DW_TAG_subprogram
     112                            .dwattr $C$DW$15, DW_AT_name("osal_mem_free")
     113                            .dwattr $C$DW$15, DW_AT_TI_symbol_name("osal_mem_free")
     114                            .dwattr $C$DW$15, DW_AT_declaration
     115                            .dwattr $C$DW$15, DW_AT_external
     116                            .dwattr $C$DW$15, DW_AT_decl_file("..\Application\MAC\OSAL\osal_memory.h")
     117                            .dwattr $C$DW$15, DW_AT_decl_line(0x71)
     118                            .dwattr $C$DW$15, DW_AT_decl_column(0x08)
     119                    $C$DW$16        .dwtag  DW_TAG_formal_parameter
     120                            .dwattr $C$DW$16, DW_AT_type(*$C$DW$T$3)
     121                    
     122                            .dwendtag $C$DW$15
     123                    
     124                    
     125                    $C$DW$17        .dwtag  DW_TAG_subprogram
     126                            .dwattr $C$DW$17, DW_AT_name("osalTimerInit")
     127                            .dwattr $C$DW$17, DW_AT_TI_symbol_name("osalTimerInit")
     128                            .dwattr $C$DW$17, DW_AT_declaration
     129                            .dwattr $C$DW$17, DW_AT_external
     130                            .dwattr $C$DW$17, DW_AT_decl_file("..\Application\MAC\OSAL\osal_timers.h")
     131                            .dwattr $C$DW$17, DW_AT_decl_line(0x55)
     132                            .dwattr $C$DW$17, DW_AT_decl_column(0x0f)
     133                            .dwendtag $C$DW$17
     134                    
     135                    
     136                    $C$DW$18        .dwtag  DW_TAG_subprogram
     137                            .dwattr $C$DW$18, DW_AT_name("osal_next_timeout")
     138                            .dwattr $C$DW$18, DW_AT_TI_symbol_name("osal_next_timeout")
     139                            .dwattr $C$DW$18, DW_AT_type(*$C$DW$T$81)
     140                            .dwattr $C$DW$18, DW_AT_declaration
     141                            .dwattr $C$DW$18, DW_AT_external
     142                            .dwattr $C$DW$18, DW_AT_decl_file("..\Application\MAC\OSAL\osal_timers.h")
     143                            .dwattr $C$DW$18, DW_AT_decl_line(0x90)
     144                            .dwattr $C$DW$18, DW_AT_decl_column(0x11)
     145                            .dwendtag $C$DW$18
     146                    
     147                    
     148                    $C$DW$19        .dwtag  DW_TAG_subprogram
     149                            .dwattr $C$DW$19, DW_AT_name("osalInitTasks")
     150                            .dwattr $C$DW$19, DW_AT_TI_symbol_name("osalInitTasks")
     151                            .dwattr $C$DW$19, DW_AT_declaration
     152                            .dwattr $C$DW$19, DW_AT_external
     153                            .dwattr $C$DW$19, DW_AT_decl_file("C:/ti/simplelink_cc13x0_sdk_2_30_00_20/source/ti/ti154stack
     154                            .dwattr $C$DW$19, DW_AT_decl_line(0x60)
     155                            .dwattr $C$DW$19, DW_AT_decl_column(0x0d)
     156                            .dwendtag $C$DW$19
     157                    
     158                    
     159                    $C$DW$20        .dwtag  DW_TAG_subprogram
     160                            .dwattr $C$DW$20, DW_AT_name("osal_pwrmgr_init")
     161                            .dwattr $C$DW$20, DW_AT_TI_symbol_name("osal_pwrmgr_init")
     162                            .dwattr $C$DW$20, DW_AT_declaration
     163                            .dwattr $C$DW$20, DW_AT_external
     164                            .dwattr $C$DW$20, DW_AT_decl_file("..\Application\MAC\OSAL\osal_pwrmgr.h")
     165                            .dwattr $C$DW$20, DW_AT_decl_line(0x6f)
TI ARM Assembler PC v16.9.9 Sun Nov 25 16:40:48 2018

Tools Copyright (c) 1996-2017 Texas Instruments Incorporated
C:\Users\Stryd\AppData\Local\Temp\{8719FFD6-004A-4401-8DC3-4DA83C6CF1D8} PAGE    4

     166                            .dwattr $C$DW$20, DW_AT_decl_column(0x0f)
     167                            .dwendtag $C$DW$20
     168                    
     169                    
     170                    $C$DW$21        .dwtag  DW_TAG_subprogram
     171                            .dwattr $C$DW$21, DW_AT_name("osalAdjustTimer")
     172                            .dwattr $C$DW$21, DW_AT_TI_symbol_name("osalAdjustTimer")
     173                            .dwattr $C$DW$21, DW_AT_declaration
     174                            .dwattr $C$DW$21, DW_AT_external
     175                            .dwattr $C$DW$21, DW_AT_decl_file("..\Application\MAC\OSAL\osal_clock.h")
     176                            .dwattr $C$DW$21, DW_AT_decl_line(0x89)
     177                            .dwattr $C$DW$21, DW_AT_decl_column(0x0f)
     178                    $C$DW$22        .dwtag  DW_TAG_formal_parameter
     179                            .dwattr $C$DW$22, DW_AT_type(*$C$DW$T$81)
     180                    
     181                            .dwendtag $C$DW$21
     182                    
     183                    
     184                    $C$DW$23        .dwtag  DW_TAG_subprogram
     185                            .dwattr $C$DW$23, DW_AT_name("Onboard_rand")
     186                            .dwattr $C$DW$23, DW_AT_TI_symbol_name("Onboard_rand")
     187                            .dwattr $C$DW$23, DW_AT_type(*$C$DW$T$73)
     188                            .dwattr $C$DW$23, DW_AT_declaration
     189                            .dwattr $C$DW$23, DW_AT_external
     190                            .dwattr $C$DW$23, DW_AT_decl_file("C:/ti/simplelink_cc13x0_sdk_2_30_00_20/examples/rtos/CC1350
     191                            .dwattr $C$DW$23, DW_AT_decl_line(0x107)
     192                            .dwattr $C$DW$23, DW_AT_decl_column(0x11)
     193                            .dwendtag $C$DW$23
     194                    
     195                    $C$DW$24        .dwtag  DW_TAG_variable
     196                            .dwattr $C$DW$24, DW_AT_name("ICall_dispatcher")
     197                            .dwattr $C$DW$24, DW_AT_TI_symbol_name("ICall_dispatcher")
     198                            .dwattr $C$DW$24, DW_AT_type(*$C$DW$T$147)
     199                            .dwattr $C$DW$24, DW_AT_declaration
     200                            .dwattr $C$DW$24, DW_AT_external
     201                            .dwattr $C$DW$24, DW_AT_decl_file("C:/ti/simplelink_cc13x0_sdk_2_30_00_20/source/ti/ti154stack
     202                            .dwattr $C$DW$24, DW_AT_decl_line(0x381)
     203                            .dwattr $C$DW$24, DW_AT_decl_column(0x19)
     204                    
     205                    $C$DW$25        .dwtag  DW_TAG_variable
     206                            .dwattr $C$DW$25, DW_AT_name("ICall_enterCriticalSection")
     207                            .dwattr $C$DW$25, DW_AT_TI_symbol_name("ICall_enterCriticalSection")
     208                            .dwattr $C$DW$25, DW_AT_type(*$C$DW$T$151)
     209                            .dwattr $C$DW$25, DW_AT_declaration
     210                            .dwattr $C$DW$25, DW_AT_external
     211                            .dwattr $C$DW$25, DW_AT_decl_file("C:/ti/simplelink_cc13x0_sdk_2_30_00_20/source/ti/ti154stack
     212                            .dwattr $C$DW$25, DW_AT_decl_line(0x384)
     213                            .dwattr $C$DW$25, DW_AT_decl_column(0x16)
     214                    
     215                    $C$DW$26        .dwtag  DW_TAG_variable
     216                            .dwattr $C$DW$26, DW_AT_name("ICall_leaveCriticalSection")
     217                            .dwattr $C$DW$26, DW_AT_TI_symbol_name("ICall_leaveCriticalSection")
     218                            .dwattr $C$DW$26, DW_AT_type(*$C$DW$T$154)
     219                            .dwattr $C$DW$26, DW_AT_declaration
     220                            .dwattr $C$DW$26, DW_AT_external
TI ARM Assembler PC v16.9.9 Sun Nov 25 16:40:48 2018

Tools Copyright (c) 1996-2017 Texas Instruments Incorporated
C:\Users\Stryd\AppData\Local\Temp\{8719FFD6-004A-4401-8DC3-4DA83C6CF1D8} PAGE    5

     221                            .dwattr $C$DW$26, DW_AT_decl_file("C:/ti/simplelink_cc13x0_sdk_2_30_00_20/source/ti/ti154stack
     222                            .dwattr $C$DW$26, DW_AT_decl_line(0x387)
     223                            .dwattr $C$DW$26, DW_AT_decl_column(0x16)
     224                    
     225                    $C$DW$27        .dwtag  DW_TAG_variable
     226                            .dwattr $C$DW$27, DW_AT_name("tasksArr")
     227                            .dwattr $C$DW$27, DW_AT_TI_symbol_name("tasksArr")
     228                            .dwattr $C$DW$27, DW_AT_type(*$C$DW$T$318)
     229                            .dwattr $C$DW$27, DW_AT_declaration
     230                            .dwattr $C$DW$27, DW_AT_external
     231                            .dwattr $C$DW$27, DW_AT_decl_file("C:/ti/simplelink_cc13x0_sdk_2_30_00_20/source/ti/ti154stack
     232                            .dwattr $C$DW$27, DW_AT_decl_line(0x55)
     233                            .dwattr $C$DW$27, DW_AT_decl_column(0x22)
     234                    
     235                    $C$DW$28        .dwtag  DW_TAG_variable
     236                            .dwattr $C$DW$28, DW_AT_name("tasksCnt")
     237                            .dwattr $C$DW$28, DW_AT_TI_symbol_name("tasksCnt")
     238                            .dwattr $C$DW$28, DW_AT_type(*$C$DW$T$298)
     239                            .dwattr $C$DW$28, DW_AT_declaration
     240                            .dwattr $C$DW$28, DW_AT_external
     241                            .dwattr $C$DW$28, DW_AT_decl_file("C:/ti/simplelink_cc13x0_sdk_2_30_00_20/source/ti/ti154stack
     242                            .dwattr $C$DW$28, DW_AT_decl_line(0x56)
     243                            .dwattr $C$DW$28, DW_AT_decl_column(0x14)
     244                    
     245                    $C$DW$29        .dwtag  DW_TAG_variable
     246                            .dwattr $C$DW$29, DW_AT_name("macTasksEvents")
     247                            .dwattr $C$DW$29, DW_AT_TI_symbol_name("macTasksEvents")
     248                            .dwattr $C$DW$29, DW_AT_type(*$C$DW$T$325)
     249                            .dwattr $C$DW$29, DW_AT_declaration
     250                            .dwattr $C$DW$29, DW_AT_external
     251                            .dwattr $C$DW$29, DW_AT_decl_file("../Application/MAC/OSAL/osal.c")
     252                            .dwattr $C$DW$29, DW_AT_decl_line(0x75)
     253                            .dwattr $C$DW$29, DW_AT_decl_column(0x10)
     254                    
     255                            .global osal_entity
     256                            .common osal_entity,1,1
     257                    $C$DW$30        .dwtag  DW_TAG_variable
     258                            .dwattr $C$DW$30, DW_AT_name("osal_entity")
     259                            .dwattr $C$DW$30, DW_AT_TI_symbol_name("osal_entity")
     260                            .dwattr $C$DW$30, DW_AT_location[DW_OP_addr osal_entity]
     261                            .dwattr $C$DW$30, DW_AT_type(*$C$DW$T$89)
     262                            .dwattr $C$DW$30, DW_AT_external
     263                            .dwattr $C$DW$30, DW_AT_decl_file("../Application/MAC/OSAL/osal.c")
     264                            .dwattr $C$DW$30, DW_AT_decl_line(0x93)
     265                            .dwattr $C$DW$30, DW_AT_decl_column(0x10)
     266                    
     267 00000000                   .sect   ".data:$O1$$", RW
     268                            .align  4
     269                            .elfsym ||$O1$$||,SYM_SIZE(44)
     270 00000000           ||$O1$$||:
     271 00000000 000000FF          .bits   255,8                   ; $O1$$.activeTaskID @ 0
     272 00000001                   .space  7
     273 00000008 00000000          .bits   0,32                    ; $O1$$.osal_eventloop_hook @ 64
     274 0000000c 00000000          .bits   0,32                    ; $O1$$.osal_icallMsg_hook @ 96
     275 00000010                   .space  20
TI ARM Assembler PC v16.9.9 Sun Nov 25 16:40:48 2018

Tools Copyright (c) 1996-2017 Texas Instruments Incorporated
C:\Users\Stryd\AppData\Local\Temp\{8719FFD6-004A-4401-8DC3-4DA83C6CF1D8} PAGE    6

     276 00000024 00000000          .bits   0,32                    ; $O1$$.osal_msec_timer_seq @ 288
     277 00000028 00000000          .bits   0,32
     278                    
     279                    
     280                    ;*********************************************************************
     281                    ;* GROUPED GLOBALS FOR $O1$$                                         *
     282                    ;*********************************************************************
     283          00000000! activeTaskID:   .set    ||$O1$$||+0
     284                    $C$DW$31        .dwtag  DW_TAG_variable
     285                            .dwattr $C$DW$31, DW_AT_name("activeTaskID")
     286                            .dwattr $C$DW$31, DW_AT_TI_symbol_name("activeTaskID")
     287                            .dwattr $C$DW$31, DW_AT_type(*$C$DW$T$19)
     288                            .dwattr $C$DW$31, DW_AT_location[DW_OP_addr activeTaskID]
     289                            .dwattr $C$DW$31, DW_AT_decl_file("../Application/MAC/OSAL/osal.c")
     290                            .dwattr $C$DW$31, DW_AT_decl_line(0x80)
     291                            .dwattr $C$DW$31, DW_AT_decl_column(0x0e)
     292                    
     293          00000001! osal_notask_entity:     .set    ||$O1$$||+1
     294                    $C$DW$32        .dwtag  DW_TAG_variable
     295                            .dwattr $C$DW$32, DW_AT_name("osal_notask_entity")
     296                            .dwattr $C$DW$32, DW_AT_TI_symbol_name("osal_notask_entity")
     297                            .dwattr $C$DW$32, DW_AT_type(*$C$DW$T$19)
     298                            .dwattr $C$DW$32, DW_AT_location[DW_OP_addr osal_notask_entity]
     299                            .dwattr $C$DW$32, DW_AT_decl_file("../Application/MAC/OSAL/osal.c")
     300                            .dwattr $C$DW$32, DW_AT_decl_line(0xaa)
     301                            .dwattr $C$DW$32, DW_AT_decl_column(0x0e)
     302                    
     303          00000002! osal_proxy_tasks:       .set    ||$O1$$||+2
     304                    $C$DW$33        .dwtag  DW_TAG_variable
     305                            .dwattr $C$DW$33, DW_AT_name("osal_proxy_tasks")
     306                            .dwattr $C$DW$33, DW_AT_TI_symbol_name("osal_proxy_tasks")
     307                            .dwattr $C$DW$33, DW_AT_type(*$C$DW$T$297)
     308                            .dwattr $C$DW$33, DW_AT_location[DW_OP_addr osal_proxy_tasks]
     309                            .dwattr $C$DW$33, DW_AT_decl_file("../Application/MAC/OSAL/osal.c")
     310                            .dwattr $C$DW$33, DW_AT_decl_line(0xa5)
     311                            .dwattr $C$DW$33, DW_AT_decl_column(0x0e)
     312                    
     313          00000004! osal_qHead:     .set    ||$O1$$||+4
     314                            .global osal_qHead
     315                    $C$DW$34        .dwtag  DW_TAG_variable
     316                            .dwattr $C$DW$34, DW_AT_name("osal_qHead")
     317                            .dwattr $C$DW$34, DW_AT_TI_symbol_name("osal_qHead")
     318                            .dwattr $C$DW$34, DW_AT_location[DW_OP_addr osal_qHead]
     319                            .dwattr $C$DW$34, DW_AT_type(*$C$DW$T$209)
     320                            .dwattr $C$DW$34, DW_AT_external
     321                            .dwattr $C$DW$34, DW_AT_decl_file("../Application/MAC/OSAL/osal.c")
     322                            .dwattr $C$DW$34, DW_AT_decl_line(0x67)
     323                            .dwattr $C$DW$34, DW_AT_decl_column(0x0e)
     324                    
     325          00000008! osal_eventloop_hook:    .set    ||$O1$$||+8
     326                            .global osal_eventloop_hook
     327                    $C$DW$35        .dwtag  DW_TAG_variable
     328                            .dwattr $C$DW$35, DW_AT_name("osal_eventloop_hook")
     329                            .dwattr $C$DW$35, DW_AT_TI_symbol_name("osal_eventloop_hook")
     330                            .dwattr $C$DW$35, DW_AT_location[DW_OP_addr osal_eventloop_hook]
TI ARM Assembler PC v16.9.9 Sun Nov 25 16:40:48 2018

Tools Copyright (c) 1996-2017 Texas Instruments Incorporated
C:\Users\Stryd\AppData\Local\Temp\{8719FFD6-004A-4401-8DC3-4DA83C6CF1D8} PAGE    7

     331                            .dwattr $C$DW$35, DW_AT_type(*$C$DW$T$37)
     332                            .dwattr $C$DW$35, DW_AT_external
     333                            .dwattr $C$DW$35, DW_AT_decl_file("../Application/MAC/OSAL/osal.c")
     334                            .dwattr $C$DW$35, DW_AT_decl_line(0x6b)
     335                            .dwattr $C$DW$35, DW_AT_decl_column(0x08)
     336                    
     337          0000000C! osal_icallMsg_hook:     .set    ||$O1$$||+12
     338                            .global osal_icallMsg_hook
     339                    $C$DW$36        .dwtag  DW_TAG_variable
     340                            .dwattr $C$DW$36, DW_AT_name("osal_icallMsg_hook")
     341                            .dwattr $C$DW$36, DW_AT_TI_symbol_name("osal_icallMsg_hook")
     342                            .dwattr $C$DW$36, DW_AT_location[DW_OP_addr osal_icallMsg_hook]
     343                            .dwattr $C$DW$36, DW_AT_type(*$C$DW$T$223)
     344                            .dwattr $C$DW$36, DW_AT_external
     345                            .dwattr $C$DW$36, DW_AT_decl_file("../Application/MAC/OSAL/osal.c")
     346                            .dwattr $C$DW$36, DW_AT_decl_line(0x6f)
     347                            .dwattr $C$DW$36, DW_AT_decl_column(0x16)
     348                    
     349          00000010! osal_semaphore: .set    ||$O1$$||+16
     350                            .global osal_semaphore
     351                    $C$DW$37        .dwtag  DW_TAG_variable
     352                            .dwattr $C$DW$37, DW_AT_name("osal_semaphore")
     353                            .dwattr $C$DW$37, DW_AT_TI_symbol_name("osal_semaphore")
     354                            .dwattr $C$DW$37, DW_AT_location[DW_OP_addr osal_semaphore]
     355                            .dwattr $C$DW$37, DW_AT_type(*$C$DW$T$195)
     356                            .dwattr $C$DW$37, DW_AT_external
     357                            .dwattr $C$DW$37, DW_AT_decl_file("../Application/MAC/OSAL/osal.c")
     358                            .dwattr $C$DW$37, DW_AT_decl_line(0x8f)
     359                            .dwattr $C$DW$37, DW_AT_decl_column(0x11)
     360                    
     361          00000014! osal_last_timestamp:    .set    ||$O1$$||+20
     362                            .global osal_last_timestamp
     363                    $C$DW$38        .dwtag  DW_TAG_variable
     364                            .dwattr $C$DW$38, DW_AT_name("osal_last_timestamp")
     365                            .dwattr $C$DW$38, DW_AT_TI_symbol_name("osal_last_timestamp")
     366                            .dwattr $C$DW$38, DW_AT_location[DW_OP_addr osal_last_timestamp]
     367                            .dwattr $C$DW$38, DW_AT_type(*$C$DW$T$66)
     368                            .dwattr $C$DW$38, DW_AT_external
     369                            .dwattr $C$DW$38, DW_AT_decl_file("../Application/MAC/OSAL/osal.c")
     370                            .dwattr $C$DW$38, DW_AT_decl_line(0x96)
     371                            .dwattr $C$DW$38, DW_AT_decl_column(0x10)
     372                    
     373          00000018! osal_tickperiod:        .set    ||$O1$$||+24
     374                            .global osal_tickperiod
     375                    $C$DW$39        .dwtag  DW_TAG_variable
     376                            .dwattr $C$DW$39, DW_AT_name("osal_tickperiod")
     377                            .dwattr $C$DW$39, DW_AT_TI_symbol_name("osal_tickperiod")
     378                            .dwattr $C$DW$39, DW_AT_location[DW_OP_addr osal_tickperiod]
     379                            .dwattr $C$DW$39, DW_AT_type(*$C$DW$T$66)
     380                            .dwattr $C$DW$39, DW_AT_external
     381                            .dwattr $C$DW$39, DW_AT_decl_file("../Application/MAC/OSAL/osal.c")
     382                            .dwattr $C$DW$39, DW_AT_decl_line(0x99)
     383                            .dwattr $C$DW$39, DW_AT_decl_column(0x10)
     384                    
     385          0000001C! osal_max_msecs: .set    ||$O1$$||+28
TI ARM Assembler PC v16.9.9 Sun Nov 25 16:40:48 2018

Tools Copyright (c) 1996-2017 Texas Instruments Incorporated
C:\Users\Stryd\AppData\Local\Temp\{8719FFD6-004A-4401-8DC3-4DA83C6CF1D8} PAGE    8

     386                            .global osal_max_msecs
     387                    $C$DW$40        .dwtag  DW_TAG_variable
     388                            .dwattr $C$DW$40, DW_AT_name("osal_max_msecs")
     389                            .dwattr $C$DW$40, DW_AT_TI_symbol_name("osal_max_msecs")
     390                            .dwattr $C$DW$40, DW_AT_location[DW_OP_addr osal_max_msecs]
     391                            .dwattr $C$DW$40, DW_AT_type(*$C$DW$T$66)
     392                            .dwattr $C$DW$40, DW_AT_external
     393                            .dwattr $C$DW$40, DW_AT_decl_file("../Application/MAC/OSAL/osal.c")
     394                            .dwattr $C$DW$40, DW_AT_decl_line(0x9c)
     395                            .dwattr $C$DW$40, DW_AT_decl_column(0x10)
     396                    
     397          00000020! osal_timerid_msec_timer:        .set    ||$O1$$||+32
     398                    $C$DW$41        .dwtag  DW_TAG_variable
     399                            .dwattr $C$DW$41, DW_AT_name("osal_timerid_msec_timer")
     400                            .dwattr $C$DW$41, DW_AT_TI_symbol_name("osal_timerid_msec_timer")
     401                            .dwattr $C$DW$41, DW_AT_type(*$C$DW$T$158)
     402                            .dwattr $C$DW$41, DW_AT_location[DW_OP_addr osal_timerid_msec_timer]
     403                            .dwattr $C$DW$41, DW_AT_decl_file("../Application/MAC/OSAL/osal.c")
     404                            .dwattr $C$DW$41, DW_AT_decl_line(0x9f)
     405                            .dwattr $C$DW$41, DW_AT_decl_column(0x16)
     406                    
     407          00000024! osal_msec_timer_seq:    .set    ||$O1$$||+36
     408                    $C$DW$42        .dwtag  DW_TAG_variable
     409                            .dwattr $C$DW$42, DW_AT_name("osal_msec_timer_seq")
     410                            .dwattr $C$DW$42, DW_AT_TI_symbol_name("osal_msec_timer_seq")
     411                            .dwattr $C$DW$42, DW_AT_type(*$C$DW$T$11)
     412                            .dwattr $C$DW$42, DW_AT_location[DW_OP_addr osal_msec_timer_seq]
     413                            .dwattr $C$DW$42, DW_AT_decl_file("../Application/MAC/OSAL/osal.c")
     414                            .dwattr $C$DW$42, DW_AT_decl_line(0xa2)
     415                            .dwattr $C$DW$42, DW_AT_decl_column(0x11)
     416                    
     417          00000028! osal_dispatch_entities: .set    ||$O1$$||+40
     418                    $C$DW$43        .dwtag  DW_TAG_variable
     419                            .dwattr $C$DW$43, DW_AT_name("osal_dispatch_entities")
     420                            .dwattr $C$DW$43, DW_AT_TI_symbol_name("osal_dispatch_entities")
     421                            .dwattr $C$DW$43, DW_AT_type(*$C$DW$T$77)
     422                            .dwattr $C$DW$43, DW_AT_location[DW_OP_addr osal_dispatch_entities]
     423                            .dwattr $C$DW$43, DW_AT_decl_file("../Application/MAC/OSAL/osal.c")
     424                            .dwattr $C$DW$43, DW_AT_decl_line(0xa8)
     425                            .dwattr $C$DW$43, DW_AT_decl_column(0x0f)
     426                    
     427                    ;       C:\ti\ccsv7\tools\compiler\ti-cgt-arm_16.9.9.LTS\bin\armopt.exe C:/CCSWorkspace/ECG603/collect
     428 00000000                   .sect   ".text:osal_strlen"
     429                            .clink
     430                            .thumbfunc osal_strlen
     431 00000000                   .thumb
     432                            .global osal_strlen
     433                    
     434                    $C$DW$44        .dwtag  DW_TAG_subprogram
     435                            .dwattr $C$DW$44, DW_AT_name("osal_strlen")
     436                            .dwattr $C$DW$44, DW_AT_low_pc(osal_strlen)
     437                            .dwattr $C$DW$44, DW_AT_high_pc(0x00)
     438                            .dwattr $C$DW$44, DW_AT_TI_symbol_name("osal_strlen")
     439                            .dwattr $C$DW$44, DW_AT_external
     440                            .dwattr $C$DW$44, DW_AT_type(*$C$DW$T$10)
TI ARM Assembler PC v16.9.9 Sun Nov 25 16:40:48 2018

Tools Copyright (c) 1996-2017 Texas Instruments Incorporated
C:\Users\Stryd\AppData\Local\Temp\{8719FFD6-004A-4401-8DC3-4DA83C6CF1D8} PAGE    9

     441                            .dwattr $C$DW$44, DW_AT_TI_begin_file("../Application/MAC/OSAL/osal.c")
     442                            .dwattr $C$DW$44, DW_AT_TI_begin_line(0xd6)
     443                            .dwattr $C$DW$44, DW_AT_TI_begin_column(0x05)
     444                            .dwattr $C$DW$44, DW_AT_decl_file("../Application/MAC/OSAL/osal.c")
     445                            .dwattr $C$DW$44, DW_AT_decl_line(0xd6)
     446                            .dwattr $C$DW$44, DW_AT_decl_column(0x05)
     447                            .dwattr $C$DW$44, DW_AT_TI_max_frame_size(0x00)
     448                            .dwpsn  file "../Application/MAC/OSAL/osal.c",line 215,column 1,is_stmt,address osal_strlen,is
     449                    
     450                            .dwfde $C$DW$CIE, osal_strlen
     451                    $C$DW$45        .dwtag  DW_TAG_formal_parameter
     452                            .dwattr $C$DW$45, DW_AT_name("pString")
     453                            .dwattr $C$DW$45, DW_AT_TI_symbol_name("pString")
     454                            .dwattr $C$DW$45, DW_AT_type(*$C$DW$T$329)
     455                            .dwattr $C$DW$45, DW_AT_location[DW_OP_reg0]
     456                    
     457                    
     458                    ;*****************************************************************************
     459                    ;* FUNCTION NAME: osal_strlen                                                *
     460                    ;*                                                                           *
     461                    ;*   Regs Modified     : A1,A2,A3,A4,V9,LR,SR                                *
     462                    ;*   Regs Used         : A1,A2,A3,A4,V9,SP,LR,SR                             *
     463                    ;*   Local Frame Size  : 0 Args + 0 Auto + 0 Save = 0 byte                   *
     464                    ;*****************************************************************************
     465 00000000           osal_strlen:
     466                    ;* --------------------------------------------------------------------------*
     467                            .dwcfi  cfa_offset, 0
     468                            .dwpsn  file "../Application/MAC/OSAL/osal.c",line 216,column 3,is_stmt,isa 1
     469                    $C$DW$46        .dwtag  DW_TAG_TI_branch
     470                            .dwattr $C$DW$46, DW_AT_low_pc(0x00)
     471                            .dwattr $C$DW$46, DW_AT_name("strlen")
     472                            .dwattr $C$DW$46, DW_AT_TI_call
     473                            .dwattr $C$DW$46, DW_AT_TI_return
     474                    
     475 00000000 BFFEF7FF!         CRET      strlen                ; [DPU_3_PIPE] |216|  ; [KEEP 32-BIT INS]
     476                            ; CALL OCCURS {strlen }          ; [] |216| 
     477                            .dwattr $C$DW$44, DW_AT_TI_end_file("../Application/MAC/OSAL/osal.c")
     478                            .dwattr $C$DW$44, DW_AT_TI_end_line(0xd9)
     479                            .dwattr $C$DW$44, DW_AT_TI_end_column(0x01)
     480                            .dwendentry
     481                            .dwendtag $C$DW$44
     482                    
     483 00000000                   .sect   ".text:ICall_signal"
     484                            .clink
     485                            .thumbfunc ICall_signal
     486 00000000                   .thumb
     487                    
     488                    $C$DW$47        .dwtag  DW_TAG_subprogram
     489                            .dwattr $C$DW$47, DW_AT_name("ICall_signal")
     490                            .dwattr $C$DW$47, DW_AT_low_pc(ICall_signal)
     491                            .dwattr $C$DW$47, DW_AT_high_pc(0x00)
     492                            .dwattr $C$DW$47, DW_AT_TI_symbol_name("ICall_signal")
     493                            .dwattr $C$DW$47, DW_AT_type(*$C$DW$T$109)
     494                            .dwattr $C$DW$47, DW_AT_TI_begin_file("C:/ti/simplelink_cc13x0_sdk_2_30_00_20/source/ti/ti154s
     495                            .dwattr $C$DW$47, DW_AT_TI_begin_line(0x792)
TI ARM Assembler PC v16.9.9 Sun Nov 25 16:40:48 2018

Tools Copyright (c) 1996-2017 Texas Instruments Incorporated
C:\Users\Stryd\AppData\Local\Temp\{8719FFD6-004A-4401-8DC3-4DA83C6CF1D8} PAGE   10

     496                            .dwattr $C$DW$47, DW_AT_TI_begin_column(0x14)
     497                            .dwattr $C$DW$47, DW_AT_decl_file("C:/ti/simplelink_cc13x0_sdk_2_30_00_20/source/ti/ti154stack
     498                            .dwattr $C$DW$47, DW_AT_decl_line(0x792)
     499                            .dwattr $C$DW$47, DW_AT_decl_column(0x14)
     500                            .dwattr $C$DW$47, DW_AT_TI_max_frame_size(0x10)
     501                            .dwpsn  file "C:/ti/simplelink_cc13x0_sdk_2_30_00_20/source/ti/ti154stack/icall/src/inc/icall.
     502                    
     503                            .dwfde $C$DW$CIE, ICall_signal
     504                    $C$DW$48        .dwtag  DW_TAG_formal_parameter
     505                            .dwattr $C$DW$48, DW_AT_name("msgSyncHdl")
     506                            .dwattr $C$DW$48, DW_AT_TI_symbol_name("msgSyncHdl")
     507                            .dwattr $C$DW$48, DW_AT_type(*$C$DW$T$114)
     508                            .dwattr $C$DW$48, DW_AT_location[DW_OP_reg0]
     509                    
     510                    
     511                    ;*****************************************************************************
     512                    ;* FUNCTION NAME: ICall_signal                                               *
     513                    ;*                                                                           *
     514                    ;*   Regs Modified     : A1,A2,A3,A4,V9,SP,LR,SR                             *
     515                    ;*   Regs Used         : A1,A2,A3,A4,V9,SP,LR,SR                             *
     516                    ;*   Local Frame Size  : 0 Args + 8 Auto + 4 Save = 12 byte                  *
     517                    ;*****************************************************************************
     518                    ICall_signal:
     519                    ;* --------------------------------------------------------------------------*
     520                    $C$DW$49        .dwtag  DW_TAG_variable
     521                            .dwattr $C$DW$49, DW_AT_name("args")
     522                            .dwattr $C$DW$49, DW_AT_TI_symbol_name("args")
     523                            .dwattr $C$DW$49, DW_AT_type(*$C$DW$T$423)
     524                            .dwattr $C$DW$49, DW_AT_location[DW_OP_breg13 0]
     525                    
     526                    ;* A1    assigned to msgSyncHdl
     527                    $C$DW$50        .dwtag  DW_TAG_variable
     528                            .dwattr $C$DW$50, DW_AT_name("msgSyncHdl")
     529                            .dwattr $C$DW$50, DW_AT_TI_symbol_name("msgSyncHdl")
     530                            .dwattr $C$DW$50, DW_AT_type(*$C$DW$T$196)
     531                            .dwattr $C$DW$50, DW_AT_location[DW_OP_reg0]
     532                    
     533                            .dwcfi  cfa_offset, 0
     534 00000000 B50E              PUSH      {A2, A3, A4, LR}      ; [DPU_3_PIPE]  ; [ORIG 16-BIT INS]
     535                            .dwcfi  cfa_offset, 16
     536                            .dwcfi  save_reg_to_mem, 14, -4
     537                            .dwcfi  save_reg_to_mem, 3, -8
     538                            .dwcfi  save_reg_to_mem, 2, -12
     539                            .dwcfi  save_reg_to_mem, 1, -16
     540                            .dwpsn  file "C:/ti/simplelink_cc13x0_sdk_2_30_00_20/source/ti/ti154stack/icall/src/inc/icall.
     541 00000002 2108              MOVS      A2, #8                ; [DPU_3_PIPE] |1941|  ; [ORIG 16-BIT INS]
     542                            .dwpsn  file "C:/ti/simplelink_cc13x0_sdk_2_30_00_20/source/ti/ti154stack/icall/src/inc/icall.
     543 00000004 9001              STR       A1, [SP, #4]          ; [DPU_3_PIPE] |1943|  ; [ORIG 16-BIT INS]
     544                            .dwpsn  file "C:/ti/simplelink_cc13x0_sdk_2_30_00_20/source/ti/ti154stack/icall/src/inc/icall.
     545 00000006 4805              LDR       A1, $C$CON1           ; [DPU_3_PIPE] |1945|  ; [ORIG 16-BIT INS]
     546                            .dwpsn  file "C:/ti/simplelink_cc13x0_sdk_2_30_00_20/source/ti/ti154stack/icall/src/inc/icall.
     547 00000008 1000F8AD          STRH      A2, [SP, #0]          ; [DPU_3_PIPE] |1941|  ; [KEEP 32-BIT INS]
     548                            .dwpsn  file "C:/ti/simplelink_cc13x0_sdk_2_30_00_20/source/ti/ti154stack/icall/src/inc/icall.
     549 0000000c 210B              MOVS      A2, #11               ; [DPU_3_PIPE] |1942|  ; [ORIG 16-BIT INS]
     550 0000000e 1002F8AD          STRH      A2, [SP, #2]          ; [DPU_3_PIPE] |1942|  ; [KEEP 32-BIT INS]
TI ARM Assembler PC v16.9.9 Sun Nov 25 16:40:48 2018

Tools Copyright (c) 1996-2017 Texas Instruments Incorporated
C:\Users\Stryd\AppData\Local\Temp\{8719FFD6-004A-4401-8DC3-4DA83C6CF1D8} PAGE   11

     551                            .dwpsn  file "C:/ti/simplelink_cc13x0_sdk_2_30_00_20/source/ti/ti154stack/icall/src/inc/icall.
     552 00000012 6801              LDR       A2, [A1, #0]          ; [DPU_3_PIPE] |1945|  ; [ORIG 16-BIT INS]
     553 00000014 4668              MOV       A1, SP                ; [DPU_3_PIPE] |1945|  ; [ORIG 16-BIT INS]
     554                    $C$DW$51        .dwtag  DW_TAG_TI_branch
     555                            .dwattr $C$DW$51, DW_AT_low_pc(0x00)
     556                            .dwattr $C$DW$51, DW_AT_TI_call
     557                            .dwattr $C$DW$51, DW_AT_TI_indirect
     558                    
     559 00000016 4788              BLX       A2                    ; [DPU_3_PIPE] |1945|  ; [ORIG 16-BIT INS]
     560                            ; CALL OCCURS {}                 ; [] |1945| 
     561                    $C$DW$52        .dwtag  DW_TAG_TI_branch
     562                            .dwattr $C$DW$52, DW_AT_low_pc(0x00)
     563                            .dwattr $C$DW$52, DW_AT_TI_return
     564                    
     565 00000018 BD0E              POP       {A2, A3, A4, PC}      ; [DPU_3_PIPE]  ; [ORIG 16-BIT INS]
     566                            .dwcfi  cfa_offset, 0
     567                            .dwcfi  restore_reg, 3
     568                            .dwcfi  restore_reg, 2
     569                            .dwcfi  restore_reg, 1
     570                            ; BRANCH OCCURS                  ; [] 
     571                            .dwattr $C$DW$47, DW_AT_TI_end_file("C:/ti/simplelink_cc13x0_sdk_2_30_00_20/source/ti/ti154sta
     572                            .dwattr $C$DW$47, DW_AT_TI_end_line(0x79a)
     573                            .dwattr $C$DW$47, DW_AT_TI_end_column(0x01)
     574                            .dwendentry
     575                            .dwendtag $C$DW$47
     576                    
     577 00000000                   .sect   ".text:osal_msec_timer_cback"
     578                            .clink
     579                            .thumbfunc osal_msec_timer_cback
     580 00000000                   .thumb
     581                    
     582                    $C$DW$53        .dwtag  DW_TAG_subprogram
     583                            .dwattr $C$DW$53, DW_AT_name("osal_msec_timer_cback")
     584                            .dwattr $C$DW$53, DW_AT_low_pc(osal_msec_timer_cback)
     585                            .dwattr $C$DW$53, DW_AT_high_pc(0x00)
     586                            .dwattr $C$DW$53, DW_AT_TI_symbol_name("osal_msec_timer_cback")
     587                            .dwattr $C$DW$53, DW_AT_TI_begin_file("../Application/MAC/OSAL/osal.c")
     588                            .dwattr $C$DW$53, DW_AT_TI_begin_line(0x611)
     589                            .dwattr $C$DW$53, DW_AT_TI_begin_column(0x0d)
     590                            .dwattr $C$DW$53, DW_AT_decl_file("../Application/MAC/OSAL/osal.c")
     591                            .dwattr $C$DW$53, DW_AT_decl_line(0x611)
     592                            .dwattr $C$DW$53, DW_AT_decl_column(0x0d)
     593                            .dwattr $C$DW$53, DW_AT_TI_max_frame_size(0x10)
     594                            .dwpsn  file "../Application/MAC/OSAL/osal.c",line 1554,column 1,is_stmt,address osal_msec_tim
     595                    
     596                            .dwfde $C$DW$CIE, osal_msec_timer_cback
     597                    $C$DW$54        .dwtag  DW_TAG_formal_parameter
     598                            .dwattr $C$DW$54, DW_AT_name("arg")
     599                            .dwattr $C$DW$54, DW_AT_TI_symbol_name("arg")
     600                            .dwattr $C$DW$54, DW_AT_type(*$C$DW$T$3)
     601                            .dwattr $C$DW$54, DW_AT_location[DW_OP_reg0]
     602                    
     603                    
     604                    ;*****************************************************************************
     605                    ;* FUNCTION NAME: osal_msec_timer_cback                                      *
TI ARM Assembler PC v16.9.9 Sun Nov 25 16:40:48 2018

Tools Copyright (c) 1996-2017 Texas Instruments Incorporated
C:\Users\Stryd\AppData\Local\Temp\{8719FFD6-004A-4401-8DC3-4DA83C6CF1D8} PAGE   12

     606                    ;*                                                                           *
     607                    ;*   Regs Modified     : A1,A2,A3,A4,V1,V2,V9,SP,LR,SR                       *
     608                    ;*   Regs Used         : A1,A2,A3,A4,V1,V2,V9,SP,LR,SR                       *
     609                    ;*   Local Frame Size  : 0 Args + 0 Auto + 12 Save = 12 byte                 *
     610                    ;*****************************************************************************
     611                    osal_msec_timer_cback:
     612                    ;* --------------------------------------------------------------------------*
     613                    ;* A1    assigned to $O$C1
     614                    ;* A1    assigned to $O$K8
     615                    ;* V1    assigned to arg
     616                    $C$DW$55        .dwtag  DW_TAG_variable
     617                            .dwattr $C$DW$55, DW_AT_name("arg")
     618                            .dwattr $C$DW$55, DW_AT_TI_symbol_name("arg")
     619                            .dwattr $C$DW$55, DW_AT_type(*$C$DW$T$212)
     620                            .dwattr $C$DW$55, DW_AT_location[DW_OP_reg4]
     621                    
     622                    ;* V2    assigned to intState
     623                    $C$DW$56        .dwtag  DW_TAG_variable
     624                            .dwattr $C$DW$56, DW_AT_name("intState")
     625                            .dwattr $C$DW$56, DW_AT_TI_symbol_name("intState")
     626                            .dwattr $C$DW$56, DW_AT_type(*$C$DW$T$372)
     627                            .dwattr $C$DW$56, DW_AT_location[DW_OP_reg5]
     628                    
     629                            .dwcfi  cfa_offset, 0
     630 00000000 B538              PUSH      {A4, V1, V2, LR}      ; [DPU_3_PIPE]  ; [ORIG 16-BIT INS]
     631                            .dwcfi  cfa_offset, 16
     632                            .dwcfi  save_reg_to_mem, 14, -4
     633                            .dwcfi  save_reg_to_mem, 5, -8
     634                            .dwcfi  save_reg_to_mem, 4, -12
     635                            .dwcfi  save_reg_to_mem, 3, -16
     636 00000002 4604              MOV       V1, A1                ; [DPU_3_PIPE] |1554|  ; [ORIG 16-BIT INS]
     637                            .dwpsn  file "../Application/MAC/OSAL/osal.c",line 1558,column 3,is_stmt,isa 1
     638 00000004 4807              LDR       A1, $C$CON2           ; [DPU_3_PIPE] |1558|  ; [ORIG 16-BIT INS]
     639 00000006 6800              LDR       A1, [A1, #0]          ; [DPU_3_PIPE] |1558|  ; [ORIG 16-BIT INS]
     640                    $C$DW$57        .dwtag  DW_TAG_TI_branch
     641                            .dwattr $C$DW$57, DW_AT_low_pc(0x00)
     642                            .dwattr $C$DW$57, DW_AT_TI_call
     643                            .dwattr $C$DW$57, DW_AT_TI_indirect
     644                    
     645 00000008 4780              BLX       A1                    ; [DPU_3_PIPE] |1558|  ; [ORIG 16-BIT INS]
     646                            ; CALL OCCURS {}                 ; [] |1558| 
     647 0000000a 4605              MOV       V2, A1                ; [DPU_3_PIPE] |1558|  ; [ORIG 16-BIT INS]
     648                            .dwpsn  file "../Application/MAC/OSAL/osal.c",line 1559,column 3,is_stmt,isa 1
     649 0000000c 4806              LDR       A1, $C$CON3           ; [DPU_3_PIPE] |1559|  ; [ORIG 16-BIT INS]
     650 0000000e 6A41              LDR       A2, [A1, #36]         ; [DPU_3_PIPE] |1559|  ; [ORIG 16-BIT INS]
     651 00000010 42A1              CMP       A2, V1                ; [DPU_3_PIPE] |1559|  ; [ORIG 16-BIT INS]
     652 00000012 D102              BNE       ||$C$L1||             ; [DPU_3_PIPE] |1559|  ; [ORIG 16-BIT INS]
     653                            ; BRANCHCC OCCURS {||$C$L1||}    ; [] |1559| 
     654                    ;* --------------------------------------------------------------------------*
     655                            .dwpsn  file "../Application/MAC/OSAL/osal.c",line 1564,column 5,is_stmt,isa 1
     656 00000014 6900              LDR       A1, [A1, #16]         ; [DPU_3_PIPE] |1564|  ; [ORIG 16-BIT INS]
     657                    $C$DW$58        .dwtag  DW_TAG_TI_branch
     658                            .dwattr $C$DW$58, DW_AT_low_pc(0x00)
     659                            .dwattr $C$DW$58, DW_AT_name("ICall_signal")
     660                            .dwattr $C$DW$58, DW_AT_TI_call
TI ARM Assembler PC v16.9.9 Sun Nov 25 16:40:48 2018

Tools Copyright (c) 1996-2017 Texas Instruments Incorporated
C:\Users\Stryd\AppData\Local\Temp\{8719FFD6-004A-4401-8DC3-4DA83C6CF1D8} PAGE   13

     661                    
     662 00000016 FFFEF7FF!         BL        ICall_signal          ; [DPU_3_PIPE] |1564|  ; [KEEP 32-BIT INS]
     663                            ; CALL OCCURS {ICall_signal }    ; [] |1564| 
     664                    ;* --------------------------------------------------------------------------*
     665 0000001a           ||$C$L1||:    
     666                            .dwpsn  file "../Application/MAC/OSAL/osal.c",line 1567,column 3,is_stmt,isa 1
     667 0000001a 4804              LDR       A1, $C$CON4           ; [DPU_3_PIPE] |1567|  ; [ORIG 16-BIT INS]
     668 0000001c 6801              LDR       A2, [A1, #0]          ; [DPU_3_PIPE] |1567|  ; [ORIG 16-BIT INS]
     669 0000001e 4628              MOV       A1, V2                ; [DPU_3_PIPE] |1567|  ; [ORIG 16-BIT INS]
     670                    $C$DW$59        .dwtag  DW_TAG_TI_branch
     671                            .dwattr $C$DW$59, DW_AT_low_pc(0x00)
     672                            .dwattr $C$DW$59, DW_AT_TI_call
     673                            .dwattr $C$DW$59, DW_AT_TI_indirect
     674                    
     675 00000020 4788              BLX       A2                    ; [DPU_3_PIPE] |1567|  ; [ORIG 16-BIT INS]
     676                            ; CALL OCCURS {}                 ; [] |1567| 
     677                    $C$DW$60        .dwtag  DW_TAG_TI_branch
     678                            .dwattr $C$DW$60, DW_AT_low_pc(0x00)
     679                            .dwattr $C$DW$60, DW_AT_TI_return
     680                    
     681 00000022 BD38              POP       {A4, V1, V2, PC}      ; [DPU_3_PIPE]  ; [ORIG 16-BIT INS]
     682                            .dwcfi  cfa_offset, 0
     683                            .dwcfi  restore_reg, 5
     684                            .dwcfi  restore_reg, 4
     685                            .dwcfi  restore_reg, 3
     686                            ; BRANCH OCCURS                  ; [] 
     687                            .dwattr $C$DW$53, DW_AT_TI_end_file("../Application/MAC/OSAL/osal.c")
     688                            .dwattr $C$DW$53, DW_AT_TI_end_line(0x620)
     689                            .dwattr $C$DW$53, DW_AT_TI_end_column(0x01)
     690                            .dwendentry
     691                            .dwendtag $C$DW$53
     692                    
     693                    ;**     Parameter deleted: id == &osal_timerid_msec_timer;
     694                    ;**     Parameter deleted: cback == &osal_msec_timer_cback;
     695                    ;**     Parameter deleted: ticks == 1u;
     696 00000000                   .sect   ".text:ICall_setTimer"
     697                            .clink
     698                            .thumbfunc ICall_setTimer
     699 00000000                   .thumb
     700                    
     701                    $C$DW$61        .dwtag  DW_TAG_subprogram
     702                            .dwattr $C$DW$61, DW_AT_name("ICall_setTimer")
     703                            .dwattr $C$DW$61, DW_AT_low_pc(ICall_setTimer)
     704                            .dwattr $C$DW$61, DW_AT_high_pc(0x00)
     705                            .dwattr $C$DW$61, DW_AT_TI_symbol_name("ICall_setTimer")
     706                            .dwattr $C$DW$61, DW_AT_type(*$C$DW$T$109)
     707                            .dwattr $C$DW$61, DW_AT_TI_begin_file("C:/ti/simplelink_cc13x0_sdk_2_30_00_20/source/ti/ti154s
     708                            .dwattr $C$DW$61, DW_AT_TI_begin_line(0x916)
     709                            .dwattr $C$DW$61, DW_AT_TI_begin_column(0x01)
     710                            .dwattr $C$DW$61, DW_AT_decl_file("C:/ti/simplelink_cc13x0_sdk_2_30_00_20/source/ti/ti154stack
     711                            .dwattr $C$DW$61, DW_AT_decl_line(0x916)
     712                            .dwattr $C$DW$61, DW_AT_decl_column(0x01)
     713                            .dwattr $C$DW$61, DW_AT_TI_max_frame_size(0x20)
     714                            .dwpsn  file "C:/ti/simplelink_cc13x0_sdk_2_30_00_20/source/ti/ti154stack/icall/src/inc/icall.
     715                    
TI ARM Assembler PC v16.9.9 Sun Nov 25 16:40:48 2018

Tools Copyright (c) 1996-2017 Texas Instruments Incorporated
C:\Users\Stryd\AppData\Local\Temp\{8719FFD6-004A-4401-8DC3-4DA83C6CF1D8} PAGE   14

     716                            .dwfde $C$DW$CIE, ICall_setTimer
     717                    $C$DW$62        .dwtag  DW_TAG_formal_parameter
     718                            .dwattr $C$DW$62, DW_AT_name("arg")
     719                            .dwattr $C$DW$62, DW_AT_TI_symbol_name("arg")
     720                            .dwattr $C$DW$62, DW_AT_type(*$C$DW$T$3)
     721                            .dwattr $C$DW$62, DW_AT_location[DW_OP_reg0]
     722                    
     723                    
     724                    ;*****************************************************************************
     725                    ;* FUNCTION NAME: ICall_setTimer                                             *
     726                    ;*                                                                           *
     727                    ;*   Regs Modified     : A1,A2,A3,A4,V1,V9,SP,LR,SR                          *
     728                    ;*   Regs Used         : A1,A2,A3,A4,V1,V9,SP,LR,SR                          *
     729                    ;*   Local Frame Size  : 0 Args + 20 Auto + 8 Save = 28 byte                 *
     730                    ;*****************************************************************************
     731                    ICall_setTimer:
     732                    ;* --------------------------------------------------------------------------*
     733                    $C$DW$63        .dwtag  DW_TAG_variable
     734                            .dwattr $C$DW$63, DW_AT_name("args")
     735                            .dwattr $C$DW$63, DW_AT_TI_symbol_name("args")
     736                            .dwattr $C$DW$63, DW_AT_type(*$C$DW$T$421)
     737                            .dwattr $C$DW$63, DW_AT_location[DW_OP_breg13 0]
     738                    
     739                    ;* V1    assigned to $O$C16
     740                    ;* A1    assigned to arg
     741                    $C$DW$64        .dwtag  DW_TAG_variable
     742                            .dwattr $C$DW$64, DW_AT_name("arg")
     743                            .dwattr $C$DW$64, DW_AT_TI_symbol_name("arg")
     744                            .dwattr $C$DW$64, DW_AT_type(*$C$DW$T$212)
     745                            .dwattr $C$DW$64, DW_AT_location[DW_OP_reg0]
     746                    
     747                            .dwcfi  cfa_offset, 0
     748 00000000 B510              PUSH      {V1, LR}              ; [DPU_3_PIPE]  ; [ORIG 16-BIT INS]
     749                            .dwcfi  cfa_offset, 8
     750                            .dwcfi  save_reg_to_mem, 14, -4
     751                            .dwcfi  save_reg_to_mem, 4, -8
     752                            .dwpsn  file "C:/ti/simplelink_cc13x0_sdk_2_30_00_20/source/ti/ti154stack/icall/src/inc/icall.
     753 00000002 2108              MOVS      A2, #8                ; [DPU_3_PIPE] |2333|  ; [ORIG 16-BIT INS]
     754 00000004 0D18F1AD          SUB       SP, SP, #24           ; [DPU_3_PIPE]  ; [KEEP 32-BIT INS]
     755                            .dwcfi  cfa_offset, 32
     756 00000008 1000F8AD          STRH      A2, [SP, #0]          ; [DPU_3_PIPE] |2333|  ; [KEEP 32-BIT INS]
     757                            .dwpsn  file "C:/ti/simplelink_cc13x0_sdk_2_30_00_20/source/ti/ti154stack/icall/src/inc/icall.
     758 0000000c 4C0A              LDR       V1, $C$CON8           ; [DPU_3_PIPE] |2338|  ; [ORIG 16-BIT INS]
     759                            .dwpsn  file "C:/ti/simplelink_cc13x0_sdk_2_30_00_20/source/ti/ti154stack/icall/src/inc/icall.
     760 0000000e 9004              STR       A1, [SP, #16]         ; [DPU_3_PIPE] |2337|  ; [ORIG 16-BIT INS]
     761                            .dwpsn  file "C:/ti/simplelink_cc13x0_sdk_2_30_00_20/source/ti/ti154stack/icall/src/inc/icall.
     762 00000010 211B              MOVS      A2, #27               ; [DPU_3_PIPE] |2334|  ; [ORIG 16-BIT INS]
     763 00000012 1002F8AD          STRH      A2, [SP, #2]          ; [DPU_3_PIPE] |2334|  ; [KEEP 32-BIT INS]
     764                            .dwpsn  file "C:/ti/simplelink_cc13x0_sdk_2_30_00_20/source/ti/ti154stack/icall/src/inc/icall.
     765 00000016 6A20              LDR       A1, [V1, #32]         ; [DPU_3_PIPE] |2338|  ; [ORIG 16-BIT INS]
     766 00000018 9002              STR       A1, [SP, #8]          ; [DPU_3_PIPE] |2338|  ; [ORIG 16-BIT INS]
     767                            .dwpsn  file "C:/ti/simplelink_cc13x0_sdk_2_30_00_20/source/ti/ti154stack/icall/src/inc/icall.
     768 0000001a 2101              MOVS      A2, #1                ; [DPU_3_PIPE] |2335|  ; [ORIG 16-BIT INS]
     769 0000001c 9101              STR       A2, [SP, #4]          ; [DPU_3_PIPE] |2335|  ; [ORIG 16-BIT INS]
     770                            .dwpsn  file "C:/ti/simplelink_cc13x0_sdk_2_30_00_20/source/ti/ti154stack/icall/src/inc/icall.
TI ARM Assembler PC v16.9.9 Sun Nov 25 16:40:48 2018

Tools Copyright (c) 1996-2017 Texas Instruments Incorporated
C:\Users\Stryd\AppData\Local\Temp\{8719FFD6-004A-4401-8DC3-4DA83C6CF1D8} PAGE   15

     771 0000001e 4905              LDR       A2, $C$CON5           ; [DPU_3_PIPE] |2336|  ; [ORIG 16-BIT INS]
     772                            .dwpsn  file "C:/ti/simplelink_cc13x0_sdk_2_30_00_20/source/ti/ti154stack/icall/src/inc/icall.
     773 00000020 4806              LDR       A1, $C$CON9           ; [DPU_3_PIPE] |2339|  ; [ORIG 16-BIT INS]
     774                            .dwpsn  file "C:/ti/simplelink_cc13x0_sdk_2_30_00_20/source/ti/ti154stack/icall/src/inc/icall.
     775 00000022 9103              STR       A2, [SP, #12]         ; [DPU_3_PIPE] |2336|  ; [ORIG 16-BIT INS]
     776                            .dwpsn  file "C:/ti/simplelink_cc13x0_sdk_2_30_00_20/source/ti/ti154stack/icall/src/inc/icall.
     777 00000024 6801              LDR       A2, [A1, #0]          ; [DPU_3_PIPE] |2339|  ; [ORIG 16-BIT INS]
     778 00000026 4668              MOV       A1, SP                ; [DPU_3_PIPE] |2339|  ; [ORIG 16-BIT INS]
     779                    $C$DW$65        .dwtag  DW_TAG_TI_branch
     780                            .dwattr $C$DW$65, DW_AT_low_pc(0x00)
     781                            .dwattr $C$DW$65, DW_AT_TI_call
     782                            .dwattr $C$DW$65, DW_AT_TI_indirect
     783                    
     784 00000028 4788              BLX       A2                    ; [DPU_3_PIPE] |2339|  ; [ORIG 16-BIT INS]
     785                            ; CALL OCCURS {}                 ; [] |2339| 
     786                            .dwpsn  file "C:/ti/simplelink_cc13x0_sdk_2_30_00_20/source/ti/ti154stack/icall/src/inc/icall.
     787 0000002a 9902              LDR       A2, [SP, #8]          ; [DPU_3_PIPE] |2340|  ; [ORIG 16-BIT INS]
     788 0000002c 6221              STR       A2, [V1, #32]         ; [DPU_3_PIPE] |2340|  ; [ORIG 16-BIT INS]
     789 0000002e B006              ADD       SP, SP, #24           ; [DPU_3_PIPE]  ; [ORIG 16-BIT INS]
     790                            .dwcfi  cfa_offset, 8
     791                    $C$DW$66        .dwtag  DW_TAG_TI_branch
     792                            .dwattr $C$DW$66, DW_AT_low_pc(0x00)
     793                            .dwattr $C$DW$66, DW_AT_TI_return
     794                    
     795 00000030 BD10              POP       {V1, PC}              ; [DPU_3_PIPE]  ; [ORIG 16-BIT INS]
     796                            .dwcfi  cfa_offset, 0
     797                            .dwcfi  restore_reg, 4
     798                            ; BRANCH OCCURS                  ; [] 
     799                            .dwattr $C$DW$61, DW_AT_TI_end_file("C:/ti/simplelink_cc13x0_sdk_2_30_00_20/source/ti/ti154sta
     800                            .dwattr $C$DW$61, DW_AT_TI_end_line(0x927)
     801                            .dwattr $C$DW$61, DW_AT_TI_end_column(0x01)
     802                            .dwendentry
     803                            .dwendtag $C$DW$61
     804                    
     805 00000000                   .sect   ".text:ICall_abort"
     806                            .clink
     807                            .thumbfunc ICall_abort
     808 00000000                   .thumb
     809                    
     810                    $C$DW$67        .dwtag  DW_TAG_subprogram
     811                            .dwattr $C$DW$67, DW_AT_name("ICall_abort")
     812                            .dwattr $C$DW$67, DW_AT_low_pc(ICall_abort)
     813                            .dwattr $C$DW$67, DW_AT_high_pc(0x00)
     814                            .dwattr $C$DW$67, DW_AT_TI_symbol_name("ICall_abort")
     815                            .dwattr $C$DW$67, DW_AT_type(*$C$DW$T$109)
     816                            .dwattr $C$DW$67, DW_AT_TI_begin_file("C:/ti/simplelink_cc13x0_sdk_2_30_00_20/source/ti/ti154s
     817                            .dwattr $C$DW$67, DW_AT_TI_begin_line(0x846)
     818                            .dwattr $C$DW$67, DW_AT_TI_begin_column(0x01)
     819                            .dwattr $C$DW$67, DW_AT_decl_file("C:/ti/simplelink_cc13x0_sdk_2_30_00_20/source/ti/ti154stack
     820                            .dwattr $C$DW$67, DW_AT_decl_line(0x846)
     821                            .dwattr $C$DW$67, DW_AT_decl_column(0x01)
     822                            .dwattr $C$DW$67, DW_AT_TI_max_frame_size(0x08)
     823                            .dwpsn  file "C:/ti/simplelink_cc13x0_sdk_2_30_00_20/source/ti/ti154stack/icall/src/inc/icall.
     824                    
     825                            .dwfde $C$DW$CIE, ICall_abort
TI ARM Assembler PC v16.9.9 Sun Nov 25 16:40:48 2018

Tools Copyright (c) 1996-2017 Texas Instruments Incorporated
C:\Users\Stryd\AppData\Local\Temp\{8719FFD6-004A-4401-8DC3-4DA83C6CF1D8} PAGE   16

     826                    
     827                    ;*****************************************************************************
     828                    ;* FUNCTION NAME: ICall_abort                                                *
     829                    ;*                                                                           *
     830                    ;*   Regs Modified     : A1,A2,A3,A4,V9,SP,LR,SR                             *
     831                    ;*   Regs Used         : A1,A2,A3,A4,V9,SP,LR,SR                             *
     832                    ;*   Local Frame Size  : 0 Args + 4 Auto + 4 Save = 8 byte                   *
     833                    ;*****************************************************************************
     834                    ICall_abort:
     835                    ;* --------------------------------------------------------------------------*
     836                    $C$DW$68        .dwtag  DW_TAG_variable
     837                            .dwattr $C$DW$68, DW_AT_name("args")
     838                            .dwattr $C$DW$68, DW_AT_TI_symbol_name("args")
     839                            .dwattr $C$DW$68, DW_AT_type(*$C$DW$T$101)
     840                            .dwattr $C$DW$68, DW_AT_location[DW_OP_breg13 0]
     841                    
     842                            .dwcfi  cfa_offset, 0
     843 00000000 B508              PUSH      {A4, LR}              ; [DPU_3_PIPE]  ; [ORIG 16-BIT INS]
     844                            .dwcfi  cfa_offset, 8
     845                            .dwcfi  save_reg_to_mem, 14, -4
     846                            .dwcfi  save_reg_to_mem, 3, -8
     847                            .dwpsn  file "C:/ti/simplelink_cc13x0_sdk_2_30_00_20/source/ti/ti154stack/icall/src/inc/icall.
     848 00000002 2008              MOVS      A1, #8                ; [DPU_3_PIPE] |2123|  ; [ORIG 16-BIT INS]
     849 00000004 0000F8AD          STRH      A1, [SP, #0]          ; [DPU_3_PIPE] |2123|  ; [KEEP 32-BIT INS]
     850                            .dwpsn  file "C:/ti/simplelink_cc13x0_sdk_2_30_00_20/source/ti/ti154stack/icall/src/inc/icall.
     851 00000008 200C              MOVS      A1, #12               ; [DPU_3_PIPE] |2124|  ; [ORIG 16-BIT INS]
     852 0000000a 0002F8AD          STRH      A1, [SP, #2]          ; [DPU_3_PIPE] |2124|  ; [KEEP 32-BIT INS]
     853                            .dwpsn  file "C:/ti/simplelink_cc13x0_sdk_2_30_00_20/source/ti/ti154stack/icall/src/inc/icall.
     854 0000000e 4802              LDR       A1, $C$CON11          ; [DPU_3_PIPE] |2125|  ; [ORIG 16-BIT INS]
     855 00000010 6801              LDR       A2, [A1, #0]          ; [DPU_3_PIPE] |2125|  ; [ORIG 16-BIT INS]
     856 00000012 4668              MOV       A1, SP                ; [DPU_3_PIPE] |2125|  ; [ORIG 16-BIT INS]
     857                    $C$DW$69        .dwtag  DW_TAG_TI_branch
     858                            .dwattr $C$DW$69, DW_AT_low_pc(0x00)
     859                            .dwattr $C$DW$69, DW_AT_TI_call
     860                            .dwattr $C$DW$69, DW_AT_TI_indirect
     861                    
     862 00000014 4788              BLX       A2                    ; [DPU_3_PIPE] |2125|  ; [ORIG 16-BIT INS]
     863                            ; CALL OCCURS {}                 ; [] |2125| 
     864                    $C$DW$70        .dwtag  DW_TAG_TI_branch
     865                            .dwattr $C$DW$70, DW_AT_low_pc(0x00)
     866                            .dwattr $C$DW$70, DW_AT_TI_return
     867                    
     868 00000016 BD08              POP       {A4, PC}              ; [DPU_3_PIPE]  ; [ORIG 16-BIT INS]
     869                            .dwcfi  cfa_offset, 0
     870                            .dwcfi  restore_reg, 3
     871                            ; BRANCH OCCURS                  ; [] 
     872                            .dwattr $C$DW$67, DW_AT_TI_end_file("C:/ti/simplelink_cc13x0_sdk_2_30_00_20/source/ti/ti154sta
     873                            .dwattr $C$DW$67, DW_AT_TI_end_line(0x84e)
     874                            .dwattr $C$DW$67, DW_AT_TI_end_column(0x01)
     875                            .dwendentry
     876                            .dwendtag $C$DW$67
     877                    
     878 00000000                   .sect   ".text:ICall_getTicks"
     879                            .clink
     880                            .thumbfunc ICall_getTicks
TI ARM Assembler PC v16.9.9 Sun Nov 25 16:40:48 2018

Tools Copyright (c) 1996-2017 Texas Instruments Incorporated
C:\Users\Stryd\AppData\Local\Temp\{8719FFD6-004A-4401-8DC3-4DA83C6CF1D8} PAGE   17

     881 00000000                   .thumb
     882                    
     883                    $C$DW$71        .dwtag  DW_TAG_subprogram
     884                            .dwattr $C$DW$71, DW_AT_name("ICall_getTicks")
     885                            .dwattr $C$DW$71, DW_AT_low_pc(ICall_getTicks)
     886                            .dwattr $C$DW$71, DW_AT_high_pc(0x00)
     887                            .dwattr $C$DW$71, DW_AT_TI_symbol_name("ICall_getTicks")
     888                            .dwattr $C$DW$71, DW_AT_type(*$C$DW$T$128)
     889                            .dwattr $C$DW$71, DW_AT_TI_begin_file("C:/ti/simplelink_cc13x0_sdk_2_30_00_20/source/ti/ti154s
     890                            .dwattr $C$DW$71, DW_AT_TI_begin_line(0x8ac)
     891                            .dwattr $C$DW$71, DW_AT_TI_begin_column(0x01)
     892                            .dwattr $C$DW$71, DW_AT_decl_file("C:/ti/simplelink_cc13x0_sdk_2_30_00_20/source/ti/ti154stack
     893                            .dwattr $C$DW$71, DW_AT_decl_line(0x8ac)
     894                            .dwattr $C$DW$71, DW_AT_decl_column(0x01)
     895                            .dwattr $C$DW$71, DW_AT_TI_max_frame_size(0x10)
     896                            .dwpsn  file "C:/ti/simplelink_cc13x0_sdk_2_30_00_20/source/ti/ti154stack/icall/src/inc/icall.
     897                    
     898                            .dwfde $C$DW$CIE, ICall_getTicks
     899                    
     900                    ;*****************************************************************************
     901                    ;* FUNCTION NAME: ICall_getTicks                                             *
     902                    ;*                                                                           *
     903                    ;*   Regs Modified     : A1,A2,A3,A4,V9,SP,LR,SR                             *
     904                    ;*   Regs Used         : A1,A2,A3,A4,V9,SP,LR,SR                             *
     905                    ;*   Local Frame Size  : 0 Args + 8 Auto + 4 Save = 12 byte                  *
     906                    ;*****************************************************************************
     907                    ICall_getTicks:
     908                    ;* --------------------------------------------------------------------------*
     909                    $C$DW$72        .dwtag  DW_TAG_variable
     910                            .dwattr $C$DW$72, DW_AT_name("args")
     911                            .dwattr $C$DW$72, DW_AT_TI_symbol_name("args")
     912                            .dwattr $C$DW$72, DW_AT_type(*$C$DW$T$405)
     913                            .dwattr $C$DW$72, DW_AT_location[DW_OP_breg13 0]
     914                    
     915                            .dwcfi  cfa_offset, 0
     916 00000000 B50E              PUSH      {A2, A3, A4, LR}      ; [DPU_3_PIPE]  ; [ORIG 16-BIT INS]
     917                            .dwcfi  cfa_offset, 16
     918                            .dwcfi  save_reg_to_mem, 14, -4
     919                            .dwcfi  save_reg_to_mem, 3, -8
     920                            .dwcfi  save_reg_to_mem, 2, -12
     921                            .dwcfi  save_reg_to_mem, 1, -16
     922                            .dwpsn  file "C:/ti/simplelink_cc13x0_sdk_2_30_00_20/source/ti/ti154stack/icall/src/inc/icall.
     923 00000002 2008              MOVS      A1, #8                ; [DPU_3_PIPE] |2223|  ; [ORIG 16-BIT INS]
     924 00000004 0000F8AD          STRH      A1, [SP, #0]          ; [DPU_3_PIPE] |2223|  ; [KEEP 32-BIT INS]
     925                            .dwpsn  file "C:/ti/simplelink_cc13x0_sdk_2_30_00_20/source/ti/ti154stack/icall/src/inc/icall.
     926 00000008 2012              MOVS      A1, #18               ; [DPU_3_PIPE] |2224|  ; [ORIG 16-BIT INS]
     927 0000000a 0002F8AD          STRH      A1, [SP, #2]          ; [DPU_3_PIPE] |2224|  ; [KEEP 32-BIT INS]
     928                            .dwpsn  file "C:/ti/simplelink_cc13x0_sdk_2_30_00_20/source/ti/ti154stack/icall/src/inc/icall.
     929 0000000e 4803              LDR       A1, $C$CON13          ; [DPU_3_PIPE] |2225|  ; [ORIG 16-BIT INS]
     930 00000010 6801              LDR       A2, [A1, #0]          ; [DPU_3_PIPE] |2225|  ; [ORIG 16-BIT INS]
     931 00000012 4668              MOV       A1, SP                ; [DPU_3_PIPE] |2225|  ; [ORIG 16-BIT INS]
     932                    $C$DW$73        .dwtag  DW_TAG_TI_branch
     933                            .dwattr $C$DW$73, DW_AT_low_pc(0x00)
     934                            .dwattr $C$DW$73, DW_AT_TI_call
     935                            .dwattr $C$DW$73, DW_AT_TI_indirect
TI ARM Assembler PC v16.9.9 Sun Nov 25 16:40:48 2018

Tools Copyright (c) 1996-2017 Texas Instruments Incorporated
C:\Users\Stryd\AppData\Local\Temp\{8719FFD6-004A-4401-8DC3-4DA83C6CF1D8} PAGE   18

     936                    
     937 00000014 4788              BLX       A2                    ; [DPU_3_PIPE] |2225|  ; [ORIG 16-BIT INS]
     938                            ; CALL OCCURS {}                 ; [] |2225| 
     939                            .dwpsn  file "C:/ti/simplelink_cc13x0_sdk_2_30_00_20/source/ti/ti154stack/icall/src/inc/icall.
     940 00000016 9801              LDR       A1, [SP, #4]          ; [DPU_3_PIPE] |2226|  ; [ORIG 16-BIT INS]
     941                    $C$DW$74        .dwtag  DW_TAG_TI_branch
     942                            .dwattr $C$DW$74, DW_AT_low_pc(0x00)
     943                            .dwattr $C$DW$74, DW_AT_TI_return
     944                    
     945 00000018 BD0E              POP       {A2, A3, A4, PC}      ; [DPU_3_PIPE]  ; [ORIG 16-BIT INS]
     946                            .dwcfi  cfa_offset, 0
     947                            .dwcfi  restore_reg, 3
     948                            .dwcfi  restore_reg, 2
     949                            .dwcfi  restore_reg, 1
     950                            ; BRANCH OCCURS                  ; [] 
     951                            .dwattr $C$DW$71, DW_AT_TI_end_file("C:/ti/simplelink_cc13x0_sdk_2_30_00_20/source/ti/ti154sta
     952                            .dwattr $C$DW$71, DW_AT_TI_end_line(0x8b3)
     953                            .dwattr $C$DW$71, DW_AT_TI_end_column(0x01)
     954                            .dwendentry
     955                            .dwendtag $C$DW$71
     956                    
     957 00000000                   .sect   ".text:osal_alien2proxy"
     958                            .clink
     959                            .thumbfunc osal_alien2proxy
     960 00000000                   .thumb
     961                            .global osal_alien2proxy
     962                    
     963                    $C$DW$75        .dwtag  DW_TAG_subprogram
     964                            .dwattr $C$DW$75, DW_AT_name("osal_alien2proxy")
     965                            .dwattr $C$DW$75, DW_AT_low_pc(osal_alien2proxy)
     966                            .dwattr $C$DW$75, DW_AT_high_pc(0x00)
     967                            .dwattr $C$DW$75, DW_AT_TI_symbol_name("osal_alien2proxy")
     968                            .dwattr $C$DW$75, DW_AT_external
     969                            .dwattr $C$DW$75, DW_AT_type(*$C$DW$T$19)
     970                            .dwattr $C$DW$75, DW_AT_TI_begin_file("../Application/MAC/OSAL/osal.c")
     971                            .dwattr $C$DW$75, DW_AT_TI_begin_line(0x5bd)
     972                            .dwattr $C$DW$75, DW_AT_TI_begin_column(0x07)
     973                            .dwattr $C$DW$75, DW_AT_decl_file("../Application/MAC/OSAL/osal.c")
     974                            .dwattr $C$DW$75, DW_AT_decl_line(0x5bd)
     975                            .dwattr $C$DW$75, DW_AT_decl_column(0x07)
     976                            .dwattr $C$DW$75, DW_AT_TI_max_frame_size(0x08)
     977                            .dwpsn  file "../Application/MAC/OSAL/osal.c",line 1473,column 1,is_stmt,address osal_alien2pr
     978                    
     979                            .dwfde $C$DW$CIE, osal_alien2proxy
     980                    $C$DW$76        .dwtag  DW_TAG_formal_parameter
     981                            .dwattr $C$DW$76, DW_AT_name("origid")
     982                            .dwattr $C$DW$76, DW_AT_TI_symbol_name("origid")
     983                            .dwattr $C$DW$76, DW_AT_type(*$C$DW$T$10)
     984                            .dwattr $C$DW$76, DW_AT_location[DW_OP_reg0]
     985                    
     986                    
     987                    ;*****************************************************************************
     988                    ;* FUNCTION NAME: osal_alien2proxy                                           *
     989                    ;*                                                                           *
     990                    ;*   Regs Modified     : A1,A2,A3,A4,V9,SP,LR,SR                             *
TI ARM Assembler PC v16.9.9 Sun Nov 25 16:40:48 2018

Tools Copyright (c) 1996-2017 Texas Instruments Incorporated
C:\Users\Stryd\AppData\Local\Temp\{8719FFD6-004A-4401-8DC3-4DA83C6CF1D8} PAGE   19

     991                    ;*   Regs Used         : A1,A2,A3,A4,V9,SP,LR,SR                             *
     992                    ;*   Local Frame Size  : 0 Args + 0 Auto + 4 Save = 4 byte                   *
     993                    ;*****************************************************************************
     994                    osal_alien2proxy:
     995                    ;* --------------------------------------------------------------------------*
     996                    ;* A3    assigned to $O$U9
     997                    ;* A4    assigned to $O$U10
     998                    ;* A1    assigned to origid
     999                    $C$DW$77        .dwtag  DW_TAG_variable
    1000                            .dwattr $C$DW$77, DW_AT_name("origid")
    1001                            .dwattr $C$DW$77, DW_AT_TI_symbol_name("origid")
    1002                            .dwattr $C$DW$77, DW_AT_type(*$C$DW$T$302)
    1003                            .dwattr $C$DW$77, DW_AT_location[DW_OP_reg0]
    1004                    
    1005                    ;* A2    assigned to i
    1006                    $C$DW$78        .dwtag  DW_TAG_variable
    1007                            .dwattr $C$DW$78, DW_AT_name("i")
    1008                            .dwattr $C$DW$78, DW_AT_TI_symbol_name("i")
    1009                            .dwattr $C$DW$78, DW_AT_type(*$C$DW$T$102)
    1010                            .dwattr $C$DW$78, DW_AT_location[DW_OP_reg1]
    1011                    
    1012                            .dwcfi  cfa_offset, 0
    1013 00000000 4A0A              LDR       A3, $C$CON15          ; [DPU_3_PIPE]  ; [ORIG 16-BIT INS]
    1014 00000002 B508              PUSH      {A4, LR}              ; [DPU_3_PIPE]  ; [ORIG 16-BIT INS]
    1015                            .dwcfi  cfa_offset, 8
    1016                            .dwcfi  save_reg_to_mem, 14, -4
    1017                            .dwcfi  save_reg_to_mem, 3, -8
    1018                            .dwpsn  file "../Application/MAC/OSAL/osal.c",line 1476,column 8,is_stmt,isa 1
    1019 00000004 2100              MOVS      A2, #0                ; [DPU_3_PIPE] |1476|  ; [ORIG 16-BIT INS]
    1020 00000006 1C52              ADDS      A3, A3, #1            ; [DPU_3_PIPE]  ; [ORIG 16-BIT INS]
    1021                    ;* --------------------------------------------------------------------------*
    1022                    ;*   BEGIN LOOP ||$C$L2||
    1023                    ;*
    1024                    ;*   Loop source line                : 1476
    1025                    ;*   Loop closing brace source line  : 1488
    1026                    ;*   Known Minimum Trip Count        : 1
    1027                    ;*   Known Maximum Trip Count        : 2
    1028                    ;*   Known Max Trip Count Factor     : 1
    1029                    ;* --------------------------------------------------------------------------*
    1030 00000008           ||$C$L2||:    
    1031                            .dwpsn  file "../Application/MAC/OSAL/osal.c",line 1478,column 5,is_stmt,isa 1
    1032 00000008 3F01F812          LDRB      A4, [A3, #1]!         ; [DPU_3_PIPE] |1478|  ; [KEEP 32-BIT INS]
    1033 0000000c 2BFF              CMP       A4, #255              ; [DPU_3_PIPE] |1478|  ; [ORIG 16-BIT INS]
    1034 0000000e D104              BNE       ||$C$L4||             ; [DPU_3_PIPE] |1478|  ; [ORIG 16-BIT INS]
    1035                            ; BRANCHCC OCCURS {||$C$L4||}    ; [] |1478| 
    1036                    ;* --------------------------------------------------------------------------*
    1037                            .dwcfi  remember_state
    1038                            .dwpsn  file "../Application/MAC/OSAL/osal.c",line 1481,column 7,is_stmt,isa 1
    1039 00000010 7010              STRB      A1, [A3, #0]          ; [DPU_3_PIPE] |1481|  ; [ORIG 16-BIT INS]
    1040                    ;* --------------------------------------------------------------------------*
    1041 00000012           ||$C$L3||:    
    1042                            .dwpsn  file "../Application/MAC/OSAL/osal.c",line 1482,column 7,is_stmt,isa 1
    1043 00000012 0180F041          ORR       A2, A2, #128          ; [DPU_3_PIPE] |1482|  ; [KEEP 32-BIT INS]
    1044 00000016 B2C8              UXTB      A1, A2                ; [DPU_3_PIPE] |1482|  ; [ORIG 16-BIT INS]
    1045                    $C$DW$79        .dwtag  DW_TAG_TI_branch
TI ARM Assembler PC v16.9.9 Sun Nov 25 16:40:48 2018

Tools Copyright (c) 1996-2017 Texas Instruments Incorporated
C:\Users\Stryd\AppData\Local\Temp\{8719FFD6-004A-4401-8DC3-4DA83C6CF1D8} PAGE   20

    1046                            .dwattr $C$DW$79, DW_AT_low_pc(0x00)
    1047                            .dwattr $C$DW$79, DW_AT_TI_return
    1048                    
    1049 00000018 BD08              POP       {A4, PC}              ; [DPU_3_PIPE]  ; [ORIG 16-BIT INS]
    1050                            .dwcfi  cfa_offset, 0
    1051                            .dwcfi  restore_reg, 3
    1052                            ; BRANCH OCCURS                  ; [] 
    1053                            .dwcfi  restore_state
    1054                    ;* --------------------------------------------------------------------------*
    1055 0000001a           ||$C$L4||:    
    1056                            .dwpsn  file "../Application/MAC/OSAL/osal.c",line 1484,column 10,is_stmt,isa 1
    1057 0000001a 4298              CMP       A1, A4                ; [DPU_3_PIPE] |1484|  ; [ORIG 16-BIT INS]
    1058 0000001c D0F9              BEQ       ||$C$L3||             ; [DPU_3_PIPE] |1484|  ; [ORIG 16-BIT INS]
    1059                            ; BRANCHCC OCCURS {||$C$L3||}    ; [] |1484| 
    1060                    ;* --------------------------------------------------------------------------*
    1061                            .dwpsn  file "../Application/MAC/OSAL/osal.c",line 1476,column 15,is_stmt,isa 1
    1062 0000001e 1C49              ADDS      A2, A2, #1            ; [DPU_3_PIPE] |1476|  ; [ORIG 16-BIT INS]
    1063 00000020 2902              CMP       A2, #2                ; [DPU_3_PIPE] |1476|  ; [ORIG 16-BIT INS]
    1064 00000022 D3F1              BCC       ||$C$L2||             ; [DPU_3_PIPE] |1476|  ; [ORIG 16-BIT INS]
    1065                            ; BRANCHCC OCCURS {||$C$L2||}    ; [] |1476| 
    1066                    ;* --------------------------------------------------------------------------*
    1067                            .dwpsn  file "../Application/MAC/OSAL/osal.c",line 1490,column 3,is_stmt,isa 1
    1068                    $C$DW$80        .dwtag  DW_TAG_TI_branch
    1069                            .dwattr $C$DW$80, DW_AT_low_pc(0x00)
    1070                            .dwattr $C$DW$80, DW_AT_name("ICall_abort")
    1071                            .dwattr $C$DW$80, DW_AT_TI_call
    1072                    
    1073 00000024 FFFEF7FF!         BL        ICall_abort           ; [DPU_3_PIPE] |1490|  ; [KEEP 32-BIT INS]
    1074                            ; CALL OCCURS {ICall_abort }     ; [] |1490| 
    1075                            .dwpsn  file "../Application/MAC/OSAL/osal.c",line 1491,column 3,is_stmt,isa 1
    1076 00000028 20FF              MOVS      A1, #255              ; [DPU_3_PIPE] |1491|  ; [ORIG 16-BIT INS]
    1077                    ;* --------------------------------------------------------------------------*
    1078                    $C$DW$81        .dwtag  DW_TAG_TI_branch
    1079                            .dwattr $C$DW$81, DW_AT_low_pc(0x00)
    1080                            .dwattr $C$DW$81, DW_AT_TI_return
    1081                    
    1082 0000002a BD08              POP       {A4, PC}              ; [DPU_3_PIPE]  ; [ORIG 16-BIT INS]
    1083                            .dwcfi  cfa_offset, 0
    1084                            .dwcfi  restore_reg, 3
    1085                            ; BRANCH OCCURS                  ; [] 
    1086                            .dwattr $C$DW$75, DW_AT_TI_end_file("../Application/MAC/OSAL/osal.c")
    1087                            .dwattr $C$DW$75, DW_AT_TI_end_line(0x5d4)
    1088                            .dwattr $C$DW$75, DW_AT_TI_end_column(0x01)
    1089                            .dwendentry
    1090                            .dwendtag $C$DW$75
    1091                    
    1092 00000000                   .sect   ".text:osal_msg_deallocate"
    1093                            .clink
    1094                            .thumbfunc osal_msg_deallocate
    1095 00000000                   .thumb
    1096                            .global osal_msg_deallocate
    1097                    
    1098                    $C$DW$82        .dwtag  DW_TAG_subprogram
    1099                            .dwattr $C$DW$82, DW_AT_name("osal_msg_deallocate")
    1100                            .dwattr $C$DW$82, DW_AT_low_pc(osal_msg_deallocate)
TI ARM Assembler PC v16.9.9 Sun Nov 25 16:40:48 2018

Tools Copyright (c) 1996-2017 Texas Instruments Incorporated
C:\Users\Stryd\AppData\Local\Temp\{8719FFD6-004A-4401-8DC3-4DA83C6CF1D8} PAGE   21

    1101                            .dwattr $C$DW$82, DW_AT_high_pc(0x00)
    1102                            .dwattr $C$DW$82, DW_AT_TI_symbol_name("osal_msg_deallocate")
    1103                            .dwattr $C$DW$82, DW_AT_external
    1104                            .dwattr $C$DW$82, DW_AT_type(*$C$DW$T$19)
    1105                            .dwattr $C$DW$82, DW_AT_TI_begin_file("../Application/MAC/OSAL/osal.c")
    1106                            .dwattr $C$DW$82, DW_AT_TI_begin_line(0x26b)
    1107                            .dwattr $C$DW$82, DW_AT_TI_begin_column(0x07)
    1108                            .dwattr $C$DW$82, DW_AT_decl_file("../Application/MAC/OSAL/osal.c")
    1109                            .dwattr $C$DW$82, DW_AT_decl_line(0x26b)
    1110                            .dwattr $C$DW$82, DW_AT_decl_column(0x07)
    1111                            .dwattr $C$DW$82, DW_AT_TI_max_frame_size(0x08)
    1112                            .dwpsn  file "../Application/MAC/OSAL/osal.c",line 620,column 1,is_stmt,address osal_msg_deall
    1113                    
    1114                            .dwfde $C$DW$CIE, osal_msg_deallocate
    1115                    $C$DW$83        .dwtag  DW_TAG_formal_parameter
    1116                            .dwattr $C$DW$83, DW_AT_name("msg_ptr")
    1117                            .dwattr $C$DW$83, DW_AT_TI_symbol_name("msg_ptr")
    1118                            .dwattr $C$DW$83, DW_AT_type(*$C$DW$T$77)
    1119                            .dwattr $C$DW$83, DW_AT_location[DW_OP_reg0]
    1120                    
    1121                    
    1122                    ;*****************************************************************************
    1123                    ;* FUNCTION NAME: osal_msg_deallocate                                        *
    1124                    ;*                                                                           *
    1125                    ;*   Regs Modified     : A1,A2,A3,A4,V9,SP,LR,SR                             *
    1126                    ;*   Regs Used         : A1,A2,A3,A4,V9,SP,LR,SR                             *
    1127                    ;*   Local Frame Size  : 0 Args + 0 Auto + 4 Save = 4 byte                   *
    1128                    ;*****************************************************************************
    1129                    osal_msg_deallocate:
    1130                    ;* --------------------------------------------------------------------------*
    1131                    ;* A1    assigned to msg_ptr
    1132                    $C$DW$84        .dwtag  DW_TAG_variable
    1133                            .dwattr $C$DW$84, DW_AT_name("msg_ptr")
    1134                            .dwattr $C$DW$84, DW_AT_TI_symbol_name("msg_ptr")
    1135                            .dwattr $C$DW$84, DW_AT_type(*$C$DW$T$284)
    1136                            .dwattr $C$DW$84, DW_AT_location[DW_OP_reg0]
    1137                    
    1138                            .dwcfi  cfa_offset, 0
    1139 00000000 B508              PUSH      {A4, LR}              ; [DPU_3_PIPE]  ; [ORIG 16-BIT INS]
    1140                            .dwcfi  cfa_offset, 8
    1141                            .dwcfi  save_reg_to_mem, 14, -4
    1142                            .dwcfi  save_reg_to_mem, 3, -8
    1143                            .dwpsn  file "../Application/MAC/OSAL/osal.c",line 623,column 3,is_stmt,isa 1
    1144 00000002 2800              CMP       A1, #0                ; [DPU_3_PIPE] |623|  ; [ORIG 16-BIT INS]
    1145 00000004 BF08              IT        EQ                    ; [DPU_3_PIPE]  ; [ORIG 16-BIT INS]
    1146                            .dwpsn  file "../Application/MAC/OSAL/osal.c",line 624,column 5,is_stmt,isa 1
    1147 00000006 2005              MOVEQ     A1, #5                ; [DPU_3_PIPE] |624|  ; [ORIG 16-BIT INS]
    1148 00000008 D009              BEQ       ||$C$L5||             ; [DPU_3_PIPE] |624|  ; [ORIG 16-BIT INS]
    1149                            ; BRANCHCC OCCURS {||$C$L5||}    ; [] |624| 
    1150                    ;* --------------------------------------------------------------------------*
    1151                            .dwpsn  file "../Application/MAC/OSAL/osal.c",line 627,column 3,is_stmt,isa 1
    1152 0000000a 1C02F810          LDRB      A2, [A1, #-2]         ; [DPU_3_PIPE] |627|  ; [KEEP 32-BIT INS]
    1153 0000000e 29FF              CMP       A2, #255              ; [DPU_3_PIPE] |627|  ; [ORIG 16-BIT INS]
    1154 00000010 BF18              IT        NE                    ; [DPU_3_PIPE]  ; [ORIG 16-BIT INS]
    1155                            .dwpsn  file "../Application/MAC/OSAL/osal.c",line 628,column 5,is_stmt,isa 1
TI ARM Assembler PC v16.9.9 Sun Nov 25 16:40:48 2018

Tools Copyright (c) 1996-2017 Texas Instruments Incorporated
C:\Users\Stryd\AppData\Local\Temp\{8719FFD6-004A-4401-8DC3-4DA83C6CF1D8} PAGE   22

    1156 00000012 2004              MOVNE     A1, #4                ; [DPU_3_PIPE] |628|  ; [ORIG 16-BIT INS]
    1157 00000014 D103              BNE       ||$C$L5||             ; [DPU_3_PIPE] |628|  ; [ORIG 16-BIT INS]
    1158                            ; BRANCHCC OCCURS {||$C$L5||}    ; [] |628| 
    1159                    ;* --------------------------------------------------------------------------*
    1160                            .dwpsn  file "../Application/MAC/OSAL/osal.c",line 632,column 3,is_stmt,isa 1
    1161 00000016 380C              SUBS      A1, A1, #12           ; [DPU_3_PIPE] |632|  ; [ORIG 16-BIT INS]
    1162                    $C$DW$85        .dwtag  DW_TAG_TI_branch
    1163                            .dwattr $C$DW$85, DW_AT_low_pc(0x00)
    1164                            .dwattr $C$DW$85, DW_AT_name("osal_mem_free")
    1165                            .dwattr $C$DW$85, DW_AT_TI_call
    1166                    
    1167 00000018 FFFEF7FF!         BL        osal_mem_free         ; [DPU_3_PIPE] |632|  ; [KEEP 32-BIT INS]
    1168                            ; CALL OCCURS {osal_mem_free }   ; [] |632| 
    1169                            .dwpsn  file "../Application/MAC/OSAL/osal.c",line 634,column 3,is_stmt,isa 1
    1170 0000001c 2000              MOVS      A1, #0                ; [DPU_3_PIPE] |634|  ; [ORIG 16-BIT INS]
    1171                    ;* --------------------------------------------------------------------------*
    1172                    ||$C$L5||:    
    1173                    $C$DW$86        .dwtag  DW_TAG_TI_branch
    1174                            .dwattr $C$DW$86, DW_AT_low_pc(0x00)
    1175                            .dwattr $C$DW$86, DW_AT_TI_return
    1176                    
    1177 0000001e BD08              POP       {A4, PC}              ; [DPU_3_PIPE]  ; [ORIG 16-BIT INS]
    1178                            .dwcfi  cfa_offset, 0
    1179                            .dwcfi  restore_reg, 3
    1180                            ; BRANCH OCCURS                  ; [] 
    1181                            .dwattr $C$DW$82, DW_AT_TI_end_file("../Application/MAC/OSAL/osal.c")
    1182                            .dwattr $C$DW$82, DW_AT_TI_end_line(0x27b)
    1183                            .dwattr $C$DW$82, DW_AT_TI_end_column(0x01)
    1184                            .dwendentry
    1185                            .dwendtag $C$DW$82
    1186                    
    1187 00000000                   .sect   ".text:osal_msg_enqueue"
    1188                            .clink
    1189                            .thumbfunc osal_msg_enqueue
    1190 00000000                   .thumb
    1191                            .global osal_msg_enqueue
    1192                    
    1193                    $C$DW$87        .dwtag  DW_TAG_subprogram
    1194                            .dwattr $C$DW$87, DW_AT_name("osal_msg_enqueue")
    1195                            .dwattr $C$DW$87, DW_AT_low_pc(osal_msg_enqueue)
    1196                            .dwattr $C$DW$87, DW_AT_high_pc(0x00)
    1197                            .dwattr $C$DW$87, DW_AT_TI_symbol_name("osal_msg_enqueue")
    1198                            .dwattr $C$DW$87, DW_AT_external
    1199                            .dwattr $C$DW$87, DW_AT_TI_begin_file("../Application/MAC/OSAL/osal.c")
    1200                            .dwattr $C$DW$87, DW_AT_TI_begin_line(0x3bb)
    1201                            .dwattr $C$DW$87, DW_AT_TI_begin_column(0x06)
    1202                            .dwattr $C$DW$87, DW_AT_decl_file("../Application/MAC/OSAL/osal.c")
    1203                            .dwattr $C$DW$87, DW_AT_decl_line(0x3bb)
    1204                            .dwattr $C$DW$87, DW_AT_decl_column(0x06)
    1205                            .dwattr $C$DW$87, DW_AT_TI_max_frame_size(0x10)
    1206                            .dwpsn  file "../Application/MAC/OSAL/osal.c",line 956,column 1,is_stmt,address osal_msg_enque
    1207                    
    1208                            .dwfde $C$DW$CIE, osal_msg_enqueue
    1209                    $C$DW$88        .dwtag  DW_TAG_formal_parameter
    1210                            .dwattr $C$DW$88, DW_AT_name("q_ptr")
TI ARM Assembler PC v16.9.9 Sun Nov 25 16:40:48 2018

Tools Copyright (c) 1996-2017 Texas Instruments Incorporated
C:\Users\Stryd\AppData\Local\Temp\{8719FFD6-004A-4401-8DC3-4DA83C6CF1D8} PAGE   23

    1211                            .dwattr $C$DW$88, DW_AT_TI_symbol_name("q_ptr")
    1212                            .dwattr $C$DW$88, DW_AT_type(*$C$DW$T$210)
    1213                            .dwattr $C$DW$88, DW_AT_location[DW_OP_reg0]
    1214                    
    1215                    $C$DW$89        .dwtag  DW_TAG_formal_parameter
    1216                            .dwattr $C$DW$89, DW_AT_name("msg_ptr")
    1217                            .dwattr $C$DW$89, DW_AT_TI_symbol_name("msg_ptr")
    1218                            .dwattr $C$DW$89, DW_AT_type(*$C$DW$T$3)
    1219                            .dwattr $C$DW$89, DW_AT_location[DW_OP_reg1]
    1220                    
    1221                    
    1222                    ;*****************************************************************************
    1223                    ;* FUNCTION NAME: osal_msg_enqueue                                           *
    1224                    ;*                                                                           *
    1225                    ;*   Regs Modified     : A1,A2,A3,A4,V1,V2,V9,SP,LR,SR                       *
    1226                    ;*   Regs Used         : A1,A2,A3,A4,V1,V2,V9,SP,LR,SR                       *
    1227                    ;*   Local Frame Size  : 0 Args + 0 Auto + 12 Save = 12 byte                 *
    1228                    ;*****************************************************************************
    1229                    osal_msg_enqueue:
    1230                    ;* --------------------------------------------------------------------------*
    1231                    ;* A2    assigned to $O$U12
    1232                    ;* A3    assigned to $O$U17
    1233                    ;* V2    assigned to q_ptr
    1234                    $C$DW$90        .dwtag  DW_TAG_variable
    1235                            .dwattr $C$DW$90, DW_AT_name("q_ptr")
    1236                            .dwattr $C$DW$90, DW_AT_TI_symbol_name("q_ptr")
    1237                            .dwattr $C$DW$90, DW_AT_type(*$C$DW$T$213)
    1238                            .dwattr $C$DW$90, DW_AT_location[DW_OP_reg5]
    1239                    
    1240                    ;* V1    assigned to msg_ptr
    1241                    $C$DW$91        .dwtag  DW_TAG_variable
    1242                            .dwattr $C$DW$91, DW_AT_name("msg_ptr")
    1243                            .dwattr $C$DW$91, DW_AT_TI_symbol_name("msg_ptr")
    1244                            .dwattr $C$DW$91, DW_AT_type(*$C$DW$T$212)
    1245                            .dwattr $C$DW$91, DW_AT_location[DW_OP_reg4]
    1246                    
    1247                    ;* A2    assigned to list
    1248                    $C$DW$92        .dwtag  DW_TAG_variable
    1249                            .dwattr $C$DW$92, DW_AT_name("list")
    1250                            .dwattr $C$DW$92, DW_AT_TI_symbol_name("list")
    1251                            .dwattr $C$DW$92, DW_AT_type(*$C$DW$T$3)
    1252                            .dwattr $C$DW$92, DW_AT_location[DW_OP_reg1]
    1253                    
    1254                            .dwcfi  cfa_offset, 0
    1255 00000000 B538              PUSH      {A4, V1, V2, LR}      ; [DPU_3_PIPE]  ; [ORIG 16-BIT INS]
    1256                            .dwcfi  cfa_offset, 16
    1257                            .dwcfi  save_reg_to_mem, 14, -4
    1258                            .dwcfi  save_reg_to_mem, 5, -8
    1259                            .dwcfi  save_reg_to_mem, 4, -12
    1260                            .dwcfi  save_reg_to_mem, 3, -16
    1261 00000002 4605              MOV       V2, A1                ; [DPU_3_PIPE] |956|  ; [ORIG 16-BIT INS]
    1262                            .dwpsn  file "../Application/MAC/OSAL/osal.c",line 961,column 3,is_stmt,isa 1
    1263 00000004 480A              LDR       A1, $C$CON18          ; [DPU_3_PIPE] |961|  ; [ORIG 16-BIT INS]
    1264 00000006 6800              LDR       A1, [A1, #0]          ; [DPU_3_PIPE] |961|  ; [ORIG 16-BIT INS]
    1265                            .dwpsn  file "../Application/MAC/OSAL/osal.c",line 956,column 1,is_stmt,isa 1
TI ARM Assembler PC v16.9.9 Sun Nov 25 16:40:48 2018

Tools Copyright (c) 1996-2017 Texas Instruments Incorporated
C:\Users\Stryd\AppData\Local\Temp\{8719FFD6-004A-4401-8DC3-4DA83C6CF1D8} PAGE   24

    1266 00000008 460C              MOV       V1, A2                ; [DPU_3_PIPE] |956|  ; [ORIG 16-BIT INS]
    1267                            .dwpsn  file "../Application/MAC/OSAL/osal.c",line 961,column 3,is_stmt,isa 1
    1268                    $C$DW$93        .dwtag  DW_TAG_TI_branch
    1269                            .dwattr $C$DW$93, DW_AT_low_pc(0x00)
    1270                            .dwattr $C$DW$93, DW_AT_TI_call
    1271                            .dwattr $C$DW$93, DW_AT_TI_indirect
    1272                    
    1273 0000000a 4780              BLX       A1                    ; [DPU_3_PIPE] |961|  ; [ORIG 16-BIT INS]
    1274                            ; CALL OCCURS {}                 ; [] |961| 
    1275                            .dwpsn  file "../Application/MAC/OSAL/osal.c",line 963,column 3,is_stmt,isa 1
    1276 0000000c 2100              MOVS      A2, #0                ; [DPU_3_PIPE] |963|  ; [ORIG 16-BIT INS]
    1277 0000000e 1C0CF844          STR       A2, [V1, #-12]        ; [DPU_3_PIPE] |963|  ; [KEEP 32-BIT INS]
    1278                            .dwpsn  file "../Application/MAC/OSAL/osal.c",line 965,column 3,is_stmt,isa 1
    1279 00000012 6829              LDR       A2, [V2, #0]          ; [DPU_3_PIPE] |965|  ; [ORIG 16-BIT INS]
    1280 00000014 B911              CBNZ      A2, ||$C$L7||         ; []  ; [ORIG 16-BIT INS]
    1281                            ; BRANCHCC OCCURS {||$C$L7||}    ; [] |965| 
    1282                    ;* --------------------------------------------------------------------------*
    1283                            .dwpsn  file "../Application/MAC/OSAL/osal.c",line 967,column 5,is_stmt,isa 1
    1284 00000016 602C              STR       V1, [V2, #0]          ; [DPU_3_PIPE] |967|  ; [ORIG 16-BIT INS]
    1285                            .dwpsn  file "../Application/MAC/OSAL/osal.c",line 968,column 3,is_stmt,isa 1
    1286 00000018 E006              B         ||$C$L8||             ; [DPU_3_PIPE] |968|  ; [ORIG 16-BIT INS]
    1287                            ; BRANCH OCCURS {||$C$L8||}      ; [] |968| 
    1288                    ;* --------------------------------------------------------------------------*
    1289 0000001a           ||$C$L6||:    
    1290                            .dwpsn  file "../Application/MAC/OSAL/osal.c",line 972,column 57,is_stmt,isa 1
    1291 0000001a 4611              MOV       A2, A3                ; [DPU_3_PIPE] |972|  ; [ORIG 16-BIT INS]
    1292                    ;* --------------------------------------------------------------------------*
    1293                    ;*   BEGIN LOOP ||$C$L7||
    1294                    ;* --------------------------------------------------------------------------*
    1295 0000001c           ||$C$L7||:    
    1296                            .dwpsn  file "../Application/MAC/OSAL/osal.c",line 972,column 26,is_stmt,isa 1
    1297 0000001c 2C0CF851          LDR       A3, [A2, #-12]        ; [DPU_3_PIPE] |972|  ; [KEEP 32-BIT INS]
    1298 00000020 2A00              CMP       A3, #0                ; [DPU_3_PIPE] |972|  ; [ORIG 16-BIT INS]
    1299 00000022 D1FA              BNE       ||$C$L6||             ; [DPU_3_PIPE] |972|  ; [ORIG 16-BIT INS]
    1300                            ; BRANCHCC OCCURS {||$C$L6||}    ; [] |972| 
    1301                    ;* --------------------------------------------------------------------------*
    1302                            .dwpsn  file "../Application/MAC/OSAL/osal.c",line 975,column 5,is_stmt,isa 1
    1303 00000024 4C0CF841          STR       V1, [A2, #-12]        ; [DPU_3_PIPE] |975|  ; [KEEP 32-BIT INS]
    1304                    ;* --------------------------------------------------------------------------*
    1305 00000028           ||$C$L8||:    
    1306                            .dwpsn  file "../Application/MAC/OSAL/osal.c",line 979,column 3,is_stmt,isa 1
    1307 00000028 4902              LDR       A2, $C$CON19          ; [DPU_3_PIPE] |979|  ; [ORIG 16-BIT INS]
    1308 0000002a 6809              LDR       A2, [A2, #0]          ; [DPU_3_PIPE] |979|  ; [ORIG 16-BIT INS]
    1309                    $C$DW$94        .dwtag  DW_TAG_TI_branch
    1310                            .dwattr $C$DW$94, DW_AT_low_pc(0x00)
    1311                            .dwattr $C$DW$94, DW_AT_TI_call
    1312                            .dwattr $C$DW$94, DW_AT_TI_indirect
    1313                    
    1314 0000002c 4788              BLX       A2                    ; [DPU_3_PIPE] |979|  ; [ORIG 16-BIT INS]
    1315                            ; CALL OCCURS {}                 ; [] |979| 
    1316                    $C$DW$95        .dwtag  DW_TAG_TI_branch
    1317                            .dwattr $C$DW$95, DW_AT_low_pc(0x00)
    1318                            .dwattr $C$DW$95, DW_AT_TI_return
    1319                    
    1320 0000002e BD38              POP       {A4, V1, V2, PC}      ; [DPU_3_PIPE]  ; [ORIG 16-BIT INS]
TI ARM Assembler PC v16.9.9 Sun Nov 25 16:40:48 2018

Tools Copyright (c) 1996-2017 Texas Instruments Incorporated
C:\Users\Stryd\AppData\Local\Temp\{8719FFD6-004A-4401-8DC3-4DA83C6CF1D8} PAGE   25

    1321                            .dwcfi  cfa_offset, 0
    1322                            .dwcfi  restore_reg, 5
    1323                            .dwcfi  restore_reg, 4
    1324                            .dwcfi  restore_reg, 3
    1325                            ; BRANCH OCCURS                  ; [] 
    1326                            .dwattr $C$DW$87, DW_AT_TI_end_file("../Application/MAC/OSAL/osal.c")
    1327                            .dwattr $C$DW$87, DW_AT_TI_end_line(0x3d4)
    1328                            .dwattr $C$DW$87, DW_AT_TI_end_column(0x01)
    1329                            .dwendentry
    1330                            .dwendtag $C$DW$87
    1331                    
    1332 00000000                   .sect   ".text:osal_msg_push"
    1333                            .clink
    1334                            .thumbfunc osal_msg_push
    1335 00000000                   .thumb
    1336                            .global osal_msg_push
    1337                    
    1338                    $C$DW$96        .dwtag  DW_TAG_subprogram
    1339                            .dwattr $C$DW$96, DW_AT_name("osal_msg_push")
    1340                            .dwattr $C$DW$96, DW_AT_low_pc(osal_msg_push)
    1341                            .dwattr $C$DW$96, DW_AT_high_pc(0x00)
    1342                            .dwattr $C$DW$96, DW_AT_TI_symbol_name("osal_msg_push")
    1343                            .dwattr $C$DW$96, DW_AT_external
    1344                            .dwattr $C$DW$96, DW_AT_TI_begin_file("../Application/MAC/OSAL/osal.c")
    1345                            .dwattr $C$DW$96, DW_AT_TI_begin_line(0x405)
    1346                            .dwattr $C$DW$96, DW_AT_TI_begin_column(0x06)
    1347                            .dwattr $C$DW$96, DW_AT_decl_file("../Application/MAC/OSAL/osal.c")
    1348                            .dwattr $C$DW$96, DW_AT_decl_line(0x405)
    1349                            .dwattr $C$DW$96, DW_AT_decl_column(0x06)
    1350                            .dwattr $C$DW$96, DW_AT_TI_max_frame_size(0x10)
    1351                            .dwpsn  file "../Application/MAC/OSAL/osal.c",line 1030,column 1,is_stmt,address osal_msg_push
    1352                    
    1353                            .dwfde $C$DW$CIE, osal_msg_push
    1354                    $C$DW$97        .dwtag  DW_TAG_formal_parameter
    1355                            .dwattr $C$DW$97, DW_AT_name("q_ptr")
    1356                            .dwattr $C$DW$97, DW_AT_TI_symbol_name("q_ptr")
    1357                            .dwattr $C$DW$97, DW_AT_type(*$C$DW$T$210)
    1358                            .dwattr $C$DW$97, DW_AT_location[DW_OP_reg0]
    1359                    
    1360                    $C$DW$98        .dwtag  DW_TAG_formal_parameter
    1361                            .dwattr $C$DW$98, DW_AT_name("msg_ptr")
    1362                            .dwattr $C$DW$98, DW_AT_TI_symbol_name("msg_ptr")
    1363                            .dwattr $C$DW$98, DW_AT_type(*$C$DW$T$3)
    1364                            .dwattr $C$DW$98, DW_AT_location[DW_OP_reg1]
    1365                    
    1366                    
    1367                    ;*****************************************************************************
    1368                    ;* FUNCTION NAME: osal_msg_push                                              *
    1369                    ;*                                                                           *
    1370                    ;*   Regs Modified     : A1,A2,A3,A4,V1,V2,V9,SP,LR,SR                       *
    1371                    ;*   Regs Used         : A1,A2,A3,A4,V1,V2,V9,SP,LR,SR                       *
    1372                    ;*   Local Frame Size  : 0 Args + 0 Auto + 12 Save = 12 byte                 *
    1373                    ;*****************************************************************************
    1374                    osal_msg_push:
    1375                    ;* --------------------------------------------------------------------------*
TI ARM Assembler PC v16.9.9 Sun Nov 25 16:40:48 2018

Tools Copyright (c) 1996-2017 Texas Instruments Incorporated
C:\Users\Stryd\AppData\Local\Temp\{8719FFD6-004A-4401-8DC3-4DA83C6CF1D8} PAGE   26

    1376                    ;* V2    assigned to q_ptr
    1377                    $C$DW$99        .dwtag  DW_TAG_variable
    1378                            .dwattr $C$DW$99, DW_AT_name("q_ptr")
    1379                            .dwattr $C$DW$99, DW_AT_TI_symbol_name("q_ptr")
    1380                            .dwattr $C$DW$99, DW_AT_type(*$C$DW$T$213)
    1381                            .dwattr $C$DW$99, DW_AT_location[DW_OP_reg5]
    1382                    
    1383                    ;* V1    assigned to msg_ptr
    1384                    $C$DW$100       .dwtag  DW_TAG_variable
    1385                            .dwattr $C$DW$100, DW_AT_name("msg_ptr")
    1386                            .dwattr $C$DW$100, DW_AT_TI_symbol_name("msg_ptr")
    1387                            .dwattr $C$DW$100, DW_AT_type(*$C$DW$T$212)
    1388                            .dwattr $C$DW$100, DW_AT_location[DW_OP_reg4]
    1389                    
    1390                            .dwcfi  cfa_offset, 0
    1391 00000000 B538              PUSH      {A4, V1, V2, LR}      ; [DPU_3_PIPE]  ; [ORIG 16-BIT INS]
    1392                            .dwcfi  cfa_offset, 16
    1393                            .dwcfi  save_reg_to_mem, 14, -4
    1394                            .dwcfi  save_reg_to_mem, 5, -8
    1395                            .dwcfi  save_reg_to_mem, 4, -12
    1396                            .dwcfi  save_reg_to_mem, 3, -16
    1397 00000002 4605              MOV       V2, A1                ; [DPU_3_PIPE] |1030|  ; [ORIG 16-BIT INS]
    1398                            .dwpsn  file "../Application/MAC/OSAL/osal.c",line 1034,column 3,is_stmt,isa 1
    1399 00000004 4805              LDR       A1, $C$CON22          ; [DPU_3_PIPE] |1034|  ; [ORIG 16-BIT INS]
    1400 00000006 6800              LDR       A1, [A1, #0]          ; [DPU_3_PIPE] |1034|  ; [ORIG 16-BIT INS]
    1401                            .dwpsn  file "../Application/MAC/OSAL/osal.c",line 1030,column 1,is_stmt,isa 1
    1402 00000008 460C              MOV       V1, A2                ; [DPU_3_PIPE] |1030|  ; [ORIG 16-BIT INS]
    1403                            .dwpsn  file "../Application/MAC/OSAL/osal.c",line 1034,column 3,is_stmt,isa 1
    1404                    $C$DW$101       .dwtag  DW_TAG_TI_branch
    1405                            .dwattr $C$DW$101, DW_AT_low_pc(0x00)
    1406                            .dwattr $C$DW$101, DW_AT_TI_call
    1407                            .dwattr $C$DW$101, DW_AT_TI_indirect
    1408                    
    1409 0000000a 4780              BLX       A1                    ; [DPU_3_PIPE] |1034|  ; [ORIG 16-BIT INS]
    1410                            ; CALL OCCURS {}                 ; [] |1034| 
    1411                            .dwpsn  file "../Application/MAC/OSAL/osal.c",line 1037,column 3,is_stmt,isa 1
    1412 0000000c 6829              LDR       A2, [V2, #0]          ; [DPU_3_PIPE] |1037|  ; [ORIG 16-BIT INS]
    1413 0000000e 1C0CF844          STR       A2, [V1, #-12]        ; [DPU_3_PIPE] |1037|  ; [KEEP 32-BIT INS]
    1414                            .dwpsn  file "../Application/MAC/OSAL/osal.c",line 1041,column 3,is_stmt,isa 1
    1415 00000012 4903              LDR       A2, $C$CON23          ; [DPU_3_PIPE] |1041|  ; [ORIG 16-BIT INS]
    1416                            .dwpsn  file "../Application/MAC/OSAL/osal.c",line 1038,column 3,is_stmt,isa 1
    1417 00000014 602C              STR       V1, [V2, #0]          ; [DPU_3_PIPE] |1038|  ; [ORIG 16-BIT INS]
    1418                            .dwpsn  file "../Application/MAC/OSAL/osal.c",line 1041,column 3,is_stmt,isa 1
    1419 00000016 6809              LDR       A2, [A2, #0]          ; [DPU_3_PIPE] |1041|  ; [ORIG 16-BIT INS]
    1420                    $C$DW$102       .dwtag  DW_TAG_TI_branch
    1421                            .dwattr $C$DW$102, DW_AT_low_pc(0x00)
    1422                            .dwattr $C$DW$102, DW_AT_TI_call
    1423                            .dwattr $C$DW$102, DW_AT_TI_indirect
    1424                    
    1425 00000018 4788              BLX       A2                    ; [DPU_3_PIPE] |1041|  ; [ORIG 16-BIT INS]
    1426                            ; CALL OCCURS {}                 ; [] |1041| 
    1427                    $C$DW$103       .dwtag  DW_TAG_TI_branch
    1428                            .dwattr $C$DW$103, DW_AT_low_pc(0x00)
    1429                            .dwattr $C$DW$103, DW_AT_TI_return
    1430                    
TI ARM Assembler PC v16.9.9 Sun Nov 25 16:40:48 2018

Tools Copyright (c) 1996-2017 Texas Instruments Incorporated
C:\Users\Stryd\AppData\Local\Temp\{8719FFD6-004A-4401-8DC3-4DA83C6CF1D8} PAGE   27

    1431 0000001a BD38              POP       {A4, V1, V2, PC}      ; [DPU_3_PIPE]  ; [ORIG 16-BIT INS]
    1432                            .dwcfi  cfa_offset, 0
    1433                            .dwcfi  restore_reg, 5
    1434                            .dwcfi  restore_reg, 4
    1435                            .dwcfi  restore_reg, 3
    1436                            ; BRANCH OCCURS                  ; [] 
    1437                            .dwattr $C$DW$96, DW_AT_TI_end_file("../Application/MAC/OSAL/osal.c")
    1438                            .dwattr $C$DW$96, DW_AT_TI_end_line(0x412)
    1439                            .dwattr $C$DW$96, DW_AT_TI_end_column(0x01)
    1440                            .dwendentry
    1441                            .dwendtag $C$DW$96
    1442                    
    1443 00000000                   .sect   ".text:osal_msg_allocate"
    1444                            .clink
    1445                            .thumbfunc osal_msg_allocate
    1446 00000000                   .thumb
    1447                            .global osal_msg_allocate
    1448                    
    1449                    $C$DW$104       .dwtag  DW_TAG_subprogram
    1450                            .dwattr $C$DW$104, DW_AT_name("osal_msg_allocate")
    1451                            .dwattr $C$DW$104, DW_AT_low_pc(osal_msg_allocate)
    1452                            .dwattr $C$DW$104, DW_AT_high_pc(0x00)
    1453                            .dwattr $C$DW$104, DW_AT_TI_symbol_name("osal_msg_allocate")
    1454                            .dwattr $C$DW$104, DW_AT_external
    1455                            .dwattr $C$DW$104, DW_AT_type(*$C$DW$T$77)
    1456                            .dwattr $C$DW$104, DW_AT_TI_begin_file("../Application/MAC/OSAL/osal.c")
    1457                            .dwattr $C$DW$104, DW_AT_TI_begin_line(0x24a)
    1458                            .dwattr $C$DW$104, DW_AT_TI_begin_column(0x09)
    1459                            .dwattr $C$DW$104, DW_AT_decl_file("../Application/MAC/OSAL/osal.c")
    1460                            .dwattr $C$DW$104, DW_AT_decl_line(0x24a)
    1461                            .dwattr $C$DW$104, DW_AT_decl_column(0x09)
    1462                            .dwattr $C$DW$104, DW_AT_TI_max_frame_size(0x08)
    1463                            .dwpsn  file "../Application/MAC/OSAL/osal.c",line 587,column 1,is_stmt,address osal_msg_alloc
    1464                    
    1465                            .dwfde $C$DW$CIE, osal_msg_allocate
    1466                    $C$DW$105       .dwtag  DW_TAG_formal_parameter
    1467                            .dwattr $C$DW$105, DW_AT_name("len")
    1468                            .dwattr $C$DW$105, DW_AT_TI_symbol_name("len")
    1469                            .dwattr $C$DW$105, DW_AT_type(*$C$DW$T$10)
    1470                            .dwattr $C$DW$105, DW_AT_location[DW_OP_reg0]
    1471                    
    1472                    
    1473                    ;*****************************************************************************
    1474                    ;* FUNCTION NAME: osal_msg_allocate                                          *
    1475                    ;*                                                                           *
    1476                    ;*   Regs Modified     : A1,A2,A3,A4,V1,V9,SP,LR,SR                          *
    1477                    ;*   Regs Used         : A1,A2,A3,A4,V1,V9,SP,LR,SR                          *
    1478                    ;*   Local Frame Size  : 0 Args + 0 Auto + 8 Save = 8 byte                   *
    1479                    ;*****************************************************************************
    1480                    osal_msg_allocate:
    1481                    ;* --------------------------------------------------------------------------*
    1482                    ;* V1    assigned to len
    1483                    $C$DW$106       .dwtag  DW_TAG_variable
    1484                            .dwattr $C$DW$106, DW_AT_name("len")
    1485                            .dwattr $C$DW$106, DW_AT_TI_symbol_name("len")
TI ARM Assembler PC v16.9.9 Sun Nov 25 16:40:48 2018

Tools Copyright (c) 1996-2017 Texas Instruments Incorporated
C:\Users\Stryd\AppData\Local\Temp\{8719FFD6-004A-4401-8DC3-4DA83C6CF1D8} PAGE   28

    1486                            .dwattr $C$DW$106, DW_AT_type(*$C$DW$T$326)
    1487                            .dwattr $C$DW$106, DW_AT_location[DW_OP_reg4]
    1488                    
    1489                    ;* A1    assigned to hdr
    1490                    $C$DW$107       .dwtag  DW_TAG_variable
    1491                            .dwattr $C$DW$107, DW_AT_name("hdr")
    1492                            .dwattr $C$DW$107, DW_AT_TI_symbol_name("hdr")
    1493                            .dwattr $C$DW$107, DW_AT_type(*$C$DW$T$409)
    1494                            .dwattr $C$DW$107, DW_AT_location[DW_OP_reg0]
    1495                    
    1496                            .dwcfi  cfa_offset, 0
    1497 00000000 B510              PUSH      {V1, LR}              ; [DPU_3_PIPE]  ; [ORIG 16-BIT INS]
    1498                            .dwcfi  cfa_offset, 8
    1499                            .dwcfi  save_reg_to_mem, 14, -4
    1500                            .dwcfi  save_reg_to_mem, 4, -8
    1501                            .dwpsn  file "../Application/MAC/OSAL/osal.c",line 590,column 3,is_stmt,isa 1
    1502 00000002 1C04              MOVS      V1, A1                ; [DPU_3_PIPE] |590|  ; [ORIG 16-BIT INS]
    1503 00000004 D005              BEQ       ||$C$L9||             ; [DPU_3_PIPE] |590|  ; [ORIG 16-BIT INS]
    1504                            ; BRANCHCC OCCURS {||$C$L9||}    ; [] |590| 
    1505                    ;* --------------------------------------------------------------------------*
    1506                            .dwpsn  file "../Application/MAC/OSAL/osal.c",line 593,column 3,is_stmt,isa 1
    1507 00000006 000CF104          ADD       A1, V1, #12           ; [DPU_3_PIPE] |593|  ; [KEEP 32-BIT INS]
    1508 0000000a B280              UXTH      A1, A1                ; [DPU_3_PIPE] |593|  ; [ORIG 16-BIT INS]
    1509                    $C$DW$108       .dwtag  DW_TAG_TI_branch
    1510                            .dwattr $C$DW$108, DW_AT_low_pc(0x00)
    1511                            .dwattr $C$DW$108, DW_AT_name("osal_mem_alloc")
    1512                            .dwattr $C$DW$108, DW_AT_TI_call
    1513                    
    1514 0000000c FFFEF7FF!         BL        osal_mem_alloc        ; [DPU_3_PIPE] |593|  ; [KEEP 32-BIT INS]
    1515                            ; CALL OCCURS {osal_mem_alloc }  ; [] |593| 
    1516 00000010 B908              CBNZ      A1, ||$C$L10||        ; []  ; [ORIG 16-BIT INS]
    1517                            .dwpsn  file "../Application/MAC/OSAL/osal.c",line 594,column 3,is_stmt,isa 1
    1518                            ; BRANCHCC OCCURS {||$C$L10||}   ; [] |594| 
    1519                    ;* --------------------------------------------------------------------------*
    1520 00000012           ||$C$L9||:    
    1521                            .dwcfi  remember_state
    1522                            .dwpsn  file "../Application/MAC/OSAL/osal.c",line 602,column 5,is_stmt,isa 1
    1523 00000012 2000              MOVS      A1, #0                ; [DPU_3_PIPE] |602|  ; [ORIG 16-BIT INS]
    1524                    $C$DW$109       .dwtag  DW_TAG_TI_branch
    1525                            .dwattr $C$DW$109, DW_AT_low_pc(0x00)
    1526                            .dwattr $C$DW$109, DW_AT_TI_return
    1527                    
    1528 00000014 BD10              POP       {V1, PC}              ; [DPU_3_PIPE]  ; [ORIG 16-BIT INS]
    1529                            .dwcfi  cfa_offset, 0
    1530                            .dwcfi  restore_reg, 4
    1531                            ; BRANCH OCCURS                  ; [] 
    1532                            .dwcfi  restore_state
    1533                    ;* --------------------------------------------------------------------------*
    1534 00000016           ||$C$L10||:    
    1535                            .dwpsn  file "../Application/MAC/OSAL/osal.c",line 596,column 5,is_stmt,isa 1
    1536 00000016 2100              MOVS      A2, #0                ; [DPU_3_PIPE] |596|  ; [ORIG 16-BIT INS]
    1537 00000018 6001              STR       A2, [A1, #0]          ; [DPU_3_PIPE] |596|  ; [ORIG 16-BIT INS]
    1538                            .dwpsn  file "../Application/MAC/OSAL/osal.c",line 597,column 5,is_stmt,isa 1
    1539 0000001a 8104              STRH      V1, [A1, #8]          ; [DPU_3_PIPE] |597|  ; [ORIG 16-BIT INS]
    1540                            .dwpsn  file "../Application/MAC/OSAL/osal.c",line 598,column 5,is_stmt,isa 1
TI ARM Assembler PC v16.9.9 Sun Nov 25 16:40:48 2018

Tools Copyright (c) 1996-2017 Texas Instruments Incorporated
C:\Users\Stryd\AppData\Local\Temp\{8719FFD6-004A-4401-8DC3-4DA83C6CF1D8} PAGE   29

    1541 0000001c 23FF              MOVS      A4, #255              ; [DPU_3_PIPE] |598|  ; [ORIG 16-BIT INS]
    1542 0000001e 7283              STRB      A4, [A1, #10]         ; [DPU_3_PIPE] |598|  ; [ORIG 16-BIT INS]
    1543                            .dwpsn  file "../Application/MAC/OSAL/osal.c",line 599,column 5,is_stmt,isa 1
    1544 00000020 300C              ADDS      A1, A1, #12           ; [DPU_3_PIPE] |599|  ; [ORIG 16-BIT INS]
    1545                    ;* --------------------------------------------------------------------------*
    1546                    $C$DW$110       .dwtag  DW_TAG_TI_branch
    1547                            .dwattr $C$DW$110, DW_AT_low_pc(0x00)
    1548                            .dwattr $C$DW$110, DW_AT_TI_return
    1549                    
    1550 00000022 BD10              POP       {V1, PC}              ; [DPU_3_PIPE]  ; [ORIG 16-BIT INS]
    1551                            .dwcfi  cfa_offset, 0
    1552                            .dwcfi  restore_reg, 4
    1553                            ; BRANCH OCCURS                  ; [] 
    1554                            .dwattr $C$DW$104, DW_AT_TI_end_file("../Application/MAC/OSAL/osal.c")
    1555                            .dwattr $C$DW$104, DW_AT_TI_end_line(0x25b)
    1556                            .dwattr $C$DW$104, DW_AT_TI_end_column(0x01)
    1557                            .dwendentry
    1558                            .dwendtag $C$DW$104
    1559                    
    1560 00000000                   .sect   ".text:osal_self"
    1561                            .clink
    1562                            .thumbfunc osal_self
    1563 00000000                   .thumb
    1564                            .global osal_self
    1565                    
    1566                    $C$DW$111       .dwtag  DW_TAG_subprogram
    1567                            .dwattr $C$DW$111, DW_AT_name("osal_self")
    1568                            .dwattr $C$DW$111, DW_AT_low_pc(osal_self)
    1569                            .dwattr $C$DW$111, DW_AT_high_pc(0x00)
    1570                            .dwattr $C$DW$111, DW_AT_TI_symbol_name("osal_self")
    1571                            .dwattr $C$DW$111, DW_AT_external
    1572                            .dwattr $C$DW$111, DW_AT_type(*$C$DW$T$19)
    1573                            .dwattr $C$DW$111, DW_AT_TI_begin_file("../Application/MAC/OSAL/osal.c")
    1574                            .dwattr $C$DW$111, DW_AT_TI_begin_line(0x78b)
    1575                            .dwattr $C$DW$111, DW_AT_TI_begin_column(0x07)
    1576                            .dwattr $C$DW$111, DW_AT_decl_file("../Application/MAC/OSAL/osal.c")
    1577                            .dwattr $C$DW$111, DW_AT_decl_line(0x78b)
    1578                            .dwattr $C$DW$111, DW_AT_decl_column(0x07)
    1579                            .dwattr $C$DW$111, DW_AT_TI_max_frame_size(0x00)
    1580                            .dwpsn  file "../Application/MAC/OSAL/osal.c",line 1932,column 1,is_stmt,address osal_self,isa
    1581                    
    1582                            .dwfde $C$DW$CIE, osal_self
    1583                    
    1584                    ;*****************************************************************************
    1585                    ;* FUNCTION NAME: osal_self                                                  *
    1586                    ;*                                                                           *
    1587                    ;*   Regs Modified     : A1                                                  *
    1588                    ;*   Regs Used         : A1,LR                                               *
    1589                    ;*   Local Frame Size  : 0 Args + 0 Auto + 0 Save = 0 byte                   *
    1590                    ;*****************************************************************************
    1591 00000000           osal_self:
    1592                    ;* --------------------------------------------------------------------------*
    1593                            .dwcfi  cfa_offset, 0
    1594                            .dwpsn  file "../Application/MAC/OSAL/osal.c",line 1933,column 3,is_stmt,isa 1
    1595 00000000 4801              LDR       A1, $C$CON24          ; [DPU_3_PIPE] |1933|  ; [ORIG 16-BIT INS]
TI ARM Assembler PC v16.9.9 Sun Nov 25 16:40:48 2018

Tools Copyright (c) 1996-2017 Texas Instruments Incorporated
C:\Users\Stryd\AppData\Local\Temp\{8719FFD6-004A-4401-8DC3-4DA83C6CF1D8} PAGE   30

    1596 00000002 7800              LDRB      A1, [A1, #0]          ; [DPU_3_PIPE] |1933|  ; [ORIG 16-BIT INS]
    1597                    $C$DW$112       .dwtag  DW_TAG_TI_branch
    1598                            .dwattr $C$DW$112, DW_AT_low_pc(0x00)
    1599                            .dwattr $C$DW$112, DW_AT_TI_return
    1600                    
    1601 00000004 4770              BX        LR                    ; [DPU_3_PIPE]  ; [ORIG 16-BIT INS]
    1602                            ; BRANCH OCCURS                  ; [] 
    1603                            .dwattr $C$DW$111, DW_AT_TI_end_file("../Application/MAC/OSAL/osal.c")
    1604                            .dwattr $C$DW$111, DW_AT_TI_end_line(0x78e)
    1605                            .dwattr $C$DW$111, DW_AT_TI_end_column(0x01)
    1606                            .dwendentry
    1607                            .dwendtag $C$DW$111
    1608                    
    1609 00000000                   .sect   ".text:osal_proxy2alien"
    1610                            .clink
    1611                            .thumbfunc osal_proxy2alien
    1612 00000000                   .thumb
    1613                    
    1614                    $C$DW$113       .dwtag  DW_TAG_subprogram
    1615                            .dwattr $C$DW$113, DW_AT_name("osal_proxy2alien")
    1616                            .dwattr $C$DW$113, DW_AT_low_pc(osal_proxy2alien)
    1617                            .dwattr $C$DW$113, DW_AT_high_pc(0x00)
    1618                            .dwattr $C$DW$113, DW_AT_TI_symbol_name("osal_proxy2alien")
    1619                            .dwattr $C$DW$113, DW_AT_type(*$C$DW$T$89)
    1620                            .dwattr $C$DW$113, DW_AT_TI_begin_file("../Application/MAC/OSAL/osal.c")
    1621                            .dwattr $C$DW$113, DW_AT_TI_begin_line(0x5e1)
    1622                            .dwattr $C$DW$113, DW_AT_TI_begin_column(0x17)
    1623                            .dwattr $C$DW$113, DW_AT_decl_file("../Application/MAC/OSAL/osal.c")
    1624                            .dwattr $C$DW$113, DW_AT_decl_line(0x5e1)
    1625                            .dwattr $C$DW$113, DW_AT_decl_column(0x17)
    1626                            .dwattr $C$DW$113, DW_AT_TI_max_frame_size(0x08)
    1627                            .dwpsn  file "../Application/MAC/OSAL/osal.c",line 1506,column 1,is_stmt,address osal_proxy2al
    1628                    
    1629                            .dwfde $C$DW$CIE, osal_proxy2alien
    1630                    $C$DW$114       .dwtag  DW_TAG_formal_parameter
    1631                            .dwattr $C$DW$114, DW_AT_name("proxyid")
    1632                            .dwattr $C$DW$114, DW_AT_TI_symbol_name("proxyid")
    1633                            .dwattr $C$DW$114, DW_AT_type(*$C$DW$T$10)
    1634                            .dwattr $C$DW$114, DW_AT_location[DW_OP_reg0]
    1635                    
    1636                    
    1637                    ;*****************************************************************************
    1638                    ;* FUNCTION NAME: osal_proxy2alien                                           *
    1639                    ;*                                                                           *
    1640                    ;*   Regs Modified     : A1,A2,A3,A4,V1,V9,SP,LR,SR                          *
    1641                    ;*   Regs Used         : A1,A2,A3,A4,V1,V9,SP,LR,SR                          *
    1642                    ;*   Local Frame Size  : 0 Args + 0 Auto + 8 Save = 8 byte                   *
    1643                    ;*****************************************************************************
    1644                    osal_proxy2alien:
    1645                    ;* --------------------------------------------------------------------------*
    1646                    ;* V1    assigned to proxyid
    1647                    $C$DW$115       .dwtag  DW_TAG_variable
    1648                            .dwattr $C$DW$115, DW_AT_name("proxyid")
    1649                            .dwattr $C$DW$115, DW_AT_TI_symbol_name("proxyid")
    1650                            .dwattr $C$DW$115, DW_AT_type(*$C$DW$T$10)
TI ARM Assembler PC v16.9.9 Sun Nov 25 16:40:48 2018

Tools Copyright (c) 1996-2017 Texas Instruments Incorporated
C:\Users\Stryd\AppData\Local\Temp\{8719FFD6-004A-4401-8DC3-4DA83C6CF1D8} PAGE   31

    1651                            .dwattr $C$DW$115, DW_AT_location[DW_OP_reg4]
    1652                    
    1653                            .dwcfi  cfa_offset, 0
    1654 00000000 B510              PUSH      {V1, LR}              ; [DPU_3_PIPE]  ; [ORIG 16-BIT INS]
    1655                            .dwcfi  cfa_offset, 8
    1656                            .dwcfi  save_reg_to_mem, 14, -4
    1657                            .dwcfi  save_reg_to_mem, 4, -8
    1658                            .dwpsn  file "../Application/MAC/OSAL/osal.c",line 1508,column 3,is_stmt,isa 1
    1659 00000002 0480F080          EOR       V1, A1, #128          ; [DPU_3_PIPE] |1508|  ; [KEEP 32-BIT INS]
    1660 00000006 2C02              CMP       V1, #2                ; [DPU_3_PIPE] |1508|  ; [ORIG 16-BIT INS]
    1661 00000008 DB01              BLT       ||$C$L11||            ; [DPU_3_PIPE] |1508|  ; [ORIG 16-BIT INS]
    1662                            ; BRANCHCC OCCURS {||$C$L11||}   ; [] |1508| 
    1663                    ;* --------------------------------------------------------------------------*
    1664                            .dwpsn  file "../Application/MAC/OSAL/osal.c",line 1511,column 5,is_stmt,isa 1
    1665                    $C$DW$116       .dwtag  DW_TAG_TI_branch
    1666                            .dwattr $C$DW$116, DW_AT_low_pc(0x00)
    1667                            .dwattr $C$DW$116, DW_AT_name("ICall_abort")
    1668                            .dwattr $C$DW$116, DW_AT_TI_call
    1669                    
    1670 0000000a FFFEF7FF!         BL        ICall_abort           ; [DPU_3_PIPE] |1511|  ; [KEEP 32-BIT INS]
    1671                            ; CALL OCCURS {ICall_abort }     ; [] |1511| 
    1672                    ;* --------------------------------------------------------------------------*
    1673 0000000e           ||$C$L11||:    
    1674                            .dwpsn  file "../Application/MAC/OSAL/osal.c",line 1513,column 3,is_stmt,isa 1
    1675 0000000e 4802              LDR       A1, $C$CON26          ; [DPU_3_PIPE] |1513|  ; [ORIG 16-BIT INS]
    1676 00000010 1C80              ADDS      A1, A1, #2            ; [DPU_3_PIPE]  ; [ORIG 16-BIT INS]
    1677 00000012 5D00              LDRB      A1, [A1, +V1]         ; [DPU_3_PIPE] |1513|  ; [ORIG 16-BIT INS]
    1678                    $C$DW$117       .dwtag  DW_TAG_TI_branch
    1679                            .dwattr $C$DW$117, DW_AT_low_pc(0x00)
    1680                            .dwattr $C$DW$117, DW_AT_TI_return
    1681                    
    1682 00000014 BD10              POP       {V1, PC}              ; [DPU_3_PIPE]  ; [ORIG 16-BIT INS]
    1683                            .dwcfi  cfa_offset, 0
    1684                            .dwcfi  restore_reg, 4
    1685                            ; BRANCH OCCURS                  ; [] 
    1686                            .dwattr $C$DW$113, DW_AT_TI_end_file("../Application/MAC/OSAL/osal.c")
    1687                            .dwattr $C$DW$113, DW_AT_TI_end_line(0x5ea)
    1688                            .dwattr $C$DW$113, DW_AT_TI_end_column(0x01)
    1689                            .dwendentry
    1690                            .dwendtag $C$DW$113
    1691                    
    1692                    ;**     Parameter deleted: format == 0;
    1693 00000000                   .sect   ".text:ICall_send"
    1694                            .clink
    1695                            .thumbfunc ICall_send
    1696 00000000                   .thumb
    1697                    
    1698                    $C$DW$118       .dwtag  DW_TAG_subprogram
    1699                            .dwattr $C$DW$118, DW_AT_name("ICall_send")
    1700                            .dwattr $C$DW$118, DW_AT_low_pc(ICall_send)
    1701                            .dwattr $C$DW$118, DW_AT_high_pc(0x00)
    1702                            .dwattr $C$DW$118, DW_AT_TI_symbol_name("ICall_send")
    1703                            .dwattr $C$DW$118, DW_AT_type(*$C$DW$T$109)
    1704                            .dwattr $C$DW$118, DW_AT_TI_begin_file("C:/ti/simplelink_cc13x0_sdk_2_30_00_20/source/ti/ti154
    1705                            .dwattr $C$DW$118, DW_AT_TI_begin_line(0x7ec)
TI ARM Assembler PC v16.9.9 Sun Nov 25 16:40:48 2018

Tools Copyright (c) 1996-2017 Texas Instruments Incorporated
C:\Users\Stryd\AppData\Local\Temp\{8719FFD6-004A-4401-8DC3-4DA83C6CF1D8} PAGE   32

    1706                            .dwattr $C$DW$118, DW_AT_TI_begin_column(0x14)
    1707                            .dwattr $C$DW$118, DW_AT_decl_file("C:/ti/simplelink_cc13x0_sdk_2_30_00_20/source/ti/ti154stac
    1708                            .dwattr $C$DW$118, DW_AT_decl_line(0x7ec)
    1709                            .dwattr $C$DW$118, DW_AT_decl_column(0x14)
    1710                            .dwattr $C$DW$118, DW_AT_TI_max_frame_size(0x18)
    1711                            .dwpsn  file "C:/ti/simplelink_cc13x0_sdk_2_30_00_20/source/ti/ti154stack/icall/src/inc/icall.
    1712                    
    1713                            .dwfde $C$DW$CIE, ICall_send
    1714                    $C$DW$119       .dwtag  DW_TAG_formal_parameter
    1715                            .dwattr $C$DW$119, DW_AT_name("src")
    1716                            .dwattr $C$DW$119, DW_AT_TI_symbol_name("src")
    1717                            .dwattr $C$DW$119, DW_AT_type(*$C$DW$T$10)
    1718                            .dwattr $C$DW$119, DW_AT_location[DW_OP_reg0]
    1719                    
    1720                    $C$DW$120       .dwtag  DW_TAG_formal_parameter
    1721                            .dwattr $C$DW$120, DW_AT_name("dest")
    1722                            .dwattr $C$DW$120, DW_AT_TI_symbol_name("dest")
    1723                            .dwattr $C$DW$120, DW_AT_type(*$C$DW$T$10)
    1724                            .dwattr $C$DW$120, DW_AT_location[DW_OP_reg1]
    1725                    
    1726                    $C$DW$121       .dwtag  DW_TAG_formal_parameter
    1727                            .dwattr $C$DW$121, DW_AT_name("msg")
    1728                            .dwattr $C$DW$121, DW_AT_TI_symbol_name("msg")
    1729                            .dwattr $C$DW$121, DW_AT_type(*$C$DW$T$3)
    1730                            .dwattr $C$DW$121, DW_AT_location[DW_OP_reg2]
    1731                    
    1732                    
    1733                    ;*****************************************************************************
    1734                    ;* FUNCTION NAME: ICall_send                                                 *
    1735                    ;*                                                                           *
    1736                    ;*   Regs Modified     : A1,A2,A3,A4,V9,SP,LR,SR                             *
    1737                    ;*   Regs Used         : A1,A2,A3,A4,V9,SP,LR,SR                             *
    1738                    ;*   Local Frame Size  : 0 Args + 16 Auto + 4 Save = 20 byte                 *
    1739                    ;*****************************************************************************
    1740                    ICall_send:
    1741                    ;* --------------------------------------------------------------------------*
    1742                    $C$DW$122       .dwtag  DW_TAG_variable
    1743                            .dwattr $C$DW$122, DW_AT_name("args")
    1744                            .dwattr $C$DW$122, DW_AT_TI_symbol_name("args")
    1745                            .dwattr $C$DW$122, DW_AT_type(*$C$DW$T$419)
    1746                            .dwattr $C$DW$122, DW_AT_location[DW_OP_breg13 0]
    1747                    
    1748                    ;* A1    assigned to src
    1749                    $C$DW$123       .dwtag  DW_TAG_variable
    1750                            .dwattr $C$DW$123, DW_AT_name("src")
    1751                            .dwattr $C$DW$123, DW_AT_TI_symbol_name("src")
    1752                            .dwattr $C$DW$123, DW_AT_type(*$C$DW$T$302)
    1753                            .dwattr $C$DW$123, DW_AT_location[DW_OP_reg0]
    1754                    
    1755                    ;* A2    assigned to dest
    1756                    $C$DW$124       .dwtag  DW_TAG_variable
    1757                            .dwattr $C$DW$124, DW_AT_name("dest")
    1758                            .dwattr $C$DW$124, DW_AT_TI_symbol_name("dest")
    1759                            .dwattr $C$DW$124, DW_AT_type(*$C$DW$T$302)
    1760                            .dwattr $C$DW$124, DW_AT_location[DW_OP_reg1]
TI ARM Assembler PC v16.9.9 Sun Nov 25 16:40:48 2018

Tools Copyright (c) 1996-2017 Texas Instruments Incorporated
C:\Users\Stryd\AppData\Local\Temp\{8719FFD6-004A-4401-8DC3-4DA83C6CF1D8} PAGE   33

    1761                    
    1762                    ;* A3    assigned to msg
    1763                    $C$DW$125       .dwtag  DW_TAG_variable
    1764                            .dwattr $C$DW$125, DW_AT_name("msg")
    1765                            .dwattr $C$DW$125, DW_AT_TI_symbol_name("msg")
    1766                            .dwattr $C$DW$125, DW_AT_type(*$C$DW$T$212)
    1767                            .dwattr $C$DW$125, DW_AT_location[DW_OP_reg2]
    1768                    
    1769                            .dwcfi  cfa_offset, 0
    1770 00000000 B500              PUSH      {LR}                  ; [DPU_3_PIPE]  ; [ORIG 16-BIT INS]
    1771                            .dwcfi  cfa_offset, 4
    1772                            .dwcfi  save_reg_to_mem, 14, -4
    1773 00000002 0D14F1AD          SUB       SP, SP, #20           ; [DPU_3_PIPE]  ; [KEEP 32-BIT INS]
    1774                            .dwcfi  cfa_offset, 24
    1775                            .dwpsn  file "C:/ti/simplelink_cc13x0_sdk_2_30_00_20/source/ti/ti154stack/icall/src/inc/icall.
    1776 00000006 0004F88D          STRB      A1, [SP, #4]          ; [DPU_3_PIPE] |2036|  ; [KEEP 32-BIT INS]
    1777                            .dwpsn  file "C:/ti/simplelink_cc13x0_sdk_2_30_00_20/source/ti/ti154stack/icall/src/inc/icall.
    1778 0000000a 2308              MOVS      A4, #8                ; [DPU_3_PIPE] |2034|  ; [ORIG 16-BIT INS]
    1779 0000000c 3000F8AD          STRH      A4, [SP, #0]          ; [DPU_3_PIPE] |2034|  ; [KEEP 32-BIT INS]
    1780                            .dwpsn  file "C:/ti/simplelink_cc13x0_sdk_2_30_00_20/source/ti/ti154stack/icall/src/inc/icall.
    1781 00000010 1006F88D          STRB      A2, [SP, #6]          ; [DPU_3_PIPE] |2037|  ; [KEEP 32-BIT INS]
    1782                            .dwpsn  file "C:/ti/simplelink_cc13x0_sdk_2_30_00_20/source/ti/ti154stack/icall/src/inc/icall.
    1783 00000014 2000              MOVS      A1, #0                ; [DPU_3_PIPE] |2038|  ; [ORIG 16-BIT INS]
    1784 00000016 0008F88D          STRB      A1, [SP, #8]          ; [DPU_3_PIPE] |2038|  ; [KEEP 32-BIT INS]
    1785                            .dwpsn  file "C:/ti/simplelink_cc13x0_sdk_2_30_00_20/source/ti/ti154stack/icall/src/inc/icall.
    1786 0000001a 2306              MOVS      A4, #6                ; [DPU_3_PIPE] |2035|  ; [ORIG 16-BIT INS]
    1787                            .dwpsn  file "C:/ti/simplelink_cc13x0_sdk_2_30_00_20/source/ti/ti154stack/icall/src/inc/icall.
    1788 0000001c 4804              LDR       A1, $C$CON27          ; [DPU_3_PIPE] |2040|  ; [ORIG 16-BIT INS]
    1789                            .dwpsn  file "C:/ti/simplelink_cc13x0_sdk_2_30_00_20/source/ti/ti154stack/icall/src/inc/icall.
    1790 0000001e 9203              STR       A3, [SP, #12]         ; [DPU_3_PIPE] |2039|  ; [ORIG 16-BIT INS]
    1791                            .dwpsn  file "C:/ti/simplelink_cc13x0_sdk_2_30_00_20/source/ti/ti154stack/icall/src/inc/icall.
    1792 00000020 6801              LDR       A2, [A1, #0]          ; [DPU_3_PIPE] |2040|  ; [ORIG 16-BIT INS]
    1793                            .dwpsn  file "C:/ti/simplelink_cc13x0_sdk_2_30_00_20/source/ti/ti154stack/icall/src/inc/icall.
    1794 00000022 3002F8AD          STRH      A4, [SP, #2]          ; [DPU_3_PIPE] |2035|  ; [KEEP 32-BIT INS]
    1795                            .dwpsn  file "C:/ti/simplelink_cc13x0_sdk_2_30_00_20/source/ti/ti154stack/icall/src/inc/icall.
    1796 00000026 4668              MOV       A1, SP                ; [DPU_3_PIPE] |2040|  ; [ORIG 16-BIT INS]
    1797                    $C$DW$126       .dwtag  DW_TAG_TI_branch
    1798                            .dwattr $C$DW$126, DW_AT_low_pc(0x00)
    1799                            .dwattr $C$DW$126, DW_AT_TI_call
    1800                            .dwattr $C$DW$126, DW_AT_TI_indirect
    1801                    
    1802 00000028 4788              BLX       A2                    ; [DPU_3_PIPE] |2040|  ; [ORIG 16-BIT INS]
    1803                            ; CALL OCCURS {}                 ; [] |2040| 
    1804 0000002a B005              ADD       SP, SP, #20           ; [DPU_3_PIPE]  ; [ORIG 16-BIT INS]
    1805                            .dwcfi  cfa_offset, 4
    1806                    $C$DW$127       .dwtag  DW_TAG_TI_branch
    1807                            .dwattr $C$DW$127, DW_AT_low_pc(0x00)
    1808                            .dwattr $C$DW$127, DW_AT_TI_return
    1809                    
    1810 0000002c BD00              POP       {PC}                  ; [DPU_3_PIPE]  ; [ORIG 16-BIT INS]
    1811                            .dwcfi  cfa_offset, 0
    1812                            ; BRANCH OCCURS                  ; [] 
    1813                            .dwattr $C$DW$118, DW_AT_TI_end_file("C:/ti/simplelink_cc13x0_sdk_2_30_00_20/source/ti/ti154st
    1814                            .dwattr $C$DW$118, DW_AT_TI_end_line(0x7f9)
    1815                            .dwattr $C$DW$118, DW_AT_TI_end_column(0x01)
TI ARM Assembler PC v16.9.9 Sun Nov 25 16:40:48 2018

Tools Copyright (c) 1996-2017 Texas Instruments Incorporated
C:\Users\Stryd\AppData\Local\Temp\{8719FFD6-004A-4401-8DC3-4DA83C6CF1D8} PAGE   34

    1816                            .dwendentry
    1817                            .dwendtag $C$DW$118
    1818                    
    1819 00000000                   .sect   ".text:osal_set_event"
    1820                            .clink
    1821                            .thumbfunc osal_set_event
    1822 00000000                   .thumb
    1823                            .global osal_set_event
    1824                    
    1825                    $C$DW$128       .dwtag  DW_TAG_subprogram
    1826                            .dwattr $C$DW$128, DW_AT_name("osal_set_event")
    1827                            .dwattr $C$DW$128, DW_AT_low_pc(osal_set_event)
    1828                            .dwattr $C$DW$128, DW_AT_high_pc(0x00)
    1829                            .dwattr $C$DW$128, DW_AT_TI_symbol_name("osal_set_event")
    1830                            .dwattr $C$DW$128, DW_AT_external
    1831                            .dwattr $C$DW$128, DW_AT_type(*$C$DW$T$19)
    1832                            .dwattr $C$DW$128, DW_AT_TI_begin_file("../Application/MAC/OSAL/osal.c")
    1833                            .dwattr $C$DW$128, DW_AT_TI_begin_line(0x480)
    1834                            .dwattr $C$DW$128, DW_AT_TI_begin_column(0x07)
    1835                            .dwattr $C$DW$128, DW_AT_decl_file("../Application/MAC/OSAL/osal.c")
    1836                            .dwattr $C$DW$128, DW_AT_decl_line(0x480)
    1837                            .dwattr $C$DW$128, DW_AT_decl_column(0x07)
    1838                            .dwattr $C$DW$128, DW_AT_TI_max_frame_size(0x20)
    1839                            .dwpsn  file "../Application/MAC/OSAL/osal.c",line 1154,column 1,is_stmt,address osal_set_even
    1840                    
    1841                            .dwfde $C$DW$CIE, osal_set_event
    1842                    $C$DW$129       .dwtag  DW_TAG_formal_parameter
    1843                            .dwattr $C$DW$129, DW_AT_name("task_id")
    1844                            .dwattr $C$DW$129, DW_AT_TI_symbol_name("task_id")
    1845                            .dwattr $C$DW$129, DW_AT_type(*$C$DW$T$10)
    1846                            .dwattr $C$DW$129, DW_AT_location[DW_OP_reg0]
    1847                    
    1848                    $C$DW$130       .dwtag  DW_TAG_formal_parameter
    1849                            .dwattr $C$DW$130, DW_AT_name("event_flag")
    1850                            .dwattr $C$DW$130, DW_AT_TI_symbol_name("event_flag")
    1851                            .dwattr $C$DW$130, DW_AT_type(*$C$DW$T$10)
    1852                            .dwattr $C$DW$130, DW_AT_location[DW_OP_reg1]
    1853                    
    1854                    
    1855                    ;*****************************************************************************
    1856                    ;* FUNCTION NAME: osal_set_event                                             *
    1857                    ;*                                                                           *
    1858                    ;*   Regs Modified     : A1,A2,A3,A4,V1,V2,V3,V4,V5,V6,V9,SP,LR,SR           *
    1859                    ;*   Regs Used         : A1,A2,A3,A4,V1,V2,V3,V4,V5,V6,V9,SP,LR,SR           *
    1860                    ;*   Local Frame Size  : 0 Args + 0 Auto + 28 Save = 28 byte                 *
    1861                    ;*****************************************************************************
    1862                    osal_set_event:
    1863                    ;* --------------------------------------------------------------------------*
    1864                    ;* A2    assigned to $O$C1
    1865                    ;* A2    assigned to $O$K28
    1866                    ;* V1    assigned to $O$v4
    1867                    ;* V2    assigned to task_id
    1868                    $C$DW$131       .dwtag  DW_TAG_variable
    1869                            .dwattr $C$DW$131, DW_AT_name("task_id")
    1870                            .dwattr $C$DW$131, DW_AT_TI_symbol_name("task_id")
TI ARM Assembler PC v16.9.9 Sun Nov 25 16:40:48 2018

Tools Copyright (c) 1996-2017 Texas Instruments Incorporated
C:\Users\Stryd\AppData\Local\Temp\{8719FFD6-004A-4401-8DC3-4DA83C6CF1D8} PAGE   35

    1871                            .dwattr $C$DW$131, DW_AT_type(*$C$DW$T$298)
    1872                            .dwattr $C$DW$131, DW_AT_location[DW_OP_reg5]
    1873                    
    1874                    ;* V1    assigned to event_flag
    1875                    $C$DW$132       .dwtag  DW_TAG_variable
    1876                            .dwattr $C$DW$132, DW_AT_name("event_flag")
    1877                            .dwattr $C$DW$132, DW_AT_TI_symbol_name("event_flag")
    1878                            .dwattr $C$DW$132, DW_AT_type(*$C$DW$T$326)
    1879                            .dwattr $C$DW$132, DW_AT_location[DW_OP_reg4]
    1880                    
    1881                    ;* V3    assigned to hdr
    1882                    $C$DW$133       .dwtag  DW_TAG_variable
    1883                            .dwattr $C$DW$133, DW_AT_name("hdr")
    1884                            .dwattr $C$DW$133, DW_AT_TI_symbol_name("hdr")
    1885                            .dwattr $C$DW$133, DW_AT_type(*$C$DW$T$409)
    1886                            .dwattr $C$DW$133, DW_AT_location[DW_OP_reg6]
    1887                    
    1888                    ;* V1    assigned to src
    1889                    $C$DW$134       .dwtag  DW_TAG_variable
    1890                            .dwattr $C$DW$134, DW_AT_name("src")
    1891                            .dwattr $C$DW$134, DW_AT_TI_symbol_name("src")
    1892                            .dwattr $C$DW$134, DW_AT_type(*$C$DW$T$10)
    1893                            .dwattr $C$DW$134, DW_AT_location[DW_OP_reg4]
    1894                    
    1895                    ;* A2    assigned to dst
    1896                    $C$DW$135       .dwtag  DW_TAG_variable
    1897                            .dwattr $C$DW$135, DW_AT_name("dst")
    1898                            .dwattr $C$DW$135, DW_AT_TI_symbol_name("dst")
    1899                            .dwattr $C$DW$135, DW_AT_type(*$C$DW$T$10)
    1900                            .dwattr $C$DW$135, DW_AT_location[DW_OP_reg1]
    1901                    
    1902                    ;* A1    assigned to taskid
    1903                    $C$DW$136       .dwtag  DW_TAG_variable
    1904                            .dwattr $C$DW$136, DW_AT_name("taskid")
    1905                            .dwattr $C$DW$136, DW_AT_TI_symbol_name("taskid")
    1906                            .dwattr $C$DW$136, DW_AT_type(*$C$DW$T$10)
    1907                            .dwattr $C$DW$136, DW_AT_location[DW_OP_reg0]
    1908                    
    1909                    ;* V4    assigned to msg_ptr
    1910                    $C$DW$137       .dwtag  DW_TAG_variable
    1911                            .dwattr $C$DW$137, DW_AT_name("msg_ptr")
    1912                            .dwattr $C$DW$137, DW_AT_TI_symbol_name("msg_ptr")
    1913                            .dwattr $C$DW$137, DW_AT_type(*$C$DW$T$432)
    1914                            .dwattr $C$DW$137, DW_AT_location[DW_OP_reg7]
    1915                    
    1916                            .dwcfi  cfa_offset, 0
    1917 00000000 43F8E92D          PUSH      {A4, V1, V2, V3, V4, V5, V6, LR} ; [DPU_3_PIPE]  ; [KEEP 32-BIT INS]
    1918                            .dwcfi  cfa_offset, 32
    1919                            .dwcfi  save_reg_to_mem, 14, -4
    1920                            .dwcfi  save_reg_to_mem, 9, -8
    1921                            .dwcfi  save_reg_to_mem, 8, -12
    1922                            .dwcfi  save_reg_to_mem, 7, -16
    1923                            .dwcfi  save_reg_to_mem, 6, -20
    1924                            .dwcfi  save_reg_to_mem, 5, -24
    1925                            .dwcfi  save_reg_to_mem, 4, -28
TI ARM Assembler PC v16.9.9 Sun Nov 25 16:40:48 2018

Tools Copyright (c) 1996-2017 Texas Instruments Incorporated
C:\Users\Stryd\AppData\Local\Temp\{8719FFD6-004A-4401-8DC3-4DA83C6CF1D8} PAGE   36

    1926                            .dwcfi  save_reg_to_mem, 3, -32
    1927                            .dwpsn  file "../Application/MAC/OSAL/osal.c",line 1179,column 5,is_stmt,isa 1
    1928 00000004 90BCF8DF          LDR       V6, $C$CON34          ; [DPU_3_PIPE] |1179|  ; [KEEP 32-BIT INS]
    1929                            .dwpsn  file "../Application/MAC/OSAL/osal.c",line 1186,column 7,is_stmt,isa 1
    1930 00000008 80A8F8DF          LDR       V5, $C$CON28          ; [DPU_3_PIPE] |1186|  ; [KEEP 32-BIT INS]
    1931                            .dwpsn  file "../Application/MAC/OSAL/osal.c",line 1154,column 1,is_stmt,isa 1
    1932 0000000c 4605              MOV       V2, A1                ; [DPU_3_PIPE] |1154|  ; [ORIG 16-BIT INS]
    1933 0000000e 460C              MOV       V1, A2                ; [DPU_3_PIPE] |1154|  ; [ORIG 16-BIT INS]
    1934                            .dwpsn  file "../Application/MAC/OSAL/osal.c",line 1156,column 3,is_stmt,isa 1
    1935 00000010 007FF035          BICS      A1, V2, #127          ; [DPU_3_PIPE] |1156|  ; [KEEP 32-BIT INS]
    1936 00000014 D119              BNE       ||$C$L13||            ; [DPU_3_PIPE] |1156|  ; [ORIG 16-BIT INS]
    1937                            ; BRANCHCC OCCURS {||$C$L13||}   ; [] |1156| 
    1938                    ;* --------------------------------------------------------------------------*
    1939                            .dwpsn  file "../Application/MAC/OSAL/osal.c",line 1209,column 3,is_stmt,isa 1
    1940 00000016 4642              MOV       A3, V5                ; [DPU_3_PIPE] |1209|  ; [ORIG 16-BIT INS]
    1941 00000018 7810              LDRB      A1, [A3, #0]          ; [DPU_3_PIPE] |1209|  ; [ORIG 16-BIT INS]
    1942 0000001a 42A8              CMP       A1, V2                ; [DPU_3_PIPE] |1209|  ; [ORIG 16-BIT INS]
    1943 0000001c DD12              BLE       ||$C$L12||            ; [DPU_3_PIPE] |1209|  ; [ORIG 16-BIT INS]
    1944                            ; BRANCHCC OCCURS {||$C$L12||}   ; [] |1209| 
    1945                    ;* --------------------------------------------------------------------------*
    1946                            .dwpsn  file "../Application/MAC/OSAL/osal.c",line 1212,column 5,is_stmt,isa 1
    1947 0000001e 4826              LDR       A1, $C$CON29          ; [DPU_3_PIPE] |1212|  ; [ORIG 16-BIT INS]
    1948 00000020 6800              LDR       A1, [A1, #0]          ; [DPU_3_PIPE] |1212|  ; [ORIG 16-BIT INS]
    1949                    $C$DW$138       .dwtag  DW_TAG_TI_branch
    1950                            .dwattr $C$DW$138, DW_AT_low_pc(0x00)
    1951                            .dwattr $C$DW$138, DW_AT_TI_call
    1952                            .dwattr $C$DW$138, DW_AT_TI_indirect
    1953                    
    1954 00000022 4780              BLX       A1                    ; [DPU_3_PIPE] |1212|  ; [ORIG 16-BIT INS]
    1955                            ; CALL OCCURS {}                 ; [] |1212| 
    1956                            .dwpsn  file "../Application/MAC/OSAL/osal.c",line 1213,column 5,is_stmt,isa 1
    1957 00000024 4925              LDR       A2, $C$CON30          ; [DPU_3_PIPE] |1213|  ; [ORIG 16-BIT INS]
    1958 00000026 6809              LDR       A2, [A2, #0]          ; [DPU_3_PIPE] |1213|  ; [ORIG 16-BIT INS]
    1959                            .dwpsn  file "../Application/MAC/OSAL/osal.c",line 1214,column 5,is_stmt,isa 1
    1960 00000028 4F25              LDR       V4, $C$CON31          ; [DPU_3_PIPE] |1214|  ; [ORIG 16-BIT INS]
    1961                            .dwpsn  file "../Application/MAC/OSAL/osal.c",line 1213,column 5,is_stmt,isa 1
    1962 0000002a 2015F831          LDRH      A3, [A2, +V2, LSL #1] ; [DPU_3_PIPE] |1213|  ; [KEEP 32-BIT INS]
    1963 0000002e 4314              ORRS      V1, V1, A3            ; [DPU_3_PIPE] |1213|  ; [ORIG 16-BIT INS]
    1964 00000030 4015F821          STRH      V1, [A2, +V2, LSL #1] ; [DPU_3_PIPE] |1213|  ; [KEEP 32-BIT INS]
    1965                            .dwpsn  file "../Application/MAC/OSAL/osal.c",line 1214,column 5,is_stmt,isa 1
    1966 00000034 6839              LDR       A2, [V4, #0]          ; [DPU_3_PIPE] |1214|  ; [ORIG 16-BIT INS]
    1967                    $C$DW$139       .dwtag  DW_TAG_TI_branch
    1968                            .dwattr $C$DW$139, DW_AT_low_pc(0x00)
    1969                            .dwattr $C$DW$139, DW_AT_TI_call
    1970                            .dwattr $C$DW$139, DW_AT_TI_indirect
    1971                    
    1972 00000036 4788              BLX       A2                    ; [DPU_3_PIPE] |1214|  ; [ORIG 16-BIT INS]
    1973                            ; CALL OCCURS {}                 ; [] |1214| 
    1974                            .dwpsn  file "../Application/MAC/OSAL/osal.c",line 1219,column 5,is_stmt,isa 1
    1975 00000038 4649              MOV       A2, V6                ; [DPU_3_PIPE] |1219|  ; [ORIG 16-BIT INS]
    1976 0000003a 3110              ADDS      A2, A2, #16           ; [DPU_3_PIPE]  ; [ORIG 16-BIT INS]
    1977 0000003c 6808              LDR       A1, [A2, #0]          ; [DPU_3_PIPE] |1219|  ; [ORIG 16-BIT INS]
    1978                    $C$DW$140       .dwtag  DW_TAG_TI_branch
    1979                            .dwattr $C$DW$140, DW_AT_low_pc(0x00)
    1980                            .dwattr $C$DW$140, DW_AT_name("ICall_signal")
TI ARM Assembler PC v16.9.9 Sun Nov 25 16:40:48 2018

Tools Copyright (c) 1996-2017 Texas Instruments Incorporated
C:\Users\Stryd\AppData\Local\Temp\{8719FFD6-004A-4401-8DC3-4DA83C6CF1D8} PAGE   37

    1981                            .dwattr $C$DW$140, DW_AT_TI_call
    1982                    
    1983 0000003e FFFEF7FF!         BL        ICall_signal          ; [DPU_3_PIPE] |1219|  ; [KEEP 32-BIT INS]
    1984                            ; CALL OCCURS {ICall_signal }    ; [] |1219| 
    1985                            .dwpsn  file "../Application/MAC/OSAL/osal.c",line 1222,column 5,is_stmt,isa 1
    1986 00000042 E033              B         ||$C$L17||            ; [DPU_3_PIPE] |1222|  ; [ORIG 16-BIT INS]
    1987                            ; BRANCH OCCURS {||$C$L17||}     ; [] |1222| 
    1988                    ;* --------------------------------------------------------------------------*
    1989 00000044           ||$C$L12||:    
    1990                            .dwcfi  remember_state
    1991                            .dwpsn  file "../Application/MAC/OSAL/osal.c",line 1226,column 5,is_stmt,isa 1
    1992 00000044 2003              MOVS      A1, #3                ; [DPU_3_PIPE] |1226|  ; [ORIG 16-BIT INS]
    1993                    $C$DW$141       .dwtag  DW_TAG_TI_branch
    1994                            .dwattr $C$DW$141, DW_AT_low_pc(0x00)
    1995                            .dwattr $C$DW$141, DW_AT_TI_return
    1996                    
    1997 00000046 83F8E8BD          POP       {A4, V1, V2, V3, V4, V5, V6, PC} ; [DPU_3_PIPE]  ; [KEEP 32-BIT INS]
    1998                            .dwcfi  cfa_offset, 0
    1999                            .dwcfi  restore_reg, 9
    2000                            .dwcfi  restore_reg, 8
    2001                            .dwcfi  restore_reg, 7
    2002                            .dwcfi  restore_reg, 6
    2003                            .dwcfi  restore_reg, 5
    2004                            .dwcfi  restore_reg, 4
    2005                            .dwcfi  restore_reg, 3
    2006                            ; BRANCH OCCURS                  ; [] 
    2007                            .dwcfi  restore_state
    2008                    ;* --------------------------------------------------------------------------*
    2009 0000004a           ||$C$L13||:    
    2010                            .dwpsn  file "../Application/MAC/OSAL/osal.c",line 1167,column 16,is_stmt,isa 1
    2011 0000004a 2004              MOVS      A1, #4                ; [DPU_3_PIPE] |1167|  ; [ORIG 16-BIT INS]
    2012                    $C$DW$142       .dwtag  DW_TAG_TI_branch
    2013                            .dwattr $C$DW$142, DW_AT_low_pc(0x00)
    2014                            .dwattr $C$DW$142, DW_AT_name("osal_msg_allocate")
    2015                            .dwattr $C$DW$142, DW_AT_TI_call
    2016                    
    2017 0000004c FFFEF7FF!         BL        osal_msg_allocate     ; [DPU_3_PIPE] |1167|  ; [KEEP 32-BIT INS]
    2018                            ; CALL OCCURS {osal_msg_allocate }  ; [] |1167| 
    2019                            .dwpsn  file "../Application/MAC/OSAL/osal.c",line 1170,column 5,is_stmt,isa 1
    2020 00000050 1C07              MOVS      V4, A1                ; [DPU_3_PIPE] |1170|  ; [ORIG 16-BIT INS]
    2021 00000052 BF08              IT        EQ                    ; [DPU_3_PIPE]  ; [ORIG 16-BIT INS]
    2022                            .dwpsn  file "../Application/MAC/OSAL/osal.c",line 1172,column 7,is_stmt,isa 1
    2023 00000054 2004              MOVEQ     A1, #4                ; [DPU_3_PIPE] |1172|  ; [ORIG 16-BIT INS]
    2024 00000056 D02A              BEQ       ||$C$L18||            ; [DPU_3_PIPE] |1172|  ; [ORIG 16-BIT INS]
    2025                            ; BRANCHCC OCCURS {||$C$L18||}   ; [] |1172| 
    2026                    ;* --------------------------------------------------------------------------*
    2027                            .dwpsn  file "../Application/MAC/OSAL/osal.c",line 1174,column 5,is_stmt,isa 1
    2028 00000058 70FFF64F          MOV       A1, #65535            ; [DPU_3_PIPE] |1174|  ; [KEEP 32-BIT INS]
    2029 0000005c 8038              STRH      A1, [V4, #0]          ; [DPU_3_PIPE] |1174|  ; [ORIG 16-BIT INS]
    2030                            .dwpsn  file "../Application/MAC/OSAL/osal.c",line 1175,column 5,is_stmt,isa 1
    2031 0000005e 807C              STRH      V1, [V4, #2]          ; [DPU_3_PIPE] |1175|  ; [ORIG 16-BIT INS]
    2032                            .dwpsn  file "../Application/MAC/OSAL/osal.c",line 1178,column 5,is_stmt,isa 1
    2033                    $C$DW$143       .dwtag  DW_TAG_TI_branch
    2034                            .dwattr $C$DW$143, DW_AT_low_pc(0x00)
    2035                            .dwattr $C$DW$143, DW_AT_name("osal_self")
TI ARM Assembler PC v16.9.9 Sun Nov 25 16:40:48 2018

Tools Copyright (c) 1996-2017 Texas Instruments Incorporated
C:\Users\Stryd\AppData\Local\Temp\{8719FFD6-004A-4401-8DC3-4DA83C6CF1D8} PAGE   38

    2036                            .dwattr $C$DW$143, DW_AT_TI_call
    2037                    
    2038 00000060 FFFEF7FF!         BL        osal_self             ; [DPU_3_PIPE] |1178|  ; [KEEP 32-BIT INS]
    2039                            ; CALL OCCURS {osal_self }       ; [] |1178| 
    2040                            .dwpsn  file "../Application/MAC/OSAL/osal.c",line 1179,column 5,is_stmt,isa 1
    2041 00000064 4649              MOV       A2, V6                ; [DPU_3_PIPE] |1179|  ; [ORIG 16-BIT INS]
    2042 00000066 784C              LDRB      V1, [A2, #1]          ; [DPU_3_PIPE] |1179|  ; [ORIG 16-BIT INS]
    2043                            .dwpsn  file "../Application/MAC/OSAL/osal.c",line 1176,column 5,is_stmt,isa 1
    2044 00000068 060CF1A7          SUB       V3, V4, #12           ; [DPU_3_PIPE] |1176|  ; [KEEP 32-BIT INS]
    2045                            .dwpsn  file "../Application/MAC/OSAL/osal.c",line 1179,column 5,is_stmt,isa 1
    2046 0000006c 28FF              CMP       A1, #255              ; [DPU_3_PIPE] |1179|  ; [ORIG 16-BIT INS]
    2047 0000006e D004              BEQ       ||$C$L14||            ; [DPU_3_PIPE] |1179|  ; [ORIG 16-BIT INS]
    2048                            ; BRANCHCC OCCURS {||$C$L14||}   ; [] |1179| 
    2049                    ;* --------------------------------------------------------------------------*
    2050                            .dwpsn  file "../Application/MAC/OSAL/osal.c",line 1186,column 7,is_stmt,isa 1
    2051 00000070 4642              MOV       A3, V5                ; [DPU_3_PIPE] |1186|  ; [ORIG 16-BIT INS]
    2052 00000072 6A8B              LDR       A4, [A2, #40]         ; [DPU_3_PIPE] |1186|  ; [ORIG 16-BIT INS]
    2053 00000074 7812              LDRB      A3, [A3, #0]          ; [DPU_3_PIPE] |1186|  ; [ORIG 16-BIT INS]
    2054 00000076 1812              ADDS      A3, A3, A1            ; [DPU_3_PIPE] |1186|  ; [ORIG 16-BIT INS]
    2055 00000078 5C9C              LDRB      V1, [A4, +A3]         ; [DPU_3_PIPE] |1186|  ; [ORIG 16-BIT INS]
    2056                    ;* --------------------------------------------------------------------------*
    2057 0000007a           ||$C$L14||:    
    2058                            .dwpsn  file "../Application/MAC/OSAL/osal.c",line 1189,column 5,is_stmt,isa 1
    2059 0000007a 2CFF              CMP       V1, #255              ; [DPU_3_PIPE] |1189|  ; [ORIG 16-BIT INS]
    2060 0000007c D107              BNE       ||$C$L16||            ; [DPU_3_PIPE] |1189|  ; [ORIG 16-BIT INS]
    2061                            ; BRANCHCC OCCURS {||$C$L16||}   ; [] |1189| 
    2062                    ;* --------------------------------------------------------------------------*
    2063                            .dwcfi  remember_state
    2064                            .dwpsn  file "../Application/MAC/OSAL/osal.c",line 1192,column 7,is_stmt,isa 1
    2065 0000007e 4638              MOV       A1, V4                ; [DPU_3_PIPE] |1192|  ; [ORIG 16-BIT INS]
    2066                    $C$DW$144       .dwtag  DW_TAG_TI_branch
    2067                            .dwattr $C$DW$144, DW_AT_low_pc(0x00)
    2068                            .dwattr $C$DW$144, DW_AT_name("osal_msg_deallocate")
    2069                            .dwattr $C$DW$144, DW_AT_TI_call
    2070                    
    2071 00000080 FFFEF7FF!         BL        osal_msg_deallocate   ; [DPU_3_PIPE] |1192|  ; [KEEP 32-BIT INS]
    2072                            ; CALL OCCURS {osal_msg_deallocate }  ; [] |1192| 
    2073                            .dwpsn  file "../Application/MAC/OSAL/osal.c",line 1193,column 7,is_stmt,isa 1
    2074                    $C$DW$145       .dwtag  DW_TAG_TI_branch
    2075                            .dwattr $C$DW$145, DW_AT_low_pc(0x00)
    2076                            .dwattr $C$DW$145, DW_AT_name("ICall_abort")
    2077                            .dwattr $C$DW$145, DW_AT_TI_call
    2078                    
    2079 00000084 FFFEF7FF!         BL        ICall_abort           ; [DPU_3_PIPE] |1193|  ; [KEEP 32-BIT INS]
    2080                            ; CALL OCCURS {ICall_abort }     ; [] |1193| 
    2081                    ;* --------------------------------------------------------------------------*
    2082 00000088           ||$C$L15||:    
    2083                            .dwpsn  file "../Application/MAC/OSAL/osal.c",line 1194,column 7,is_stmt,isa 1
    2084 00000088 2001              MOVS      A1, #1                ; [DPU_3_PIPE] |1194|  ; [ORIG 16-BIT INS]
    2085                    $C$DW$146       .dwtag  DW_TAG_TI_branch
    2086                            .dwattr $C$DW$146, DW_AT_low_pc(0x00)
    2087                            .dwattr $C$DW$146, DW_AT_TI_return
    2088                    
    2089 0000008a 83F8E8BD          POP       {A4, V1, V2, V3, V4, V5, V6, PC} ; [DPU_3_PIPE]  ; [KEEP 32-BIT INS]
    2090                            .dwcfi  cfa_offset, 0
TI ARM Assembler PC v16.9.9 Sun Nov 25 16:40:48 2018

Tools Copyright (c) 1996-2017 Texas Instruments Incorporated
C:\Users\Stryd\AppData\Local\Temp\{8719FFD6-004A-4401-8DC3-4DA83C6CF1D8} PAGE   39

    2091                            .dwcfi  restore_reg, 9
    2092                            .dwcfi  restore_reg, 8
    2093                            .dwcfi  restore_reg, 7
    2094                            .dwcfi  restore_reg, 6
    2095                            .dwcfi  restore_reg, 5
    2096                            .dwcfi  restore_reg, 4
    2097                            .dwcfi  restore_reg, 3
    2098                            ; BRANCH OCCURS                  ; [] 
    2099                            .dwcfi  restore_state
    2100                    ;* --------------------------------------------------------------------------*
    2101 0000008e           ||$C$L16||:    
    2102                            .dwpsn  file "../Application/MAC/OSAL/osal.c",line 1196,column 5,is_stmt,isa 1
    2103 0000008e 4628              MOV       A1, V2                ; [DPU_3_PIPE] |1196|  ; [ORIG 16-BIT INS]
    2104                    $C$DW$147       .dwtag  DW_TAG_TI_branch
    2105                            .dwattr $C$DW$147, DW_AT_low_pc(0x00)
    2106                            .dwattr $C$DW$147, DW_AT_name("osal_proxy2alien")
    2107                            .dwattr $C$DW$147, DW_AT_TI_call
    2108                    
    2109 00000090 FFFEF7FF!         BL        osal_proxy2alien      ; [DPU_3_PIPE] |1196|  ; [KEEP 32-BIT INS]
    2110                            ; CALL OCCURS {osal_proxy2alien }  ; [] |1196| 
    2111 00000094 4601              MOV       A2, A1                ; [DPU_3_PIPE] |1196|  ; [ORIG 16-BIT INS]
    2112                            .dwpsn  file "../Application/MAC/OSAL/osal.c",line 1198,column 5,is_stmt,isa 1
    2113 00000096 463A              MOV       A3, V4                ; [DPU_3_PIPE] |1198|  ; [ORIG 16-BIT INS]
    2114                            .dwpsn  file "../Application/MAC/OSAL/osal.c",line 1197,column 5,is_stmt,isa 1
    2115 00000098 20FF              MOVS      A1, #255              ; [DPU_3_PIPE] |1197|  ; [ORIG 16-BIT INS]
    2116 0000009a 72B0              STRB      A1, [V3, #10]         ; [DPU_3_PIPE] |1197|  ; [ORIG 16-BIT INS]
    2117                            .dwpsn  file "../Application/MAC/OSAL/osal.c",line 1198,column 5,is_stmt,isa 1
    2118 0000009c 4620              MOV       A1, V1                ; [DPU_3_PIPE] |1198|  ; [ORIG 16-BIT INS]
    2119                    $C$DW$148       .dwtag  DW_TAG_TI_branch
    2120                            .dwattr $C$DW$148, DW_AT_low_pc(0x00)
    2121                            .dwattr $C$DW$148, DW_AT_name("ICall_send")
    2122                            .dwattr $C$DW$148, DW_AT_TI_call
    2123                    
    2124 0000009e FFFEF7FF!         BL        ICall_send            ; [DPU_3_PIPE] |1198|  ; [KEEP 32-BIT INS]
    2125                            ; CALL OCCURS {ICall_send }      ; [] |1198| 
    2126 000000a2 B118              CBZ       A1, ||$C$L17||        ; []  ; [ORIG 16-BIT INS]
    2127                            ; BRANCHCC OCCURS {||$C$L17||}   ; [] |1198| 
    2128                    ;* --------------------------------------------------------------------------*
    2129                            .dwpsn  file "../Application/MAC/OSAL/osal.c",line 1204,column 5,is_stmt,isa 1
    2130 000000a4 4638              MOV       A1, V4                ; [DPU_3_PIPE] |1204|  ; [ORIG 16-BIT INS]
    2131                    $C$DW$149       .dwtag  DW_TAG_TI_branch
    2132                            .dwattr $C$DW$149, DW_AT_low_pc(0x00)
    2133                            .dwattr $C$DW$149, DW_AT_name("osal_msg_deallocate")
    2134                            .dwattr $C$DW$149, DW_AT_TI_call
    2135                    
    2136 000000a6 FFFEF7FF!         BL        osal_msg_deallocate   ; [DPU_3_PIPE] |1204|  ; [KEEP 32-BIT INS]
    2137                            ; CALL OCCURS {osal_msg_deallocate }  ; [] |1204| 
    2138                            .dwpsn  file "../Application/MAC/OSAL/osal.c",line 1205,column 5,is_stmt,isa 1
    2139 000000aa E7ED              B         ||$C$L15||            ; [DPU_3_PIPE] |1205|  ; [ORIG 16-BIT INS]
    2140                            ; BRANCH OCCURS {||$C$L15||}     ; [] |1205| 
    2141                    ;* --------------------------------------------------------------------------*
    2142 000000ac           ||$C$L17||:    
    2143                            .dwpsn  file "../Application/MAC/OSAL/osal.c",line 1202,column 7,is_stmt,isa 1
    2144 000000ac 2000              MOVS      A1, #0                ; [DPU_3_PIPE] |1202|  ; [ORIG 16-BIT INS]
    2145                    ;* --------------------------------------------------------------------------*
TI ARM Assembler PC v16.9.9 Sun Nov 25 16:40:48 2018

Tools Copyright (c) 1996-2017 Texas Instruments Incorporated
C:\Users\Stryd\AppData\Local\Temp\{8719FFD6-004A-4401-8DC3-4DA83C6CF1D8} PAGE   40

    2146                    ||$C$L18||:    
    2147                    $C$DW$150       .dwtag  DW_TAG_TI_branch
    2148                            .dwattr $C$DW$150, DW_AT_low_pc(0x00)
    2149                            .dwattr $C$DW$150, DW_AT_TI_return
    2150                    
    2151 000000ae 83F8E8BD          POP       {A4, V1, V2, V3, V4, V5, V6, PC} ; [DPU_3_PIPE]  ; [KEEP 32-BIT INS]
    2152                            .dwcfi  cfa_offset, 0
    2153                            .dwcfi  restore_reg, 9
    2154                            .dwcfi  restore_reg, 8
    2155                            .dwcfi  restore_reg, 7
    2156                            .dwcfi  restore_reg, 6
    2157                            .dwcfi  restore_reg, 5
    2158                            .dwcfi  restore_reg, 4
    2159                            .dwcfi  restore_reg, 3
    2160                            ; BRANCH OCCURS                  ; [] 
    2161                            .dwattr $C$DW$128, DW_AT_TI_end_file("../Application/MAC/OSAL/osal.c")
    2162                            .dwattr $C$DW$128, DW_AT_TI_end_line(0x4cc)
    2163                            .dwattr $C$DW$128, DW_AT_TI_end_column(0x01)
    2164                            .dwendentry
    2165                            .dwendtag $C$DW$128
    2166                    
    2167 00000000                   .sect   ".text:osal_msg_enqueue_push"
    2168                            .clink
    2169                            .thumbfunc osal_msg_enqueue_push
    2170 00000000                   .thumb
    2171                    
    2172                    $C$DW$151       .dwtag  DW_TAG_subprogram
    2173                            .dwattr $C$DW$151, DW_AT_name("osal_msg_enqueue_push")
    2174                            .dwattr $C$DW$151, DW_AT_low_pc(osal_msg_enqueue_push)
    2175                            .dwattr $C$DW$151, DW_AT_high_pc(0x00)
    2176                            .dwattr $C$DW$151, DW_AT_TI_symbol_name("osal_msg_enqueue_push")
    2177                            .dwattr $C$DW$151, DW_AT_type(*$C$DW$T$19)
    2178                            .dwattr $C$DW$151, DW_AT_TI_begin_file("../Application/MAC/OSAL/osal.c")
    2179                            .dwattr $C$DW$151, DW_AT_TI_begin_line(0x2dd)
    2180                            .dwattr $C$DW$151, DW_AT_TI_begin_column(0x0e)
    2181                            .dwattr $C$DW$151, DW_AT_decl_file("../Application/MAC/OSAL/osal.c")
    2182                            .dwattr $C$DW$151, DW_AT_decl_line(0x2dd)
    2183                            .dwattr $C$DW$151, DW_AT_decl_column(0x0e)
    2184                            .dwattr $C$DW$151, DW_AT_TI_max_frame_size(0x10)
    2185                            .dwpsn  file "../Application/MAC/OSAL/osal.c",line 734,column 1,is_stmt,address osal_msg_enque
    2186                    
    2187                            .dwfde $C$DW$CIE, osal_msg_enqueue_push
    2188                    $C$DW$152       .dwtag  DW_TAG_formal_parameter
    2189                            .dwattr $C$DW$152, DW_AT_name("destination_task")
    2190                            .dwattr $C$DW$152, DW_AT_TI_symbol_name("destination_task")
    2191                            .dwattr $C$DW$152, DW_AT_type(*$C$DW$T$10)
    2192                            .dwattr $C$DW$152, DW_AT_location[DW_OP_reg0]
    2193                    
    2194                    $C$DW$153       .dwtag  DW_TAG_formal_parameter
    2195                            .dwattr $C$DW$153, DW_AT_name("msg_ptr")
    2196                            .dwattr $C$DW$153, DW_AT_TI_symbol_name("msg_ptr")
    2197                            .dwattr $C$DW$153, DW_AT_type(*$C$DW$T$77)
    2198                            .dwattr $C$DW$153, DW_AT_location[DW_OP_reg1]
    2199                    
    2200                    $C$DW$154       .dwtag  DW_TAG_formal_parameter
TI ARM Assembler PC v16.9.9 Sun Nov 25 16:40:48 2018

Tools Copyright (c) 1996-2017 Texas Instruments Incorporated
C:\Users\Stryd\AppData\Local\Temp\{8719FFD6-004A-4401-8DC3-4DA83C6CF1D8} PAGE   41

    2201                            .dwattr $C$DW$154, DW_AT_name("push")
    2202                            .dwattr $C$DW$154, DW_AT_TI_symbol_name("push")
    2203                            .dwattr $C$DW$154, DW_AT_type(*$C$DW$T$10)
    2204                            .dwattr $C$DW$154, DW_AT_location[DW_OP_reg2]
    2205                    
    2206                    
    2207                    ;*****************************************************************************
    2208                    ;* FUNCTION NAME: osal_msg_enqueue_push                                      *
    2209                    ;*                                                                           *
    2210                    ;*   Regs Modified     : A1,A2,A3,A4,V1,V2,V4,V9,SP,LR,SR                    *
    2211                    ;*   Regs Used         : A1,A2,A3,A4,V1,V2,V4,V9,SP,LR,SR                    *
    2212                    ;*   Local Frame Size  : 0 Args + 0 Auto + 16 Save = 16 byte                 *
    2213                    ;*****************************************************************************
    2214                    osal_msg_enqueue_push:
    2215                    ;* --------------------------------------------------------------------------*
    2216                    ;* V1    assigned to destination_task
    2217                    $C$DW$155       .dwtag  DW_TAG_variable
    2218                            .dwattr $C$DW$155, DW_AT_name("destination_task")
    2219                            .dwattr $C$DW$155, DW_AT_TI_symbol_name("destination_task")
    2220                            .dwattr $C$DW$155, DW_AT_type(*$C$DW$T$298)
    2221                            .dwattr $C$DW$155, DW_AT_location[DW_OP_reg4]
    2222                    
    2223                    ;* V4    assigned to msg_ptr
    2224                    $C$DW$156       .dwtag  DW_TAG_variable
    2225                            .dwattr $C$DW$156, DW_AT_name("msg_ptr")
    2226                            .dwattr $C$DW$156, DW_AT_TI_symbol_name("msg_ptr")
    2227                            .dwattr $C$DW$156, DW_AT_type(*$C$DW$T$284)
    2228                            .dwattr $C$DW$156, DW_AT_location[DW_OP_reg7]
    2229                    
    2230                    ;* V2    assigned to push
    2231                    $C$DW$157       .dwtag  DW_TAG_variable
    2232                            .dwattr $C$DW$157, DW_AT_name("push")
    2233                            .dwattr $C$DW$157, DW_AT_TI_symbol_name("push")
    2234                            .dwattr $C$DW$157, DW_AT_type(*$C$DW$T$298)
    2235                            .dwattr $C$DW$157, DW_AT_location[DW_OP_reg5]
    2236                    
    2237                            .dwcfi  cfa_offset, 0
    2238 00000000 B5B0              PUSH      {V1, V2, V4, LR}      ; [DPU_3_PIPE]  ; [ORIG 16-BIT INS]
    2239                            .dwcfi  cfa_offset, 16
    2240                            .dwcfi  save_reg_to_mem, 14, -4
    2241                            .dwcfi  save_reg_to_mem, 7, -8
    2242                            .dwcfi  save_reg_to_mem, 5, -12
    2243                            .dwcfi  save_reg_to_mem, 4, -16
    2244 00000002 4615              MOV       V2, A3                ; [DPU_3_PIPE] |734|  ; [ORIG 16-BIT INS]
    2245 00000004 4604              MOV       V1, A1                ; [DPU_3_PIPE] |734|  ; [ORIG 16-BIT INS]
    2246                            .dwpsn  file "../Application/MAC/OSAL/osal.c",line 735,column 3,is_stmt,isa 1
    2247 00000006 1C0F              MOVS      V4, A2                ; [DPU_3_PIPE] |735|  ; [ORIG 16-BIT INS]
    2248 00000008 BF08              IT        EQ                    ; [DPU_3_PIPE]  ; [ORIG 16-BIT INS]
    2249                            .dwpsn  file "../Application/MAC/OSAL/osal.c",line 737,column 5,is_stmt,isa 1
    2250 0000000a 2405              MOVEQ     V1, #5                ; [DPU_3_PIPE] |737|  ; [ORIG 16-BIT INS]
    2251 0000000c D028              BEQ       ||$C$L25||            ; [DPU_3_PIPE] |737|  ; [ORIG 16-BIT INS]
    2252                            ; BRANCHCC OCCURS {||$C$L25||}   ; [] |737| 
    2253                    ;* --------------------------------------------------------------------------*
    2254                            .dwpsn  file "../Application/MAC/OSAL/osal.c",line 741,column 3,is_stmt,isa 1
    2255 0000000e 007FF034          BICS      A1, V1, #127          ; [DPU_3_PIPE] |741|  ; [KEEP 32-BIT INS]
TI ARM Assembler PC v16.9.9 Sun Nov 25 16:40:48 2018

Tools Copyright (c) 1996-2017 Texas Instruments Incorporated
C:\Users\Stryd\AppData\Local\Temp\{8719FFD6-004A-4401-8DC3-4DA83C6CF1D8} PAGE   42

    2256 00000012 D001              BEQ       ||$C$L19||            ; [DPU_3_PIPE] |741|  ; [ORIG 16-BIT INS]
    2257                            ; BRANCHCC OCCURS {||$C$L19||}   ; [] |741| 
    2258                    ;* --------------------------------------------------------------------------*
    2259                            .dwpsn  file "../Application/MAC/OSAL/osal.c",line 743,column 5,is_stmt,isa 1
    2260                    $C$DW$158       .dwtag  DW_TAG_TI_branch
    2261                            .dwattr $C$DW$158, DW_AT_low_pc(0x00)
    2262                            .dwattr $C$DW$158, DW_AT_name("ICall_abort")
    2263                            .dwattr $C$DW$158, DW_AT_TI_call
    2264                    
    2265 00000014 FFFEF7FF!         BL        ICall_abort           ; [DPU_3_PIPE] |743|  ; [KEEP 32-BIT INS]
    2266                            ; CALL OCCURS {ICall_abort }     ; [] |743| 
    2267                    ;* --------------------------------------------------------------------------*
    2268 00000018           ||$C$L19||:    
    2269                            .dwpsn  file "../Application/MAC/OSAL/osal.c",line 747,column 3,is_stmt,isa 1
    2270 00000018 4813              LDR       A1, $C$CON37          ; [DPU_3_PIPE] |747|  ; [ORIG 16-BIT INS]
    2271 0000001a 7800              LDRB      A1, [A1, #0]          ; [DPU_3_PIPE] |747|  ; [ORIG 16-BIT INS]
    2272 0000001c 42A0              CMP       A1, V1                ; [DPU_3_PIPE] |747|  ; [ORIG 16-BIT INS]
    2273 0000001e BFD8              IT        LE                    ; [DPU_3_PIPE]  ; [ORIG 16-BIT INS]
    2274                            .dwpsn  file "../Application/MAC/OSAL/osal.c",line 750,column 5,is_stmt,isa 1
    2275 00000020 2403              MOVLE     V1, #3                ; [DPU_3_PIPE] |750|  ; [ORIG 16-BIT INS]
    2276 00000022 DD07              BLE       ||$C$L21||            ; [DPU_3_PIPE] |750|  ; [ORIG 16-BIT INS]
    2277                            ; BRANCHCC OCCURS {||$C$L21||}   ; [] |750| 
    2278                    ;* --------------------------------------------------------------------------*
    2279                            .dwpsn  file "../Application/MAC/OSAL/osal.c",line 754,column 3,is_stmt,isa 1
    2280 00000024 0C0CF857          LDR       A1, [V4, #-12]        ; [DPU_3_PIPE] |754|  ; [KEEP 32-BIT INS]
    2281 00000028 B918              CBNZ      A1, ||$C$L20||        ; []  ; [ORIG 16-BIT INS]
    2282                            ; BRANCHCC OCCURS {||$C$L20||}   ; [] |754| 
    2283                    ;* --------------------------------------------------------------------------*
    2284 0000002a 0C02F817          LDRB      A1, [V4, #-2]         ; [DPU_3_PIPE] |754|  ; [KEEP 32-BIT INS]
    2285 0000002e 28FF              CMP       A1, #255              ; [DPU_3_PIPE] |754|  ; [ORIG 16-BIT INS]
    2286 00000030 D004              BEQ       ||$C$L22||            ; [DPU_3_PIPE] |754|  ; [ORIG 16-BIT INS]
    2287                            ; BRANCHCC OCCURS {||$C$L22||}   ; [] |754| 
    2288                    ;* --------------------------------------------------------------------------*
    2289 00000032           ||$C$L20||:    
    2290                            .dwpsn  file "../Application/MAC/OSAL/osal.c",line 758,column 5,is_stmt,isa 1
    2291 00000032 2405              MOVS      V1, #5                ; [DPU_3_PIPE] |758|  ; [ORIG 16-BIT INS]
    2292                    ;* --------------------------------------------------------------------------*
    2293 00000034           ||$C$L21||:    
    2294                            .dwpsn  file "../Application/MAC/OSAL/osal.c",line 757,column 5,is_stmt,isa 1
    2295 00000034 4638              MOV       A1, V4                ; [DPU_3_PIPE] |757|  ; [ORIG 16-BIT INS]
    2296                    $C$DW$159       .dwtag  DW_TAG_TI_branch
    2297                            .dwattr $C$DW$159, DW_AT_low_pc(0x00)
    2298                            .dwattr $C$DW$159, DW_AT_name("osal_msg_deallocate")
    2299                            .dwattr $C$DW$159, DW_AT_TI_call
    2300                    
    2301 00000036 FFFEF7FF!         BL        osal_msg_deallocate   ; [DPU_3_PIPE] |757|  ; [KEEP 32-BIT INS]
    2302                            ; CALL OCCURS {osal_msg_deallocate }  ; [] |757| 
    2303                            .dwpsn  file "../Application/MAC/OSAL/osal.c",line 758,column 5,is_stmt,isa 1
    2304 0000003a E011              B         ||$C$L25||            ; [DPU_3_PIPE] |758|  ; [ORIG 16-BIT INS]
    2305                            ; BRANCH OCCURS {||$C$L25||}     ; [] |758| 
    2306                    ;* --------------------------------------------------------------------------*
    2307 0000003c           ||$C$L22||:    
    2308                            .dwpsn  file "../Application/MAC/OSAL/osal.c",line 763,column 3,is_stmt,isa 1
    2309 0000003c 2D01              CMP       V2, #1                ; [DPU_3_PIPE] |763|  ; [ORIG 16-BIT INS]
    2310                            .dwpsn  file "../Application/MAC/OSAL/osal.c",line 766,column 5,is_stmt,isa 1
TI ARM Assembler PC v16.9.9 Sun Nov 25 16:40:48 2018

Tools Copyright (c) 1996-2017 Texas Instruments Incorporated
C:\Users\Stryd\AppData\Local\Temp\{8719FFD6-004A-4401-8DC3-4DA83C6CF1D8} PAGE   43

    2311 0000003e 4809              LDR       A1, $C$CON36          ; [DPU_3_PIPE] |766|  ; [ORIG 16-BIT INS]
    2312                            .dwpsn  file "../Application/MAC/OSAL/osal.c",line 761,column 3,is_stmt,isa 1
    2313 00000040 4C02F807          STRB      V1, [V4, #-2]         ; [DPU_3_PIPE] |761|  ; [KEEP 32-BIT INS]
    2314                            .dwpsn  file "../Application/MAC/OSAL/osal.c",line 763,column 3,is_stmt,isa 1
    2315 00000044 D003              BEQ       ||$C$L23||            ; [DPU_3_PIPE] |763|  ; [ORIG 16-BIT INS]
    2316                            ; BRANCHCC OCCURS {||$C$L23||}   ; [] |763| 
    2317                    ;* --------------------------------------------------------------------------*
    2318                            .dwpsn  file "../Application/MAC/OSAL/osal.c",line 771,column 5,is_stmt,isa 1
    2319 00000046 4639              MOV       A2, V4                ; [DPU_3_PIPE] |771|  ; [ORIG 16-BIT INS]
    2320                    $C$DW$160       .dwtag  DW_TAG_TI_branch
    2321                            .dwattr $C$DW$160, DW_AT_low_pc(0x00)
    2322                            .dwattr $C$DW$160, DW_AT_name("osal_msg_enqueue")
    2323                            .dwattr $C$DW$160, DW_AT_TI_call
    2324                    
    2325 00000048 FFFEF7FF!         BL        osal_msg_enqueue      ; [DPU_3_PIPE] |771|  ; [KEEP 32-BIT INS]
    2326                            ; CALL OCCURS {osal_msg_enqueue }  ; [] |771| 
    2327 0000004c E002              B         ||$C$L24||            ; [DPU_3_PIPE] |771|  ; [ORIG 16-BIT INS]
    2328                            ; BRANCH OCCURS {||$C$L24||}     ; [] |771| 
    2329                    ;* --------------------------------------------------------------------------*
    2330 0000004e           ||$C$L23||:    
    2331                            .dwpsn  file "../Application/MAC/OSAL/osal.c",line 766,column 5,is_stmt,isa 1
    2332 0000004e 4639              MOV       A2, V4                ; [DPU_3_PIPE] |766|  ; [ORIG 16-BIT INS]
    2333                    $C$DW$161       .dwtag  DW_TAG_TI_branch
    2334                            .dwattr $C$DW$161, DW_AT_low_pc(0x00)
    2335                            .dwattr $C$DW$161, DW_AT_name("osal_msg_push")
    2336                            .dwattr $C$DW$161, DW_AT_TI_call
    2337                    
    2338 00000050 FFFEF7FF!         BL        osal_msg_push         ; [DPU_3_PIPE] |766|  ; [KEEP 32-BIT INS]
    2339                            ; CALL OCCURS {osal_msg_push }   ; [] |766| 
    2340                    ;* --------------------------------------------------------------------------*
    2341 00000054           ||$C$L24||:    
    2342                            .dwpsn  file "../Application/MAC/OSAL/osal.c",line 775,column 3,is_stmt,isa 1
    2343 00000054 4620              MOV       A1, V1                ; [DPU_3_PIPE] |775|  ; [ORIG 16-BIT INS]
    2344 00000056 4100F44F          MOV       A2, #32768            ; [DPU_3_PIPE] |775|  ; [KEEP 32-BIT INS]
    2345                    $C$DW$162       .dwtag  DW_TAG_TI_branch
    2346                            .dwattr $C$DW$162, DW_AT_low_pc(0x00)
    2347                            .dwattr $C$DW$162, DW_AT_name("osal_set_event")
    2348                            .dwattr $C$DW$162, DW_AT_TI_call
    2349                    
    2350 0000005a FFFEF7FF!         BL        osal_set_event        ; [DPU_3_PIPE] |775|  ; [KEEP 32-BIT INS]
    2351                            ; CALL OCCURS {osal_set_event }  ; [] |775| 
    2352                            .dwpsn  file "../Application/MAC/OSAL/osal.c",line 777,column 3,is_stmt,isa 1
    2353 0000005e 2400              MOVS      V1, #0                ; [DPU_3_PIPE] |777|  ; [ORIG 16-BIT INS]
    2354                    ;* --------------------------------------------------------------------------*
    2355 00000060           ||$C$L25||:    
    2356 00000060 4620              MOV       A1, V1                ; [DPU_3_PIPE] |777|  ; [ORIG 16-BIT INS]
    2357                    $C$DW$163       .dwtag  DW_TAG_TI_branch
    2358                            .dwattr $C$DW$163, DW_AT_low_pc(0x00)
    2359                            .dwattr $C$DW$163, DW_AT_TI_return
    2360                    
    2361 00000062 BDB0              POP       {V1, V2, V4, PC}      ; [DPU_3_PIPE]  ; [ORIG 16-BIT INS]
    2362                            .dwcfi  cfa_offset, 0
    2363                            .dwcfi  restore_reg, 7
    2364                            .dwcfi  restore_reg, 5
    2365                            .dwcfi  restore_reg, 4
TI ARM Assembler PC v16.9.9 Sun Nov 25 16:40:48 2018

Tools Copyright (c) 1996-2017 Texas Instruments Incorporated
C:\Users\Stryd\AppData\Local\Temp\{8719FFD6-004A-4401-8DC3-4DA83C6CF1D8} PAGE   44

    2366                            ; BRANCH OCCURS                  ; [] 
    2367                            .dwattr $C$DW$151, DW_AT_TI_end_file("../Application/MAC/OSAL/osal.c")
    2368                            .dwattr $C$DW$151, DW_AT_TI_end_line(0x30a)
    2369                            .dwattr $C$DW$151, DW_AT_TI_end_column(0x01)
    2370                            .dwendentry
    2371                            .dwendtag $C$DW$151
    2372                    
    2373 00000000                   .sect   ".text:osal_msg_send"
    2374                            .clink
    2375                            .thumbfunc osal_msg_send
    2376 00000000                   .thumb
    2377                            .global osal_msg_send
    2378                    
    2379                    $C$DW$164       .dwtag  DW_TAG_subprogram
    2380                            .dwattr $C$DW$164, DW_AT_name("osal_msg_send")
    2381                            .dwattr $C$DW$164, DW_AT_low_pc(osal_msg_send)
    2382                            .dwattr $C$DW$164, DW_AT_high_pc(0x00)
    2383                            .dwattr $C$DW$164, DW_AT_TI_symbol_name("osal_msg_send")
    2384                            .dwattr $C$DW$164, DW_AT_external
    2385                            .dwattr $C$DW$164, DW_AT_type(*$C$DW$T$19)
    2386                            .dwattr $C$DW$164, DW_AT_TI_begin_file("../Application/MAC/OSAL/osal.c")
    2387                            .dwattr $C$DW$164, DW_AT_TI_begin_line(0x28e)
    2388                            .dwattr $C$DW$164, DW_AT_TI_begin_column(0x07)
    2389                            .dwattr $C$DW$164, DW_AT_decl_file("../Application/MAC/OSAL/osal.c")
    2390                            .dwattr $C$DW$164, DW_AT_decl_line(0x28e)
    2391                            .dwattr $C$DW$164, DW_AT_decl_column(0x07)
    2392                            .dwattr $C$DW$164, DW_AT_TI_max_frame_size(0x10)
    2393                            .dwpsn  file "../Application/MAC/OSAL/osal.c",line 655,column 1,is_stmt,address osal_msg_send,
    2394                    
    2395                            .dwfde $C$DW$CIE, osal_msg_send
    2396                    $C$DW$165       .dwtag  DW_TAG_formal_parameter
    2397                            .dwattr $C$DW$165, DW_AT_name("destination_task")
    2398                            .dwattr $C$DW$165, DW_AT_TI_symbol_name("destination_task")
    2399                            .dwattr $C$DW$165, DW_AT_type(*$C$DW$T$10)
    2400                            .dwattr $C$DW$165, DW_AT_location[DW_OP_reg0]
    2401                    
    2402                    $C$DW$166       .dwtag  DW_TAG_formal_parameter
    2403                            .dwattr $C$DW$166, DW_AT_name("msg_ptr")
    2404                            .dwattr $C$DW$166, DW_AT_TI_symbol_name("msg_ptr")
    2405                            .dwattr $C$DW$166, DW_AT_type(*$C$DW$T$77)
    2406                            .dwattr $C$DW$166, DW_AT_location[DW_OP_reg1]
    2407                    
    2408                    
    2409                    ;*****************************************************************************
    2410                    ;* FUNCTION NAME: osal_msg_send                                              *
    2411                    ;*                                                                           *
    2412                    ;*   Regs Modified     : A1,A2,A3,A4,V1,V2,V3,V9,SP,LR,SR                    *
    2413                    ;*   Regs Used         : A1,A2,A3,A4,V1,V2,V3,V9,SP,LR,SR                    *
    2414                    ;*   Local Frame Size  : 0 Args + 0 Auto + 16 Save = 16 byte                 *
    2415                    ;*****************************************************************************
    2416                    osal_msg_send:
    2417                    ;* --------------------------------------------------------------------------*
    2418                    ;* A2    assigned to $O$C16
    2419                    ;* A2    assigned to $O$K14
    2420                    ;* V1    assigned to $O$v3
TI ARM Assembler PC v16.9.9 Sun Nov 25 16:40:48 2018

Tools Copyright (c) 1996-2017 Texas Instruments Incorporated
C:\Users\Stryd\AppData\Local\Temp\{8719FFD6-004A-4401-8DC3-4DA83C6CF1D8} PAGE   45

    2421                    ;* A4    assigned to destination_task
    2422                    $C$DW$167       .dwtag  DW_TAG_variable
    2423                            .dwattr $C$DW$167, DW_AT_name("destination_task")
    2424                            .dwattr $C$DW$167, DW_AT_TI_symbol_name("destination_task")
    2425                            .dwattr $C$DW$167, DW_AT_type(*$C$DW$T$298)
    2426                            .dwattr $C$DW$167, DW_AT_location[DW_OP_reg3]
    2427                    
    2428                    ;* V2    assigned to msg_ptr
    2429                    $C$DW$168       .dwtag  DW_TAG_variable
    2430                            .dwattr $C$DW$168, DW_AT_name("msg_ptr")
    2431                            .dwattr $C$DW$168, DW_AT_TI_symbol_name("msg_ptr")
    2432                            .dwattr $C$DW$168, DW_AT_type(*$C$DW$T$284)
    2433                            .dwattr $C$DW$168, DW_AT_location[DW_OP_reg5]
    2434                    
    2435                    ;* V3    assigned to hdr
    2436                    $C$DW$169       .dwtag  DW_TAG_variable
    2437                            .dwattr $C$DW$169, DW_AT_name("hdr")
    2438                            .dwattr $C$DW$169, DW_AT_TI_symbol_name("hdr")
    2439                            .dwattr $C$DW$169, DW_AT_type(*$C$DW$T$409)
    2440                            .dwattr $C$DW$169, DW_AT_location[DW_OP_reg6]
    2441                    
    2442                    ;* V1    assigned to src
    2443                    $C$DW$170       .dwtag  DW_TAG_variable
    2444                            .dwattr $C$DW$170, DW_AT_name("src")
    2445                            .dwattr $C$DW$170, DW_AT_TI_symbol_name("src")
    2446                            .dwattr $C$DW$170, DW_AT_type(*$C$DW$T$10)
    2447                            .dwattr $C$DW$170, DW_AT_location[DW_OP_reg4]
    2448                    
    2449                    ;* A2    assigned to dst
    2450                    $C$DW$171       .dwtag  DW_TAG_variable
    2451                            .dwattr $C$DW$171, DW_AT_name("dst")
    2452                            .dwattr $C$DW$171, DW_AT_TI_symbol_name("dst")
    2453                            .dwattr $C$DW$171, DW_AT_type(*$C$DW$T$10)
    2454                            .dwattr $C$DW$171, DW_AT_location[DW_OP_reg1]
    2455                    
    2456                    ;* A1    assigned to taskid
    2457                    $C$DW$172       .dwtag  DW_TAG_variable
    2458                            .dwattr $C$DW$172, DW_AT_name("taskid")
    2459                            .dwattr $C$DW$172, DW_AT_TI_symbol_name("taskid")
    2460                            .dwattr $C$DW$172, DW_AT_type(*$C$DW$T$10)
    2461                            .dwattr $C$DW$172, DW_AT_location[DW_OP_reg0]
    2462                    
    2463                            .dwcfi  cfa_offset, 0
    2464 00000000 B570              PUSH      {V1, V2, V3, LR}      ; [DPU_3_PIPE]  ; [ORIG 16-BIT INS]
    2465                            .dwcfi  cfa_offset, 16
    2466                            .dwcfi  save_reg_to_mem, 14, -4
    2467                            .dwcfi  save_reg_to_mem, 6, -8
    2468                            .dwcfi  save_reg_to_mem, 5, -12
    2469                            .dwcfi  save_reg_to_mem, 4, -16
    2470 00000002 4603              MOV       A4, A1                ; [DPU_3_PIPE] |655|  ; [ORIG 16-BIT INS]
    2471 00000004 460D              MOV       V2, A2                ; [DPU_3_PIPE] |655|  ; [ORIG 16-BIT INS]
    2472                            .dwpsn  file "../Application/MAC/OSAL/osal.c",line 657,column 3,is_stmt,isa 1
    2473 00000006 007FF033          BICS      A1, A4, #127          ; [DPU_3_PIPE] |657|  ; [KEEP 32-BIT INS]
    2474 0000000a D104              BNE       ||$C$L26||            ; [DPU_3_PIPE] |657|  ; [ORIG 16-BIT INS]
    2475                            ; BRANCHCC OCCURS {||$C$L26||}   ; [] |657| 
TI ARM Assembler PC v16.9.9 Sun Nov 25 16:40:48 2018

Tools Copyright (c) 1996-2017 Texas Instruments Incorporated
C:\Users\Stryd\AppData\Local\Temp\{8719FFD6-004A-4401-8DC3-4DA83C6CF1D8} PAGE   46

    2476                    ;* --------------------------------------------------------------------------*
    2477                            .dwcfi  remember_state
    2478                            .dwpsn  file "../Application/MAC/OSAL/osal.c",line 691,column 3,is_stmt,isa 1
    2479 0000000c 4618              MOV       A1, A4                ; [DPU_3_PIPE] |691|  ; [ORIG 16-BIT INS]
    2480 0000000e 2200              MOVS      A3, #0                ; [DPU_3_PIPE] |691|  ; [ORIG 16-BIT INS]
    2481                    $C$DW$173       .dwtag  DW_TAG_TI_branch
    2482                            .dwattr $C$DW$173, DW_AT_low_pc(0x00)
    2483                            .dwattr $C$DW$173, DW_AT_name("osal_msg_enqueue_push")
    2484                            .dwattr $C$DW$173, DW_AT_TI_call
    2485                    
    2486 00000010 FFFEF7FF!         BL        osal_msg_enqueue_push ; [DPU_3_PIPE] |691|  ; [KEEP 32-BIT INS]
    2487                            ; CALL OCCURS {osal_msg_enqueue_push }  ; [] |691| 
    2488                    $C$DW$174       .dwtag  DW_TAG_TI_branch
    2489                            .dwattr $C$DW$174, DW_AT_low_pc(0x00)
    2490                            .dwattr $C$DW$174, DW_AT_TI_return
    2491                    
    2492 00000014 BD70              POP       {V1, V2, V3, PC}      ; [DPU_3_PIPE]  ; [ORIG 16-BIT INS]
    2493                            .dwcfi  cfa_offset, 0
    2494                            .dwcfi  restore_reg, 6
    2495                            .dwcfi  restore_reg, 5
    2496                            .dwcfi  restore_reg, 4
    2497                            ; BRANCH OCCURS                  ; [] 
    2498                            .dwcfi  restore_state
    2499                    ;* --------------------------------------------------------------------------*
    2500 00000016           ||$C$L26||:    
    2501                            .dwpsn  file "../Application/MAC/OSAL/osal.c",line 663,column 18,is_stmt,isa 1
    2502                    $C$DW$175       .dwtag  DW_TAG_TI_branch
    2503                            .dwattr $C$DW$175, DW_AT_low_pc(0x00)
    2504                            .dwattr $C$DW$175, DW_AT_name("osal_self")
    2505                            .dwattr $C$DW$175, DW_AT_TI_call
    2506                    
    2507 00000016 FFFEF7FF!         BL        osal_self             ; [DPU_3_PIPE] |663|  ; [KEEP 32-BIT INS]
    2508                            ; CALL OCCURS {osal_self }       ; [] |663| 
    2509                            .dwpsn  file "../Application/MAC/OSAL/osal.c",line 664,column 5,is_stmt,isa 1
    2510 0000001a 4911              LDR       A2, $C$CON40          ; [DPU_3_PIPE] |664|  ; [ORIG 16-BIT INS]
    2511 0000001c 1F09              SUBS      A2, A2, #4            ; [DPU_3_PIPE]  ; [ORIG 16-BIT INS]
    2512 0000001e 784C              LDRB      V1, [A2, #1]          ; [DPU_3_PIPE] |664|  ; [ORIG 16-BIT INS]
    2513                            .dwpsn  file "../Application/MAC/OSAL/osal.c",line 660,column 25,is_stmt,isa 1
    2514 00000020 060CF1A5          SUB       V3, V2, #12           ; [DPU_3_PIPE] |660|  ; [KEEP 32-BIT INS]
    2515                            .dwpsn  file "../Application/MAC/OSAL/osal.c",line 664,column 5,is_stmt,isa 1
    2516 00000024 28FF              CMP       A1, #255              ; [DPU_3_PIPE] |664|  ; [ORIG 16-BIT INS]
    2517 00000026 D004              BEQ       ||$C$L27||            ; [DPU_3_PIPE] |664|  ; [ORIG 16-BIT INS]
    2518                            ; BRANCHCC OCCURS {||$C$L27||}   ; [] |664| 
    2519                    ;* --------------------------------------------------------------------------*
    2520                            .dwpsn  file "../Application/MAC/OSAL/osal.c",line 671,column 7,is_stmt,isa 1
    2521 00000028 4A0E              LDR       A3, $C$CON41          ; [DPU_3_PIPE] |671|  ; [ORIG 16-BIT INS]
    2522 0000002a 7812              LDRB      A3, [A3, #0]          ; [DPU_3_PIPE] |671|  ; [ORIG 16-BIT INS]
    2523 0000002c 1812              ADDS      A3, A3, A1            ; [DPU_3_PIPE] |671|  ; [ORIG 16-BIT INS]
    2524 0000002e 6A88              LDR       A1, [A2, #40]         ; [DPU_3_PIPE] |671|  ; [ORIG 16-BIT INS]
    2525 00000030 5C84              LDRB      V1, [A1, +A3]         ; [DPU_3_PIPE] |671|  ; [ORIG 16-BIT INS]
    2526                    ;* --------------------------------------------------------------------------*
    2527 00000032           ||$C$L27||:    
    2528                            .dwpsn  file "../Application/MAC/OSAL/osal.c",line 673,column 5,is_stmt,isa 1
    2529 00000032 2CFF              CMP       V1, #255              ; [DPU_3_PIPE] |673|  ; [ORIG 16-BIT INS]
    2530 00000034 D102              BNE       ||$C$L28||            ; [DPU_3_PIPE] |673|  ; [ORIG 16-BIT INS]
TI ARM Assembler PC v16.9.9 Sun Nov 25 16:40:48 2018

Tools Copyright (c) 1996-2017 Texas Instruments Incorporated
C:\Users\Stryd\AppData\Local\Temp\{8719FFD6-004A-4401-8DC3-4DA83C6CF1D8} PAGE   47

    2531                            ; BRANCHCC OCCURS {||$C$L28||}   ; [] |673| 
    2532                    ;* --------------------------------------------------------------------------*
    2533                            .dwpsn  file "../Application/MAC/OSAL/osal.c",line 677,column 7,is_stmt,isa 1
    2534                    $C$DW$176       .dwtag  DW_TAG_TI_branch
    2535                            .dwattr $C$DW$176, DW_AT_low_pc(0x00)
    2536                            .dwattr $C$DW$176, DW_AT_name("ICall_abort")
    2537                            .dwattr $C$DW$176, DW_AT_TI_call
    2538                    
    2539 00000036 FFFEF7FF!         BL        ICall_abort           ; [DPU_3_PIPE] |677|  ; [KEEP 32-BIT INS]
    2540                            ; CALL OCCURS {ICall_abort }     ; [] |677| 
    2541                            .dwpsn  file "../Application/MAC/OSAL/osal.c",line 678,column 7,is_stmt,isa 1
    2542 0000003a E00D              B         ||$C$L29||            ; [DPU_3_PIPE] |678|  ; [ORIG 16-BIT INS]
    2543                            ; BRANCH OCCURS {||$C$L29||}     ; [] |678| 
    2544                    ;* --------------------------------------------------------------------------*
    2545 0000003c           ||$C$L28||:    
    2546                            .dwpsn  file "../Application/MAC/OSAL/osal.c",line 680,column 5,is_stmt,isa 1
    2547 0000003c 4618              MOV       A1, A4                ; [DPU_3_PIPE] |680|  ; [ORIG 16-BIT INS]
    2548                    $C$DW$177       .dwtag  DW_TAG_TI_branch
    2549                            .dwattr $C$DW$177, DW_AT_low_pc(0x00)
    2550                            .dwattr $C$DW$177, DW_AT_name("osal_proxy2alien")
    2551                            .dwattr $C$DW$177, DW_AT_TI_call
    2552                    
    2553 0000003e FFFEF7FF!         BL        osal_proxy2alien      ; [DPU_3_PIPE] |680|  ; [KEEP 32-BIT INS]
    2554                            ; CALL OCCURS {osal_proxy2alien }  ; [] |680| 
    2555 00000042 4601              MOV       A2, A1                ; [DPU_3_PIPE] |680|  ; [ORIG 16-BIT INS]
    2556                            .dwpsn  file "../Application/MAC/OSAL/osal.c",line 682,column 5,is_stmt,isa 1
    2557 00000044 462A              MOV       A3, V2                ; [DPU_3_PIPE] |682|  ; [ORIG 16-BIT INS]
    2558                            .dwpsn  file "../Application/MAC/OSAL/osal.c",line 681,column 5,is_stmt,isa 1
    2559 00000046 20FF              MOVS      A1, #255              ; [DPU_3_PIPE] |681|  ; [ORIG 16-BIT INS]
    2560 00000048 72B0              STRB      A1, [V3, #10]         ; [DPU_3_PIPE] |681|  ; [ORIG 16-BIT INS]
    2561                            .dwpsn  file "../Application/MAC/OSAL/osal.c",line 682,column 5,is_stmt,isa 1
    2562 0000004a 4620              MOV       A1, V1                ; [DPU_3_PIPE] |682|  ; [ORIG 16-BIT INS]
    2563                    $C$DW$178       .dwtag  DW_TAG_TI_branch
    2564                            .dwattr $C$DW$178, DW_AT_low_pc(0x00)
    2565                            .dwattr $C$DW$178, DW_AT_name("ICall_send")
    2566                            .dwattr $C$DW$178, DW_AT_TI_call
    2567                    
    2568 0000004c FFFEF7FF!         BL        ICall_send            ; [DPU_3_PIPE] |682|  ; [KEEP 32-BIT INS]
    2569                            ; CALL OCCURS {ICall_send }      ; [] |682| 
    2570 00000050 B120              CBZ       A1, ||$C$L30||        ; []  ; [ORIG 16-BIT INS]
    2571                            ; BRANCHCC OCCURS {||$C$L30||}   ; [] |682| 
    2572                    ;* --------------------------------------------------------------------------*
    2573                            .dwcfi  remember_state
    2574                            .dwpsn  file "../Application/MAC/OSAL/osal.c",line 687,column 5,is_stmt,isa 1
    2575 00000052 4628              MOV       A1, V2                ; [DPU_3_PIPE] |687|  ; [ORIG 16-BIT INS]
    2576                    $C$DW$179       .dwtag  DW_TAG_TI_branch
    2577                            .dwattr $C$DW$179, DW_AT_low_pc(0x00)
    2578                            .dwattr $C$DW$179, DW_AT_name("osal_msg_deallocate")
    2579                            .dwattr $C$DW$179, DW_AT_TI_call
    2580                    
    2581 00000054 FFFEF7FF!         BL        osal_msg_deallocate   ; [DPU_3_PIPE] |687|  ; [KEEP 32-BIT INS]
    2582                            ; CALL OCCURS {osal_msg_deallocate }  ; [] |687| 
    2583                    ;* --------------------------------------------------------------------------*
    2584 00000058           ||$C$L29||:    
    2585                            .dwpsn  file "../Application/MAC/OSAL/osal.c",line 688,column 5,is_stmt,isa 1
TI ARM Assembler PC v16.9.9 Sun Nov 25 16:40:48 2018

Tools Copyright (c) 1996-2017 Texas Instruments Incorporated
C:\Users\Stryd\AppData\Local\Temp\{8719FFD6-004A-4401-8DC3-4DA83C6CF1D8} PAGE   48

    2586 00000058 2001              MOVS      A1, #1                ; [DPU_3_PIPE] |688|  ; [ORIG 16-BIT INS]
    2587                    $C$DW$180       .dwtag  DW_TAG_TI_branch
    2588                            .dwattr $C$DW$180, DW_AT_low_pc(0x00)
    2589                            .dwattr $C$DW$180, DW_AT_TI_return
    2590                    
    2591 0000005a BD70              POP       {V1, V2, V3, PC}      ; [DPU_3_PIPE]  ; [ORIG 16-BIT INS]
    2592                            .dwcfi  cfa_offset, 0
    2593                            .dwcfi  restore_reg, 6
    2594                            .dwcfi  restore_reg, 5
    2595                            .dwcfi  restore_reg, 4
    2596                            ; BRANCH OCCURS                  ; [] 
    2597                            .dwcfi  restore_state
    2598                    ;* --------------------------------------------------------------------------*
    2599 0000005c           ||$C$L30||:    
    2600                            .dwpsn  file "../Application/MAC/OSAL/osal.c",line 685,column 7,is_stmt,isa 1
    2601 0000005c 2000              MOVS      A1, #0                ; [DPU_3_PIPE] |685|  ; [ORIG 16-BIT INS]
    2602                    ;* --------------------------------------------------------------------------*
    2603                    $C$DW$181       .dwtag  DW_TAG_TI_branch
    2604                            .dwattr $C$DW$181, DW_AT_low_pc(0x00)
    2605                            .dwattr $C$DW$181, DW_AT_TI_return
    2606                    
    2607 0000005e BD70              POP       {V1, V2, V3, PC}      ; [DPU_3_PIPE]  ; [ORIG 16-BIT INS]
    2608                            .dwcfi  cfa_offset, 0
    2609                            .dwcfi  restore_reg, 6
    2610                            .dwcfi  restore_reg, 5
    2611                            .dwcfi  restore_reg, 4
    2612                            ; BRANCH OCCURS                  ; [] 
    2613                            .dwattr $C$DW$164, DW_AT_TI_end_file("../Application/MAC/OSAL/osal.c")
    2614                            .dwattr $C$DW$164, DW_AT_TI_end_line(0x2b4)
    2615                            .dwattr $C$DW$164, DW_AT_TI_end_column(0x01)
    2616                            .dwendentry
    2617                            .dwendtag $C$DW$164
    2618                    
    2619                    ;**     Parameter deleted: id == &osal_timerid_msec_timer;
    2620                    ;**     Parameter deleted: cback == &osal_msec_timer_cback;
    2621 00000000                   .sect   ".text:ICall_setTimerMSecs"
    2622                            .clink
    2623                            .thumbfunc ICall_setTimerMSecs
    2624 00000000                   .thumb
    2625                    
    2626                    $C$DW$182       .dwtag  DW_TAG_subprogram
    2627                            .dwattr $C$DW$182, DW_AT_name("ICall_setTimerMSecs")
    2628                            .dwattr $C$DW$182, DW_AT_low_pc(ICall_setTimerMSecs)
    2629                            .dwattr $C$DW$182, DW_AT_high_pc(0x00)
    2630                            .dwattr $C$DW$182, DW_AT_TI_symbol_name("ICall_setTimerMSecs")
    2631                            .dwattr $C$DW$182, DW_AT_type(*$C$DW$T$109)
    2632                            .dwattr $C$DW$182, DW_AT_TI_begin_file("C:/ti/simplelink_cc13x0_sdk_2_30_00_20/source/ti/ti154
    2633                            .dwattr $C$DW$182, DW_AT_TI_begin_line(0x8ec)
    2634                            .dwattr $C$DW$182, DW_AT_TI_begin_column(0x01)
    2635                            .dwattr $C$DW$182, DW_AT_decl_file("C:/ti/simplelink_cc13x0_sdk_2_30_00_20/source/ti/ti154stac
    2636                            .dwattr $C$DW$182, DW_AT_decl_line(0x8ec)
    2637                            .dwattr $C$DW$182, DW_AT_decl_column(0x01)
    2638                            .dwattr $C$DW$182, DW_AT_TI_max_frame_size(0x20)
    2639                            .dwpsn  file "C:/ti/simplelink_cc13x0_sdk_2_30_00_20/source/ti/ti154stack/icall/src/inc/icall.
    2640                    
TI ARM Assembler PC v16.9.9 Sun Nov 25 16:40:48 2018

Tools Copyright (c) 1996-2017 Texas Instruments Incorporated
C:\Users\Stryd\AppData\Local\Temp\{8719FFD6-004A-4401-8DC3-4DA83C6CF1D8} PAGE   49

    2641                            .dwfde $C$DW$CIE, ICall_setTimerMSecs
    2642                    $C$DW$183       .dwtag  DW_TAG_formal_parameter
    2643                            .dwattr $C$DW$183, DW_AT_name("msecs")
    2644                            .dwattr $C$DW$183, DW_AT_TI_symbol_name("msecs")
    2645                            .dwattr $C$DW$183, DW_AT_type(*$C$DW$T$128)
    2646                            .dwattr $C$DW$183, DW_AT_location[DW_OP_reg0]
    2647                    
    2648                    $C$DW$184       .dwtag  DW_TAG_formal_parameter
    2649                            .dwattr $C$DW$184, DW_AT_name("arg")
    2650                            .dwattr $C$DW$184, DW_AT_TI_symbol_name("arg")
    2651                            .dwattr $C$DW$184, DW_AT_type(*$C$DW$T$3)
    2652                            .dwattr $C$DW$184, DW_AT_location[DW_OP_reg1]
    2653                    
    2654                    
    2655                    ;*****************************************************************************
    2656                    ;* FUNCTION NAME: ICall_setTimerMSecs                                        *
    2657                    ;*                                                                           *
    2658                    ;*   Regs Modified     : A1,A2,A3,A4,V1,V9,SP,LR,SR                          *
    2659                    ;*   Regs Used         : A1,A2,A3,A4,V1,V9,SP,LR,SR                          *
    2660                    ;*   Local Frame Size  : 0 Args + 20 Auto + 8 Save = 28 byte                 *
    2661                    ;*****************************************************************************
    2662                    ICall_setTimerMSecs:
    2663                    ;* --------------------------------------------------------------------------*
    2664                    $C$DW$185       .dwtag  DW_TAG_variable
    2665                            .dwattr $C$DW$185, DW_AT_name("args")
    2666                            .dwattr $C$DW$185, DW_AT_TI_symbol_name("args")
    2667                            .dwattr $C$DW$185, DW_AT_type(*$C$DW$T$421)
    2668                            .dwattr $C$DW$185, DW_AT_location[DW_OP_breg13 0]
    2669                    
    2670                    ;* V1    assigned to $O$C1
    2671                    ;* A1    assigned to msecs
    2672                    $C$DW$186       .dwtag  DW_TAG_variable
    2673                            .dwattr $C$DW$186, DW_AT_name("msecs")
    2674                            .dwattr $C$DW$186, DW_AT_TI_symbol_name("msecs")
    2675                            .dwattr $C$DW$186, DW_AT_type(*$C$DW$T$371)
    2676                            .dwattr $C$DW$186, DW_AT_location[DW_OP_reg0]
    2677                    
    2678                    ;* A2    assigned to arg
    2679                    $C$DW$187       .dwtag  DW_TAG_variable
    2680                            .dwattr $C$DW$187, DW_AT_name("arg")
    2681                            .dwattr $C$DW$187, DW_AT_TI_symbol_name("arg")
    2682                            .dwattr $C$DW$187, DW_AT_type(*$C$DW$T$212)
    2683                            .dwattr $C$DW$187, DW_AT_location[DW_OP_reg1]
    2684                    
    2685                            .dwcfi  cfa_offset, 0
    2686 00000000 B510              PUSH      {V1, LR}              ; [DPU_3_PIPE]  ; [ORIG 16-BIT INS]
    2687                            .dwcfi  cfa_offset, 8
    2688                            .dwcfi  save_reg_to_mem, 14, -4
    2689                            .dwcfi  save_reg_to_mem, 4, -8
    2690                            .dwpsn  file "C:/ti/simplelink_cc13x0_sdk_2_30_00_20/source/ti/ti154stack/icall/src/inc/icall.
    2691 00000002 4C0E              LDR       V1, $C$CON45          ; [DPU_3_PIPE] |2296|  ; [ORIG 16-BIT INS]
    2692 00000004 0D18F1AD          SUB       SP, SP, #24           ; [DPU_3_PIPE]  ; [KEEP 32-BIT INS]
    2693                            .dwcfi  cfa_offset, 32
    2694                            .dwpsn  file "C:/ti/simplelink_cc13x0_sdk_2_30_00_20/source/ti/ti154stack/icall/src/inc/icall.
    2695 00000008 9001              STR       A1, [SP, #4]          ; [DPU_3_PIPE] |2293|  ; [ORIG 16-BIT INS]
TI ARM Assembler PC v16.9.9 Sun Nov 25 16:40:48 2018

Tools Copyright (c) 1996-2017 Texas Instruments Incorporated
C:\Users\Stryd\AppData\Local\Temp\{8719FFD6-004A-4401-8DC3-4DA83C6CF1D8} PAGE   50

    2696                            .dwpsn  file "C:/ti/simplelink_cc13x0_sdk_2_30_00_20/source/ti/ti154stack/icall/src/inc/icall.
    2697 0000000a 480A              LDR       A1, $C$CON42          ; [DPU_3_PIPE] |2294|  ; [ORIG 16-BIT INS]
    2698 0000000c 1F24              SUBS      V1, V1, #4            ; [DPU_3_PIPE]  ; [ORIG 16-BIT INS]
    2699 0000000e 9003              STR       A1, [SP, #12]         ; [DPU_3_PIPE] |2294|  ; [ORIG 16-BIT INS]
    2700                            .dwpsn  file "C:/ti/simplelink_cc13x0_sdk_2_30_00_20/source/ti/ti154stack/icall/src/inc/icall.
    2701 00000010 6A20              LDR       A1, [V1, #32]         ; [DPU_3_PIPE] |2296|  ; [ORIG 16-BIT INS]
    2702                            .dwpsn  file "C:/ti/simplelink_cc13x0_sdk_2_30_00_20/source/ti/ti154stack/icall/src/inc/icall.
    2703 00000012 9104              STR       A2, [SP, #16]         ; [DPU_3_PIPE] |2295|  ; [ORIG 16-BIT INS]
    2704                            .dwpsn  file "C:/ti/simplelink_cc13x0_sdk_2_30_00_20/source/ti/ti154stack/icall/src/inc/icall.
    2705 00000014 2208              MOVS      A3, #8                ; [DPU_3_PIPE] |2291|  ; [ORIG 16-BIT INS]
    2706                            .dwpsn  file "C:/ti/simplelink_cc13x0_sdk_2_30_00_20/source/ti/ti154stack/icall/src/inc/icall.
    2707 00000016 9002              STR       A1, [SP, #8]          ; [DPU_3_PIPE] |2296|  ; [ORIG 16-BIT INS]
    2708                            .dwpsn  file "C:/ti/simplelink_cc13x0_sdk_2_30_00_20/source/ti/ti154stack/icall/src/inc/icall.
    2709 00000018 4807              LDR       A1, $C$CON44          ; [DPU_3_PIPE] |2297|  ; [ORIG 16-BIT INS]
    2710                            .dwpsn  file "C:/ti/simplelink_cc13x0_sdk_2_30_00_20/source/ti/ti154stack/icall/src/inc/icall.
    2711 0000001a 2000F8AD          STRH      A3, [SP, #0]          ; [DPU_3_PIPE] |2291|  ; [KEEP 32-BIT INS]
    2712                            .dwpsn  file "C:/ti/simplelink_cc13x0_sdk_2_30_00_20/source/ti/ti154stack/icall/src/inc/icall.
    2713 0000001e 2213              MOVS      A3, #19               ; [DPU_3_PIPE] |2292|  ; [ORIG 16-BIT INS]
    2714                            .dwpsn  file "C:/ti/simplelink_cc13x0_sdk_2_30_00_20/source/ti/ti154stack/icall/src/inc/icall.
    2715 00000020 6801              LDR       A2, [A1, #0]          ; [DPU_3_PIPE] |2297|  ; [ORIG 16-BIT INS]
    2716                            .dwpsn  file "C:/ti/simplelink_cc13x0_sdk_2_30_00_20/source/ti/ti154stack/icall/src/inc/icall.
    2717 00000022 2002F8AD          STRH      A3, [SP, #2]          ; [DPU_3_PIPE] |2292|  ; [KEEP 32-BIT INS]
    2718                            .dwpsn  file "C:/ti/simplelink_cc13x0_sdk_2_30_00_20/source/ti/ti154stack/icall/src/inc/icall.
    2719 00000026 4668              MOV       A1, SP                ; [DPU_3_PIPE] |2297|  ; [ORIG 16-BIT INS]
    2720                    $C$DW$188       .dwtag  DW_TAG_TI_branch
    2721                            .dwattr $C$DW$188, DW_AT_low_pc(0x00)
    2722                            .dwattr $C$DW$188, DW_AT_TI_call
    2723                            .dwattr $C$DW$188, DW_AT_TI_indirect
    2724                    
    2725 00000028 4788              BLX       A2                    ; [DPU_3_PIPE] |2297|  ; [ORIG 16-BIT INS]
    2726                            ; CALL OCCURS {}                 ; [] |2297| 
    2727                            .dwpsn  file "C:/ti/simplelink_cc13x0_sdk_2_30_00_20/source/ti/ti154stack/icall/src/inc/icall.
    2728 0000002a 9802              LDR       A1, [SP, #8]          ; [DPU_3_PIPE] |2298|  ; [ORIG 16-BIT INS]
    2729 0000002c 6220              STR       A1, [V1, #32]         ; [DPU_3_PIPE] |2298|  ; [ORIG 16-BIT INS]
    2730 0000002e B006              ADD       SP, SP, #24           ; [DPU_3_PIPE]  ; [ORIG 16-BIT INS]
    2731                            .dwcfi  cfa_offset, 8
    2732                    $C$DW$189       .dwtag  DW_TAG_TI_branch
    2733                            .dwattr $C$DW$189, DW_AT_low_pc(0x00)
    2734                            .dwattr $C$DW$189, DW_AT_TI_return
    2735                    
    2736 00000030 BD10              POP       {V1, PC}              ; [DPU_3_PIPE]  ; [ORIG 16-BIT INS]
    2737                            .dwcfi  cfa_offset, 0
    2738                            .dwcfi  restore_reg, 4
    2739                            ; BRANCH OCCURS                  ; [] 
    2740                            .dwattr $C$DW$182, DW_AT_TI_end_file("C:/ti/simplelink_cc13x0_sdk_2_30_00_20/source/ti/ti154st
    2741                            .dwattr $C$DW$182, DW_AT_TI_end_line(0x8fd)
    2742                            .dwattr $C$DW$182, DW_AT_TI_end_column(0x01)
    2743                            .dwendentry
    2744                            .dwendtag $C$DW$182
    2745                    
    2746 00000000                   .sect   ".text:osal_run_system"
    2747                            .clink
    2748                            .thumbfunc osal_run_system
    2749 00000000                   .thumb
    2750                            .global osal_run_system
TI ARM Assembler PC v16.9.9 Sun Nov 25 16:40:48 2018

Tools Copyright (c) 1996-2017 Texas Instruments Incorporated
C:\Users\Stryd\AppData\Local\Temp\{8719FFD6-004A-4401-8DC3-4DA83C6CF1D8} PAGE   51

    2751                    
    2752                    $C$DW$190       .dwtag  DW_TAG_subprogram
    2753                            .dwattr $C$DW$190, DW_AT_name("osal_run_system")
    2754                            .dwattr $C$DW$190, DW_AT_low_pc(osal_run_system)
    2755                            .dwattr $C$DW$190, DW_AT_high_pc(0x00)
    2756                            .dwattr $C$DW$190, DW_AT_TI_symbol_name("osal_run_system")
    2757                            .dwattr $C$DW$190, DW_AT_external
    2758                            .dwattr $C$DW$190, DW_AT_TI_begin_file("../Application/MAC/OSAL/osal.c")
    2759                            .dwattr $C$DW$190, DW_AT_TI_begin_line(0x662)
    2760                            .dwattr $C$DW$190, DW_AT_TI_begin_column(0x06)
    2761                            .dwattr $C$DW$190, DW_AT_decl_file("../Application/MAC/OSAL/osal.c")
    2762                            .dwattr $C$DW$190, DW_AT_decl_line(0x662)
    2763                            .dwattr $C$DW$190, DW_AT_decl_column(0x06)
    2764                            .dwattr $C$DW$190, DW_AT_TI_max_frame_size(0x38)
    2765                            .dwpsn  file "../Application/MAC/OSAL/osal.c",line 1635,column 1,is_stmt,address osal_run_syst
    2766                    
    2767                            .dwfde $C$DW$CIE, osal_run_system
    2768                    
    2769                    ;*****************************************************************************
    2770                    ;* FUNCTION NAME: osal_run_system                                            *
    2771                    ;*                                                                           *
    2772                    ;*   Regs Modified     : A1,A2,A3,A4,V1,V2,V3,V4,V5,V6,V7,V8,V9,SP,LR,SR     *
    2773                    ;*   Regs Used         : A1,A2,A3,A4,V1,V2,V3,V4,V5,V6,V7,V8,V9,SP,LR,SR     *
    2774                    ;*   Local Frame Size  : 0 Args + 20 Auto + 36 Save = 56 byte                *
    2775                    ;*****************************************************************************
    2776                    osal_run_system:
    2777                    ;* --------------------------------------------------------------------------*
    2778                    $C$DW$191       .dwtag  DW_TAG_variable
    2779                            .dwattr $C$DW$191, DW_AT_name("args")
    2780                            .dwattr $C$DW$191, DW_AT_TI_symbol_name("args")
    2781                            .dwattr $C$DW$191, DW_AT_type(*$C$DW$T$426)
    2782                            .dwattr $C$DW$191, DW_AT_location[DW_OP_breg13 0]
    2783                    
    2784                    $C$DW$192       .dwtag  DW_TAG_variable
    2785                            .dwattr $C$DW$192, DW_AT_name("args")
    2786                            .dwattr $C$DW$192, DW_AT_TI_symbol_name("args")
    2787                            .dwattr $C$DW$192, DW_AT_type(*$C$DW$T$396)
    2788                            .dwattr $C$DW$192, DW_AT_location[DW_OP_breg13 8]
    2789                    
    2790                    ;* A1    assigned to $O$C2
    2791                    ;* V5    assigned to $O$C3
    2792                    ;* V3    assigned to $O$C4
    2793                    ;* A2    assigned to $O$C5
    2794                    ;* A2    assigned to $O$C6
    2795                    ;* A1    assigned to $O$C7
    2796                    ;* V3    assigned to $O$C9
    2797                    ;* V1    assigned to $O$C10
    2798                    ;* A2    assigned to $O$v6
    2799                    ;* V1    assigned to $O$K3
    2800                    ;* A1    assigned to $O$K30
    2801                    ;* V6    assigned to $O$K37
    2802                    ;* A2    assigned to $O$K43
    2803                    ;* V4    assigned to $O$K57
    2804                    ;* A1    assigned to $O$U78
    2805                    ;* V6    assigned to $O$K110
TI ARM Assembler PC v16.9.9 Sun Nov 25 16:40:48 2018

Tools Copyright (c) 1996-2017 Texas Instruments Incorporated
C:\Users\Stryd\AppData\Local\Temp\{8719FFD6-004A-4401-8DC3-4DA83C6CF1D8} PAGE   52

    2806                    ;* V4    assigned to $O$U113
    2807                    ;* A2    assigned to $O$L1
    2808                    ;* V3    assigned to $O$L2
    2809                    ;* A2    assigned to $O$v8
    2810                    ;* A2    assigned to $O$v4
    2811                    ;* A1    assigned to $O$v3
    2812                    ;* V2    assigned to $O$v2
    2813                    ;* V2    assigned to idx
    2814                    $C$DW$193       .dwtag  DW_TAG_variable
    2815                            .dwattr $C$DW$193, DW_AT_name("idx")
    2816                            .dwattr $C$DW$193, DW_AT_TI_symbol_name("idx")
    2817                            .dwattr $C$DW$193, DW_AT_type(*$C$DW$T$19)
    2818                            .dwattr $C$DW$193, DW_AT_location[DW_OP_reg5]
    2819                    
    2820                    ;* A1    assigned to newtimestamp
    2821                    $C$DW$194       .dwtag  DW_TAG_variable
    2822                            .dwattr $C$DW$194, DW_AT_name("newtimestamp")
    2823                            .dwattr $C$DW$194, DW_AT_TI_symbol_name("newtimestamp")
    2824                            .dwattr $C$DW$194, DW_AT_type(*$C$DW$T$13)
    2825                            .dwattr $C$DW$194, DW_AT_location[DW_OP_reg0]
    2826                    
    2827                    ;* V4    assigned to milliseconds
    2828                    $C$DW$195       .dwtag  DW_TAG_variable
    2829                            .dwattr $C$DW$195, DW_AT_name("milliseconds")
    2830                            .dwattr $C$DW$195, DW_AT_TI_symbol_name("milliseconds")
    2831                            .dwattr $C$DW$195, DW_AT_type(*$C$DW$T$81)
    2832                            .dwattr $C$DW$195, DW_AT_location[DW_OP_reg7]
    2833                    
    2834                    ;* V3    assigned to msg
    2835                    $C$DW$196       .dwtag  DW_TAG_variable
    2836                            .dwattr $C$DW$196, DW_AT_name("msg")
    2837                            .dwattr $C$DW$196, DW_AT_TI_symbol_name("msg")
    2838                            .dwattr $C$DW$196, DW_AT_type(*$C$DW$T$3)
    2839                            .dwattr $C$DW$196, DW_AT_location[DW_OP_reg6]
    2840                    
    2841                    ;* V5    assigned to hdr
    2842                    $C$DW$197       .dwtag  DW_TAG_variable
    2843                            .dwattr $C$DW$197, DW_AT_name("hdr")
    2844                            .dwattr $C$DW$197, DW_AT_TI_symbol_name("hdr")
    2845                            .dwattr $C$DW$197, DW_AT_type(*$C$DW$T$409)
    2846                            .dwattr $C$DW$197, DW_AT_location[DW_OP_reg8]
    2847                    
    2848                    ;* V7    assigned to dest_id
    2849                    $C$DW$198       .dwtag  DW_TAG_variable
    2850                            .dwattr $C$DW$198, DW_AT_name("dest_id")
    2851                            .dwattr $C$DW$198, DW_AT_TI_symbol_name("dest_id")
    2852                            .dwattr $C$DW$198, DW_AT_type(*$C$DW$T$10)
    2853                            .dwattr $C$DW$198, DW_AT_location[DW_OP_reg10]
    2854                    
    2855                    ;* A1    assigned to proxyid
    2856                    $C$DW$199       .dwtag  DW_TAG_variable
    2857                            .dwattr $C$DW$199, DW_AT_name("proxyid")
    2858                            .dwattr $C$DW$199, DW_AT_TI_symbol_name("proxyid")
    2859                            .dwattr $C$DW$199, DW_AT_type(*$C$DW$T$10)
    2860                            .dwattr $C$DW$199, DW_AT_location[DW_OP_reg0]
TI ARM Assembler PC v16.9.9 Sun Nov 25 16:40:48 2018

Tools Copyright (c) 1996-2017 Texas Instruments Incorporated
C:\Users\Stryd\AppData\Local\Temp\{8719FFD6-004A-4401-8DC3-4DA83C6CF1D8} PAGE   53

    2861                    
    2862                    ;* V2    assigned to events
    2863                    $C$DW$200       .dwtag  DW_TAG_variable
    2864                            .dwattr $C$DW$200, DW_AT_name("events")
    2865                            .dwattr $C$DW$200, DW_AT_TI_symbol_name("events")
    2866                            .dwattr $C$DW$200, DW_AT_type(*$C$DW$T$10)
    2867                            .dwattr $C$DW$200, DW_AT_location[DW_OP_reg5]
    2868                    
    2869                    ;* V2    assigned to intState
    2870                    $C$DW$201       .dwtag  DW_TAG_variable
    2871                            .dwattr $C$DW$201, DW_AT_name("intState")
    2872                            .dwattr $C$DW$201, DW_AT_TI_symbol_name("intState")
    2873                            .dwattr $C$DW$201, DW_AT_type(*$C$DW$T$372)
    2874                            .dwattr $C$DW$201, DW_AT_location[DW_OP_reg5]
    2875                    
    2876                    ;* V4    assigned to next_timeout_post
    2877                    $C$DW$202       .dwtag  DW_TAG_variable
    2878                            .dwattr $C$DW$202, DW_AT_name("next_timeout_post")
    2879                            .dwattr $C$DW$202, DW_AT_TI_symbol_name("next_timeout_post")
    2880                            .dwattr $C$DW$202, DW_AT_type(*$C$DW$T$81)
    2881                            .dwattr $C$DW$202, DW_AT_location[DW_OP_reg7]
    2882                    
    2883                    ;* A1    assigned to errno
    2884                    $C$DW$203       .dwtag  DW_TAG_variable
    2885                            .dwattr $C$DW$203, DW_AT_name("errno")
    2886                            .dwattr $C$DW$203, DW_AT_TI_symbol_name("errno")
    2887                            .dwattr $C$DW$203, DW_AT_type(*$C$DW$T$109)
    2888                            .dwattr $C$DW$203, DW_AT_location[DW_OP_reg0]
    2889                    
    2890                    ;* V9    assigned to entity
    2891                    $C$DW$204       .dwtag  DW_TAG_variable
    2892                            .dwattr $C$DW$204, DW_AT_name("entity")
    2893                            .dwattr $C$DW$204, DW_AT_TI_symbol_name("entity")
    2894                            .dwattr $C$DW$204, DW_AT_type(*$C$DW$T$10)
    2895                            .dwattr $C$DW$204, DW_AT_location[DW_OP_reg12]
    2896                    
    2897                    ;* A3    assigned to i
    2898                    $C$DW$205       .dwtag  DW_TAG_variable
    2899                            .dwattr $C$DW$205, DW_AT_name("i")
    2900                            .dwattr $C$DW$205, DW_AT_TI_symbol_name("i")
    2901                            .dwattr $C$DW$205, DW_AT_type(*$C$DW$T$102)
    2902                            .dwattr $C$DW$205, DW_AT_location[DW_OP_reg2]
    2903                    
    2904                            .dwcfi  cfa_offset, 0
    2905 00000000 4FF0E92D          PUSH      {V1, V2, V3, V4, V5, V6, V7, V8, LR} ; [DPU_3_PIPE]  ; [KEEP 32-BIT INS]
    2906                            .dwcfi  cfa_offset, 36
    2907                            .dwcfi  save_reg_to_mem, 14, -4
    2908                            .dwcfi  save_reg_to_mem, 11, -8
    2909                            .dwcfi  save_reg_to_mem, 10, -12
    2910                            .dwcfi  save_reg_to_mem, 9, -16
    2911                            .dwcfi  save_reg_to_mem, 8, -20
    2912                            .dwcfi  save_reg_to_mem, 7, -24
    2913                            .dwcfi  save_reg_to_mem, 6, -28
    2914                            .dwcfi  save_reg_to_mem, 5, -32
    2915                            .dwcfi  save_reg_to_mem, 4, -36
TI ARM Assembler PC v16.9.9 Sun Nov 25 16:40:48 2018

Tools Copyright (c) 1996-2017 Texas Instruments Incorporated
C:\Users\Stryd\AppData\Local\Temp\{8719FFD6-004A-4401-8DC3-4DA83C6CF1D8} PAGE   54

    2916 00000004 0D14F1AD          SUB       SP, SP, #20           ; [DPU_3_PIPE]  ; [KEEP 32-BIT INS]
    2917                            .dwcfi  cfa_offset, 56
    2918                            .dwpsn  file "../Application/MAC/OSAL/osal.c",line 1639,column 29,is_stmt,isa 1
    2919                    $C$DW$206       .dwtag  DW_TAG_TI_branch
    2920                            .dwattr $C$DW$206, DW_AT_low_pc(0x00)
    2921                            .dwattr $C$DW$206, DW_AT_name("osal_next_timeout")
    2922                            .dwattr $C$DW$206, DW_AT_TI_call
    2923                    
    2924 00000008 FFFEF7FF!         BL        osal_next_timeout     ; [DPU_3_PIPE] |1639|  ; [KEEP 32-BIT INS]
    2925                            ; CALL OCCURS {osal_next_timeout }  ; [] |1639| 
    2926                            .dwpsn  file "../Application/MAC/OSAL/osal.c",line 1653,column 32,is_stmt,isa 1
    2927                    $C$DW$207       .dwtag  DW_TAG_TI_branch
    2928                            .dwattr $C$DW$207, DW_AT_low_pc(0x00)
    2929                            .dwattr $C$DW$207, DW_AT_name("ICall_getTicks")
    2930                            .dwattr $C$DW$207, DW_AT_TI_call
    2931                    
    2932 0000000c FFFEF7FF!         BL        ICall_getTicks        ; [DPU_3_PIPE] |1653|  ; [KEEP 32-BIT INS]
    2933                            ; CALL OCCURS {ICall_getTicks }  ; [] |1653| 
    2934                            .dwpsn  file "../Application/MAC/OSAL/osal.c",line 1656,column 5,is_stmt,isa 1
    2935 00000010 4C63              LDR       V1, $C$CON46          ; [DPU_3_PIPE] |1656|  ; [ORIG 16-BIT INS]
    2936 00000012 69A6              LDR       V3, [V1, #24]         ; [DPU_3_PIPE] |1656|  ; [ORIG 16-BIT INS]
    2937 00000014 6965              LDR       V2, [V1, #20]         ; [DPU_3_PIPE] |1656|  ; [ORIG 16-BIT INS]
    2938 00000016 7F7AF5B6          CMP       V3, #1000             ; [DPU_3_PIPE] |1656|  ; [KEEP 32-BIT INS]
    2939 0000001a D013              BEQ       ||$C$L31||            ; [DPU_3_PIPE] |1656|  ; [ORIG 16-BIT INS]
    2940                            ; BRANCHCC OCCURS {||$C$L31||}   ; [] |1656| 
    2941                    ;* --------------------------------------------------------------------------*
    2942                            .dwpsn  file "../Application/MAC/OSAL/osal.c",line 1667,column 7,is_stmt,isa 1
    2943 0000001c 1B40              SUBS      A1, A1, V2            ; [DPU_3_PIPE] |1667|  ; [ORIG 16-BIT INS]
    2944 0000001e 727AF44F          MOV       A3, #1000             ; [DPU_3_PIPE] |1667|  ; [KEEP 32-BIT INS]
    2945 00000022 2300              MOVS      A4, #0                ; [DPU_3_PIPE] |1667|  ; [ORIG 16-BIT INS]
    2946 00000024 0100FBA6          UMULL     A1, A2, V3, A1        ; [DPU_3_PIPE] |1667|  ; [KEEP 32-BIT INS]
    2947                    $C$DW$208       .dwtag  DW_TAG_TI_branch
    2948                            .dwattr $C$DW$208, DW_AT_low_pc(0x00)
    2949                            .dwattr $C$DW$208, DW_AT_name("ULL$DIV")
    2950                            .dwattr $C$DW$208, DW_AT_TI_call
    2951                    
    2952 00000028 FFFEF7FF!         BL        __aeabi_uldivmod      ; [DPU_3_PIPE] |1667|  ; [KEEP 32-BIT INS]
    2953                            ; CALL OCCURS {__aeabi_uldivmod }  ; [] |1667| 
    2954 0000002c 4607              MOV       V4, A1                ; [DPU_3_PIPE] |1667|  ; [ORIG 16-BIT INS]
    2955                            .dwpsn  file "../Application/MAC/OSAL/osal.c",line 1668,column 7,is_stmt,isa 1
    2956 0000002e 727AF44F          MOV       A3, #1000             ; [DPU_3_PIPE] |1668|  ; [KEEP 32-BIT INS]
    2957 00000032 2300              MOVS      A4, #0                ; [DPU_3_PIPE] |1668|  ; [ORIG 16-BIT INS]
    2958                    $C$DW$209       .dwtag  DW_TAG_TI_branch
    2959                            .dwattr $C$DW$209, DW_AT_low_pc(0x00)
    2960                            .dwattr $C$DW$209, DW_AT_name("__aeabi_lmul")
    2961                            .dwattr $C$DW$209, DW_AT_TI_call
    2962                    
    2963 00000034 FFFEF7FF!         BL        __aeabi_lmul          ; [DPU_3_PIPE] |1668|  ; [KEEP 32-BIT INS]
    2964                            ; CALL OCCURS {__aeabi_lmul }    ; [] |1668| 
    2965 00000038 4632              MOV       A3, V3                ; [DPU_3_PIPE] |1668|  ; [ORIG 16-BIT INS]
    2966 0000003a 2300              MOVS      A4, #0                ; [DPU_3_PIPE] |1668|  ; [ORIG 16-BIT INS]
    2967                    $C$DW$210       .dwtag  DW_TAG_TI_branch
    2968                            .dwattr $C$DW$210, DW_AT_low_pc(0x00)
    2969                            .dwattr $C$DW$210, DW_AT_name("ULL$DIV")
    2970                            .dwattr $C$DW$210, DW_AT_TI_call
TI ARM Assembler PC v16.9.9 Sun Nov 25 16:40:48 2018

Tools Copyright (c) 1996-2017 Texas Instruments Incorporated
C:\Users\Stryd\AppData\Local\Temp\{8719FFD6-004A-4401-8DC3-4DA83C6CF1D8} PAGE   55

    2971                    
    2972 0000003c FFFEF7FF!         BL        __aeabi_uldivmod      ; [DPU_3_PIPE] |1668|  ; [KEEP 32-BIT INS]
    2973                            ; CALL OCCURS {__aeabi_uldivmod }  ; [] |1668| 
    2974 00000040 1828              ADDS      A1, V2, A1            ; [DPU_3_PIPE] |1668|  ; [ORIG 16-BIT INS]
    2975 00000042 E000              B         ||$C$L32||            ; [DPU_3_PIPE] |1668|  ; [ORIG 16-BIT INS]
    2976                            ; BRANCH OCCURS {||$C$L32||}     ; [] |1668| 
    2977                    ;* --------------------------------------------------------------------------*
    2978 00000044           ||$C$L31||:    
    2979                            .dwpsn  file "../Application/MAC/OSAL/osal.c",line 1658,column 7,is_stmt,isa 1
    2980 00000044 1B47              SUBS      V4, A1, V2            ; [DPU_3_PIPE] |1658|  ; [ORIG 16-BIT INS]
    2981                    ;* --------------------------------------------------------------------------*
    2982 00000046           ||$C$L32||:    
    2983                            .dwpsn  file "../Application/MAC/OSAL/osal.c",line 1659,column 7,is_stmt,isa 1
    2984 00000046 6160              STR       A1, [V1, #20]         ; [DPU_3_PIPE] |1659|  ; [ORIG 16-BIT INS]
    2985                            .dwpsn  file "../Application/MAC/OSAL/osal.c",line 1670,column 5,is_stmt,isa 1
    2986 00000048 4638              MOV       A1, V4                ; [DPU_3_PIPE] |1670|  ; [ORIG 16-BIT INS]
    2987                    $C$DW$211       .dwtag  DW_TAG_TI_branch
    2988                            .dwattr $C$DW$211, DW_AT_low_pc(0x00)
    2989                            .dwattr $C$DW$211, DW_AT_name("osalAdjustTimer")
    2990                            .dwattr $C$DW$211, DW_AT_TI_call
    2991                    
    2992 0000004a FFFEF7FF!         BL        osalAdjustTimer       ; [DPU_3_PIPE] |1670|  ; [KEEP 32-BIT INS]
    2993                            ; CALL OCCURS {osalAdjustTimer }  ; [] |1670| 
    2994                            .dwpsn  file "../Application/MAC/OSAL/osal.c",line 1676,column 3,is_stmt,isa 1
    2995 0000004e 68A0              LDR       A1, [V1, #8]          ; [DPU_3_PIPE] |1676|  ; [ORIG 16-BIT INS]
    2996 00000050 B100              CBZ       A1, ||$C$L33||        ; []  ; [ORIG 16-BIT INS]
    2997                            ; BRANCHCC OCCURS {||$C$L33||}   ; [] |1676| 
    2998                    ;* --------------------------------------------------------------------------*
    2999                            .dwpsn  file "../Application/MAC/OSAL/osal.c",line 1678,column 5,is_stmt,isa 1
    3000                    $C$DW$212       .dwtag  DW_TAG_TI_branch
    3001                            .dwattr $C$DW$212, DW_AT_low_pc(0x00)
    3002                            .dwattr $C$DW$212, DW_AT_TI_call
    3003                            .dwattr $C$DW$212, DW_AT_TI_indirect
    3004                    
    3005 00000052 4780              BLX       A1                    ; [DPU_3_PIPE] |1678|  ; [ORIG 16-BIT INS]
    3006                            ; CALL OCCURS {}                 ; [] |1678| 
    3007                    ;* --------------------------------------------------------------------------*
    3008 00000054           ||$C$L33||:    
    3009 00000054 4853              LDR       A1, $C$CON47          ; [DPU_3_PIPE]  ; [ORIG 16-BIT INS]
    3010 00000056 7807              LDRB      V4, [A1, #0]          ; [DPU_3_PIPE]  ; [ORIG 16-BIT INS]
    3011 00000058 0907F04F          MOV       V6, #7                ; [DPU_3_PIPE]  ; [KEEP 32-BIT INS]
    3012                            .dwpsn  file "../Application/MAC/OSAL/osal.c",line 1636,column 13,is_stmt,isa 1
    3013 0000005c 2500              MOVS      V2, #0                ; [DPU_3_PIPE] |1636|  ; [ORIG 16-BIT INS]
    3014 0000005e E033              B         ||$C$L41||            ; [DPU_3_PIPE]  ; [ORIG 16-BIT INS]
    3015                            ; BRANCH OCCURS {||$C$L41||}     ; [] 
    3016                    ;* --------------------------------------------------------------------------*
    3017 00000060           ||$C$L34||:    
    3018                            .dwpsn  file "../Application/MAC/OSAL/osal.c",line 1696,column 5,is_stmt,isa 1
    3019 00000060 0C06F816          LDRB      A1, [V3, #-6]         ; [DPU_3_PIPE] |1696|  ; [KEEP 32-BIT INS]
    3020 00000064 68E1              LDR       A2, [V1, #12]         ; [DPU_3_PIPE] |1696|  ; [ORIG 16-BIT INS]
    3021                            .dwpsn  file "../Application/MAC/OSAL/osal.c",line 1693,column 5,is_stmt,isa 1
    3022 00000066 080CF1A6          SUB       V5, V3, #12           ; [DPU_3_PIPE] |1693|  ; [KEEP 32-BIT INS]
    3023                            .dwpsn  file "../Application/MAC/OSAL/osal.c",line 1696,column 5,is_stmt,isa 1
    3024 0000006a 2803              CMP       A1, #3                ; [DPU_3_PIPE] |1696|  ; [ORIG 16-BIT INS]
    3025 0000006c D029              BEQ       ||$C$L40||            ; [DPU_3_PIPE] |1696|  ; [ORIG 16-BIT INS]
TI ARM Assembler PC v16.9.9 Sun Nov 25 16:40:48 2018

Tools Copyright (c) 1996-2017 Texas Instruments Incorporated
C:\Users\Stryd\AppData\Local\Temp\{8719FFD6-004A-4401-8DC3-4DA83C6CF1D8} PAGE   56

    3026                            ; BRANCHCC OCCURS {||$C$L40||}   ; [] |1696| 
    3027                    ;* --------------------------------------------------------------------------*
    3028                            .dwpsn  file "../Application/MAC/OSAL/osal.c",line 1528,column 1,is_stmt,isa 1
    3029 0000006e C00EF89D          LDRB      V9, [SP, #14]         ; [DPU_3_PIPE] |1528|  ; [KEEP 32-BIT INS]
    3030 00000072 B31F              CBZ       V4, ||$C$L39||        ; []  ; [ORIG 16-BIT INS]
    3031                            .dwpsn  file "../Application/MAC/OSAL/osal.c",line 1531,column 15,is_stmt,isa 1
    3032                            ; BRANCHCC OCCURS {||$C$L39||}   ; [] |1531| 
    3033                    ;* --------------------------------------------------------------------------*
    3034 00000074 6AA0              LDR       A1, [V1, #40]         ; [DPU_3_PIPE]  ; [ORIG 16-BIT INS]
    3035 00000076 4639              MOV       A2, V4                ; [DPU_3_PIPE]  ; [ORIG 16-BIT INS]
    3036 00000078 462A              MOV       A3, V2                ; [DPU_3_PIPE]  ; [ORIG 16-BIT INS]
    3037 0000007a 1E40              SUBS      A1, A1, #1            ; [DPU_3_PIPE]  ; [ORIG 16-BIT INS]
    3038                    ;* --------------------------------------------------------------------------*
    3039                    ;*   BEGIN LOOP ||$C$L35||
    3040                    ;*
    3041                    ;*   Loop source line                : 1531
    3042                    ;*   Loop closing brace source line  : 1537
    3043                    ;*   Known Minimum Trip Count        : 1
    3044                    ;*   Known Maximum Trip Count        : 255
    3045                    ;*   Known Max Trip Count Factor     : 1
    3046                    ;* --------------------------------------------------------------------------*
    3047 0000007c           ||$C$L35||:    
    3048                            .dwpsn  file "../Application/MAC/OSAL/osal.c",line 1533,column 5,is_stmt,isa 1
    3049 0000007c 3F01F810          LDRB      A4, [A1, #1]!         ; [DPU_3_PIPE] |1533|  ; [KEEP 32-BIT INS]
    3050 00000080 459C              CMP       V9, A4                ; [DPU_3_PIPE] |1533|  ; [ORIG 16-BIT INS]
    3051 00000082 D004              BEQ       ||$C$L36||            ; [DPU_3_PIPE] |1533|  ; [ORIG 16-BIT INS]
    3052                            ; BRANCHCC OCCURS {||$C$L36||}   ; [] |1533| 
    3053                    ;* --------------------------------------------------------------------------*
    3054                            .dwpsn  file "../Application/MAC/OSAL/osal.c",line 1531,column 15,is_stmt,isa 1
    3055 00000084 1E49              SUBS      A2, A2, #1            ; [DPU_3_PIPE] |1531|  ; [ORIG 16-BIT INS]
    3056 00000086 0201F102          ADD       A3, A3, #1            ; [DPU_3_PIPE] |1531|  ; [KEEP 32-BIT INS]
    3057 0000008a D1F7              BNE       ||$C$L35||            ; [DPU_3_PIPE] |1531|  ; [ORIG 16-BIT INS]
    3058                            ; BRANCHCC OCCURS {||$C$L35||}   ; [] |1531| 
    3059                    ;* --------------------------------------------------------------------------*
    3060 0000008c E016              B         ||$C$L39||            ; [DPU_3_PIPE] |1531|  ; [ORIG 16-BIT INS]
    3061                            ; BRANCH OCCURS {||$C$L39||}     ; [] |1531| 
    3062                    ;* --------------------------------------------------------------------------*
    3063 0000008e           ||$C$L36||:    
    3064                            .dwpsn  file "../Application/MAC/OSAL/osal.c",line 1535,column 7,is_stmt,isa 1
    3065 0000008e FA82FA5F          UXTB      V7, A3                ; [DPU_3_PIPE] |1535|  ; [KEEP 32-BIT INS]
    3066 00000092 0FFFF1BA          CMP       V7, #255              ; [DPU_3_PIPE] |1535|  ; [KEEP 32-BIT INS]
    3067 00000096 D011              BEQ       ||$C$L39||            ; [DPU_3_PIPE] |1535|  ; [ORIG 16-BIT INS]
    3068                            ; BRANCHCC OCCURS {||$C$L39||}   ; [] |1535| 
    3069                    ;* --------------------------------------------------------------------------*
    3070                            .dwpsn  file "../Application/MAC/OSAL/osal.c",line 1718,column 23,is_stmt,isa 1
    3071 00000098 0004F898          LDRB      A1, [V5, #4]          ; [DPU_3_PIPE] |1718|  ; [KEEP 32-BIT INS]
    3072                    $C$DW$213       .dwtag  DW_TAG_TI_branch
    3073                            .dwattr $C$DW$213, DW_AT_low_pc(0x00)
    3074                            .dwattr $C$DW$213, DW_AT_name("osal_alien2proxy")
    3075                            .dwattr $C$DW$213, DW_AT_TI_call
    3076                    
    3077 0000009c FFFEF7FF!         BL        osal_alien2proxy      ; [DPU_3_PIPE] |1718|  ; [KEEP 32-BIT INS]
    3078                            ; CALL OCCURS {osal_alien2proxy }  ; [] |1718| 
    3079                            .dwpsn  file "../Application/MAC/OSAL/osal.c",line 1720,column 9,is_stmt,isa 1
    3080 000000a0 1006F898          LDRB      A2, [V5, #6]          ; [DPU_3_PIPE] |1720|  ; [KEEP 32-BIT INS]
TI ARM Assembler PC v16.9.9 Sun Nov 25 16:40:48 2018

Tools Copyright (c) 1996-2017 Texas Instruments Incorporated
C:\Users\Stryd\AppData\Local\Temp\{8719FFD6-004A-4401-8DC3-4DA83C6CF1D8} PAGE   57

    3081 000000a4 2901              CMP       A2, #1                ; [DPU_3_PIPE] |1720|  ; [ORIG 16-BIT INS]
    3082 000000a6 D003              BEQ       ||$C$L37||            ; [DPU_3_PIPE] |1720|  ; [ORIG 16-BIT INS]
    3083                            ; BRANCHCC OCCURS {||$C$L37||}   ; [] |1720| 
    3084                    ;* --------------------------------------------------------------------------*
    3085                            .dwpsn  file "../Application/MAC/OSAL/osal.c",line 1725,column 14,is_stmt,isa 1
    3086 000000a8 2902              CMP       A2, #2                ; [DPU_3_PIPE] |1725|  ; [ORIG 16-BIT INS]
    3087 000000aa BF08              IT        EQ                    ; [DPU_3_PIPE]  ; [ORIG 16-BIT INS]
    3088                            .dwpsn  file "../Application/MAC/OSAL/osal.c",line 1728,column 11,is_stmt,isa 1
    3089 000000ac 70B0              STRBEQ    A1, [V3, #2]          ; [DPU_3_PIPE] |1728|  ; [ORIG 16-BIT INS]
    3090 000000ae E000              B         ||$C$L38||            ; [DPU_3_PIPE] |1728|  ; [ORIG 16-BIT INS]
    3091                            ; BRANCH OCCURS {||$C$L38||}     ; [] |1728| 
    3092                    ;* --------------------------------------------------------------------------*
    3093 000000b0           ||$C$L37||:    
    3094                            .dwpsn  file "../Application/MAC/OSAL/osal.c",line 1723,column 11,is_stmt,isa 1
    3095 000000b0 7030              STRB      A1, [V3, #0]          ; [DPU_3_PIPE] |1723|  ; [ORIG 16-BIT INS]
    3096                    ;* --------------------------------------------------------------------------*
    3097 000000b2           ||$C$L38||:    
    3098                            .dwpsn  file "../Application/MAC/OSAL/osal.c",line 1731,column 9,is_stmt,isa 1
    3099 000000b2 4650              MOV       A1, V7                ; [DPU_3_PIPE] |1731|  ; [ORIG 16-BIT INS]
    3100 000000b4 4631              MOV       A2, V3                ; [DPU_3_PIPE] |1731|  ; [ORIG 16-BIT INS]
    3101                    $C$DW$214       .dwtag  DW_TAG_TI_branch
    3102                            .dwattr $C$DW$214, DW_AT_low_pc(0x00)
    3103                            .dwattr $C$DW$214, DW_AT_name("osal_msg_send")
    3104                            .dwattr $C$DW$214, DW_AT_TI_call
    3105                    
    3106 000000b6 FFFEF7FF!         BL        osal_msg_send         ; [DPU_3_PIPE] |1731|  ; [KEEP 32-BIT INS]
    3107                            ; CALL OCCURS {osal_msg_send }   ; [] |1731| 
    3108 000000ba E005              B         ||$C$L41||            ; [DPU_3_PIPE] |1731|  ; [ORIG 16-BIT INS]
    3109                            ; BRANCH OCCURS {||$C$L41||}     ; [] |1731| 
    3110                    ;* --------------------------------------------------------------------------*
    3111 000000bc           ||$C$L39||:    
    3112                            .dwpsn  file "../Application/MAC/OSAL/osal.c",line 1710,column 9,is_stmt,isa 1
    3113                    $C$DW$215       .dwtag  DW_TAG_TI_branch
    3114                            .dwattr $C$DW$215, DW_AT_low_pc(0x00)
    3115                            .dwattr $C$DW$215, DW_AT_name("ICall_abort")
    3116                            .dwattr $C$DW$215, DW_AT_TI_call
    3117                    
    3118 000000bc FFFEF7FF!         BL        ICall_abort           ; [DPU_3_PIPE] |1710|  ; [KEEP 32-BIT INS]
    3119                            ; CALL OCCURS {ICall_abort }     ; [] |1710| 
    3120                            .dwpsn  file "../Application/MAC/OSAL/osal.c",line 1711,column 7,is_stmt,isa 1
    3121 000000c0 E002              B         ||$C$L41||            ; [DPU_3_PIPE] |1711|  ; [ORIG 16-BIT INS]
    3122                            ; BRANCH OCCURS {||$C$L41||}     ; [] |1711| 
    3123                    ;* --------------------------------------------------------------------------*
    3124 000000c2           ||$C$L40||:    
    3125 000000c2 B109              CBZ       A2, ||$C$L41||        ; []  ; [ORIG 16-BIT INS]
    3126                            .dwpsn  file "../Application/MAC/OSAL/osal.c",line 1698,column 9,is_stmt,isa 1
    3127                            ; BRANCHCC OCCURS {||$C$L41||}   ; [] |1698| 
    3128                    ;* --------------------------------------------------------------------------*
    3129                            .dwpsn  file "../Application/MAC/OSAL/osal.c",line 1700,column 11,is_stmt,isa 1
    3130 000000c4 4630              MOV       A1, V3                ; [DPU_3_PIPE] |1700|  ; [ORIG 16-BIT INS]
    3131                    $C$DW$216       .dwtag  DW_TAG_TI_branch
    3132                            .dwattr $C$DW$216, DW_AT_low_pc(0x00)
    3133                            .dwattr $C$DW$216, DW_AT_TI_call
    3134                            .dwattr $C$DW$216, DW_AT_TI_indirect
    3135                    
TI ARM Assembler PC v16.9.9 Sun Nov 25 16:40:48 2018

Tools Copyright (c) 1996-2017 Texas Instruments Incorporated
C:\Users\Stryd\AppData\Local\Temp\{8719FFD6-004A-4401-8DC3-4DA83C6CF1D8} PAGE   58

    3136 000000c6 4788              BLX       A2                    ; [DPU_3_PIPE] |1700|  ; [ORIG 16-BIT INS]
    3137                            ; CALL OCCURS {}                 ; [] |1700| 
    3138                    ;* --------------------------------------------------------------------------*
    3139                    ;*   BEGIN LOOP ||$C$L41||
    3140                    ;* --------------------------------------------------------------------------*
    3141 000000c8           ||$C$L41||:    
    3142 000000c8 2008              MOVS      A1, #8                ; [DPU_3_PIPE]  ; [ORIG 16-BIT INS]
    3143 000000ca 493C              LDR       A2, $C$CON54          ; [DPU_3_PIPE]  ; [ORIG 16-BIT INS]
    3144                            .dwpsn  file "C:/ti/simplelink_cc13x0_sdk_2_30_00_20/source/ti/ti154stack/icall/src/inc/icall.
    3145 000000cc 0008F8AD          STRH      A1, [SP, #8]          ; [DPU_3_PIPE] |2068|  ; [KEEP 32-BIT INS]
    3146                            .dwpsn  file "C:/ti/simplelink_cc13x0_sdk_2_30_00_20/source/ti/ti154stack/icall/src/inc/icall.
    3147 000000d0 6809              LDR       A2, [A2, #0]          ; [DPU_3_PIPE] |2070|  ; [ORIG 16-BIT INS]
    3148                            .dwpsn  file "C:/ti/simplelink_cc13x0_sdk_2_30_00_20/source/ti/ti154stack/icall/src/inc/icall.
    3149 000000d2 900AF8AD          STRH      V6, [SP, #10]         ; [DPU_3_PIPE] |2069|  ; [KEEP 32-BIT INS]
    3150                            .dwpsn  file "C:/ti/simplelink_cc13x0_sdk_2_30_00_20/source/ti/ti154stack/icall/src/inc/icall.
    3151 000000d6 A802              ADD       A1, SP, #8            ; [DPU_3_PIPE] |2070|  ; [ORIG 16-BIT INS]
    3152                    $C$DW$217       .dwtag  DW_TAG_TI_branch
    3153                            .dwattr $C$DW$217, DW_AT_low_pc(0x00)
    3154                            .dwattr $C$DW$217, DW_AT_TI_call
    3155                            .dwattr $C$DW$217, DW_AT_TI_indirect
    3156                    
    3157 000000d8 4788              BLX       A2                    ; [DPU_3_PIPE] |2070|  ; [ORIG 16-BIT INS]
    3158                            ; CALL OCCURS {}                 ; [] |2070| 
    3159                            .dwpsn  file "C:/ti/simplelink_cc13x0_sdk_2_30_00_20/source/ti/ti154stack/icall/src/inc/icall.
    3160 000000da 9E04              LDR       V3, [SP, #16]         ; [DPU_3_PIPE] |2073|  ; [ORIG 16-BIT INS]
    3161                            .dwpsn  file "../Application/MAC/OSAL/osal.c",line 1690,column 7,is_stmt,isa 1
    3162 000000dc 2800              CMP       A1, #0                ; [DPU_3_PIPE] |1690|  ; [ORIG 16-BIT INS]
    3163 000000de D0BF              BEQ       ||$C$L34||            ; [DPU_3_PIPE] |1690|  ; [ORIG 16-BIT INS]
    3164                            ; BRANCHCC OCCURS {||$C$L34||}   ; [] |1690| 
    3165                    ;* --------------------------------------------------------------------------*
    3166 000000e0 4A31              LDR       A3, $C$CON49          ; [DPU_3_PIPE]  ; [ORIG 16-BIT INS]
    3167 000000e2 6810              LDR       A1, [A3, #0]          ; [DPU_3_PIPE]  ; [ORIG 16-BIT INS]
    3168 000000e4 4639              MOV       A2, V4                ; [DPU_3_PIPE]  ; [ORIG 16-BIT INS]
    3169 000000e6 42AF              CMP       V4, V2                ; [DPU_3_PIPE]  ; [ORIG 16-BIT INS]
    3170 000000e8 BFCC              ITE       GT                    ; [DPU_3_PIPE]  ; [ORIG 16-BIT INS]
    3171 000000ea 1B7E              SUBGT     V3, V4, V2            ; [DPU_3_PIPE]  ; [ORIG 16-BIT INS]
    3172 000000ec 2601              MOVLE     V3, #1                ; [DPU_3_PIPE]  ; [ORIG 16-BIT INS]
    3173 000000ee 4691              MOV       V6, A3                ; [DPU_3_PIPE]  ; [ORIG 16-BIT INS]
    3174                    ;* --------------------------------------------------------------------------*
    3175                    ;*   BEGIN LOOP ||$C$L42||
    3176                    ;*
    3177                    ;*   Loop source line                : 1737
    3178                    ;*   Loop closing brace source line  : 1742
    3179                    ;*   Known Minimum Trip Count        : 1
    3180                    ;*   Known Maximum Trip Count        : 256
    3181                    ;*   Known Max Trip Count Factor     : 1
    3182                    ;* --------------------------------------------------------------------------*
    3183 000000f0           ||$C$L42||:    
    3184                            .dwpsn  file "../Application/MAC/OSAL/osal.c",line 1740,column 7,is_stmt,isa 1
    3185 000000f0 006F              LSLS      V4, V2, #1            ; [DPU_3_PIPE] |1740|  ; [ORIG 16-BIT INS]
    3186 000000f2 5BC3              LDRH      A4, [A1, +V4]         ; [DPU_3_PIPE] |1740|  ; [ORIG 16-BIT INS]
    3187                            .dwpsn  file "../Application/MAC/OSAL/osal.c",line 1808,column 7,is_stmt,isa 1
    3188 000000f4 B0B4F8DF          LDR       V8, $C$CON50          ; [DPU_3_PIPE] |1808|  ; [KEEP 32-BIT INS]
    3189                            .dwpsn  file "../Application/MAC/OSAL/osal.c",line 1813,column 7,is_stmt,isa 1
    3190 000000f8 80B4F8DF          LDR       V5, $C$CON51          ; [DPU_3_PIPE] |1813|  ; [KEEP 32-BIT INS]
TI ARM Assembler PC v16.9.9 Sun Nov 25 16:40:48 2018

Tools Copyright (c) 1996-2017 Texas Instruments Incorporated
C:\Users\Stryd\AppData\Local\Temp\{8719FFD6-004A-4401-8DC3-4DA83C6CF1D8} PAGE   59

    3191 000000fc B923              CBNZ      A4, ||$C$L43||        ; []  ; [ORIG 16-BIT INS]
    3192                            .dwpsn  file "../Application/MAC/OSAL/osal.c",line 1740,column 7,is_stmt,isa 1
    3193                            ; BRANCHCC OCCURS {||$C$L43||}   ; [] |1740| 
    3194                    ;* --------------------------------------------------------------------------*
    3195                            .dwpsn  file "../Application/MAC/OSAL/osal.c",line 1742,column 12,is_stmt,isa 1
    3196 000000fe 1C6D              ADDS      V2, V2, #1            ; [DPU_3_PIPE] |1742|  ; [ORIG 16-BIT INS]
    3197 00000100 1E76              SUBS      V3, V3, #1            ; [DPU_3_PIPE] |1742|  ; [ORIG 16-BIT INS]
    3198 00000102 B2ED              UXTB      V2, V2                ; [DPU_3_PIPE] |1742|  ; [ORIG 16-BIT INS]
    3199 00000104 D1F4              BNE       ||$C$L42||            ; [DPU_3_PIPE] |1742|  ; [ORIG 16-BIT INS]
    3200                            ; BRANCHCC OCCURS {||$C$L42||}   ; [] |1742| 
    3201                    ;* --------------------------------------------------------------------------*
    3202 00000106 E021              B         ||$C$L44||            ; [DPU_3_PIPE] |1742|  ; [ORIG 16-BIT INS]
    3203                            ; BRANCH OCCURS {||$C$L44||}     ; [] |1742| 
    3204                    ;* --------------------------------------------------------------------------*
    3205 00000108           ||$C$L43||:    
    3206                            .dwpsn  file "../Application/MAC/OSAL/osal.c",line 1744,column 3,is_stmt,isa 1
    3207 00000108 42A9              CMP       A2, V2                ; [DPU_3_PIPE] |1744|  ; [ORIG 16-BIT INS]
    3208 0000010a DD1F              BLE       ||$C$L44||            ; [DPU_3_PIPE] |1744|  ; [ORIG 16-BIT INS]
    3209                            ; BRANCHCC OCCURS {||$C$L44||}   ; [] |1744| 
    3210                    ;* --------------------------------------------------------------------------*
    3211                            .dwpsn  file "../Application/MAC/OSAL/osal.c",line 1749,column 5,is_stmt,isa 1
    3212 0000010c 465E              MOV       V3, V8                ; [DPU_3_PIPE] |1749|  ; [ORIG 16-BIT INS]
    3213 0000010e 6830              LDR       A1, [V3, #0]          ; [DPU_3_PIPE] |1749|  ; [ORIG 16-BIT INS]
    3214                    $C$DW$218       .dwtag  DW_TAG_TI_branch
    3215                            .dwattr $C$DW$218, DW_AT_low_pc(0x00)
    3216                            .dwattr $C$DW$218, DW_AT_TI_call
    3217                            .dwattr $C$DW$218, DW_AT_TI_indirect
    3218                    
    3219 00000110 4780              BLX       A1                    ; [DPU_3_PIPE] |1749|  ; [ORIG 16-BIT INS]
    3220                            ; CALL OCCURS {}                 ; [] |1749| 
    3221                            .dwpsn  file "../Application/MAC/OSAL/osal.c",line 1750,column 5,is_stmt,isa 1
    3222 00000112 1000F8D9          LDR       A2, [V6, #0]          ; [DPU_3_PIPE] |1750|  ; [KEEP 32-BIT INS]
    3223                            .dwpsn  file "../Application/MAC/OSAL/osal.c",line 1751,column 5,is_stmt,isa 1
    3224 00000116 2200              MOVS      A3, #0                ; [DPU_3_PIPE] |1751|  ; [ORIG 16-BIT INS]
    3225                            .dwpsn  file "../Application/MAC/OSAL/osal.c",line 1750,column 5,is_stmt,isa 1
    3226 00000118 A007F831          LDRH      V7, [A2, +V4]         ; [DPU_3_PIPE] |1750|  ; [KEEP 32-BIT INS]
    3227                            .dwpsn  file "../Application/MAC/OSAL/osal.c",line 1751,column 5,is_stmt,isa 1
    3228 0000011c 53CA              STRH      A3, [A2, +V4]         ; [DPU_3_PIPE] |1751|  ; [ORIG 16-BIT INS]
    3229                            .dwpsn  file "../Application/MAC/OSAL/osal.c",line 1752,column 5,is_stmt,isa 1
    3230 0000011e 1000F8D8          LDR       A2, [V5, #0]          ; [DPU_3_PIPE] |1752|  ; [KEEP 32-BIT INS]
    3231                    $C$DW$219       .dwtag  DW_TAG_TI_branch
    3232                            .dwattr $C$DW$219, DW_AT_low_pc(0x00)
    3233                            .dwattr $C$DW$219, DW_AT_TI_call
    3234                            .dwattr $C$DW$219, DW_AT_TI_indirect
    3235                    
    3236 00000122 4788              BLX       A2                    ; [DPU_3_PIPE] |1752|  ; [ORIG 16-BIT INS]
    3237                            ; CALL OCCURS {}                 ; [] |1752| 
    3238                            .dwpsn  file "../Application/MAC/OSAL/osal.c",line 1755,column 5,is_stmt,isa 1
    3239 00000124 4823              LDR       A1, $C$CON52          ; [DPU_3_PIPE] |1755|  ; [ORIG 16-BIT INS]
    3240 00000126 2025F850          LDR       A3, [A1, +V2, LSL #2] ; [DPU_3_PIPE] |1755|  ; [KEEP 32-BIT INS]
    3241                            .dwpsn  file "../Application/MAC/OSAL/osal.c",line 1754,column 5,is_stmt,isa 1
    3242 0000012a 7025              STRB      V2, [V1, #0]          ; [DPU_3_PIPE] |1754|  ; [ORIG 16-BIT INS]
    3243                            .dwpsn  file "../Application/MAC/OSAL/osal.c",line 1755,column 5,is_stmt,isa 1
    3244 0000012c 4651              MOV       A2, V7                ; [DPU_3_PIPE] |1755|  ; [ORIG 16-BIT INS]
    3245 0000012e 4628              MOV       A1, V2                ; [DPU_3_PIPE] |1755|  ; [ORIG 16-BIT INS]
TI ARM Assembler PC v16.9.9 Sun Nov 25 16:40:48 2018

Tools Copyright (c) 1996-2017 Texas Instruments Incorporated
C:\Users\Stryd\AppData\Local\Temp\{8719FFD6-004A-4401-8DC3-4DA83C6CF1D8} PAGE   60

    3246                    $C$DW$220       .dwtag  DW_TAG_TI_branch
    3247                            .dwattr $C$DW$220, DW_AT_low_pc(0x00)
    3248                            .dwattr $C$DW$220, DW_AT_TI_call
    3249                            .dwattr $C$DW$220, DW_AT_TI_indirect
    3250                    
    3251 00000130 4790              BLX       A3                    ; [DPU_3_PIPE] |1755|  ; [ORIG 16-BIT INS]
    3252                            ; CALL OCCURS {}                 ; [] |1755| 
    3253 00000132 4605              MOV       V2, A1                ; [DPU_3_PIPE] |1755|  ; [ORIG 16-BIT INS]
    3254                            .dwpsn  file "../Application/MAC/OSAL/osal.c",line 1756,column 5,is_stmt,isa 1
    3255 00000134 20FF              MOVS      A1, #255              ; [DPU_3_PIPE] |1756|  ; [ORIG 16-BIT INS]
    3256 00000136 7020              STRB      A1, [V1, #0]          ; [DPU_3_PIPE] |1756|  ; [ORIG 16-BIT INS]
    3257                            .dwpsn  file "../Application/MAC/OSAL/osal.c",line 1758,column 5,is_stmt,isa 1
    3258 00000138 6830              LDR       A1, [V3, #0]          ; [DPU_3_PIPE] |1758|  ; [ORIG 16-BIT INS]
    3259                    $C$DW$221       .dwtag  DW_TAG_TI_branch
    3260                            .dwattr $C$DW$221, DW_AT_low_pc(0x00)
    3261                            .dwattr $C$DW$221, DW_AT_TI_call
    3262                            .dwattr $C$DW$221, DW_AT_TI_indirect
    3263                    
    3264 0000013a 4780              BLX       A1                    ; [DPU_3_PIPE] |1758|  ; [ORIG 16-BIT INS]
    3265                            ; CALL OCCURS {}                 ; [] |1758| 
    3266                            .dwpsn  file "../Application/MAC/OSAL/osal.c",line 1759,column 5,is_stmt,isa 1
    3267 0000013c 1000F8D9          LDR       A2, [V6, #0]          ; [DPU_3_PIPE] |1759|  ; [KEEP 32-BIT INS]
    3268 00000140 5A7A              LDRH      A3, [V4, +A2]         ; [DPU_3_PIPE] |1759|  ; [ORIG 16-BIT INS]
    3269 00000142 4315              ORRS      V2, V2, A3            ; [DPU_3_PIPE] |1759|  ; [ORIG 16-BIT INS]
    3270 00000144 527D              STRH      V2, [V4, +A2]         ; [DPU_3_PIPE] |1759|  ; [ORIG 16-BIT INS]
    3271                            .dwpsn  file "../Application/MAC/OSAL/osal.c",line 1760,column 5,is_stmt,isa 1
    3272 00000146 1000F8D8          LDR       A2, [V5, #0]          ; [DPU_3_PIPE] |1760|  ; [KEEP 32-BIT INS]
    3273                    $C$DW$222       .dwtag  DW_TAG_TI_branch
    3274                            .dwattr $C$DW$222, DW_AT_low_pc(0x00)
    3275                            .dwattr $C$DW$222, DW_AT_TI_call
    3276                            .dwattr $C$DW$222, DW_AT_TI_indirect
    3277                    
    3278 0000014a 4788              BLX       A2                    ; [DPU_3_PIPE] |1760|  ; [ORIG 16-BIT INS]
    3279                            ; CALL OCCURS {}                 ; [] |1760| 
    3280                    ;* --------------------------------------------------------------------------*
    3281 0000014c           ||$C$L44||:    
    3282                            .dwpsn  file "../Application/MAC/OSAL/osal.c",line 1794,column 30,is_stmt,isa 1
    3283                    $C$DW$223       .dwtag  DW_TAG_TI_branch
    3284                            .dwattr $C$DW$223, DW_AT_low_pc(0x00)
    3285                            .dwattr $C$DW$223, DW_AT_name("osal_next_timeout")
    3286                            .dwattr $C$DW$223, DW_AT_TI_call
    3287                    
    3288 0000014c FFFEF7FF!         BL        osal_next_timeout     ; [DPU_3_PIPE] |1794|  ; [KEEP 32-BIT INS]
    3289                            ; CALL OCCURS {osal_next_timeout }  ; [] |1794| 
    3290 00000150 4607              MOV       V4, A1                ; [DPU_3_PIPE] |1794|  ; [ORIG 16-BIT INS]
    3291 00000152 3FFFF1B7          CMP       V4, #-1               ; [DPU_3_PIPE] |1794|  ; [KEEP 32-BIT INS]
    3292 00000156 D01F              BEQ       ||$C$L46||            ; [DPU_3_PIPE] |1794|  ; [ORIG 16-BIT INS]
    3293                            ; BRANCHCC OCCURS {||$C$L46||}   ; [] |1794| 
    3294                    ;* --------------------------------------------------------------------------*
    3295 00000158 B907              CBNZ      V4, ||$C$L45||        ; []  ; [ORIG 16-BIT INS]
    3296                            .dwpsn  file "../Application/MAC/OSAL/osal.c",line 1801,column 9,is_stmt,isa 1
    3297 0000015a 4F17              LDR       V4, $C$CON53          ; [DPU_3_PIPE] |1801|  ; [ORIG 16-BIT INS]
    3298                    ;* --------------------------------------------------------------------------*
    3299 0000015c           ||$C$L45||:    
    3300                            .dwpsn  file "../Application/MAC/OSAL/osal.c",line 1803,column 7,is_stmt,isa 1
TI ARM Assembler PC v16.9.9 Sun Nov 25 16:40:48 2018

Tools Copyright (c) 1996-2017 Texas Instruments Incorporated
C:\Users\Stryd\AppData\Local\Temp\{8719FFD6-004A-4401-8DC3-4DA83C6CF1D8} PAGE   61

    3301 0000015c 69E0              LDR       A1, [V1, #28]         ; [DPU_3_PIPE] |1803|  ; [ORIG 16-BIT INS]
    3302 0000015e 42B8              CMP       A1, V4                ; [DPU_3_PIPE] |1803|  ; [ORIG 16-BIT INS]
    3303 00000160 BF38              IT        CC                    ; [DPU_3_PIPE]  ; [ORIG 16-BIT INS]
    3304                            .dwpsn  file "../Application/MAC/OSAL/osal.c",line 1805,column 9,is_stmt,isa 1
    3305 00000162 1C07              MOVCC     V4, A1                ; [DPU_3_PIPE] |1805|  ; [ORIG 16-BIT INS]
    3306                            .dwpsn  file "../Application/MAC/OSAL/osal.c",line 1808,column 7,is_stmt,isa 1
    3307 00000164 465E              MOV       V3, V8                ; [DPU_3_PIPE] |1808|  ; [ORIG 16-BIT INS]
    3308 00000166 6830              LDR       A1, [V3, #0]          ; [DPU_3_PIPE] |1808|  ; [ORIG 16-BIT INS]
    3309                    $C$DW$224       .dwtag  DW_TAG_TI_branch
    3310                            .dwattr $C$DW$224, DW_AT_low_pc(0x00)
    3311                            .dwattr $C$DW$224, DW_AT_TI_call
    3312                            .dwattr $C$DW$224, DW_AT_TI_indirect
    3313                    
    3314 00000168 4780              BLX       A1                    ; [DPU_3_PIPE] |1808|  ; [ORIG 16-BIT INS]
    3315                            ; CALL OCCURS {}                 ; [] |1808| 
    3316                            .dwpsn  file "C:/ti/simplelink_cc13x0_sdk_2_30_00_20/source/ti/ti154stack/icall/src/inc/icall.
    3317 0000016a 261C              MOVS      V3, #28               ; [DPU_3_PIPE] |2355|  ; [ORIG 16-BIT INS]
    3318                            .dwpsn  file "../Application/MAC/OSAL/osal.c",line 1808,column 7,is_stmt,isa 1
    3319 0000016c 4605              MOV       V2, A1                ; [DPU_3_PIPE] |1808|  ; [ORIG 16-BIT INS]
    3320 0000016e 4913              LDR       A2, $C$CON54          ; [DPU_3_PIPE]  ; [ORIG 16-BIT INS]
    3321                            .dwpsn  file "C:/ti/simplelink_cc13x0_sdk_2_30_00_20/source/ti/ti154stack/icall/src/inc/icall.
    3322 00000170 6A23              LDR       A4, [V1, #32]         ; [DPU_3_PIPE] |2356|  ; [ORIG 16-BIT INS]
    3323                            .dwpsn  file "C:/ti/simplelink_cc13x0_sdk_2_30_00_20/source/ti/ti154stack/icall/src/inc/icall.
    3324 00000172 6002F8AD          STRH      V3, [SP, #2]          ; [DPU_3_PIPE] |2355|  ; [KEEP 32-BIT INS]
    3325 00000176 2008              MOVS      A1, #8                ; [DPU_3_PIPE]  ; [ORIG 16-BIT INS]
    3326                            .dwpsn  file "C:/ti/simplelink_cc13x0_sdk_2_30_00_20/source/ti/ti154stack/icall/src/inc/icall.
    3327 00000178 0000F8AD          STRH      A1, [SP, #0]          ; [DPU_3_PIPE] |2354|  ; [KEEP 32-BIT INS]
    3328                            .dwpsn  file "C:/ti/simplelink_cc13x0_sdk_2_30_00_20/source/ti/ti154stack/icall/src/inc/icall.
    3329 0000017c 6809              LDR       A2, [A2, #0]          ; [DPU_3_PIPE] |2357|  ; [ORIG 16-BIT INS]
    3330                            .dwpsn  file "C:/ti/simplelink_cc13x0_sdk_2_30_00_20/source/ti/ti154stack/icall/src/inc/icall.
    3331 0000017e 9301              STR       A4, [SP, #4]          ; [DPU_3_PIPE] |2356|  ; [ORIG 16-BIT INS]
    3332                            .dwpsn  file "C:/ti/simplelink_cc13x0_sdk_2_30_00_20/source/ti/ti154stack/icall/src/inc/icall.
    3333 00000180 4668              MOV       A1, SP                ; [DPU_3_PIPE] |2357|  ; [ORIG 16-BIT INS]
    3334                    $C$DW$225       .dwtag  DW_TAG_TI_branch
    3335                            .dwattr $C$DW$225, DW_AT_low_pc(0x00)
    3336                            .dwattr $C$DW$225, DW_AT_TI_call
    3337                            .dwattr $C$DW$225, DW_AT_TI_indirect
    3338                    
    3339 00000182 4788              BLX       A2                    ; [DPU_3_PIPE] |2357|  ; [ORIG 16-BIT INS]
    3340                            ; CALL OCCURS {}                 ; [] |2357| 
    3341                            .dwpsn  file "../Application/MAC/OSAL/osal.c",line 1810,column 7,is_stmt,isa 1
    3342 00000184 6A61              LDR       A2, [V1, #36]         ; [DPU_3_PIPE] |1810|  ; [ORIG 16-BIT INS]
    3343 00000186 4638              MOV       A1, V4                ; [DPU_3_PIPE] |1810|  ; [ORIG 16-BIT INS]
    3344 00000188 1C49              ADDS      A2, A2, #1            ; [DPU_3_PIPE] |1810|  ; [ORIG 16-BIT INS]
    3345 0000018a 6261              STR       A2, [V1, #36]         ; [DPU_3_PIPE] |1810|  ; [ORIG 16-BIT INS]
    3346                    $C$DW$226       .dwtag  DW_TAG_TI_branch
    3347                            .dwattr $C$DW$226, DW_AT_low_pc(0x00)
    3348                            .dwattr $C$DW$226, DW_AT_name("ICall_setTimerMSecs")
    3349                            .dwattr $C$DW$226, DW_AT_TI_call
    3350                    
    3351 0000018c FFFEF7FF!         BL        ICall_setTimerMSecs   ; [DPU_3_PIPE] |1810|  ; [KEEP 32-BIT INS]
    3352                            ; CALL OCCURS {ICall_setTimerMSecs }  ; [] |1810| 
    3353                            .dwpsn  file "../Application/MAC/OSAL/osal.c",line 1813,column 7,is_stmt,isa 1
    3354 00000190 4640              MOV       A1, V5                ; [DPU_3_PIPE] |1813|  ; [ORIG 16-BIT INS]
    3355 00000192 6801              LDR       A2, [A1, #0]          ; [DPU_3_PIPE] |1813|  ; [ORIG 16-BIT INS]
TI ARM Assembler PC v16.9.9 Sun Nov 25 16:40:48 2018

Tools Copyright (c) 1996-2017 Texas Instruments Incorporated
C:\Users\Stryd\AppData\Local\Temp\{8719FFD6-004A-4401-8DC3-4DA83C6CF1D8} PAGE   62

    3356 00000194 4628              MOV       A1, V2                ; [DPU_3_PIPE] |1813|  ; [ORIG 16-BIT INS]
    3357                    $C$DW$227       .dwtag  DW_TAG_TI_branch
    3358                            .dwattr $C$DW$227, DW_AT_low_pc(0x00)
    3359                            .dwattr $C$DW$227, DW_AT_TI_call
    3360                            .dwattr $C$DW$227, DW_AT_TI_indirect
    3361                    
    3362 00000196 4788              BLX       A2                    ; [DPU_3_PIPE] |1813|  ; [ORIG 16-BIT INS]
    3363                            ; CALL OCCURS {}                 ; [] |1813| 
    3364                    ;* --------------------------------------------------------------------------*
    3365 00000198           ||$C$L46||:    
    3366 00000198 B005              ADD       SP, SP, #20           ; [DPU_3_PIPE]  ; [ORIG 16-BIT INS]
    3367                            .dwcfi  cfa_offset, 36
    3368                    $C$DW$228       .dwtag  DW_TAG_TI_branch
    3369                            .dwattr $C$DW$228, DW_AT_low_pc(0x00)
    3370                            .dwattr $C$DW$228, DW_AT_TI_return
    3371                    
    3372 0000019a 8FF0E8BD          POP       {V1, V2, V3, V4, V5, V6, V7, V8, PC} ; [DPU_3_PIPE]  ; [KEEP 32-BIT INS]
    3373                            .dwcfi  cfa_offset, 0
    3374                            .dwcfi  restore_reg, 11
    3375                            .dwcfi  restore_reg, 10
    3376                            .dwcfi  restore_reg, 9
    3377                            .dwcfi  restore_reg, 8
    3378                            .dwcfi  restore_reg, 7
    3379                            .dwcfi  restore_reg, 6
    3380                            .dwcfi  restore_reg, 5
    3381                            .dwcfi  restore_reg, 4
    3382                            ; BRANCH OCCURS                  ; [] 
    3383                            .dwattr $C$DW$190, DW_AT_TI_end_file("../Application/MAC/OSAL/osal.c")
    3384                            .dwattr $C$DW$190, DW_AT_TI_end_line(0x730)
    3385                            .dwattr $C$DW$190, DW_AT_TI_end_column(0x01)
    3386                            .dwendentry
    3387                            .dwendtag $C$DW$190
    3388                    
    3389 00000000                   .sect   ".text:osal_start_system"
    3390                            .clink
    3391                            .thumbfunc osal_start_system
    3392 00000000                   .thumb
    3393                            .global osal_start_system
    3394                    
    3395                    $C$DW$229       .dwtag  DW_TAG_subprogram
    3396                            .dwattr $C$DW$229, DW_AT_name("osal_start_system")
    3397                            .dwattr $C$DW$229, DW_AT_low_pc(osal_start_system)
    3398                            .dwattr $C$DW$229, DW_AT_high_pc(0x00)
    3399                            .dwattr $C$DW$229, DW_AT_TI_symbol_name("osal_start_system")
    3400                            .dwattr $C$DW$229, DW_AT_external
    3401                            .dwattr $C$DW$229, DW_AT_TI_begin_file("../Application/MAC/OSAL/osal.c")
    3402                            .dwattr $C$DW$229, DW_AT_TI_begin_line(0x595)
    3403                            .dwattr $C$DW$229, DW_AT_TI_begin_column(0x06)
    3404                            .dwattr $C$DW$229, DW_AT_decl_file("../Application/MAC/OSAL/osal.c")
    3405                            .dwattr $C$DW$229, DW_AT_decl_line(0x595)
    3406                            .dwattr $C$DW$229, DW_AT_decl_column(0x06)
    3407                            .dwattr $C$DW$229, DW_AT_TI_max_frame_size(0x20)
    3408                            .dwpsn  file "../Application/MAC/OSAL/osal.c",line 1430,column 1,is_stmt,address osal_start_sy
    3409                    
    3410                            .dwfde $C$DW$CIE, osal_start_system
TI ARM Assembler PC v16.9.9 Sun Nov 25 16:40:48 2018

Tools Copyright (c) 1996-2017 Texas Instruments Incorporated
C:\Users\Stryd\AppData\Local\Temp\{8719FFD6-004A-4401-8DC3-4DA83C6CF1D8} PAGE   63

    3411                    
    3412                    ;*****************************************************************************
    3413                    ;* FUNCTION NAME: osal_start_system                                          *
    3414                    ;*                                                                           *
    3415                    ;*   Regs Modified     : A1,A2,A3,A4,V1,V2,V3,V4,V9,SP,LR,SR                 *
    3416                    ;*   Regs Used         : A1,A2,A3,A4,V1,V2,V3,V4,V9,SP,LR,SR                 *
    3417                    ;*   Local Frame Size  : 0 Args + 8 Auto + 20 Save = 28 byte                 *
    3418                    ;*****************************************************************************
    3419                    osal_start_system:
    3420                    ;* --------------------------------------------------------------------------*
    3421                    $C$DW$230       .dwtag  DW_TAG_variable
    3422                            .dwattr $C$DW$230, DW_AT_name("args")
    3423                            .dwattr $C$DW$230, DW_AT_TI_symbol_name("args")
    3424                            .dwattr $C$DW$230, DW_AT_type(*$C$DW$T$429)
    3425                            .dwattr $C$DW$230, DW_AT_location[DW_OP_breg13 0]
    3426                    
    3427                    ;* V3    assigned to $O$K11
    3428                    ;* V2    assigned to $O$K18
    3429                    ;* V4    assigned to $O$K22
    3430                            .dwcfi  cfa_offset, 0
    3431                            .dwpsn  file "../Application/MAC/OSAL/osal.c",line 1435,column 21,is_stmt,isa 1
    3432 00000000 480B              LDR       A1, $C$CON55          ; [DPU_3_PIPE] |1435|  ; [ORIG 16-BIT INS]
    3433 00000002 B5FE              PUSH      {A2, A3, A4, V1, V2, V3, V4, LR} ; [DPU_3_PIPE]  ; [ORIG 16-BIT INS]
    3434                            .dwcfi  cfa_offset, 32
    3435                            .dwcfi  save_reg_to_mem, 14, -4
    3436                            .dwcfi  save_reg_to_mem, 7, -8
    3437                            .dwcfi  save_reg_to_mem, 6, -12
    3438                            .dwcfi  save_reg_to_mem, 5, -16
    3439                            .dwcfi  save_reg_to_mem, 4, -20
    3440                            .dwcfi  save_reg_to_mem, 3, -24
    3441                            .dwcfi  save_reg_to_mem, 2, -28
    3442                            .dwcfi  save_reg_to_mem, 1, -32
    3443 00000004 6800              LDR       A1, [A1, #0]          ; [DPU_3_PIPE] |1435|  ; [ORIG 16-BIT INS]
    3444                    $C$DW$231       .dwtag  DW_TAG_TI_branch
    3445                            .dwattr $C$DW$231, DW_AT_low_pc(0x00)
    3446                            .dwattr $C$DW$231, DW_AT_name("ICall_setTimer")
    3447                            .dwattr $C$DW$231, DW_AT_TI_call
    3448                    
    3449 00000006 FFFEF7FF!         BL        ICall_setTimer        ; [DPU_3_PIPE] |1435|  ; [KEEP 32-BIT INS]
    3450                            ; CALL OCCURS {ICall_setTimer }  ; [] |1435| 
    3451 0000000a B108              CBZ       A1, ||$C$L47||        ; []  ; [ORIG 16-BIT INS]
    3452                            ; BRANCHCC OCCURS {||$C$L47||}   ; [] |1435| 
    3453                    ;* --------------------------------------------------------------------------*
    3454                            .dwpsn  file "../Application/MAC/OSAL/osal.c",line 1440,column 5,is_stmt,isa 1
    3455                    $C$DW$232       .dwtag  DW_TAG_TI_branch
    3456                            .dwattr $C$DW$232, DW_AT_low_pc(0x00)
    3457                            .dwattr $C$DW$232, DW_AT_name("ICall_abort")
    3458                            .dwattr $C$DW$232, DW_AT_TI_call
    3459                    
    3460 0000000c FFFEF7FF!         BL        ICall_abort           ; [DPU_3_PIPE] |1440|  ; [KEEP 32-BIT INS]
    3461                            ; CALL OCCURS {ICall_abort }     ; [] |1440| 
    3462                    ;* --------------------------------------------------------------------------*
    3463 00000010           ||$C$L47||:    
    3464                            .dwpsn  file "C:/ti/simplelink_cc13x0_sdk_2_30_00_20/source/ti/ti154stack/icall/src/inc/icall.
    3465 00000010 4C08              LDR       V1, $C$CON56          ; [DPU_3_PIPE] |1930|  ; [ORIG 16-BIT INS]
TI ARM Assembler PC v16.9.9 Sun Nov 25 16:40:48 2018

Tools Copyright (c) 1996-2017 Texas Instruments Incorporated
C:\Users\Stryd\AppData\Local\Temp\{8719FFD6-004A-4401-8DC3-4DA83C6CF1D8} PAGE   64

    3466 00000012 2608              MOVS      V3, #8                ; [DPU_3_PIPE]  ; [ORIG 16-BIT INS]
    3467 00000014 250A              MOVS      V2, #10               ; [DPU_3_PIPE]  ; [ORIG 16-BIT INS]
    3468 00000016 37FFF04F          MOV       V4, #-1               ; [DPU_3_PIPE]  ; [KEEP 32-BIT INS]
    3469                    ;* --------------------------------------------------------------------------*
    3470                    ;*   BEGIN LOOP ||$C$L48||
    3471                    ;*
    3472                    ;*   Loop source line                : 1445
    3473                    ;*   Loop closing brace source line  : 1453
    3474                    ;*   Known Minimum Trip Count        : 1
    3475                    ;*   Known Maximum Trip Count        : 4294967295
    3476                    ;*   Known Max Trip Count Factor     : 1
    3477                    ;* --------------------------------------------------------------------------*
    3478 0000001a           ||$C$L48||:    
    3479                            .dwpsn  file "../Application/MAC/OSAL/osal.c",line 1448,column 5,is_stmt,isa 1
    3480                    $C$DW$233       .dwtag  DW_TAG_TI_branch
    3481                            .dwattr $C$DW$233, DW_AT_low_pc(0x00)
    3482                            .dwattr $C$DW$233, DW_AT_name("osal_run_system")
    3483                            .dwattr $C$DW$233, DW_AT_TI_call
    3484                    
    3485 0000001a FFFEF7FF!         BL        osal_run_system       ; [DPU_3_PIPE] |1448|  ; [KEEP 32-BIT INS]
    3486                            ; CALL OCCURS {osal_run_system }  ; [] |1448| 
    3487                            .dwpsn  file "C:/ti/simplelink_cc13x0_sdk_2_30_00_20/source/ti/ti154stack/icall/src/inc/icall.
    3488 0000001e 6000F8AD          STRH      V3, [SP, #0]          ; [DPU_3_PIPE] |1927|  ; [KEEP 32-BIT INS]
    3489                            .dwpsn  file "C:/ti/simplelink_cc13x0_sdk_2_30_00_20/source/ti/ti154stack/icall/src/inc/icall.
    3490 00000022 5002F8AD          STRH      V2, [SP, #2]          ; [DPU_3_PIPE] |1928|  ; [KEEP 32-BIT INS]
    3491                            .dwpsn  file "C:/ti/simplelink_cc13x0_sdk_2_30_00_20/source/ti/ti154stack/icall/src/inc/icall.
    3492 00000026 6821              LDR       A2, [V1, #0]          ; [DPU_3_PIPE] |1930|  ; [ORIG 16-BIT INS]
    3493                            .dwpsn  file "C:/ti/simplelink_cc13x0_sdk_2_30_00_20/source/ti/ti154stack/icall/src/inc/icall.
    3494 00000028 9701              STR       V4, [SP, #4]          ; [DPU_3_PIPE] |1929|  ; [ORIG 16-BIT INS]
    3495                            .dwpsn  file "C:/ti/simplelink_cc13x0_sdk_2_30_00_20/source/ti/ti154stack/icall/src/inc/icall.
    3496 0000002a 4668              MOV       A1, SP                ; [DPU_3_PIPE] |1930|  ; [ORIG 16-BIT INS]
    3497                    $C$DW$234       .dwtag  DW_TAG_TI_branch
    3498                            .dwattr $C$DW$234, DW_AT_low_pc(0x00)
    3499                            .dwattr $C$DW$234, DW_AT_TI_call
    3500                            .dwattr $C$DW$234, DW_AT_TI_indirect
    3501                    
    3502 0000002c 4788              BLX       A2                    ; [DPU_3_PIPE] |1930|  ; [ORIG 16-BIT INS]
    3503                            ; CALL OCCURS {}                 ; [] |1930| 
    3504                            .dwpsn  file "../Application/MAC/OSAL/osal.c",line 1453,column 3,is_stmt,isa 1
    3505 0000002e E7F4              B         ||$C$L48||            ; [DPU_3_PIPE] |1453|  ; [ORIG 16-BIT INS]
    3506                            ; BRANCH OCCURS {||$C$L48||}     ; [] |1453| 
    3507                            .dwattr $C$DW$229, DW_AT_TI_end_file("../Application/MAC/OSAL/osal.c")
    3508                            .dwattr $C$DW$229, DW_AT_TI_end_line(0x5ae)
    3509                            .dwattr $C$DW$229, DW_AT_TI_end_column(0x01)
    3510                            .dwendentry
    3511                            .dwendtag $C$DW$229
    3512                    
    3513 00000000                   .sect   ".text:osal_set_icall_hook"
    3514                            .clink
    3515                            .thumbfunc osal_set_icall_hook
    3516 00000000                   .thumb
    3517                            .global osal_set_icall_hook
    3518                    
    3519                    $C$DW$235       .dwtag  DW_TAG_subprogram
    3520                            .dwattr $C$DW$235, DW_AT_name("osal_set_icall_hook")
TI ARM Assembler PC v16.9.9 Sun Nov 25 16:40:48 2018

Tools Copyright (c) 1996-2017 Texas Instruments Incorporated
C:\Users\Stryd\AppData\Local\Temp\{8719FFD6-004A-4401-8DC3-4DA83C6CF1D8} PAGE   65

    3521                            .dwattr $C$DW$235, DW_AT_low_pc(osal_set_icall_hook)
    3522                            .dwattr $C$DW$235, DW_AT_high_pc(0x00)
    3523                            .dwattr $C$DW$235, DW_AT_TI_symbol_name("osal_set_icall_hook")
    3524                            .dwattr $C$DW$235, DW_AT_external
    3525                            .dwattr $C$DW$235, DW_AT_TI_begin_file("../Application/MAC/OSAL/osal.c")
    3526                            .dwattr $C$DW$235, DW_AT_TI_begin_line(0x64e)
    3527                            .dwattr $C$DW$235, DW_AT_TI_begin_column(0x06)
    3528                            .dwattr $C$DW$235, DW_AT_decl_file("../Application/MAC/OSAL/osal.c")
    3529                            .dwattr $C$DW$235, DW_AT_decl_line(0x64e)
    3530                            .dwattr $C$DW$235, DW_AT_decl_column(0x06)
    3531                            .dwattr $C$DW$235, DW_AT_TI_max_frame_size(0x00)
    3532                            .dwpsn  file "../Application/MAC/OSAL/osal.c",line 1615,column 1,is_stmt,address osal_set_ical
    3533                    
    3534                            .dwfde $C$DW$CIE, osal_set_icall_hook
    3535                    $C$DW$236       .dwtag  DW_TAG_formal_parameter
    3536                            .dwattr $C$DW$236, DW_AT_name("param")
    3537                            .dwattr $C$DW$236, DW_AT_TI_symbol_name("param")
    3538                            .dwattr $C$DW$236, DW_AT_type(*$C$DW$T$223)
    3539                            .dwattr $C$DW$236, DW_AT_location[DW_OP_reg0]
    3540                    
    3541                    
    3542                    ;*****************************************************************************
    3543                    ;* FUNCTION NAME: osal_set_icall_hook                                        *
    3544                    ;*                                                                           *
    3545                    ;*   Regs Modified     : A2,SR                                               *
    3546                    ;*   Regs Used         : A1,A2,LR,SR                                         *
    3547                    ;*   Local Frame Size  : 0 Args + 0 Auto + 0 Save = 0 byte                   *
    3548                    ;*****************************************************************************
    3549                    osal_set_icall_hook:
    3550                    ;* --------------------------------------------------------------------------*
    3551                    ;* A1    assigned to param
    3552                    $C$DW$237       .dwtag  DW_TAG_variable
    3553                            .dwattr $C$DW$237, DW_AT_name("param")
    3554                            .dwattr $C$DW$237, DW_AT_TI_symbol_name("param")
    3555                            .dwattr $C$DW$237, DW_AT_type(*$C$DW$T$224)
    3556                            .dwattr $C$DW$237, DW_AT_location[DW_OP_reg0]
    3557                    
    3558                            .dwcfi  cfa_offset, 0
    3559                            .dwpsn  file "../Application/MAC/OSAL/osal.c",line 1616,column 3,is_stmt,isa 1
    3560 00000000 4901              LDR       A2, $C$CON58          ; [DPU_3_PIPE] |1616|  ; [ORIG 16-BIT INS]
    3561 00000002 3918              SUBS      A2, A2, #24           ; [DPU_3_PIPE]  ; [ORIG 16-BIT INS]
    3562 00000004 6008              STR       A1, [A2, #0]          ; [DPU_3_PIPE] |1616|  ; [ORIG 16-BIT INS]
    3563                    $C$DW$238       .dwtag  DW_TAG_TI_branch
    3564                            .dwattr $C$DW$238, DW_AT_low_pc(0x00)
    3565                            .dwattr $C$DW$238, DW_AT_TI_return
    3566                    
    3567 00000006 4770              BX        LR                    ; [DPU_3_PIPE]  ; [ORIG 16-BIT INS]
    3568                            ; BRANCH OCCURS                  ; [] 
    3569                            .dwattr $C$DW$235, DW_AT_TI_end_file("../Application/MAC/OSAL/osal.c")
    3570                            .dwattr $C$DW$235, DW_AT_TI_end_line(0x651)
    3571                            .dwattr $C$DW$235, DW_AT_TI_end_column(0x01)
    3572                            .dwendentry
    3573                            .dwendtag $C$DW$235
    3574                    
    3575 00000000                   .sect   ".text:osal_service_entry"
TI ARM Assembler PC v16.9.9 Sun Nov 25 16:40:48 2018

Tools Copyright (c) 1996-2017 Texas Instruments Incorporated
C:\Users\Stryd\AppData\Local\Temp\{8719FFD6-004A-4401-8DC3-4DA83C6CF1D8} PAGE   66

    3576                            .clink
    3577                            .thumbfunc osal_service_entry
    3578 00000000                   .thumb
    3579                            .global osal_service_entry
    3580                    
    3581                    $C$DW$239       .dwtag  DW_TAG_subprogram
    3582                            .dwattr $C$DW$239, DW_AT_name("osal_service_entry")
    3583                            .dwattr $C$DW$239, DW_AT_low_pc(osal_service_entry)
    3584                            .dwattr $C$DW$239, DW_AT_high_pc(0x00)
    3585                            .dwattr $C$DW$239, DW_AT_TI_symbol_name("osal_service_entry")
    3586                            .dwattr $C$DW$239, DW_AT_external
    3587                            .dwattr $C$DW$239, DW_AT_type(*$C$DW$T$109)
    3588                            .dwattr $C$DW$239, DW_AT_TI_begin_file("../Application/MAC/OSAL/osal.c")
    3589                            .dwattr $C$DW$239, DW_AT_TI_begin_line(0x62d)
    3590                            .dwattr $C$DW$239, DW_AT_TI_begin_column(0x0d)
    3591                            .dwattr $C$DW$239, DW_AT_decl_file("../Application/MAC/OSAL/osal.c")
    3592                            .dwattr $C$DW$239, DW_AT_decl_line(0x62d)
    3593                            .dwattr $C$DW$239, DW_AT_decl_column(0x0d)
    3594                            .dwattr $C$DW$239, DW_AT_TI_max_frame_size(0x08)
    3595                            .dwpsn  file "../Application/MAC/OSAL/osal.c",line 1582,column 1,is_stmt,address osal_service_
    3596                    
    3597                            .dwfde $C$DW$CIE, osal_service_entry
    3598                    $C$DW$240       .dwtag  DW_TAG_formal_parameter
    3599                            .dwattr $C$DW$240, DW_AT_name("args")
    3600                            .dwattr $C$DW$240, DW_AT_TI_symbol_name("args")
    3601                            .dwattr $C$DW$240, DW_AT_type(*$C$DW$T$110)
    3602                            .dwattr $C$DW$240, DW_AT_location[DW_OP_reg0]
    3603                    
    3604                    
    3605                    ;*****************************************************************************
    3606                    ;* FUNCTION NAME: osal_service_entry                                         *
    3607                    ;*                                                                           *
    3608                    ;*   Regs Modified     : A1,A2,A3,A4,V1,V9,SP,LR,SR                          *
    3609                    ;*   Regs Used         : A1,A2,A3,A4,V1,V9,SP,LR,SR                          *
    3610                    ;*   Local Frame Size  : 0 Args + 0 Auto + 8 Save = 8 byte                   *
    3611                    ;*****************************************************************************
    3612                    osal_service_entry:
    3613                    ;* --------------------------------------------------------------------------*
    3614                    ;* A1    assigned to $O$v1
    3615                    ;* V1    assigned to args
    3616                    $C$DW$241       .dwtag  DW_TAG_variable
    3617                            .dwattr $C$DW$241, DW_AT_name("args")
    3618                            .dwattr $C$DW$241, DW_AT_TI_symbol_name("args")
    3619                            .dwattr $C$DW$241, DW_AT_type(*$C$DW$T$399)
    3620                            .dwattr $C$DW$241, DW_AT_location[DW_OP_reg4]
    3621                    
    3622                            .dwcfi  cfa_offset, 0
    3623 00000000 B510              PUSH      {V1, LR}              ; [DPU_3_PIPE]  ; [ORIG 16-BIT INS]
    3624                            .dwcfi  cfa_offset, 8
    3625                            .dwcfi  save_reg_to_mem, 14, -4
    3626                            .dwcfi  save_reg_to_mem, 4, -8
    3627 00000002 4604              MOV       V1, A1                ; [DPU_3_PIPE] |1582|  ; [ORIG 16-BIT INS]
    3628                            .dwpsn  file "../Application/MAC/OSAL/osal.c",line 1583,column 3,is_stmt,isa 1
    3629 00000004 8860              LDRH      A1, [V1, #2]          ; [DPU_3_PIPE] |1583|  ; [ORIG 16-BIT INS]
    3630 00000006 2800              CMP       A1, #0                ; [DPU_3_PIPE] |1583|  ; [ORIG 16-BIT INS]
TI ARM Assembler PC v16.9.9 Sun Nov 25 16:40:48 2018

Tools Copyright (c) 1996-2017 Texas Instruments Incorporated
C:\Users\Stryd\AppData\Local\Temp\{8719FFD6-004A-4401-8DC3-4DA83C6CF1D8} PAGE   67

    3631 00000008 BF18              IT        NE                    ; [DPU_3_PIPE]  ; [ORIG 16-BIT INS]
    3632                            .dwpsn  file "../Application/MAC/OSAL/osal.c",line 1595,column 5,is_stmt,isa 1
    3633 0000000a 0001F06F          MVNNE     A1, #1                ; [DPU_3_PIPE] |1595|  ; [KEEP 32-BIT INS]
    3634 0000000e D108              BNE       ||$C$L49||            ; [DPU_3_PIPE] |1595|  ; [ORIG 16-BIT INS]
    3635                            ; BRANCHCC OCCURS {||$C$L49||}   ; [] |1595| 
    3636                    ;* --------------------------------------------------------------------------*
    3637                            .dwpsn  file "../Application/MAC/OSAL/osal.c",line 1586,column 5,is_stmt,isa 1
    3638 00000010 79A0              LDRB      A1, [V1, #6]          ; [DPU_3_PIPE] |1586|  ; [ORIG 16-BIT INS]
    3639                    $C$DW$242       .dwtag  DW_TAG_TI_branch
    3640                            .dwattr $C$DW$242, DW_AT_low_pc(0x00)
    3641                            .dwattr $C$DW$242, DW_AT_name("osal_alien2proxy")
    3642                            .dwattr $C$DW$242, DW_AT_TI_call
    3643                    
    3644 00000012 FFFEF7FF!         BL        osal_alien2proxy      ; [DPU_3_PIPE] |1586|  ; [KEEP 32-BIT INS]
    3645                            ; CALL OCCURS {osal_alien2proxy }  ; [] |1586| 
    3646 00000016 71E0              STRB      A1, [V1, #7]          ; [DPU_3_PIPE] |1586|  ; [ORIG 16-BIT INS]
    3647                            .dwpsn  file "../Application/MAC/OSAL/osal.c",line 1590,column 7,is_stmt,isa 1
    3648 00000018 28FF              CMP       A1, #255              ; [DPU_3_PIPE] |1590|  ; [ORIG 16-BIT INS]
    3649 0000001a BF0C              ITE       EQ                    ; [DPU_3_PIPE]  ; [ORIG 16-BIT INS]
    3650 0000001c 0003F06F          MVNEQ     A1, #3                ; [DPU_3_PIPE] |1590|  ; [KEEP 32-BIT INS]
    3651 00000020 2000              MOVNE     A1, #0                ; [DPU_3_PIPE] |1590|  ; [ORIG 16-BIT INS]
    3652                    ;* --------------------------------------------------------------------------*
    3653                    ||$C$L49||:    
    3654                    $C$DW$243       .dwtag  DW_TAG_TI_branch
    3655                            .dwattr $C$DW$243, DW_AT_low_pc(0x00)
    3656                            .dwattr $C$DW$243, DW_AT_TI_return
    3657                    
    3658 00000022 BD10              POP       {V1, PC}              ; [DPU_3_PIPE]  ; [ORIG 16-BIT INS]
    3659                            .dwcfi  cfa_offset, 0
    3660                            .dwcfi  restore_reg, 4
    3661                            ; BRANCH OCCURS                  ; [] 
    3662                            .dwattr $C$DW$239, DW_AT_TI_end_file("../Application/MAC/OSAL/osal.c")
    3663                            .dwattr $C$DW$239, DW_AT_TI_end_line(0x63e)
    3664                            .dwattr $C$DW$239, DW_AT_TI_end_column(0x01)
    3665                            .dwendentry
    3666                            .dwendtag $C$DW$239
    3667                    
    3668 00000000                   .sect   ".text:osal_revmemcpy"
    3669                            .clink
    3670                            .thumbfunc osal_revmemcpy
    3671 00000000                   .thumb
    3672                            .global osal_revmemcpy
    3673                    
    3674                    $C$DW$244       .dwtag  DW_TAG_subprogram
    3675                            .dwattr $C$DW$244, DW_AT_name("osal_revmemcpy")
    3676                            .dwattr $C$DW$244, DW_AT_low_pc(osal_revmemcpy)
    3677                            .dwattr $C$DW$244, DW_AT_high_pc(0x00)
    3678                            .dwattr $C$DW$244, DW_AT_TI_symbol_name("osal_revmemcpy")
    3679                            .dwattr $C$DW$244, DW_AT_external
    3680                            .dwattr $C$DW$244, DW_AT_type(*$C$DW$T$3)
    3681                            .dwattr $C$DW$244, DW_AT_TI_begin_file("../Application/MAC/OSAL/osal.c")
    3682                            .dwattr $C$DW$244, DW_AT_TI_begin_line(0x10b)
    3683                            .dwattr $C$DW$244, DW_AT_TI_begin_column(0x07)
    3684                            .dwattr $C$DW$244, DW_AT_decl_file("../Application/MAC/OSAL/osal.c")
    3685                            .dwattr $C$DW$244, DW_AT_decl_line(0x10b)
TI ARM Assembler PC v16.9.9 Sun Nov 25 16:40:48 2018

Tools Copyright (c) 1996-2017 Texas Instruments Incorporated
C:\Users\Stryd\AppData\Local\Temp\{8719FFD6-004A-4401-8DC3-4DA83C6CF1D8} PAGE   68

    3686                            .dwattr $C$DW$244, DW_AT_decl_column(0x07)
    3687                            .dwattr $C$DW$244, DW_AT_TI_max_frame_size(0x00)
    3688                            .dwpsn  file "../Application/MAC/OSAL/osal.c",line 268,column 1,is_stmt,address osal_revmemcpy
    3689                    
    3690                            .dwfde $C$DW$CIE, osal_revmemcpy
    3691                    $C$DW$245       .dwtag  DW_TAG_formal_parameter
    3692                            .dwattr $C$DW$245, DW_AT_name("dst")
    3693                            .dwattr $C$DW$245, DW_AT_TI_symbol_name("dst")
    3694                            .dwattr $C$DW$245, DW_AT_type(*$C$DW$T$3)
    3695                            .dwattr $C$DW$245, DW_AT_location[DW_OP_reg0]
    3696                    
    3697                    $C$DW$246       .dwtag  DW_TAG_formal_parameter
    3698                            .dwattr $C$DW$246, DW_AT_name("src")
    3699                            .dwattr $C$DW$246, DW_AT_TI_symbol_name("src")
    3700                            .dwattr $C$DW$246, DW_AT_type(*$C$DW$T$167)
    3701                            .dwattr $C$DW$246, DW_AT_location[DW_OP_reg1]
    3702                    
    3703                    $C$DW$247       .dwtag  DW_TAG_formal_parameter
    3704                            .dwattr $C$DW$247, DW_AT_name("len")
    3705                            .dwattr $C$DW$247, DW_AT_TI_symbol_name("len")
    3706                            .dwattr $C$DW$247, DW_AT_type(*$C$DW$T$11)
    3707                            .dwattr $C$DW$247, DW_AT_location[DW_OP_reg2]
    3708                    
    3709                    
    3710                    ;*****************************************************************************
    3711                    ;* FUNCTION NAME: osal_revmemcpy                                             *
    3712                    ;*                                                                           *
    3713                    ;*   Regs Modified     : A1,A2,A3,A4,SR                                      *
    3714                    ;*   Regs Used         : A1,A2,A3,A4,LR,SR                                   *
    3715                    ;*   Local Frame Size  : 0 Args + 0 Auto + 0 Save = 0 byte                   *
    3716                    ;*****************************************************************************
    3717                    osal_revmemcpy:
    3718                    ;* --------------------------------------------------------------------------*
    3719                    ;* A2    assigned to src
    3720                    $C$DW$248       .dwtag  DW_TAG_variable
    3721                            .dwattr $C$DW$248, DW_AT_name("src")
    3722                            .dwattr $C$DW$248, DW_AT_TI_symbol_name("src")
    3723                            .dwattr $C$DW$248, DW_AT_type(*$C$DW$T$225)
    3724                            .dwattr $C$DW$248, DW_AT_location[DW_OP_reg1]
    3725                    
    3726                    ;* A1    assigned to len
    3727                    $C$DW$249       .dwtag  DW_TAG_variable
    3728                            .dwattr $C$DW$249, DW_AT_name("len")
    3729                            .dwattr $C$DW$249, DW_AT_TI_symbol_name("len")
    3730                            .dwattr $C$DW$249, DW_AT_type(*$C$DW$T$11)
    3731                            .dwattr $C$DW$249, DW_AT_location[DW_OP_reg0]
    3732                    
    3733                    ;* A3    assigned to pDst
    3734                    $C$DW$250       .dwtag  DW_TAG_variable
    3735                            .dwattr $C$DW$250, DW_AT_name("pDst")
    3736                            .dwattr $C$DW$250, DW_AT_TI_symbol_name("pDst")
    3737                            .dwattr $C$DW$250, DW_AT_type(*$C$DW$T$77)
    3738                            .dwattr $C$DW$250, DW_AT_location[DW_OP_reg2]
    3739                    
    3740                    ;* A2    assigned to pSrc
TI ARM Assembler PC v16.9.9 Sun Nov 25 16:40:48 2018

Tools Copyright (c) 1996-2017 Texas Instruments Incorporated
C:\Users\Stryd\AppData\Local\Temp\{8719FFD6-004A-4401-8DC3-4DA83C6CF1D8} PAGE   69

    3741                    $C$DW$251       .dwtag  DW_TAG_variable
    3742                            .dwattr $C$DW$251, DW_AT_name("pSrc")
    3743                            .dwattr $C$DW$251, DW_AT_TI_symbol_name("pSrc")
    3744                            .dwattr $C$DW$251, DW_AT_type(*$C$DW$T$299)
    3745                            .dwattr $C$DW$251, DW_AT_location[DW_OP_reg1]
    3746                    
    3747                            .dwcfi  cfa_offset, 0
    3748 00000000 4603              MOV       A4, A1                ; [DPU_3_PIPE] |268|  ; [ORIG 16-BIT INS]
    3749 00000002 4610              MOV       A1, A3                ; [DPU_3_PIPE] |268|  ; [ORIG 16-BIT INS]
    3750                            .dwpsn  file "../Application/MAC/OSAL/osal.c",line 273,column 3,is_stmt,isa 1
    3751 00000004 1809              ADDS      A2, A2, A1            ; [DPU_3_PIPE] |273|  ; [ORIG 16-BIT INS]
    3752                            .dwpsn  file "../Application/MAC/OSAL/osal.c",line 268,column 1,is_stmt,isa 1
    3753 00000006 461A              MOV       A3, A4                ; [DPU_3_PIPE] |268|  ; [ORIG 16-BIT INS]
    3754                            .dwpsn  file "../Application/MAC/OSAL/osal.c",line 273,column 3,is_stmt,isa 1
    3755 00000008 1E49              SUBS      A2, A2, #1            ; [DPU_3_PIPE] |273|  ; [ORIG 16-BIT INS]
    3756 0000000a B128              CBZ       A1, ||$C$L51||        ; []  ; [ORIG 16-BIT INS]
    3757                            .dwpsn  file "../Application/MAC/OSAL/osal.c",line 276,column 3,is_stmt,isa 1
    3758                            ; BRANCHCC OCCURS {||$C$L51||}   ; [] |276| 
    3759                    ;* --------------------------------------------------------------------------*
    3760                    ;*   BEGIN LOOP ||$C$L50||
    3761                    ;*
    3762                    ;*   Loop source line                : 276
    3763                    ;*   Loop closing brace source line  : 277
    3764                    ;*   Known Minimum Trip Count        : 1
    3765                    ;*   Known Maximum Trip Count        : 4294967295
    3766                    ;*   Known Max Trip Count Factor     : 1
    3767                    ;* --------------------------------------------------------------------------*
    3768 0000000c           ||$C$L50||:    
    3769                            .dwpsn  file "../Application/MAC/OSAL/osal.c",line 277,column 5,is_stmt,isa 1
    3770 0000000c 3901F811          LDRB      A4, [A2], #-1         ; [DPU_3_PIPE] |277|  ; [KEEP 32-BIT INS]
    3771                            .dwpsn  file "../Application/MAC/OSAL/osal.c",line 276,column 3,is_stmt,isa 1
    3772 00000010 1E40              SUBS      A1, A1, #1            ; [DPU_3_PIPE] |276|  ; [ORIG 16-BIT INS]
    3773                            .dwpsn  file "../Application/MAC/OSAL/osal.c",line 277,column 5,is_stmt,isa 1
    3774 00000012 3B01F802          STRB      A4, [A3], #1          ; [DPU_3_PIPE] |277|  ; [KEEP 32-BIT INS]
    3775                            .dwpsn  file "../Application/MAC/OSAL/osal.c",line 276,column 3,is_stmt,isa 1
    3776 00000016 D1F9              BNE       ||$C$L50||            ; [DPU_3_PIPE] |276|  ; [ORIG 16-BIT INS]
    3777                            ; BRANCHCC OCCURS {||$C$L50||}   ; [] |276| 
    3778                    ;* --------------------------------------------------------------------------*
    3779 00000018           ||$C$L51||:    
    3780                            .dwpsn  file "../Application/MAC/OSAL/osal.c",line 279,column 3,is_stmt,isa 1
    3781 00000018 4610              MOV       A1, A3                ; [DPU_3_PIPE] |279|  ; [ORIG 16-BIT INS]
    3782                    $C$DW$252       .dwtag  DW_TAG_TI_branch
    3783                            .dwattr $C$DW$252, DW_AT_low_pc(0x00)
    3784                            .dwattr $C$DW$252, DW_AT_TI_return
    3785                    
    3786 0000001a 4770              BX        LR                    ; [DPU_3_PIPE]  ; [ORIG 16-BIT INS]
    3787                            ; BRANCH OCCURS                  ; [] 
    3788                            .dwattr $C$DW$244, DW_AT_TI_end_file("../Application/MAC/OSAL/osal.c")
    3789                            .dwattr $C$DW$244, DW_AT_TI_end_line(0x118)
    3790                            .dwattr $C$DW$244, DW_AT_TI_end_column(0x01)
    3791                            .dwendentry
    3792                            .dwendtag $C$DW$244
    3793                    
    3794 00000000                   .sect   ".text:osal_rand"
    3795                            .clink
TI ARM Assembler PC v16.9.9 Sun Nov 25 16:40:48 2018

Tools Copyright (c) 1996-2017 Texas Instruments Incorporated
C:\Users\Stryd\AppData\Local\Temp\{8719FFD6-004A-4401-8DC3-4DA83C6CF1D8} PAGE   70

    3796                            .thumbfunc osal_rand
    3797 00000000                   .thumb
    3798                            .global osal_rand
    3799                    
    3800                    $C$DW$253       .dwtag  DW_TAG_subprogram
    3801                            .dwattr $C$DW$253, DW_AT_name("osal_rand")
    3802                            .dwattr $C$DW$253, DW_AT_low_pc(osal_rand)
    3803                            .dwattr $C$DW$253, DW_AT_high_pc(0x00)
    3804                            .dwattr $C$DW$253, DW_AT_TI_symbol_name("osal_rand")
    3805                            .dwattr $C$DW$253, DW_AT_external
    3806                            .dwattr $C$DW$253, DW_AT_type(*$C$DW$T$73)
    3807                            .dwattr $C$DW$253, DW_AT_TI_begin_file("../Application/MAC/OSAL/osal.c")
    3808                            .dwattr $C$DW$253, DW_AT_TI_begin_line(0x1e3)
    3809                            .dwattr $C$DW$253, DW_AT_TI_begin_column(0x08)
    3810                            .dwattr $C$DW$253, DW_AT_decl_file("../Application/MAC/OSAL/osal.c")
    3811                            .dwattr $C$DW$253, DW_AT_decl_line(0x1e3)
    3812                            .dwattr $C$DW$253, DW_AT_decl_column(0x08)
    3813                            .dwattr $C$DW$253, DW_AT_TI_max_frame_size(0x00)
    3814                            .dwpsn  file "../Application/MAC/OSAL/osal.c",line 484,column 1,is_stmt,address osal_rand,isa 
    3815                    
    3816                            .dwfde $C$DW$CIE, osal_rand
    3817                    
    3818                    ;*****************************************************************************
    3819                    ;* FUNCTION NAME: osal_rand                                                  *
    3820                    ;*                                                                           *
    3821                    ;*   Regs Modified     : A1,A2,A3,A4,V9,LR,SR                                *
    3822                    ;*   Regs Used         : A1,A2,A3,A4,V9,SP,LR,SR                             *
    3823                    ;*   Local Frame Size  : 0 Args + 0 Auto + 0 Save = 0 byte                   *
    3824                    ;*****************************************************************************
    3825 00000000           osal_rand:
    3826                    ;* --------------------------------------------------------------------------*
    3827                            .dwcfi  cfa_offset, 0
    3828                            .dwpsn  file "../Application/MAC/OSAL/osal.c",line 485,column 3,is_stmt,isa 1
    3829                    $C$DW$254       .dwtag  DW_TAG_TI_branch
    3830                            .dwattr $C$DW$254, DW_AT_low_pc(0x00)
    3831                            .dwattr $C$DW$254, DW_AT_name("Onboard_rand")
    3832                            .dwattr $C$DW$254, DW_AT_TI_call
    3833                            .dwattr $C$DW$254, DW_AT_TI_return
    3834                    
    3835 00000000 BFFEF7FF!         CRET      Onboard_rand          ; [DPU_3_PIPE] |485|  ; [KEEP 32-BIT INS]
    3836                            ; CALL OCCURS {Onboard_rand }    ; [] |485| 
    3837                            .dwattr $C$DW$253, DW_AT_TI_end_file("../Application/MAC/OSAL/osal.c")
    3838                            .dwattr $C$DW$253, DW_AT_TI_end_line(0x1e6)
    3839                            .dwattr $C$DW$253, DW_AT_TI_end_column(0x01)
    3840                            .dwendentry
    3841                            .dwendtag $C$DW$253
    3842                    
    3843 00000000                   .sect   ".text:osal_clear_event"
    3844                            .clink
    3845                            .thumbfunc osal_clear_event
    3846 00000000                   .thumb
    3847                            .global osal_clear_event
    3848                    
    3849                    $C$DW$255       .dwtag  DW_TAG_subprogram
    3850                            .dwattr $C$DW$255, DW_AT_name("osal_clear_event")
TI ARM Assembler PC v16.9.9 Sun Nov 25 16:40:48 2018

Tools Copyright (c) 1996-2017 Texas Instruments Incorporated
C:\Users\Stryd\AppData\Local\Temp\{8719FFD6-004A-4401-8DC3-4DA83C6CF1D8} PAGE   71

    3851                            .dwattr $C$DW$255, DW_AT_low_pc(osal_clear_event)
    3852                            .dwattr $C$DW$255, DW_AT_high_pc(0x00)
    3853                            .dwattr $C$DW$255, DW_AT_TI_symbol_name("osal_clear_event")
    3854                            .dwattr $C$DW$255, DW_AT_external
    3855                            .dwattr $C$DW$255, DW_AT_type(*$C$DW$T$19)
    3856                            .dwattr $C$DW$255, DW_AT_TI_begin_file("../Application/MAC/OSAL/osal.c")
    3857                            .dwattr $C$DW$255, DW_AT_TI_begin_line(0x4db)
    3858                            .dwattr $C$DW$255, DW_AT_TI_begin_column(0x07)
    3859                            .dwattr $C$DW$255, DW_AT_decl_file("../Application/MAC/OSAL/osal.c")
    3860                            .dwattr $C$DW$255, DW_AT_decl_line(0x4db)
    3861                            .dwattr $C$DW$255, DW_AT_decl_column(0x07)
    3862                            .dwattr $C$DW$255, DW_AT_TI_max_frame_size(0x10)
    3863                            .dwpsn  file "../Application/MAC/OSAL/osal.c",line 1244,column 1,is_stmt,address osal_clear_ev
    3864                    
    3865                            .dwfde $C$DW$CIE, osal_clear_event
    3866                    $C$DW$256       .dwtag  DW_TAG_formal_parameter
    3867                            .dwattr $C$DW$256, DW_AT_name("task_id")
    3868                            .dwattr $C$DW$256, DW_AT_TI_symbol_name("task_id")
    3869                            .dwattr $C$DW$256, DW_AT_type(*$C$DW$T$10)
    3870                            .dwattr $C$DW$256, DW_AT_location[DW_OP_reg0]
    3871                    
    3872                    $C$DW$257       .dwtag  DW_TAG_formal_parameter
    3873                            .dwattr $C$DW$257, DW_AT_name("event_flag")
    3874                            .dwattr $C$DW$257, DW_AT_TI_symbol_name("event_flag")
    3875                            .dwattr $C$DW$257, DW_AT_type(*$C$DW$T$10)
    3876                            .dwattr $C$DW$257, DW_AT_location[DW_OP_reg1]
    3877                    
    3878                    
    3879                    ;*****************************************************************************
    3880                    ;* FUNCTION NAME: osal_clear_event                                           *
    3881                    ;*                                                                           *
    3882                    ;*   Regs Modified     : A1,A2,A3,A4,V1,V2,V9,SP,LR,SR                       *
    3883                    ;*   Regs Used         : A1,A2,A3,A4,V1,V2,V9,SP,LR,SR                       *
    3884                    ;*   Local Frame Size  : 0 Args + 0 Auto + 12 Save = 12 byte                 *
    3885                    ;*****************************************************************************
    3886                    osal_clear_event:
    3887                    ;* --------------------------------------------------------------------------*
    3888                    ;* V1    assigned to task_id
    3889                    $C$DW$258       .dwtag  DW_TAG_variable
    3890                            .dwattr $C$DW$258, DW_AT_name("task_id")
    3891                            .dwattr $C$DW$258, DW_AT_TI_symbol_name("task_id")
    3892                            .dwattr $C$DW$258, DW_AT_type(*$C$DW$T$298)
    3893                            .dwattr $C$DW$258, DW_AT_location[DW_OP_reg4]
    3894                    
    3895                    ;* V2    assigned to event_flag
    3896                    $C$DW$259       .dwtag  DW_TAG_variable
    3897                            .dwattr $C$DW$259, DW_AT_name("event_flag")
    3898                            .dwattr $C$DW$259, DW_AT_TI_symbol_name("event_flag")
    3899                            .dwattr $C$DW$259, DW_AT_type(*$C$DW$T$326)
    3900                            .dwattr $C$DW$259, DW_AT_location[DW_OP_reg5]
    3901                    
    3902                            .dwcfi  cfa_offset, 0
    3903 00000000 B538              PUSH      {A4, V1, V2, LR}      ; [DPU_3_PIPE]  ; [ORIG 16-BIT INS]
    3904                            .dwcfi  cfa_offset, 16
    3905                            .dwcfi  save_reg_to_mem, 14, -4
TI ARM Assembler PC v16.9.9 Sun Nov 25 16:40:48 2018

Tools Copyright (c) 1996-2017 Texas Instruments Incorporated
C:\Users\Stryd\AppData\Local\Temp\{8719FFD6-004A-4401-8DC3-4DA83C6CF1D8} PAGE   72

    3906                            .dwcfi  save_reg_to_mem, 5, -8
    3907                            .dwcfi  save_reg_to_mem, 4, -12
    3908                            .dwcfi  save_reg_to_mem, 3, -16
    3909 00000002 4604              MOV       V1, A1                ; [DPU_3_PIPE] |1244|  ; [ORIG 16-BIT INS]
    3910                            .dwpsn  file "../Application/MAC/OSAL/osal.c",line 1245,column 3,is_stmt,isa 1
    3911 00000004 480A              LDR       A1, $C$CON59          ; [DPU_3_PIPE] |1245|  ; [ORIG 16-BIT INS]
    3912 00000006 7800              LDRB      A1, [A1, #0]          ; [DPU_3_PIPE] |1245|  ; [ORIG 16-BIT INS]
    3913                            .dwpsn  file "../Application/MAC/OSAL/osal.c",line 1244,column 1,is_stmt,isa 1
    3914 00000008 460D              MOV       V2, A2                ; [DPU_3_PIPE] |1244|  ; [ORIG 16-BIT INS]
    3915                            .dwpsn  file "../Application/MAC/OSAL/osal.c",line 1245,column 3,is_stmt,isa 1
    3916 0000000a 42A0              CMP       A1, V1                ; [DPU_3_PIPE] |1245|  ; [ORIG 16-BIT INS]
    3917 0000000c DD0E              BLE       ||$C$L52||            ; [DPU_3_PIPE] |1245|  ; [ORIG 16-BIT INS]
    3918                            ; BRANCHCC OCCURS {||$C$L52||}   ; [] |1245| 
    3919                    ;* --------------------------------------------------------------------------*
    3920                            .dwcfi  remember_state
    3921                            .dwpsn  file "../Application/MAC/OSAL/osal.c",line 1248,column 5,is_stmt,isa 1
    3922 0000000e 4809              LDR       A1, $C$CON60          ; [DPU_3_PIPE] |1248|  ; [ORIG 16-BIT INS]
    3923 00000010 6800              LDR       A1, [A1, #0]          ; [DPU_3_PIPE] |1248|  ; [ORIG 16-BIT INS]
    3924                    $C$DW$260       .dwtag  DW_TAG_TI_branch
    3925                            .dwattr $C$DW$260, DW_AT_low_pc(0x00)
    3926                            .dwattr $C$DW$260, DW_AT_TI_call
    3927                            .dwattr $C$DW$260, DW_AT_TI_indirect
    3928                    
    3929 00000012 4780              BLX       A1                    ; [DPU_3_PIPE] |1248|  ; [ORIG 16-BIT INS]
    3930                            ; CALL OCCURS {}                 ; [] |1248| 
    3931                            .dwpsn  file "../Application/MAC/OSAL/osal.c",line 1249,column 5,is_stmt,isa 1
    3932 00000014 4908              LDR       A2, $C$CON61          ; [DPU_3_PIPE] |1249|  ; [ORIG 16-BIT INS]
    3933 00000016 680A              LDR       A3, [A2, #0]          ; [DPU_3_PIPE] |1249|  ; [ORIG 16-BIT INS]
    3934                            .dwpsn  file "../Application/MAC/OSAL/osal.c",line 1250,column 5,is_stmt,isa 1
    3935 00000018 4B08              LDR       A4, $C$CON62          ; [DPU_3_PIPE] |1250|  ; [ORIG 16-BIT INS]
    3936                            .dwpsn  file "../Application/MAC/OSAL/osal.c",line 1249,column 5,is_stmt,isa 1
    3937 0000001a 1014F832          LDRH      A2, [A3, +V1, LSL #1] ; [DPU_3_PIPE] |1249|  ; [KEEP 32-BIT INS]
    3938 0000001e 43A9              BICS      A2, A2, V2            ; [DPU_3_PIPE] |1249|  ; [ORIG 16-BIT INS]
    3939 00000020 1014F822          STRH      A2, [A3, +V1, LSL #1] ; [DPU_3_PIPE] |1249|  ; [KEEP 32-BIT INS]
    3940                            .dwpsn  file "../Application/MAC/OSAL/osal.c",line 1250,column 5,is_stmt,isa 1
    3941 00000024 6819              LDR       A2, [A4, #0]          ; [DPU_3_PIPE] |1250|  ; [ORIG 16-BIT INS]
    3942                    $C$DW$261       .dwtag  DW_TAG_TI_branch
    3943                            .dwattr $C$DW$261, DW_AT_low_pc(0x00)
    3944                            .dwattr $C$DW$261, DW_AT_TI_call
    3945                            .dwattr $C$DW$261, DW_AT_TI_indirect
    3946                    
    3947 00000026 4788              BLX       A2                    ; [DPU_3_PIPE] |1250|  ; [ORIG 16-BIT INS]
    3948                            ; CALL OCCURS {}                 ; [] |1250| 
    3949                            .dwpsn  file "../Application/MAC/OSAL/osal.c",line 1251,column 5,is_stmt,isa 1
    3950 00000028 2000              MOVS      A1, #0                ; [DPU_3_PIPE] |1251|  ; [ORIG 16-BIT INS]
    3951                    $C$DW$262       .dwtag  DW_TAG_TI_branch
    3952                            .dwattr $C$DW$262, DW_AT_low_pc(0x00)
    3953                            .dwattr $C$DW$262, DW_AT_TI_return
    3954                    
    3955 0000002a BD38              POP       {A4, V1, V2, PC}      ; [DPU_3_PIPE]  ; [ORIG 16-BIT INS]
    3956                            .dwcfi  cfa_offset, 0
    3957                            .dwcfi  restore_reg, 5
    3958                            .dwcfi  restore_reg, 4
    3959                            .dwcfi  restore_reg, 3
    3960                            ; BRANCH OCCURS                  ; [] 
TI ARM Assembler PC v16.9.9 Sun Nov 25 16:40:48 2018

Tools Copyright (c) 1996-2017 Texas Instruments Incorporated
C:\Users\Stryd\AppData\Local\Temp\{8719FFD6-004A-4401-8DC3-4DA83C6CF1D8} PAGE   73

    3961                            .dwcfi  restore_state
    3962                    ;* --------------------------------------------------------------------------*
    3963 0000002c           ||$C$L52||:    
    3964                            .dwpsn  file "../Application/MAC/OSAL/osal.c",line 1255,column 5,is_stmt,isa 1
    3965 0000002c 2003              MOVS      A1, #3                ; [DPU_3_PIPE] |1255|  ; [ORIG 16-BIT INS]
    3966                    ;* --------------------------------------------------------------------------*
    3967                    $C$DW$263       .dwtag  DW_TAG_TI_branch
    3968                            .dwattr $C$DW$263, DW_AT_low_pc(0x00)
    3969                            .dwattr $C$DW$263, DW_AT_TI_return
    3970                    
    3971 0000002e BD38              POP       {A4, V1, V2, PC}      ; [DPU_3_PIPE]  ; [ORIG 16-BIT INS]
    3972                            .dwcfi  cfa_offset, 0
    3973                            .dwcfi  restore_reg, 5
    3974                            .dwcfi  restore_reg, 4
    3975                            .dwcfi  restore_reg, 3
    3976                            ; BRANCH OCCURS                  ; [] 
    3977                            .dwattr $C$DW$255, DW_AT_TI_end_file("../Application/MAC/OSAL/osal.c")
    3978                            .dwattr $C$DW$255, DW_AT_TI_end_line(0x4e9)
    3979                            .dwattr $C$DW$255, DW_AT_TI_end_column(0x01)
    3980                            .dwendentry
    3981                            .dwendtag $C$DW$255
    3982                    
    3983 00000000                   .sect   ".text:osal_msg_extract"
    3984                            .clink
    3985                            .thumbfunc osal_msg_extract
    3986 00000000                   .thumb
    3987                            .global osal_msg_extract
    3988                    
    3989                    $C$DW$264       .dwtag  DW_TAG_subprogram
    3990                            .dwattr $C$DW$264, DW_AT_name("osal_msg_extract")
    3991                            .dwattr $C$DW$264, DW_AT_low_pc(osal_msg_extract)
    3992                            .dwattr $C$DW$264, DW_AT_high_pc(0x00)
    3993                            .dwattr $C$DW$264, DW_AT_TI_symbol_name("osal_msg_extract")
    3994                            .dwattr $C$DW$264, DW_AT_external
    3995                            .dwattr $C$DW$264, DW_AT_TI_begin_file("../Application/MAC/OSAL/osal.c")
    3996                            .dwattr $C$DW$264, DW_AT_TI_begin_line(0x422)
    3997                            .dwattr $C$DW$264, DW_AT_TI_begin_column(0x06)
    3998                            .dwattr $C$DW$264, DW_AT_decl_file("../Application/MAC/OSAL/osal.c")
    3999                            .dwattr $C$DW$264, DW_AT_decl_line(0x422)
    4000                            .dwattr $C$DW$264, DW_AT_decl_column(0x06)
    4001                            .dwattr $C$DW$264, DW_AT_TI_max_frame_size(0x10)
    4002                            .dwpsn  file "../Application/MAC/OSAL/osal.c",line 1059,column 1,is_stmt,address osal_msg_extr
    4003                    
    4004                            .dwfde $C$DW$CIE, osal_msg_extract
    4005                    $C$DW$265       .dwtag  DW_TAG_formal_parameter
    4006                            .dwattr $C$DW$265, DW_AT_name("q_ptr")
    4007                            .dwattr $C$DW$265, DW_AT_TI_symbol_name("q_ptr")
    4008                            .dwattr $C$DW$265, DW_AT_type(*$C$DW$T$210)
    4009                            .dwattr $C$DW$265, DW_AT_location[DW_OP_reg0]
    4010                    
    4011                    $C$DW$266       .dwtag  DW_TAG_formal_parameter
    4012                            .dwattr $C$DW$266, DW_AT_name("msg_ptr")
    4013                            .dwattr $C$DW$266, DW_AT_TI_symbol_name("msg_ptr")
    4014                            .dwattr $C$DW$266, DW_AT_type(*$C$DW$T$3)
    4015                            .dwattr $C$DW$266, DW_AT_location[DW_OP_reg1]
TI ARM Assembler PC v16.9.9 Sun Nov 25 16:40:48 2018

Tools Copyright (c) 1996-2017 Texas Instruments Incorporated
C:\Users\Stryd\AppData\Local\Temp\{8719FFD6-004A-4401-8DC3-4DA83C6CF1D8} PAGE   74

    4016                    
    4017                    $C$DW$267       .dwtag  DW_TAG_formal_parameter
    4018                            .dwattr $C$DW$267, DW_AT_name("prev_ptr")
    4019                            .dwattr $C$DW$267, DW_AT_TI_symbol_name("prev_ptr")
    4020                            .dwattr $C$DW$267, DW_AT_type(*$C$DW$T$3)
    4021                            .dwattr $C$DW$267, DW_AT_location[DW_OP_reg2]
    4022                    
    4023                    
    4024                    ;*****************************************************************************
    4025                    ;* FUNCTION NAME: osal_msg_extract                                           *
    4026                    ;*                                                                           *
    4027                    ;*   Regs Modified     : A1,A2,A3,A4,V1,V2,V3,V9,SP,LR,SR                    *
    4028                    ;*   Regs Used         : A1,A2,A3,A4,V1,V2,V3,V9,SP,LR,SR                    *
    4029                    ;*   Local Frame Size  : 0 Args + 0 Auto + 16 Save = 16 byte                 *
    4030                    ;*****************************************************************************
    4031                    osal_msg_extract:
    4032                    ;* --------------------------------------------------------------------------*
    4033                    ;* V2    assigned to q_ptr
    4034                    $C$DW$268       .dwtag  DW_TAG_variable
    4035                            .dwattr $C$DW$268, DW_AT_name("q_ptr")
    4036                            .dwattr $C$DW$268, DW_AT_TI_symbol_name("q_ptr")
    4037                            .dwattr $C$DW$268, DW_AT_type(*$C$DW$T$213)
    4038                            .dwattr $C$DW$268, DW_AT_location[DW_OP_reg5]
    4039                    
    4040                    ;* V1    assigned to msg_ptr
    4041                    $C$DW$269       .dwtag  DW_TAG_variable
    4042                            .dwattr $C$DW$269, DW_AT_name("msg_ptr")
    4043                            .dwattr $C$DW$269, DW_AT_TI_symbol_name("msg_ptr")
    4044                            .dwattr $C$DW$269, DW_AT_type(*$C$DW$T$212)
    4045                            .dwattr $C$DW$269, DW_AT_location[DW_OP_reg4]
    4046                    
    4047                    ;* V3    assigned to prev_ptr
    4048                    $C$DW$270       .dwtag  DW_TAG_variable
    4049                            .dwattr $C$DW$270, DW_AT_name("prev_ptr")
    4050                            .dwattr $C$DW$270, DW_AT_TI_symbol_name("prev_ptr")
    4051                            .dwattr $C$DW$270, DW_AT_type(*$C$DW$T$212)
    4052                            .dwattr $C$DW$270, DW_AT_location[DW_OP_reg6]
    4053                    
    4054                            .dwcfi  cfa_offset, 0
    4055 00000000 B570              PUSH      {V1, V2, V3, LR}      ; [DPU_3_PIPE]  ; [ORIG 16-BIT INS]
    4056                            .dwcfi  cfa_offset, 16
    4057                            .dwcfi  save_reg_to_mem, 14, -4
    4058                            .dwcfi  save_reg_to_mem, 6, -8
    4059                            .dwcfi  save_reg_to_mem, 5, -12
    4060                            .dwcfi  save_reg_to_mem, 4, -16
    4061 00000002 4605              MOV       V2, A1                ; [DPU_3_PIPE] |1059|  ; [ORIG 16-BIT INS]
    4062                            .dwpsn  file "../Application/MAC/OSAL/osal.c",line 1063,column 3,is_stmt,isa 1
    4063 00000004 480C              LDR       A1, $C$CON65          ; [DPU_3_PIPE] |1063|  ; [ORIG 16-BIT INS]
    4064 00000006 6800              LDR       A1, [A1, #0]          ; [DPU_3_PIPE] |1063|  ; [ORIG 16-BIT INS]
    4065                            .dwpsn  file "../Application/MAC/OSAL/osal.c",line 1059,column 1,is_stmt,isa 1
    4066 00000008 4616              MOV       V3, A3                ; [DPU_3_PIPE] |1059|  ; [ORIG 16-BIT INS]
    4067 0000000a 460C              MOV       V1, A2                ; [DPU_3_PIPE] |1059|  ; [ORIG 16-BIT INS]
    4068                            .dwpsn  file "../Application/MAC/OSAL/osal.c",line 1063,column 3,is_stmt,isa 1
    4069                    $C$DW$271       .dwtag  DW_TAG_TI_branch
    4070                            .dwattr $C$DW$271, DW_AT_low_pc(0x00)
TI ARM Assembler PC v16.9.9 Sun Nov 25 16:40:48 2018

Tools Copyright (c) 1996-2017 Texas Instruments Incorporated
C:\Users\Stryd\AppData\Local\Temp\{8719FFD6-004A-4401-8DC3-4DA83C6CF1D8} PAGE   75

    4071                            .dwattr $C$DW$271, DW_AT_TI_call
    4072                            .dwattr $C$DW$271, DW_AT_TI_indirect
    4073                    
    4074 0000000c 4780              BLX       A1                    ; [DPU_3_PIPE] |1063|  ; [ORIG 16-BIT INS]
    4075                            ; CALL OCCURS {}                 ; [] |1063| 
    4076                            .dwpsn  file "../Application/MAC/OSAL/osal.c",line 1065,column 3,is_stmt,isa 1
    4077 0000000e 6829              LDR       A2, [V2, #0]          ; [DPU_3_PIPE] |1065|  ; [ORIG 16-BIT INS]
    4078 00000010 42A1              CMP       A2, V1                ; [DPU_3_PIPE] |1065|  ; [ORIG 16-BIT INS]
    4079 00000012 BF19              ITTEE     NE                    ; [DPU_3_PIPE]  ; [ORIG 16-BIT INS]
    4080                            .dwpsn  file "../Application/MAC/OSAL/osal.c",line 1073,column 5,is_stmt,isa 1
    4081 00000014 1C0CF854          LDRNE     A2, [V1, #-12]        ; [DPU_3_PIPE] |1073|  ; [KEEP 32-BIT INS]
    4082 00000018 1C0CF846          STRNE     A2, [V3, #-12]        ; [DPU_3_PIPE] |1073|  ; [KEEP 32-BIT INS]
    4083                            .dwpsn  file "../Application/MAC/OSAL/osal.c",line 1068,column 5,is_stmt,isa 1
    4084 0000001c 1C0CF854          LDREQ     A2, [V1, #-12]        ; [DPU_3_PIPE] |1068|  ; [KEEP 32-BIT INS]
    4085 00000020 6029              STREQ     A2, [V2, #0]          ; [DPU_3_PIPE] |1068|  ; [ORIG 16-BIT INS]
    4086                            .dwpsn  file "../Application/MAC/OSAL/osal.c",line 1076,column 3,is_stmt,isa 1
    4087 00000022 26FF              MOVS      V3, #255              ; [DPU_3_PIPE] |1076|  ; [ORIG 16-BIT INS]
    4088                            .dwpsn  file "../Application/MAC/OSAL/osal.c",line 1079,column 3,is_stmt,isa 1
    4089 00000024 4D05              LDR       V2, $C$CON66          ; [DPU_3_PIPE] |1079|  ; [ORIG 16-BIT INS]
    4090                            .dwpsn  file "../Application/MAC/OSAL/osal.c",line 1076,column 3,is_stmt,isa 1
    4091 00000026 6C02F804          STRB      V3, [V1, #-2]         ; [DPU_3_PIPE] |1076|  ; [KEEP 32-BIT INS]
    4092                            .dwpsn  file "../Application/MAC/OSAL/osal.c",line 1075,column 3,is_stmt,isa 1
    4093 0000002a 2100              MOVS      A2, #0                ; [DPU_3_PIPE] |1075|  ; [ORIG 16-BIT INS]
    4094 0000002c 1C0CF844          STR       A2, [V1, #-12]        ; [DPU_3_PIPE] |1075|  ; [KEEP 32-BIT INS]
    4095                            .dwpsn  file "../Application/MAC/OSAL/osal.c",line 1079,column 3,is_stmt,isa 1
    4096 00000030 6829              LDR       A2, [V2, #0]          ; [DPU_3_PIPE] |1079|  ; [ORIG 16-BIT INS]
    4097                    $C$DW$272       .dwtag  DW_TAG_TI_branch
    4098                            .dwattr $C$DW$272, DW_AT_low_pc(0x00)
    4099                            .dwattr $C$DW$272, DW_AT_TI_call
    4100                            .dwattr $C$DW$272, DW_AT_TI_indirect
    4101                    
    4102 00000032 4788              BLX       A2                    ; [DPU_3_PIPE] |1079|  ; [ORIG 16-BIT INS]
    4103                            ; CALL OCCURS {}                 ; [] |1079| 
    4104                    $C$DW$273       .dwtag  DW_TAG_TI_branch
    4105                            .dwattr $C$DW$273, DW_AT_low_pc(0x00)
    4106                            .dwattr $C$DW$273, DW_AT_TI_return
    4107                    
    4108 00000034 BD70              POP       {V1, V2, V3, PC}      ; [DPU_3_PIPE]  ; [ORIG 16-BIT INS]
    4109                            .dwcfi  cfa_offset, 0
    4110                            .dwcfi  restore_reg, 6
    4111                            .dwcfi  restore_reg, 5
    4112                            .dwcfi  restore_reg, 4
    4113                            ; BRANCH OCCURS                  ; [] 
    4114                            .dwattr $C$DW$264, DW_AT_TI_end_file("../Application/MAC/OSAL/osal.c")
    4115                            .dwattr $C$DW$264, DW_AT_TI_end_line(0x438)
    4116                            .dwattr $C$DW$264, DW_AT_TI_end_column(0x01)
    4117                            .dwendentry
    4118                            .dwendtag $C$DW$264
    4119                    
    4120 00000000                   .sect   ".text:osal_msg_receive"
    4121                            .clink
    4122                            .thumbfunc osal_msg_receive
    4123 00000000                   .thumb
    4124                            .global osal_msg_receive
    4125                    
TI ARM Assembler PC v16.9.9 Sun Nov 25 16:40:48 2018

Tools Copyright (c) 1996-2017 Texas Instruments Incorporated
C:\Users\Stryd\AppData\Local\Temp\{8719FFD6-004A-4401-8DC3-4DA83C6CF1D8} PAGE   76

    4126                    $C$DW$274       .dwtag  DW_TAG_subprogram
    4127                            .dwattr $C$DW$274, DW_AT_name("osal_msg_receive")
    4128                            .dwattr $C$DW$274, DW_AT_low_pc(osal_msg_receive)
    4129                            .dwattr $C$DW$274, DW_AT_high_pc(0x00)
    4130                            .dwattr $C$DW$274, DW_AT_TI_symbol_name("osal_msg_receive")
    4131                            .dwattr $C$DW$274, DW_AT_external
    4132                            .dwattr $C$DW$274, DW_AT_type(*$C$DW$T$77)
    4133                            .dwattr $C$DW$274, DW_AT_TI_begin_file("../Application/MAC/OSAL/osal.c")
    4134                            .dwattr $C$DW$274, DW_AT_TI_begin_line(0x319)
    4135                            .dwattr $C$DW$274, DW_AT_TI_begin_column(0x08)
    4136                            .dwattr $C$DW$274, DW_AT_decl_file("../Application/MAC/OSAL/osal.c")
    4137                            .dwattr $C$DW$274, DW_AT_decl_line(0x319)
    4138                            .dwattr $C$DW$274, DW_AT_decl_column(0x08)
    4139                            .dwattr $C$DW$274, DW_AT_TI_max_frame_size(0x18)
    4140                            .dwpsn  file "../Application/MAC/OSAL/osal.c",line 794,column 1,is_stmt,address osal_msg_recei
    4141                    
    4142                            .dwfde $C$DW$CIE, osal_msg_receive
    4143                    $C$DW$275       .dwtag  DW_TAG_formal_parameter
    4144                            .dwattr $C$DW$275, DW_AT_name("task_id")
    4145                            .dwattr $C$DW$275, DW_AT_TI_symbol_name("task_id")
    4146                            .dwattr $C$DW$275, DW_AT_type(*$C$DW$T$10)
    4147                            .dwattr $C$DW$275, DW_AT_location[DW_OP_reg0]
    4148                    
    4149                    
    4150                    ;*****************************************************************************
    4151                    ;* FUNCTION NAME: osal_msg_receive                                           *
    4152                    ;*                                                                           *
    4153                    ;*   Regs Modified     : A1,A2,A3,A4,V1,V2,V3,V4,V5,V9,SP,LR,SR              *
    4154                    ;*   Regs Used         : A1,A2,A3,A4,V1,V2,V3,V4,V5,V9,SP,LR,SR              *
    4155                    ;*   Local Frame Size  : 0 Args + 0 Auto + 24 Save = 24 byte                 *
    4156                    ;*****************************************************************************
    4157                    osal_msg_receive:
    4158                    ;* --------------------------------------------------------------------------*
    4159                    ;* A1    assigned to $O$C16
    4160                    ;* V2    assigned to $O$C17
    4161                    ;* V2    assigned to $O$K7
    4162                    ;* V3    assigned to task_id
    4163                    $C$DW$276       .dwtag  DW_TAG_variable
    4164                            .dwattr $C$DW$276, DW_AT_name("task_id")
    4165                            .dwattr $C$DW$276, DW_AT_TI_symbol_name("task_id")
    4166                            .dwattr $C$DW$276, DW_AT_type(*$C$DW$T$298)
    4167                            .dwattr $C$DW$276, DW_AT_location[DW_OP_reg6]
    4168                    
    4169                    ;* A1    assigned to listHdr
    4170                    $C$DW$277       .dwtag  DW_TAG_variable
    4171                            .dwattr $C$DW$277, DW_AT_name("listHdr")
    4172                            .dwattr $C$DW$277, DW_AT_TI_symbol_name("listHdr")
    4173                            .dwattr $C$DW$277, DW_AT_type(*$C$DW$T$409)
    4174                            .dwattr $C$DW$277, DW_AT_location[DW_OP_reg0]
    4175                    
    4176                    ;* V4    assigned to prevHdr
    4177                    $C$DW$278       .dwtag  DW_TAG_variable
    4178                            .dwattr $C$DW$278, DW_AT_name("prevHdr")
    4179                            .dwattr $C$DW$278, DW_AT_TI_symbol_name("prevHdr")
    4180                            .dwattr $C$DW$278, DW_AT_type(*$C$DW$T$409)
TI ARM Assembler PC v16.9.9 Sun Nov 25 16:40:48 2018

Tools Copyright (c) 1996-2017 Texas Instruments Incorporated
C:\Users\Stryd\AppData\Local\Temp\{8719FFD6-004A-4401-8DC3-4DA83C6CF1D8} PAGE   77

    4181                            .dwattr $C$DW$278, DW_AT_location[DW_OP_reg7]
    4182                    
    4183                    ;* V1    assigned to foundHdr
    4184                    $C$DW$279       .dwtag  DW_TAG_variable
    4185                            .dwattr $C$DW$279, DW_AT_name("foundHdr")
    4186                            .dwattr $C$DW$279, DW_AT_TI_symbol_name("foundHdr")
    4187                            .dwattr $C$DW$279, DW_AT_type(*$C$DW$T$409)
    4188                            .dwattr $C$DW$279, DW_AT_location[DW_OP_reg4]
    4189                    
    4190                    ;* V5    assigned to intState
    4191                    $C$DW$280       .dwtag  DW_TAG_variable
    4192                            .dwattr $C$DW$280, DW_AT_name("intState")
    4193                            .dwattr $C$DW$280, DW_AT_TI_symbol_name("intState")
    4194                            .dwattr $C$DW$280, DW_AT_type(*$C$DW$T$372)
    4195                            .dwattr $C$DW$280, DW_AT_location[DW_OP_reg8]
    4196                    
    4197                            .dwcfi  cfa_offset, 0
    4198 00000000 41F0E92D          PUSH      {V1, V2, V3, V4, V5, LR} ; [DPU_3_PIPE]  ; [KEEP 32-BIT INS]
    4199                            .dwcfi  cfa_offset, 24
    4200                            .dwcfi  save_reg_to_mem, 14, -4
    4201                            .dwcfi  save_reg_to_mem, 8, -8
    4202                            .dwcfi  save_reg_to_mem, 7, -12
    4203                            .dwcfi  save_reg_to_mem, 6, -16
    4204                            .dwcfi  save_reg_to_mem, 5, -20
    4205                            .dwcfi  save_reg_to_mem, 4, -24
    4206 00000004 4606              MOV       V3, A1                ; [DPU_3_PIPE] |794|  ; [ORIG 16-BIT INS]
    4207                            .dwpsn  file "../Application/MAC/OSAL/osal.c",line 801,column 3,is_stmt,isa 1
    4208 00000006 4818              LDR       A1, $C$CON70          ; [DPU_3_PIPE] |801|  ; [ORIG 16-BIT INS]
    4209 00000008 6800              LDR       A1, [A1, #0]          ; [DPU_3_PIPE] |801|  ; [ORIG 16-BIT INS]
    4210                    $C$DW$281       .dwtag  DW_TAG_TI_branch
    4211                            .dwattr $C$DW$281, DW_AT_low_pc(0x00)
    4212                            .dwattr $C$DW$281, DW_AT_TI_call
    4213                            .dwattr $C$DW$281, DW_AT_TI_indirect
    4214                    
    4215 0000000a 4780              BLX       A1                    ; [DPU_3_PIPE] |801|  ; [ORIG 16-BIT INS]
    4216                            ; CALL OCCURS {}                 ; [] |801| 
    4217                            .dwpsn  file "../Application/MAC/OSAL/osal.c",line 804,column 3,is_stmt,isa 1
    4218 0000000c 4D17              LDR       V2, $C$CON71          ; [DPU_3_PIPE] |804|  ; [ORIG 16-BIT INS]
    4219                            .dwpsn  file "../Application/MAC/OSAL/osal.c",line 801,column 3,is_stmt,isa 1
    4220 0000000e 4680              MOV       V5, A1                ; [DPU_3_PIPE] |801|  ; [ORIG 16-BIT INS]
    4221 00000010 3D24              SUBS      V2, V2, #36           ; [DPU_3_PIPE]  ; [ORIG 16-BIT INS]
    4222                            .dwpsn  file "../Application/MAC/OSAL/osal.c",line 804,column 3,is_stmt,isa 1
    4223 00000012 6868              LDR       A1, [V2, #4]          ; [DPU_3_PIPE] |804|  ; [ORIG 16-BIT INS]
    4224                            .dwpsn  file "../Application/MAC/OSAL/osal.c",line 797,column 28,is_stmt,isa 1
    4225 00000014 2700              MOVS      V4, #0                ; [DPU_3_PIPE] |797|  ; [ORIG 16-BIT INS]
    4226 00000016 463C              MOV       V1, V4                ; [DPU_3_PIPE] |797|  ; [ORIG 16-BIT INS]
    4227                            .dwpsn  file "../Application/MAC/OSAL/osal.c",line 807,column 11,is_stmt,isa 1
    4228 00000018 4284              CMP       V1, A1                ; [DPU_3_PIPE] |807|  ; [ORIG 16-BIT INS]
    4229 0000001a D012              BEQ       ||$C$L57||            ; [DPU_3_PIPE] |807|  ; [ORIG 16-BIT INS]
    4230                            ; BRANCHCC OCCURS {||$C$L57||}   ; [] |807| 
    4231                    ;* --------------------------------------------------------------------------*
    4232                    ;*   BEGIN LOOP ||$C$L53||
    4233                    ;*
    4234                    ;*   Loop source line                : 807
    4235                    ;*   Loop closing brace source line  : 827
TI ARM Assembler PC v16.9.9 Sun Nov 25 16:40:48 2018

Tools Copyright (c) 1996-2017 Texas Instruments Incorporated
C:\Users\Stryd\AppData\Local\Temp\{8719FFD6-004A-4401-8DC3-4DA83C6CF1D8} PAGE   78

    4236                    ;*   Known Minimum Trip Count        : 1
    4237                    ;*   Known Maximum Trip Count        : 4294967295
    4238                    ;*   Known Max Trip Count Factor     : 1
    4239                    ;* --------------------------------------------------------------------------*
    4240 0000001c           ||$C$L53||:    
    4241                            .dwpsn  file "../Application/MAC/OSAL/osal.c",line 809,column 5,is_stmt,isa 1
    4242 0000001c 1C02F810          LDRB      A2, [A1, #-2]         ; [DPU_3_PIPE] |809|  ; [KEEP 32-BIT INS]
    4243 00000020 428E              CMP       V3, A2                ; [DPU_3_PIPE] |809|  ; [ORIG 16-BIT INS]
    4244 00000022 D108              BNE       ||$C$L55||            ; [DPU_3_PIPE] |809|  ; [ORIG 16-BIT INS]
    4245                            ; BRANCHCC OCCURS {||$C$L55||}   ; [] |809| 
    4246                    ;* --------------------------------------------------------------------------*
    4247 00000024 B134              CBZ       V1, ||$C$L54||        ; []  ; [ORIG 16-BIT INS]
    4248                            .dwpsn  file "../Application/MAC/OSAL/osal.c",line 811,column 7,is_stmt,isa 1
    4249                            ; BRANCHCC OCCURS {||$C$L54||}   ; [] |811| 
    4250                    ;* --------------------------------------------------------------------------*
    4251 00000026 B160              CBZ       A1, ||$C$L57||        ; []  ; [ORIG 16-BIT INS]
    4252                            .dwpsn  file "../Application/MAC/OSAL/osal.c",line 830,column 3,is_stmt,isa 1
    4253                            ; BRANCHCC OCCURS {||$C$L57||}   ; [] |830| 
    4254                    ;* --------------------------------------------------------------------------*
    4255                            .dwpsn  file "../Application/MAC/OSAL/osal.c",line 833,column 5,is_stmt,isa 1
    4256 00000028 4630              MOV       A1, V3                ; [DPU_3_PIPE] |833|  ; [ORIG 16-BIT INS]
    4257 0000002a 4100F44F          MOV       A2, #32768            ; [DPU_3_PIPE] |833|  ; [KEEP 32-BIT INS]
    4258                    $C$DW$282       .dwtag  DW_TAG_TI_branch
    4259                            .dwattr $C$DW$282, DW_AT_low_pc(0x00)
    4260                            .dwattr $C$DW$282, DW_AT_name("osal_set_event")
    4261                            .dwattr $C$DW$282, DW_AT_TI_call
    4262                    
    4263 0000002e FFFEF7FF!         BL        osal_set_event        ; [DPU_3_PIPE] |833|  ; [KEEP 32-BIT INS]
    4264                            ; CALL OCCURS {osal_set_event }  ; [] |833| 
    4265                            .dwpsn  file "../Application/MAC/OSAL/osal.c",line 834,column 3,is_stmt,isa 1
    4266 00000032 E00B              B         ||$C$L58||            ; [DPU_3_PIPE] |834|  ; [ORIG 16-BIT INS]
    4267                            ; BRANCH OCCURS {||$C$L58||}     ; [] |834| 
    4268                    ;* --------------------------------------------------------------------------*
    4269 00000034           ||$C$L54||:    
    4270                            .dwpsn  file "../Application/MAC/OSAL/osal.c",line 814,column 9,is_stmt,isa 1
    4271 00000034 4604              MOV       V1, A1                ; [DPU_3_PIPE] |814|  ; [ORIG 16-BIT INS]
    4272                    ;* --------------------------------------------------------------------------*
    4273 00000036           ||$C$L55||:    
    4274 00000036 B904              CBNZ      V1, ||$C$L56||        ; []  ; [ORIG 16-BIT INS]
    4275                            .dwpsn  file "../Application/MAC/OSAL/osal.c",line 824,column 7,is_stmt,isa 1
    4276 00000038 4607              MOV       V4, A1                ; [DPU_3_PIPE] |824|  ; [ORIG 16-BIT INS]
    4277                    ;* --------------------------------------------------------------------------*
    4278 0000003a           ||$C$L56||:    
    4279                            .dwpsn  file "../Application/MAC/OSAL/osal.c",line 826,column 5,is_stmt,isa 1
    4280 0000003a 0C0CF850          LDR       A1, [A1, #-12]        ; [DPU_3_PIPE] |826|  ; [KEEP 32-BIT INS]
    4281                            .dwpsn  file "../Application/MAC/OSAL/osal.c",line 807,column 11,is_stmt,isa 1
    4282 0000003e 2800              CMP       A1, #0                ; [DPU_3_PIPE] |807|  ; [ORIG 16-BIT INS]
    4283 00000040 D1EC              BNE       ||$C$L53||            ; [DPU_3_PIPE] |807|  ; [ORIG 16-BIT INS]
    4284                            ; BRANCHCC OCCURS {||$C$L53||}   ; [] |807| 
    4285                    ;* --------------------------------------------------------------------------*
    4286 00000042           ||$C$L57||:    
    4287                            .dwpsn  file "../Application/MAC/OSAL/osal.c",line 838,column 5,is_stmt,isa 1
    4288 00000042 4630              MOV       A1, V3                ; [DPU_3_PIPE] |838|  ; [ORIG 16-BIT INS]
    4289 00000044 4100F44F          MOV       A2, #32768            ; [DPU_3_PIPE] |838|  ; [KEEP 32-BIT INS]
    4290                    $C$DW$283       .dwtag  DW_TAG_TI_branch
TI ARM Assembler PC v16.9.9 Sun Nov 25 16:40:48 2018

Tools Copyright (c) 1996-2017 Texas Instruments Incorporated
C:\Users\Stryd\AppData\Local\Temp\{8719FFD6-004A-4401-8DC3-4DA83C6CF1D8} PAGE   79

    4291                            .dwattr $C$DW$283, DW_AT_low_pc(0x00)
    4292                            .dwattr $C$DW$283, DW_AT_name("osal_clear_event")
    4293                            .dwattr $C$DW$283, DW_AT_TI_call
    4294                    
    4295 00000048 FFFEF7FF!         BL        osal_clear_event      ; [DPU_3_PIPE] |838|  ; [KEEP 32-BIT INS]
    4296                            ; CALL OCCURS {osal_clear_event }  ; [] |838| 
    4297                    ;* --------------------------------------------------------------------------*
    4298 0000004c           ||$C$L58||:    
    4299 0000004c B124              CBZ       V1, ||$C$L59||        ; []  ; [ORIG 16-BIT INS]
    4300                            .dwpsn  file "../Application/MAC/OSAL/osal.c",line 842,column 3,is_stmt,isa 1
    4301                            ; BRANCHCC OCCURS {||$C$L59||}   ; [] |842| 
    4302                    ;* --------------------------------------------------------------------------*
    4303                            .dwpsn  file "../Application/MAC/OSAL/osal.c",line 845,column 5,is_stmt,isa 1
    4304 0000004e 1D28              ADDS      A1, V2, #4            ; [DPU_3_PIPE] |845|  ; [ORIG 16-BIT INS]
    4305 00000050 4621              MOV       A2, V1                ; [DPU_3_PIPE] |845|  ; [ORIG 16-BIT INS]
    4306 00000052 463A              MOV       A3, V4                ; [DPU_3_PIPE] |845|  ; [ORIG 16-BIT INS]
    4307                    $C$DW$284       .dwtag  DW_TAG_TI_branch
    4308                            .dwattr $C$DW$284, DW_AT_low_pc(0x00)
    4309                            .dwattr $C$DW$284, DW_AT_name("osal_msg_extract")
    4310                            .dwattr $C$DW$284, DW_AT_TI_call
    4311                    
    4312 00000054 FFFEF7FF!         BL        osal_msg_extract      ; [DPU_3_PIPE] |845|  ; [KEEP 32-BIT INS]
    4313                            ; CALL OCCURS {osal_msg_extract }  ; [] |845| 
    4314                    ;* --------------------------------------------------------------------------*
    4315 00000058           ||$C$L59||:    
    4316                            .dwpsn  file "../Application/MAC/OSAL/osal.c",line 849,column 3,is_stmt,isa 1
    4317 00000058 4805              LDR       A1, $C$CON72          ; [DPU_3_PIPE] |849|  ; [ORIG 16-BIT INS]
    4318 0000005a 6801              LDR       A2, [A1, #0]          ; [DPU_3_PIPE] |849|  ; [ORIG 16-BIT INS]
    4319 0000005c 4640              MOV       A1, V5                ; [DPU_3_PIPE] |849|  ; [ORIG 16-BIT INS]
    4320                    $C$DW$285       .dwtag  DW_TAG_TI_branch
    4321                            .dwattr $C$DW$285, DW_AT_low_pc(0x00)
    4322                            .dwattr $C$DW$285, DW_AT_TI_call
    4323                            .dwattr $C$DW$285, DW_AT_TI_indirect
    4324                    
    4325 0000005e 4788              BLX       A2                    ; [DPU_3_PIPE] |849|  ; [ORIG 16-BIT INS]
    4326                            ; CALL OCCURS {}                 ; [] |849| 
    4327                            .dwpsn  file "../Application/MAC/OSAL/osal.c",line 851,column 3,is_stmt,isa 1
    4328 00000060 4620              MOV       A1, V1                ; [DPU_3_PIPE] |851|  ; [ORIG 16-BIT INS]
    4329                    $C$DW$286       .dwtag  DW_TAG_TI_branch
    4330                            .dwattr $C$DW$286, DW_AT_low_pc(0x00)
    4331                            .dwattr $C$DW$286, DW_AT_TI_return
    4332                    
    4333 00000062 81F0E8BD          POP       {V1, V2, V3, V4, V5, PC} ; [DPU_3_PIPE]  ; [KEEP 32-BIT INS]
    4334                            .dwcfi  cfa_offset, 0
    4335                            .dwcfi  restore_reg, 8
    4336                            .dwcfi  restore_reg, 7
    4337                            .dwcfi  restore_reg, 6
    4338                            .dwcfi  restore_reg, 5
    4339                            .dwcfi  restore_reg, 4
    4340                            ; BRANCH OCCURS                  ; [] 
    4341                            .dwattr $C$DW$274, DW_AT_TI_end_file("../Application/MAC/OSAL/osal.c")
    4342                            .dwattr $C$DW$274, DW_AT_TI_end_line(0x354)
    4343                            .dwattr $C$DW$274, DW_AT_TI_end_column(0x01)
    4344                            .dwendentry
    4345                            .dwendtag $C$DW$274
TI ARM Assembler PC v16.9.9 Sun Nov 25 16:40:48 2018

Tools Copyright (c) 1996-2017 Texas Instruments Incorporated
C:\Users\Stryd\AppData\Local\Temp\{8719FFD6-004A-4401-8DC3-4DA83C6CF1D8} PAGE   80

    4346                    
    4347 00000000                   .sect   ".text:osal_msg_push_front"
    4348                            .clink
    4349                            .thumbfunc osal_msg_push_front
    4350 00000000                   .thumb
    4351                            .global osal_msg_push_front
    4352                    
    4353                    $C$DW$287       .dwtag  DW_TAG_subprogram
    4354                            .dwattr $C$DW$287, DW_AT_name("osal_msg_push_front")
    4355                            .dwattr $C$DW$287, DW_AT_low_pc(osal_msg_push_front)
    4356                            .dwattr $C$DW$287, DW_AT_high_pc(0x00)
    4357                            .dwattr $C$DW$287, DW_AT_TI_symbol_name("osal_msg_push_front")
    4358                            .dwattr $C$DW$287, DW_AT_external
    4359                            .dwattr $C$DW$287, DW_AT_type(*$C$DW$T$19)
    4360                            .dwattr $C$DW$287, DW_AT_TI_begin_file("../Application/MAC/OSAL/osal.c")
    4361                            .dwattr $C$DW$287, DW_AT_TI_begin_line(0x2c6)
    4362                            .dwattr $C$DW$287, DW_AT_TI_begin_column(0x07)
    4363                            .dwattr $C$DW$287, DW_AT_decl_file("../Application/MAC/OSAL/osal.c")
    4364                            .dwattr $C$DW$287, DW_AT_decl_line(0x2c6)
    4365                            .dwattr $C$DW$287, DW_AT_decl_column(0x07)
    4366                            .dwattr $C$DW$287, DW_AT_TI_max_frame_size(0x00)
    4367                            .dwpsn  file "../Application/MAC/OSAL/osal.c",line 711,column 1,is_stmt,address osal_msg_push_
    4368                    
    4369                            .dwfde $C$DW$CIE, osal_msg_push_front
    4370                    $C$DW$288       .dwtag  DW_TAG_formal_parameter
    4371                            .dwattr $C$DW$288, DW_AT_name("destination_task")
    4372                            .dwattr $C$DW$288, DW_AT_TI_symbol_name("destination_task")
    4373                            .dwattr $C$DW$288, DW_AT_type(*$C$DW$T$10)
    4374                            .dwattr $C$DW$288, DW_AT_location[DW_OP_reg0]
    4375                    
    4376                    $C$DW$289       .dwtag  DW_TAG_formal_parameter
    4377                            .dwattr $C$DW$289, DW_AT_name("msg_ptr")
    4378                            .dwattr $C$DW$289, DW_AT_TI_symbol_name("msg_ptr")
    4379                            .dwattr $C$DW$289, DW_AT_type(*$C$DW$T$77)
    4380                            .dwattr $C$DW$289, DW_AT_location[DW_OP_reg1]
    4381                    
    4382                    
    4383                    ;*****************************************************************************
    4384                    ;* FUNCTION NAME: osal_msg_push_front                                        *
    4385                    ;*                                                                           *
    4386                    ;*   Regs Modified     : A1,A2,A3,A4,V9,LR,SR                                *
    4387                    ;*   Regs Used         : A1,A2,A3,A4,V9,SP,LR,SR                             *
    4388                    ;*   Local Frame Size  : 0 Args + 0 Auto + 0 Save = 0 byte                   *
    4389                    ;*****************************************************************************
    4390 00000000           osal_msg_push_front:
    4391                    ;* --------------------------------------------------------------------------*
    4392                            .dwcfi  cfa_offset, 0
    4393                            .dwpsn  file "../Application/MAC/OSAL/osal.c",line 712,column 3,is_stmt,isa 1
    4394 00000000 2201              MOVS      A3, #1                ; [DPU_3_PIPE] |712|  ; [ORIG 16-BIT INS]
    4395                    $C$DW$290       .dwtag  DW_TAG_TI_branch
    4396                            .dwattr $C$DW$290, DW_AT_low_pc(0x00)
    4397                            .dwattr $C$DW$290, DW_AT_name("osal_msg_enqueue_push")
    4398                            .dwattr $C$DW$290, DW_AT_TI_call
    4399                            .dwattr $C$DW$290, DW_AT_TI_return
    4400                    
TI ARM Assembler PC v16.9.9 Sun Nov 25 16:40:48 2018

Tools Copyright (c) 1996-2017 Texas Instruments Incorporated
C:\Users\Stryd\AppData\Local\Temp\{8719FFD6-004A-4401-8DC3-4DA83C6CF1D8} PAGE   81

    4401 00000002 BFFEF7FF!         CRET      osal_msg_enqueue_push ; [DPU_3_PIPE] |712|  ; [KEEP 32-BIT INS]
    4402                            ; CALL OCCURS {osal_msg_enqueue_push }  ; [] |712| 
    4403                            .dwattr $C$DW$287, DW_AT_TI_end_file("../Application/MAC/OSAL/osal.c")
    4404                            .dwattr $C$DW$287, DW_AT_TI_end_line(0x2c9)
    4405                            .dwattr $C$DW$287, DW_AT_TI_end_column(0x01)
    4406                            .dwendentry
    4407                            .dwendtag $C$DW$287
    4408                    
    4409 00000000                   .sect   ".text:osal_msg_find"
    4410                            .clink
    4411                            .thumbfunc osal_msg_find
    4412 00000000                   .thumb
    4413                            .global osal_msg_find
    4414                    
    4415                    $C$DW$291       .dwtag  DW_TAG_subprogram
    4416                            .dwattr $C$DW$291, DW_AT_name("osal_msg_find")
    4417                            .dwattr $C$DW$291, DW_AT_low_pc(osal_msg_find)
    4418                            .dwattr $C$DW$291, DW_AT_high_pc(0x00)
    4419                            .dwattr $C$DW$291, DW_AT_TI_symbol_name("osal_msg_find")
    4420                            .dwattr $C$DW$291, DW_AT_external
    4421                            .dwattr $C$DW$291, DW_AT_type(*$C$DW$T$181)
    4422                            .dwattr $C$DW$291, DW_AT_TI_begin_file("../Application/MAC/OSAL/osal.c")
    4423                            .dwattr $C$DW$291, DW_AT_TI_begin_line(0x368)
    4424                            .dwattr $C$DW$291, DW_AT_TI_begin_column(0x13)
    4425                            .dwattr $C$DW$291, DW_AT_decl_file("../Application/MAC/OSAL/osal.c")
    4426                            .dwattr $C$DW$291, DW_AT_decl_line(0x368)
    4427                            .dwattr $C$DW$291, DW_AT_decl_column(0x13)
    4428                            .dwattr $C$DW$291, DW_AT_TI_max_frame_size(0x10)
    4429                            .dwpsn  file "../Application/MAC/OSAL/osal.c",line 873,column 1,is_stmt,address osal_msg_find,
    4430                    
    4431                            .dwfde $C$DW$CIE, osal_msg_find
    4432                    $C$DW$292       .dwtag  DW_TAG_formal_parameter
    4433                            .dwattr $C$DW$292, DW_AT_name("task_id")
    4434                            .dwattr $C$DW$292, DW_AT_TI_symbol_name("task_id")
    4435                            .dwattr $C$DW$292, DW_AT_type(*$C$DW$T$10)
    4436                            .dwattr $C$DW$292, DW_AT_location[DW_OP_reg0]
    4437                    
    4438                    $C$DW$293       .dwtag  DW_TAG_formal_parameter
    4439                            .dwattr $C$DW$293, DW_AT_name("event")
    4440                            .dwattr $C$DW$293, DW_AT_TI_symbol_name("event")
    4441                            .dwattr $C$DW$293, DW_AT_type(*$C$DW$T$10)
    4442                            .dwattr $C$DW$293, DW_AT_location[DW_OP_reg1]
    4443                    
    4444                    
    4445                    ;*****************************************************************************
    4446                    ;* FUNCTION NAME: osal_msg_find                                              *
    4447                    ;*                                                                           *
    4448                    ;*   Regs Modified     : A1,A2,A3,A4,V1,V2,V4,V9,SP,LR,SR                    *
    4449                    ;*   Regs Used         : A1,A2,A3,A4,V1,V2,V4,V9,SP,LR,SR                    *
    4450                    ;*   Local Frame Size  : 0 Args + 0 Auto + 16 Save = 16 byte                 *
    4451                    ;*****************************************************************************
    4452                    osal_msg_find:
    4453                    ;* --------------------------------------------------------------------------*
    4454                    ;* A2    assigned to $O$C16
    4455                    ;* V2    assigned to task_id
TI ARM Assembler PC v16.9.9 Sun Nov 25 16:40:48 2018

Tools Copyright (c) 1996-2017 Texas Instruments Incorporated
C:\Users\Stryd\AppData\Local\Temp\{8719FFD6-004A-4401-8DC3-4DA83C6CF1D8} PAGE   82

    4456                    $C$DW$294       .dwtag  DW_TAG_variable
    4457                            .dwattr $C$DW$294, DW_AT_name("task_id")
    4458                            .dwattr $C$DW$294, DW_AT_TI_symbol_name("task_id")
    4459                            .dwattr $C$DW$294, DW_AT_type(*$C$DW$T$298)
    4460                            .dwattr $C$DW$294, DW_AT_location[DW_OP_reg5]
    4461                    
    4462                    ;* V1    assigned to event
    4463                    $C$DW$295       .dwtag  DW_TAG_variable
    4464                            .dwattr $C$DW$295, DW_AT_name("event")
    4465                            .dwattr $C$DW$295, DW_AT_TI_symbol_name("event")
    4466                            .dwattr $C$DW$295, DW_AT_type(*$C$DW$T$298)
    4467                            .dwattr $C$DW$295, DW_AT_location[DW_OP_reg4]
    4468                    
    4469                    ;* V4    assigned to pHdr
    4470                    $C$DW$296       .dwtag  DW_TAG_variable
    4471                            .dwattr $C$DW$296, DW_AT_name("pHdr")
    4472                            .dwattr $C$DW$296, DW_AT_TI_symbol_name("pHdr")
    4473                            .dwattr $C$DW$296, DW_AT_type(*$C$DW$T$409)
    4474                            .dwattr $C$DW$296, DW_AT_location[DW_OP_reg7]
    4475                    
    4476                            .dwcfi  cfa_offset, 0
    4477 00000000 B5B0              PUSH      {V1, V2, V4, LR}      ; [DPU_3_PIPE]  ; [ORIG 16-BIT INS]
    4478                            .dwcfi  cfa_offset, 16
    4479                            .dwcfi  save_reg_to_mem, 14, -4
    4480                            .dwcfi  save_reg_to_mem, 7, -8
    4481                            .dwcfi  save_reg_to_mem, 5, -12
    4482                            .dwcfi  save_reg_to_mem, 4, -16
    4483 00000002 4605              MOV       V2, A1                ; [DPU_3_PIPE] |873|  ; [ORIG 16-BIT INS]
    4484                            .dwpsn  file "../Application/MAC/OSAL/osal.c",line 877,column 3,is_stmt,isa 1
    4485 00000004 480C              LDR       A1, $C$CON76          ; [DPU_3_PIPE] |877|  ; [ORIG 16-BIT INS]
    4486 00000006 6800              LDR       A1, [A1, #0]          ; [DPU_3_PIPE] |877|  ; [ORIG 16-BIT INS]
    4487                            .dwpsn  file "../Application/MAC/OSAL/osal.c",line 873,column 1,is_stmt,isa 1
    4488 00000008 460C              MOV       V1, A2                ; [DPU_3_PIPE] |873|  ; [ORIG 16-BIT INS]
    4489                            .dwpsn  file "../Application/MAC/OSAL/osal.c",line 877,column 3,is_stmt,isa 1
    4490                    $C$DW$297       .dwtag  DW_TAG_TI_branch
    4491                            .dwattr $C$DW$297, DW_AT_low_pc(0x00)
    4492                            .dwattr $C$DW$297, DW_AT_TI_call
    4493                            .dwattr $C$DW$297, DW_AT_TI_indirect
    4494                    
    4495 0000000a 4780              BLX       A1                    ; [DPU_3_PIPE] |877|  ; [ORIG 16-BIT INS]
    4496                            ; CALL OCCURS {}                 ; [] |877| 
    4497                            .dwpsn  file "../Application/MAC/OSAL/osal.c",line 879,column 3,is_stmt,isa 1
    4498 0000000c 4909              LDR       A2, $C$CON74          ; [DPU_3_PIPE] |879|  ; [ORIG 16-BIT INS]
    4499 0000000e 6809              LDR       A2, [A2, #0]          ; [DPU_3_PIPE] |879|  ; [ORIG 16-BIT INS]
    4500 00000010 460F              MOV       V4, A2                ; [DPU_3_PIPE] |879|  ; [ORIG 16-BIT INS]
    4501 00000012 B151              CBZ       A2, ||$C$L62||        ; []  ; [ORIG 16-BIT INS]
    4502                            .dwpsn  file "../Application/MAC/OSAL/osal.c",line 882,column 10,is_stmt,isa 1
    4503                            ; BRANCHCC OCCURS {||$C$L62||}   ; [] |882| 
    4504                    ;* --------------------------------------------------------------------------*
    4505                    ;*   BEGIN LOOP ||$C$L60||
    4506                    ;*
    4507                    ;*   Loop source line                : 882
    4508                    ;*   Loop closing brace source line  : 890
    4509                    ;*   Known Minimum Trip Count        : 1
    4510                    ;*   Known Maximum Trip Count        : 4294967295
TI ARM Assembler PC v16.9.9 Sun Nov 25 16:40:48 2018

Tools Copyright (c) 1996-2017 Texas Instruments Incorporated
C:\Users\Stryd\AppData\Local\Temp\{8719FFD6-004A-4401-8DC3-4DA83C6CF1D8} PAGE   83

    4511                    ;*   Known Max Trip Count Factor     : 1
    4512                    ;* --------------------------------------------------------------------------*
    4513 00000014           ||$C$L60||:    
    4514                            .dwpsn  file "../Application/MAC/OSAL/osal.c",line 886,column 7,is_stmt,isa 1
    4515 00000014 1C02F817          LDRB      A2, [V4, #-2]         ; [DPU_3_PIPE] |886|  ; [KEEP 32-BIT INS]
    4516 00000018 428D              CMP       V2, A2                ; [DPU_3_PIPE] |886|  ; [ORIG 16-BIT INS]
    4517 0000001a D102              BNE       ||$C$L61||            ; [DPU_3_PIPE] |886|  ; [ORIG 16-BIT INS]
    4518                            ; BRANCHCC OCCURS {||$C$L61||}   ; [] |886| 
    4519                    ;* --------------------------------------------------------------------------*
    4520 0000001c 7839              LDRB      A2, [V4, #0]          ; [DPU_3_PIPE] |886|  ; [ORIG 16-BIT INS]
    4521 0000001e 428C              CMP       V1, A2                ; [DPU_3_PIPE] |886|  ; [ORIG 16-BIT INS]
    4522 00000020 D003              BEQ       ||$C$L62||            ; [DPU_3_PIPE] |886|  ; [ORIG 16-BIT INS]
    4523                            ; BRANCHCC OCCURS {||$C$L62||}   ; [] |886| 
    4524                    ;* --------------------------------------------------------------------------*
    4525 00000022           ||$C$L61||:    
    4526                            .dwpsn  file "../Application/MAC/OSAL/osal.c",line 889,column 5,is_stmt,isa 1
    4527 00000022 7C0CF857          LDR       V4, [V4, #-12]        ; [DPU_3_PIPE] |889|  ; [KEEP 32-BIT INS]
    4528                            .dwpsn  file "../Application/MAC/OSAL/osal.c",line 882,column 10,is_stmt,isa 1
    4529 00000026 2F00              CMP       V4, #0                ; [DPU_3_PIPE] |882|  ; [ORIG 16-BIT INS]
    4530 00000028 D1F4              BNE       ||$C$L60||            ; [DPU_3_PIPE] |882|  ; [ORIG 16-BIT INS]
    4531                            ; BRANCHCC OCCURS {||$C$L60||}   ; [] |882| 
    4532                    ;* --------------------------------------------------------------------------*
    4533 0000002a           ||$C$L62||:    
    4534                            .dwpsn  file "../Application/MAC/OSAL/osal.c",line 892,column 3,is_stmt,isa 1
    4535 0000002a 4904              LDR       A2, $C$CON77          ; [DPU_3_PIPE] |892|  ; [ORIG 16-BIT INS]
    4536 0000002c 6809              LDR       A2, [A2, #0]          ; [DPU_3_PIPE] |892|  ; [ORIG 16-BIT INS]
    4537                    $C$DW$298       .dwtag  DW_TAG_TI_branch
    4538                            .dwattr $C$DW$298, DW_AT_low_pc(0x00)
    4539                            .dwattr $C$DW$298, DW_AT_TI_call
    4540                            .dwattr $C$DW$298, DW_AT_TI_indirect
    4541                    
    4542 0000002e 4788              BLX       A2                    ; [DPU_3_PIPE] |892|  ; [ORIG 16-BIT INS]
    4543                            ; CALL OCCURS {}                 ; [] |892| 
    4544                            .dwpsn  file "../Application/MAC/OSAL/osal.c",line 894,column 3,is_stmt,isa 1
    4545 00000030 4638              MOV       A1, V4                ; [DPU_3_PIPE] |894|  ; [ORIG 16-BIT INS]
    4546                    $C$DW$299       .dwtag  DW_TAG_TI_branch
    4547                            .dwattr $C$DW$299, DW_AT_low_pc(0x00)
    4548                            .dwattr $C$DW$299, DW_AT_TI_return
    4549                    
    4550 00000032 BDB0              POP       {V1, V2, V4, PC}      ; [DPU_3_PIPE]  ; [ORIG 16-BIT INS]
    4551                            .dwcfi  cfa_offset, 0
    4552                            .dwcfi  restore_reg, 7
    4553                            .dwcfi  restore_reg, 5
    4554                            .dwcfi  restore_reg, 4
    4555                            ; BRANCH OCCURS                  ; [] 
    4556                            .dwattr $C$DW$291, DW_AT_TI_end_file("../Application/MAC/OSAL/osal.c")
    4557                            .dwattr $C$DW$291, DW_AT_TI_end_line(0x37f)
    4558                            .dwattr $C$DW$291, DW_AT_TI_end_column(0x01)
    4559                            .dwendentry
    4560                            .dwendtag $C$DW$291
    4561                    
    4562 00000000                   .sect   ".text:osal_msg_enqueue_max"
    4563                            .clink
    4564                            .thumbfunc osal_msg_enqueue_max
    4565 00000000                   .thumb
TI ARM Assembler PC v16.9.9 Sun Nov 25 16:40:48 2018

Tools Copyright (c) 1996-2017 Texas Instruments Incorporated
C:\Users\Stryd\AppData\Local\Temp\{8719FFD6-004A-4401-8DC3-4DA83C6CF1D8} PAGE   84

    4566                            .global osal_msg_enqueue_max
    4567                    
    4568                    $C$DW$300       .dwtag  DW_TAG_subprogram
    4569                            .dwattr $C$DW$300, DW_AT_name("osal_msg_enqueue_max")
    4570                            .dwattr $C$DW$300, DW_AT_low_pc(osal_msg_enqueue_max)
    4571                            .dwattr $C$DW$300, DW_AT_high_pc(0x00)
    4572                            .dwattr $C$DW$300, DW_AT_TI_symbol_name("osal_msg_enqueue_max")
    4573                            .dwattr $C$DW$300, DW_AT_external
    4574                            .dwattr $C$DW$300, DW_AT_type(*$C$DW$T$19)
    4575                            .dwattr $C$DW$300, DW_AT_TI_begin_file("../Application/MAC/OSAL/osal.c")
    4576                            .dwattr $C$DW$300, DW_AT_TI_begin_line(0x448)
    4577                            .dwattr $C$DW$300, DW_AT_TI_begin_column(0x07)
    4578                            .dwattr $C$DW$300, DW_AT_decl_file("../Application/MAC/OSAL/osal.c")
    4579                            .dwattr $C$DW$300, DW_AT_decl_line(0x448)
    4580                            .dwattr $C$DW$300, DW_AT_decl_column(0x07)
    4581                            .dwattr $C$DW$300, DW_AT_TI_max_frame_size(0x10)
    4582                            .dwpsn  file "../Application/MAC/OSAL/osal.c",line 1097,column 1,is_stmt,address osal_msg_enqu
    4583                    
    4584                            .dwfde $C$DW$CIE, osal_msg_enqueue_max
    4585                    $C$DW$301       .dwtag  DW_TAG_formal_parameter
    4586                            .dwattr $C$DW$301, DW_AT_name("q_ptr")
    4587                            .dwattr $C$DW$301, DW_AT_TI_symbol_name("q_ptr")
    4588                            .dwattr $C$DW$301, DW_AT_type(*$C$DW$T$210)
    4589                            .dwattr $C$DW$301, DW_AT_location[DW_OP_reg0]
    4590                    
    4591                    $C$DW$302       .dwtag  DW_TAG_formal_parameter
    4592                            .dwattr $C$DW$302, DW_AT_name("msg_ptr")
    4593                            .dwattr $C$DW$302, DW_AT_TI_symbol_name("msg_ptr")
    4594                            .dwattr $C$DW$302, DW_AT_type(*$C$DW$T$3)
    4595                            .dwattr $C$DW$302, DW_AT_location[DW_OP_reg1]
    4596                    
    4597                    $C$DW$303       .dwtag  DW_TAG_formal_parameter
    4598                            .dwattr $C$DW$303, DW_AT_name("max")
    4599                            .dwattr $C$DW$303, DW_AT_TI_symbol_name("max")
    4600                            .dwattr $C$DW$303, DW_AT_type(*$C$DW$T$10)
    4601                            .dwattr $C$DW$303, DW_AT_location[DW_OP_reg2]
    4602                    
    4603                    
    4604                    ;*****************************************************************************
    4605                    ;* FUNCTION NAME: osal_msg_enqueue_max                                       *
    4606                    ;*                                                                           *
    4607                    ;*   Regs Modified     : A1,A2,A3,A4,V1,V2,V4,V9,SP,LR,SR                    *
    4608                    ;*   Regs Used         : A1,A2,A3,A4,V1,V2,V4,V9,SP,LR,SR                    *
    4609                    ;*   Local Frame Size  : 0 Args + 0 Auto + 16 Save = 16 byte                 *
    4610                    ;*****************************************************************************
    4611                    osal_msg_enqueue_max:
    4612                    ;* --------------------------------------------------------------------------*
    4613                    ;* A1    assigned to $O$U7
    4614                    ;* A1    assigned to $O$U19
    4615                    ;* V2    assigned to q_ptr
    4616                    $C$DW$304       .dwtag  DW_TAG_variable
    4617                            .dwattr $C$DW$304, DW_AT_name("q_ptr")
    4618                            .dwattr $C$DW$304, DW_AT_TI_symbol_name("q_ptr")
    4619                            .dwattr $C$DW$304, DW_AT_type(*$C$DW$T$213)
    4620                            .dwattr $C$DW$304, DW_AT_location[DW_OP_reg5]
TI ARM Assembler PC v16.9.9 Sun Nov 25 16:40:48 2018

Tools Copyright (c) 1996-2017 Texas Instruments Incorporated
C:\Users\Stryd\AppData\Local\Temp\{8719FFD6-004A-4401-8DC3-4DA83C6CF1D8} PAGE   85

    4621                    
    4622                    ;* V1    assigned to msg_ptr
    4623                    $C$DW$305       .dwtag  DW_TAG_variable
    4624                            .dwattr $C$DW$305, DW_AT_name("msg_ptr")
    4625                            .dwattr $C$DW$305, DW_AT_TI_symbol_name("msg_ptr")
    4626                            .dwattr $C$DW$305, DW_AT_type(*$C$DW$T$212)
    4627                            .dwattr $C$DW$305, DW_AT_location[DW_OP_reg4]
    4628                    
    4629                    ;* V4    assigned to max
    4630                    $C$DW$306       .dwtag  DW_TAG_variable
    4631                            .dwattr $C$DW$306, DW_AT_name("max")
    4632                            .dwattr $C$DW$306, DW_AT_TI_symbol_name("max")
    4633                            .dwattr $C$DW$306, DW_AT_type(*$C$DW$T$19)
    4634                            .dwattr $C$DW$306, DW_AT_location[DW_OP_reg7]
    4635                    
    4636                    ;* A2    assigned to list
    4637                    $C$DW$307       .dwtag  DW_TAG_variable
    4638                            .dwattr $C$DW$307, DW_AT_name("list")
    4639                            .dwattr $C$DW$307, DW_AT_TI_symbol_name("list")
    4640                            .dwattr $C$DW$307, DW_AT_type(*$C$DW$T$3)
    4641                            .dwattr $C$DW$307, DW_AT_location[DW_OP_reg1]
    4642                    
    4643                    ;* V2    assigned to ret
    4644                    $C$DW$308       .dwtag  DW_TAG_variable
    4645                            .dwattr $C$DW$308, DW_AT_name("ret")
    4646                            .dwattr $C$DW$308, DW_AT_TI_symbol_name("ret")
    4647                            .dwattr $C$DW$308, DW_AT_type(*$C$DW$T$10)
    4648                            .dwattr $C$DW$308, DW_AT_location[DW_OP_reg5]
    4649                    
    4650                    ;* A3    assigned to intState
    4651                    $C$DW$309       .dwtag  DW_TAG_variable
    4652                            .dwattr $C$DW$309, DW_AT_name("intState")
    4653                            .dwattr $C$DW$309, DW_AT_TI_symbol_name("intState")
    4654                            .dwattr $C$DW$309, DW_AT_type(*$C$DW$T$372)
    4655                            .dwattr $C$DW$309, DW_AT_location[DW_OP_reg2]
    4656                    
    4657                            .dwcfi  cfa_offset, 0
    4658 00000000 B5B0              PUSH      {V1, V2, V4, LR}      ; [DPU_3_PIPE]  ; [ORIG 16-BIT INS]
    4659                            .dwcfi  cfa_offset, 16
    4660                            .dwcfi  save_reg_to_mem, 14, -4
    4661                            .dwcfi  save_reg_to_mem, 7, -8
    4662                            .dwcfi  save_reg_to_mem, 5, -12
    4663                            .dwcfi  save_reg_to_mem, 4, -16
    4664 00000002 4605              MOV       V2, A1                ; [DPU_3_PIPE] |1097|  ; [ORIG 16-BIT INS]
    4665                            .dwpsn  file "../Application/MAC/OSAL/osal.c",line 1103,column 3,is_stmt,isa 1
    4666 00000004 4811              LDR       A1, $C$CON80          ; [DPU_3_PIPE] |1103|  ; [ORIG 16-BIT INS]
    4667 00000006 6800              LDR       A1, [A1, #0]          ; [DPU_3_PIPE] |1103|  ; [ORIG 16-BIT INS]
    4668                            .dwpsn  file "../Application/MAC/OSAL/osal.c",line 1097,column 1,is_stmt,isa 1
    4669 00000008 4617              MOV       V4, A3                ; [DPU_3_PIPE] |1097|  ; [ORIG 16-BIT INS]
    4670 0000000a 460C              MOV       V1, A2                ; [DPU_3_PIPE] |1097|  ; [ORIG 16-BIT INS]
    4671                            .dwpsn  file "../Application/MAC/OSAL/osal.c",line 1103,column 3,is_stmt,isa 1
    4672                    $C$DW$310       .dwtag  DW_TAG_TI_branch
    4673                            .dwattr $C$DW$310, DW_AT_low_pc(0x00)
    4674                            .dwattr $C$DW$310, DW_AT_TI_call
    4675                            .dwattr $C$DW$310, DW_AT_TI_indirect
TI ARM Assembler PC v16.9.9 Sun Nov 25 16:40:48 2018

Tools Copyright (c) 1996-2017 Texas Instruments Incorporated
C:\Users\Stryd\AppData\Local\Temp\{8719FFD6-004A-4401-8DC3-4DA83C6CF1D8} PAGE   86

    4676                    
    4677 0000000c 4780              BLX       A1                    ; [DPU_3_PIPE] |1103|  ; [ORIG 16-BIT INS]
    4678                            ; CALL OCCURS {}                 ; [] |1103| 
    4679 0000000e 4602              MOV       A3, A1                ; [DPU_3_PIPE] |1103|  ; [ORIG 16-BIT INS]
    4680                            .dwpsn  file "../Application/MAC/OSAL/osal.c",line 1106,column 3,is_stmt,isa 1
    4681 00000010 6828              LDR       A1, [V2, #0]          ; [DPU_3_PIPE] |1106|  ; [ORIG 16-BIT INS]
    4682 00000012 2800              CMP       A1, #0                ; [DPU_3_PIPE] |1106|  ; [ORIG 16-BIT INS]
    4683 00000014 BF08              IT        EQ                    ; [DPU_3_PIPE]  ; [ORIG 16-BIT INS]
    4684                            .dwpsn  file "../Application/MAC/OSAL/osal.c",line 1108,column 5,is_stmt,isa 1
    4685 00000016 602C              STREQ     V1, [V2, #0]          ; [DPU_3_PIPE] |1108|  ; [ORIG 16-BIT INS]
    4686                            .dwpsn  file "../Application/MAC/OSAL/osal.c",line 1110,column 3,is_stmt,isa 1
    4687 00000018 D00D              BEQ       ||$C$L65||            ; [DPU_3_PIPE] |1110|  ; [ORIG 16-BIT INS]
    4688                            ; BRANCHCC OCCURS {||$C$L65||}   ; [] |1110| 
    4689                    ;* --------------------------------------------------------------------------*
    4690                            .dwpsn  file "../Application/MAC/OSAL/osal.c",line 1115,column 5,is_stmt,isa 1
    4691 0000001a 1E7F              SUBS      V4, V4, #1            ; [DPU_3_PIPE] |1115|  ; [ORIG 16-BIT INS]
    4692                            .dwpsn  file "../Application/MAC/OSAL/osal.c",line 1114,column 5,is_stmt,isa 1
    4693 0000001c 4601              MOV       A2, A1                ; [DPU_3_PIPE] |1114|  ; [ORIG 16-BIT INS]
    4694                            .dwpsn  file "../Application/MAC/OSAL/osal.c",line 1099,column 13,is_stmt,isa 1
    4695 0000001e 2500              MOVS      V2, #0                ; [DPU_3_PIPE] |1099|  ; [ORIG 16-BIT INS]
    4696                            .dwpsn  file "../Application/MAC/OSAL/osal.c",line 1115,column 5,is_stmt,isa 1
    4697 00000020 B2FF              UXTB      V4, V4                ; [DPU_3_PIPE] |1115|  ; [ORIG 16-BIT INS]
    4698                            .dwpsn  file "../Application/MAC/OSAL/osal.c",line 1116,column 5,is_stmt,isa 1
    4699 00000022 E002              B         ||$C$L64||            ; [DPU_3_PIPE] |1116|  ; [ORIG 16-BIT INS]
    4700                            ; BRANCH OCCURS {||$C$L64||}     ; [] |1116| 
    4701                    ;* --------------------------------------------------------------------------*
    4702 00000024           ||$C$L63||:    
    4703                            .dwpsn  file "../Application/MAC/OSAL/osal.c",line 1119,column 7,is_stmt,isa 1
    4704 00000024 1E7F              SUBS      V4, V4, #1            ; [DPU_3_PIPE] |1119|  ; [ORIG 16-BIT INS]
    4705                            .dwpsn  file "../Application/MAC/OSAL/osal.c",line 1118,column 7,is_stmt,isa 1
    4706 00000026 4601              MOV       A2, A1                ; [DPU_3_PIPE] |1118|  ; [ORIG 16-BIT INS]
    4707                            .dwpsn  file "../Application/MAC/OSAL/osal.c",line 1119,column 7,is_stmt,isa 1
    4708 00000028 B2FF              UXTB      V4, V4                ; [DPU_3_PIPE] |1119|  ; [ORIG 16-BIT INS]
    4709                    ;* --------------------------------------------------------------------------*
    4710                    ;*   BEGIN LOOP ||$C$L64||
    4711                    ;* --------------------------------------------------------------------------*
    4712 0000002a           ||$C$L64||:    
    4713                            .dwpsn  file "../Application/MAC/OSAL/osal.c",line 1116,column 13,is_stmt,isa 1
    4714 0000002a 0C0CF851          LDR       A1, [A2, #-12]        ; [DPU_3_PIPE] |1116|  ; [KEEP 32-BIT INS]
    4715 0000002e B920              CBNZ      A1, ||$C$L66||        ; []  ; [ORIG 16-BIT INS]
    4716                            ; BRANCHCC OCCURS {||$C$L66||}   ; [] |1116| 
    4717                    ;* --------------------------------------------------------------------------*
    4718 00000030 B12F              CBZ       V4, ||$C$L67||        ; []  ; [ORIG 16-BIT INS]
    4719                            .dwpsn  file "../Application/MAC/OSAL/osal.c",line 1123,column 5,is_stmt,isa 1
    4720                            ; BRANCHCC OCCURS {||$C$L67||}   ; [] |1123| 
    4721                    ;* --------------------------------------------------------------------------*
    4722                            .dwpsn  file "../Application/MAC/OSAL/osal.c",line 1125,column 7,is_stmt,isa 1
    4723 00000032 4C0CF841          STR       V1, [A2, #-12]        ; [DPU_3_PIPE] |1125|  ; [KEEP 32-BIT INS]
    4724                    ;* --------------------------------------------------------------------------*
    4725 00000036           ||$C$L65||:    
    4726                            .dwpsn  file "../Application/MAC/OSAL/osal.c",line 1126,column 7,is_stmt,isa 1
    4727 00000036 2501              MOVS      V2, #1                ; [DPU_3_PIPE] |1126|  ; [ORIG 16-BIT INS]
    4728 00000038 E001              B         ||$C$L67||            ; [DPU_3_PIPE] |1126|  ; [ORIG 16-BIT INS]
    4729                            ; BRANCH OCCURS {||$C$L67||}     ; [] |1126| 
    4730                    ;* --------------------------------------------------------------------------*
TI ARM Assembler PC v16.9.9 Sun Nov 25 16:40:48 2018

Tools Copyright (c) 1996-2017 Texas Instruments Incorporated
C:\Users\Stryd\AppData\Local\Temp\{8719FFD6-004A-4401-8DC3-4DA83C6CF1D8} PAGE   87

    4731 0000003a           ||$C$L66||:    
    4732                            .dwpsn  file "../Application/MAC/OSAL/osal.c",line 1116,column 13,is_stmt,isa 1
    4733 0000003a 2F00              CMP       V4, #0                ; [DPU_3_PIPE] |1116|  ; [ORIG 16-BIT INS]
    4734 0000003c D1F2              BNE       ||$C$L63||            ; [DPU_3_PIPE] |1116|  ; [ORIG 16-BIT INS]
    4735                            ; BRANCHCC OCCURS {||$C$L63||}   ; [] |1116| 
    4736                    ;* --------------------------------------------------------------------------*
    4737 0000003e           ||$C$L67||:    
    4738                            .dwpsn  file "../Application/MAC/OSAL/osal.c",line 1131,column 3,is_stmt,isa 1
    4739 0000003e 4804              LDR       A1, $C$CON81          ; [DPU_3_PIPE] |1131|  ; [ORIG 16-BIT INS]
    4740 00000040 6801              LDR       A2, [A1, #0]          ; [DPU_3_PIPE] |1131|  ; [ORIG 16-BIT INS]
    4741 00000042 4610              MOV       A1, A3                ; [DPU_3_PIPE] |1131|  ; [ORIG 16-BIT INS]
    4742                    $C$DW$311       .dwtag  DW_TAG_TI_branch
    4743                            .dwattr $C$DW$311, DW_AT_low_pc(0x00)
    4744                            .dwattr $C$DW$311, DW_AT_TI_call
    4745                            .dwattr $C$DW$311, DW_AT_TI_indirect
    4746                    
    4747 00000044 4788              BLX       A2                    ; [DPU_3_PIPE] |1131|  ; [ORIG 16-BIT INS]
    4748                            ; CALL OCCURS {}                 ; [] |1131| 
    4749                            .dwpsn  file "../Application/MAC/OSAL/osal.c",line 1133,column 3,is_stmt,isa 1
    4750 00000046 4628              MOV       A1, V2                ; [DPU_3_PIPE] |1133|  ; [ORIG 16-BIT INS]
    4751                    $C$DW$312       .dwtag  DW_TAG_TI_branch
    4752                            .dwattr $C$DW$312, DW_AT_low_pc(0x00)
    4753                            .dwattr $C$DW$312, DW_AT_TI_return
    4754                    
    4755 00000048 BDB0              POP       {V1, V2, V4, PC}      ; [DPU_3_PIPE]  ; [ORIG 16-BIT INS]
    4756                            .dwcfi  cfa_offset, 0
    4757                            .dwcfi  restore_reg, 7
    4758                            .dwcfi  restore_reg, 5
    4759                            .dwcfi  restore_reg, 4
    4760                            ; BRANCH OCCURS                  ; [] 
    4761                            .dwattr $C$DW$300, DW_AT_TI_end_file("../Application/MAC/OSAL/osal.c")
    4762                            .dwattr $C$DW$300, DW_AT_TI_end_line(0x46e)
    4763                            .dwattr $C$DW$300, DW_AT_TI_end_column(0x01)
    4764                            .dwendentry
    4765                            .dwendtag $C$DW$300
    4766                    
    4767 00000000                   .sect   ".text:osal_msg_dequeue"
    4768                            .clink
    4769                            .thumbfunc osal_msg_dequeue
    4770 00000000                   .thumb
    4771                            .global osal_msg_dequeue
    4772                    
    4773                    $C$DW$313       .dwtag  DW_TAG_subprogram
    4774                            .dwattr $C$DW$313, DW_AT_name("osal_msg_dequeue")
    4775                            .dwattr $C$DW$313, DW_AT_low_pc(osal_msg_dequeue)
    4776                            .dwattr $C$DW$313, DW_AT_high_pc(0x00)
    4777                            .dwattr $C$DW$313, DW_AT_TI_symbol_name("osal_msg_dequeue")
    4778                            .dwattr $C$DW$313, DW_AT_external
    4779                            .dwattr $C$DW$313, DW_AT_type(*$C$DW$T$3)
    4780                            .dwattr $C$DW$313, DW_AT_TI_begin_file("../Application/MAC/OSAL/osal.c")
    4781                            .dwattr $C$DW$313, DW_AT_TI_begin_line(0x3e1)
    4782                            .dwattr $C$DW$313, DW_AT_TI_begin_column(0x07)
    4783                            .dwattr $C$DW$313, DW_AT_decl_file("../Application/MAC/OSAL/osal.c")
    4784                            .dwattr $C$DW$313, DW_AT_decl_line(0x3e1)
    4785                            .dwattr $C$DW$313, DW_AT_decl_column(0x07)
TI ARM Assembler PC v16.9.9 Sun Nov 25 16:40:48 2018

Tools Copyright (c) 1996-2017 Texas Instruments Incorporated
C:\Users\Stryd\AppData\Local\Temp\{8719FFD6-004A-4401-8DC3-4DA83C6CF1D8} PAGE   88

    4786                            .dwattr $C$DW$313, DW_AT_TI_max_frame_size(0x10)
    4787                            .dwpsn  file "../Application/MAC/OSAL/osal.c",line 994,column 1,is_stmt,address osal_msg_deque
    4788                    
    4789                            .dwfde $C$DW$CIE, osal_msg_dequeue
    4790                    $C$DW$314       .dwtag  DW_TAG_formal_parameter
    4791                            .dwattr $C$DW$314, DW_AT_name("q_ptr")
    4792                            .dwattr $C$DW$314, DW_AT_TI_symbol_name("q_ptr")
    4793                            .dwattr $C$DW$314, DW_AT_type(*$C$DW$T$210)
    4794                            .dwattr $C$DW$314, DW_AT_location[DW_OP_reg0]
    4795                    
    4796                    
    4797                    ;*****************************************************************************
    4798                    ;* FUNCTION NAME: osal_msg_dequeue                                           *
    4799                    ;*                                                                           *
    4800                    ;*   Regs Modified     : A1,A2,A3,A4,V1,V4,V9,SP,LR,SR                       *
    4801                    ;*   Regs Used         : A1,A2,A3,A4,V1,V4,V9,SP,LR,SR                       *
    4802                    ;*   Local Frame Size  : 0 Args + 0 Auto + 12 Save = 12 byte                 *
    4803                    ;*****************************************************************************
    4804                    osal_msg_dequeue:
    4805                    ;* --------------------------------------------------------------------------*
    4806                    ;* A2    assigned to $O$U5
    4807                    ;* V1    assigned to q_ptr
    4808                    $C$DW$315       .dwtag  DW_TAG_variable
    4809                            .dwattr $C$DW$315, DW_AT_name("q_ptr")
    4810                            .dwattr $C$DW$315, DW_AT_TI_symbol_name("q_ptr")
    4811                            .dwattr $C$DW$315, DW_AT_type(*$C$DW$T$213)
    4812                            .dwattr $C$DW$315, DW_AT_location[DW_OP_reg4]
    4813                    
    4814                    ;* V4    assigned to msg_ptr
    4815                    $C$DW$316       .dwtag  DW_TAG_variable
    4816                            .dwattr $C$DW$316, DW_AT_name("msg_ptr")
    4817                            .dwattr $C$DW$316, DW_AT_TI_symbol_name("msg_ptr")
    4818                            .dwattr $C$DW$316, DW_AT_type(*$C$DW$T$3)
    4819                            .dwattr $C$DW$316, DW_AT_location[DW_OP_reg7]
    4820                    
    4821                            .dwcfi  cfa_offset, 0
    4822 00000000 B598              PUSH      {A4, V1, V4, LR}      ; [DPU_3_PIPE]  ; [ORIG 16-BIT INS]
    4823                            .dwcfi  cfa_offset, 16
    4824                            .dwcfi  save_reg_to_mem, 14, -4
    4825                            .dwcfi  save_reg_to_mem, 7, -8
    4826                            .dwcfi  save_reg_to_mem, 4, -12
    4827                            .dwcfi  save_reg_to_mem, 3, -16
    4828 00000002 4604              MOV       V1, A1                ; [DPU_3_PIPE] |994|  ; [ORIG 16-BIT INS]
    4829                            .dwpsn  file "../Application/MAC/OSAL/osal.c",line 999,column 3,is_stmt,isa 1
    4830 00000004 480B              LDR       A1, $C$CON82          ; [DPU_3_PIPE] |999|  ; [ORIG 16-BIT INS]
    4831 00000006 6800              LDR       A1, [A1, #0]          ; [DPU_3_PIPE] |999|  ; [ORIG 16-BIT INS]
    4832                    $C$DW$317       .dwtag  DW_TAG_TI_branch
    4833                            .dwattr $C$DW$317, DW_AT_low_pc(0x00)
    4834                            .dwattr $C$DW$317, DW_AT_TI_call
    4835                            .dwattr $C$DW$317, DW_AT_TI_indirect
    4836                    
    4837 00000008 4780              BLX       A1                    ; [DPU_3_PIPE] |999|  ; [ORIG 16-BIT INS]
    4838                            ; CALL OCCURS {}                 ; [] |999| 
    4839                            .dwpsn  file "../Application/MAC/OSAL/osal.c",line 1001,column 3,is_stmt,isa 1
    4840 0000000a 6821              LDR       A2, [V1, #0]          ; [DPU_3_PIPE] |1001|  ; [ORIG 16-BIT INS]
TI ARM Assembler PC v16.9.9 Sun Nov 25 16:40:48 2018

Tools Copyright (c) 1996-2017 Texas Instruments Incorporated
C:\Users\Stryd\AppData\Local\Temp\{8719FFD6-004A-4401-8DC3-4DA83C6CF1D8} PAGE   89

    4841 0000000c 2900              CMP       A2, #0                ; [DPU_3_PIPE] |1001|  ; [ORIG 16-BIT INS]
    4842 0000000e BF08              IT        EQ                    ; [DPU_3_PIPE]  ; [ORIG 16-BIT INS]
    4843                            .dwpsn  file "../Application/MAC/OSAL/osal.c",line 995,column 17,is_stmt,isa 1
    4844 00000010 2700              MOVEQ     V4, #0                ; [DPU_3_PIPE] |995|  ; [ORIG 16-BIT INS]
    4845 00000012 D009              BEQ       ||$C$L68||            ; [DPU_3_PIPE]  ; [ORIG 16-BIT INS]
    4846                            ; BRANCHCC OCCURS {||$C$L68||}   ; [] 
    4847                    ;* --------------------------------------------------------------------------*
    4848                            .dwpsn  file "../Application/MAC/OSAL/osal.c",line 1005,column 5,is_stmt,isa 1
    4849 00000014 2C0CF851          LDR       A3, [A2, #-12]        ; [DPU_3_PIPE] |1005|  ; [KEEP 32-BIT INS]
    4850                            .dwpsn  file "../Application/MAC/OSAL/osal.c",line 1006,column 5,is_stmt,isa 1
    4851 00000018 2300              MOVS      A4, #0                ; [DPU_3_PIPE] |1006|  ; [ORIG 16-BIT INS]
    4852                            .dwpsn  file "../Application/MAC/OSAL/osal.c",line 1005,column 5,is_stmt,isa 1
    4853 0000001a 6022              STR       A3, [V1, #0]          ; [DPU_3_PIPE] |1005|  ; [ORIG 16-BIT INS]
    4854                            .dwpsn  file "../Application/MAC/OSAL/osal.c",line 1004,column 5,is_stmt,isa 1
    4855 0000001c 460F              MOV       V4, A2                ; [DPU_3_PIPE] |1004|  ; [ORIG 16-BIT INS]
    4856                            .dwpsn  file "../Application/MAC/OSAL/osal.c",line 1006,column 5,is_stmt,isa 1
    4857 0000001e 3C0CF841          STR       A4, [A2, #-12]        ; [DPU_3_PIPE] |1006|  ; [KEEP 32-BIT INS]
    4858                            .dwpsn  file "../Application/MAC/OSAL/osal.c",line 1007,column 5,is_stmt,isa 1
    4859 00000022 24FF              MOVS      V1, #255              ; [DPU_3_PIPE] |1007|  ; [ORIG 16-BIT INS]
    4860 00000024 4C02F801          STRB      V1, [A2, #-2]         ; [DPU_3_PIPE] |1007|  ; [KEEP 32-BIT INS]
    4861                    ;* --------------------------------------------------------------------------*
    4862 00000028           ||$C$L68||:    
    4863                            .dwpsn  file "../Application/MAC/OSAL/osal.c",line 1011,column 3,is_stmt,isa 1
    4864 00000028 4903              LDR       A2, $C$CON83          ; [DPU_3_PIPE] |1011|  ; [ORIG 16-BIT INS]
    4865 0000002a 6809              LDR       A2, [A2, #0]          ; [DPU_3_PIPE] |1011|  ; [ORIG 16-BIT INS]
    4866                    $C$DW$318       .dwtag  DW_TAG_TI_branch
    4867                            .dwattr $C$DW$318, DW_AT_low_pc(0x00)
    4868                            .dwattr $C$DW$318, DW_AT_TI_call
    4869                            .dwattr $C$DW$318, DW_AT_TI_indirect
    4870                    
    4871 0000002c 4788              BLX       A2                    ; [DPU_3_PIPE] |1011|  ; [ORIG 16-BIT INS]
    4872                            ; CALL OCCURS {}                 ; [] |1011| 
    4873                            .dwpsn  file "../Application/MAC/OSAL/osal.c",line 1013,column 3,is_stmt,isa 1
    4874 0000002e 4638              MOV       A1, V4                ; [DPU_3_PIPE] |1013|  ; [ORIG 16-BIT INS]
    4875                    $C$DW$319       .dwtag  DW_TAG_TI_branch
    4876                            .dwattr $C$DW$319, DW_AT_low_pc(0x00)
    4877                            .dwattr $C$DW$319, DW_AT_TI_return
    4878                    
    4879 00000030 BD98              POP       {A4, V1, V4, PC}      ; [DPU_3_PIPE]  ; [ORIG 16-BIT INS]
    4880                            .dwcfi  cfa_offset, 0
    4881                            .dwcfi  restore_reg, 7
    4882                            .dwcfi  restore_reg, 4
    4883                            .dwcfi  restore_reg, 3
    4884                            ; BRANCH OCCURS                  ; [] 
    4885                            .dwattr $C$DW$313, DW_AT_TI_end_file("../Application/MAC/OSAL/osal.c")
    4886                            .dwattr $C$DW$313, DW_AT_TI_end_line(0x3f6)
    4887                            .dwattr $C$DW$313, DW_AT_TI_end_column(0x01)
    4888                            .dwendentry
    4889                            .dwendtag $C$DW$313
    4890                    
    4891 00000000                   .sect   ".text:osal_msg_count"
    4892                            .clink
    4893                            .thumbfunc osal_msg_count
    4894 00000000                   .thumb
    4895                            .global osal_msg_count
TI ARM Assembler PC v16.9.9 Sun Nov 25 16:40:48 2018

Tools Copyright (c) 1996-2017 Texas Instruments Incorporated
C:\Users\Stryd\AppData\Local\Temp\{8719FFD6-004A-4401-8DC3-4DA83C6CF1D8} PAGE   90

    4896                    
    4897                    $C$DW$320       .dwtag  DW_TAG_subprogram
    4898                            .dwattr $C$DW$320, DW_AT_name("osal_msg_count")
    4899                            .dwattr $C$DW$320, DW_AT_low_pc(osal_msg_count)
    4900                            .dwattr $C$DW$320, DW_AT_high_pc(0x00)
    4901                            .dwattr $C$DW$320, DW_AT_TI_symbol_name("osal_msg_count")
    4902                            .dwattr $C$DW$320, DW_AT_external
    4903                            .dwattr $C$DW$320, DW_AT_type(*$C$DW$T$19)
    4904                            .dwattr $C$DW$320, DW_AT_TI_begin_file("../Application/MAC/OSAL/osal.c")
    4905                            .dwattr $C$DW$320, DW_AT_TI_begin_line(0x394)
    4906                            .dwattr $C$DW$320, DW_AT_TI_begin_column(0x07)
    4907                            .dwattr $C$DW$320, DW_AT_decl_file("../Application/MAC/OSAL/osal.c")
    4908                            .dwattr $C$DW$320, DW_AT_decl_line(0x394)
    4909                            .dwattr $C$DW$320, DW_AT_decl_column(0x07)
    4910                            .dwattr $C$DW$320, DW_AT_TI_max_frame_size(0x18)
    4911                            .dwpsn  file "../Application/MAC/OSAL/osal.c",line 917,column 1,is_stmt,address osal_msg_count
    4912                    
    4913                            .dwfde $C$DW$CIE, osal_msg_count
    4914                    $C$DW$321       .dwtag  DW_TAG_formal_parameter
    4915                            .dwattr $C$DW$321, DW_AT_name("task_id")
    4916                            .dwattr $C$DW$321, DW_AT_TI_symbol_name("task_id")
    4917                            .dwattr $C$DW$321, DW_AT_type(*$C$DW$T$10)
    4918                            .dwattr $C$DW$321, DW_AT_location[DW_OP_reg0]
    4919                    
    4920                    $C$DW$322       .dwtag  DW_TAG_formal_parameter
    4921                            .dwattr $C$DW$322, DW_AT_name("event")
    4922                            .dwattr $C$DW$322, DW_AT_TI_symbol_name("event")
    4923                            .dwattr $C$DW$322, DW_AT_type(*$C$DW$T$10)
    4924                            .dwattr $C$DW$322, DW_AT_location[DW_OP_reg1]
    4925                    
    4926                    
    4927                    ;*****************************************************************************
    4928                    ;* FUNCTION NAME: osal_msg_count                                             *
    4929                    ;*                                                                           *
    4930                    ;*   Regs Modified     : A1,A2,A3,A4,V1,V2,V3,V4,V9,SP,LR,SR                 *
    4931                    ;*   Regs Used         : A1,A2,A3,A4,V1,V2,V3,V4,V9,SP,LR,SR                 *
    4932                    ;*   Local Frame Size  : 0 Args + 0 Auto + 20 Save = 20 byte                 *
    4933                    ;*****************************************************************************
    4934                    osal_msg_count:
    4935                    ;* --------------------------------------------------------------------------*
    4936                    ;* V4    assigned to $O$C16
    4937                    ;* V3    assigned to task_id
    4938                    $C$DW$323       .dwtag  DW_TAG_variable
    4939                            .dwattr $C$DW$323, DW_AT_name("task_id")
    4940                            .dwattr $C$DW$323, DW_AT_TI_symbol_name("task_id")
    4941                            .dwattr $C$DW$323, DW_AT_type(*$C$DW$T$298)
    4942                            .dwattr $C$DW$323, DW_AT_location[DW_OP_reg6]
    4943                    
    4944                    ;* V2    assigned to event
    4945                    $C$DW$324       .dwtag  DW_TAG_variable
    4946                            .dwattr $C$DW$324, DW_AT_name("event")
    4947                            .dwattr $C$DW$324, DW_AT_TI_symbol_name("event")
    4948                            .dwattr $C$DW$324, DW_AT_type(*$C$DW$T$298)
    4949                            .dwattr $C$DW$324, DW_AT_location[DW_OP_reg5]
    4950                    
TI ARM Assembler PC v16.9.9 Sun Nov 25 16:40:48 2018

Tools Copyright (c) 1996-2017 Texas Instruments Incorporated
C:\Users\Stryd\AppData\Local\Temp\{8719FFD6-004A-4401-8DC3-4DA83C6CF1D8} PAGE   91

    4951                    ;* V1    assigned to count
    4952                    $C$DW$325       .dwtag  DW_TAG_variable
    4953                            .dwattr $C$DW$325, DW_AT_name("count")
    4954                            .dwattr $C$DW$325, DW_AT_TI_symbol_name("count")
    4955                            .dwattr $C$DW$325, DW_AT_type(*$C$DW$T$19)
    4956                            .dwattr $C$DW$325, DW_AT_location[DW_OP_reg4]
    4957                    
    4958                    ;* V4    assigned to pHdr
    4959                    $C$DW$326       .dwtag  DW_TAG_variable
    4960                            .dwattr $C$DW$326, DW_AT_name("pHdr")
    4961                            .dwattr $C$DW$326, DW_AT_TI_symbol_name("pHdr")
    4962                            .dwattr $C$DW$326, DW_AT_type(*$C$DW$T$409)
    4963                            .dwattr $C$DW$326, DW_AT_location[DW_OP_reg7]
    4964                    
    4965                            .dwcfi  cfa_offset, 0
    4966 00000000 B5F8              PUSH      {A4, V1, V2, V3, V4, LR} ; [DPU_3_PIPE]  ; [ORIG 16-BIT INS]
    4967                            .dwcfi  cfa_offset, 24
    4968                            .dwcfi  save_reg_to_mem, 14, -4
    4969                            .dwcfi  save_reg_to_mem, 7, -8
    4970                            .dwcfi  save_reg_to_mem, 6, -12
    4971                            .dwcfi  save_reg_to_mem, 5, -16
    4972                            .dwcfi  save_reg_to_mem, 4, -20
    4973                            .dwcfi  save_reg_to_mem, 3, -24
    4974 00000002 4606              MOV       V3, A1                ; [DPU_3_PIPE] |917|  ; [ORIG 16-BIT INS]
    4975                            .dwpsn  file "../Application/MAC/OSAL/osal.c",line 922,column 3,is_stmt,isa 1
    4976 00000004 480D              LDR       A1, $C$CON87          ; [DPU_3_PIPE] |922|  ; [ORIG 16-BIT INS]
    4977 00000006 6800              LDR       A1, [A1, #0]          ; [DPU_3_PIPE] |922|  ; [ORIG 16-BIT INS]
    4978                            .dwpsn  file "../Application/MAC/OSAL/osal.c",line 917,column 1,is_stmt,isa 1
    4979 00000008 460D              MOV       V2, A2                ; [DPU_3_PIPE] |917|  ; [ORIG 16-BIT INS]
    4980                            .dwpsn  file "../Application/MAC/OSAL/osal.c",line 922,column 3,is_stmt,isa 1
    4981                    $C$DW$327       .dwtag  DW_TAG_TI_branch
    4982                            .dwattr $C$DW$327, DW_AT_low_pc(0x00)
    4983                            .dwattr $C$DW$327, DW_AT_TI_call
    4984                            .dwattr $C$DW$327, DW_AT_TI_indirect
    4985                    
    4986 0000000a 4780              BLX       A1                    ; [DPU_3_PIPE] |922|  ; [ORIG 16-BIT INS]
    4987                            ; CALL OCCURS {}                 ; [] |922| 
    4988                            .dwpsn  file "../Application/MAC/OSAL/osal.c",line 924,column 3,is_stmt,isa 1
    4989 0000000c 490C              LDR       A2, $C$CON88          ; [DPU_3_PIPE] |924|  ; [ORIG 16-BIT INS]
    4990 0000000e 680F              LDR       V4, [A2, #0]          ; [DPU_3_PIPE] |924|  ; [ORIG 16-BIT INS]
    4991                            .dwpsn  file "../Application/MAC/OSAL/osal.c",line 918,column 15,is_stmt,isa 1
    4992 00000010 2400              MOVS      V1, #0                ; [DPU_3_PIPE] |918|  ; [ORIG 16-BIT INS]
    4993 00000012 B177              CBZ       V4, ||$C$L72||        ; []  ; [ORIG 16-BIT INS]
    4994                            .dwpsn  file "../Application/MAC/OSAL/osal.c",line 927,column 10,is_stmt,isa 1
    4995                            ; BRANCHCC OCCURS {||$C$L72||}   ; [] |927| 
    4996                    ;* --------------------------------------------------------------------------*
    4997                    ;*   BEGIN LOOP ||$C$L69||
    4998                    ;*
    4999                    ;*   Loop source line                : 927
    5000                    ;*   Loop closing brace source line  : 936
    5001                    ;*   Known Minimum Trip Count        : 1
    5002                    ;*   Known Maximum Trip Count        : 4294967295
    5003                    ;*   Known Max Trip Count Factor     : 1
    5004                    ;* --------------------------------------------------------------------------*
    5005 00000014           ||$C$L69||:    
TI ARM Assembler PC v16.9.9 Sun Nov 25 16:40:48 2018

Tools Copyright (c) 1996-2017 Texas Instruments Incorporated
C:\Users\Stryd\AppData\Local\Temp\{8719FFD6-004A-4401-8DC3-4DA83C6CF1D8} PAGE   92

    5006                            .dwpsn  file "../Application/MAC/OSAL/osal.c",line 929,column 5,is_stmt,isa 1
    5007 00000014 1C02F817          LDRB      A2, [V4, #-2]         ; [DPU_3_PIPE] |929|  ; [KEEP 32-BIT INS]
    5008 00000018 428E              CMP       V3, A2                ; [DPU_3_PIPE] |929|  ; [ORIG 16-BIT INS]
    5009 0000001a D106              BNE       ||$C$L71||            ; [DPU_3_PIPE] |929|  ; [ORIG 16-BIT INS]
    5010                            ; BRANCHCC OCCURS {||$C$L71||}   ; [] |929| 
    5011                    ;* --------------------------------------------------------------------------*
    5012 0000001c 2DFF              CMP       V2, #255              ; [DPU_3_PIPE] |929|  ; [ORIG 16-BIT INS]
    5013 0000001e D002              BEQ       ||$C$L70||            ; [DPU_3_PIPE] |929|  ; [ORIG 16-BIT INS]
    5014                            ; BRANCHCC OCCURS {||$C$L70||}   ; [] |929| 
    5015                    ;* --------------------------------------------------------------------------*
    5016 00000020 7839              LDRB      A2, [V4, #0]          ; [DPU_3_PIPE] |929|  ; [ORIG 16-BIT INS]
    5017 00000022 428D              CMP       V2, A2                ; [DPU_3_PIPE] |929|  ; [ORIG 16-BIT INS]
    5018 00000024 D101              BNE       ||$C$L71||            ; [DPU_3_PIPE] |929|  ; [ORIG 16-BIT INS]
    5019                            ; BRANCHCC OCCURS {||$C$L71||}   ; [] |929| 
    5020                    ;* --------------------------------------------------------------------------*
    5021 00000026           ||$C$L70||:    
    5022                            .dwpsn  file "../Application/MAC/OSAL/osal.c",line 932,column 7,is_stmt,isa 1
    5023 00000026 1C64              ADDS      V1, V1, #1            ; [DPU_3_PIPE] |932|  ; [ORIG 16-BIT INS]
    5024 00000028 B2E4              UXTB      V1, V1                ; [DPU_3_PIPE] |932|  ; [ORIG 16-BIT INS]
    5025                    ;* --------------------------------------------------------------------------*
    5026 0000002a           ||$C$L71||:    
    5027                            .dwpsn  file "../Application/MAC/OSAL/osal.c",line 935,column 5,is_stmt,isa 1
    5028 0000002a 7C0CF857          LDR       V4, [V4, #-12]        ; [DPU_3_PIPE] |935|  ; [KEEP 32-BIT INS]
    5029                            .dwpsn  file "../Application/MAC/OSAL/osal.c",line 927,column 10,is_stmt,isa 1
    5030 0000002e 2F00              CMP       V4, #0                ; [DPU_3_PIPE] |927|  ; [ORIG 16-BIT INS]
    5031 00000030 D1F0              BNE       ||$C$L69||            ; [DPU_3_PIPE] |927|  ; [ORIG 16-BIT INS]
    5032                            ; BRANCHCC OCCURS {||$C$L69||}   ; [] |927| 
    5033                    ;* --------------------------------------------------------------------------*
    5034 00000032           ||$C$L72||:    
    5035                            .dwpsn  file "../Application/MAC/OSAL/osal.c",line 938,column 3,is_stmt,isa 1
    5036 00000032 4904              LDR       A2, $C$CON89          ; [DPU_3_PIPE] |938|  ; [ORIG 16-BIT INS]
    5037 00000034 6809              LDR       A2, [A2, #0]          ; [DPU_3_PIPE] |938|  ; [ORIG 16-BIT INS]
    5038                    $C$DW$328       .dwtag  DW_TAG_TI_branch
    5039                            .dwattr $C$DW$328, DW_AT_low_pc(0x00)
    5040                            .dwattr $C$DW$328, DW_AT_TI_call
    5041                            .dwattr $C$DW$328, DW_AT_TI_indirect
    5042                    
    5043 00000036 4788              BLX       A2                    ; [DPU_3_PIPE] |938|  ; [ORIG 16-BIT INS]
    5044                            ; CALL OCCURS {}                 ; [] |938| 
    5045                            .dwpsn  file "../Application/MAC/OSAL/osal.c",line 940,column 3,is_stmt,isa 1
    5046 00000038 4620              MOV       A1, V1                ; [DPU_3_PIPE] |940|  ; [ORIG 16-BIT INS]
    5047                    $C$DW$329       .dwtag  DW_TAG_TI_branch
    5048                            .dwattr $C$DW$329, DW_AT_low_pc(0x00)
    5049                            .dwattr $C$DW$329, DW_AT_TI_return
    5050                    
    5051 0000003a BDF8              POP       {A4, V1, V2, V3, V4, PC} ; [DPU_3_PIPE]  ; [ORIG 16-BIT INS]
    5052                            .dwcfi  cfa_offset, 0
    5053                            .dwcfi  restore_reg, 7
    5054                            .dwcfi  restore_reg, 6
    5055                            .dwcfi  restore_reg, 5
    5056                            .dwcfi  restore_reg, 4
    5057                            .dwcfi  restore_reg, 3
    5058                            ; BRANCH OCCURS                  ; [] 
    5059                            .dwattr $C$DW$320, DW_AT_TI_end_file("../Application/MAC/OSAL/osal.c")
    5060                            .dwattr $C$DW$320, DW_AT_TI_end_line(0x3ad)
TI ARM Assembler PC v16.9.9 Sun Nov 25 16:40:48 2018

Tools Copyright (c) 1996-2017 Texas Instruments Incorporated
C:\Users\Stryd\AppData\Local\Temp\{8719FFD6-004A-4401-8DC3-4DA83C6CF1D8} PAGE   93

    5061                            .dwattr $C$DW$320, DW_AT_TI_end_column(0x01)
    5062                            .dwendentry
    5063                            .dwendtag $C$DW$320
    5064                    
    5065 00000000                   .sect   ".text:osal_memset"
    5066                            .clink
    5067                            .thumbfunc osal_memset
    5068 00000000                   .thumb
    5069                            .global osal_memset
    5070                    
    5071                    $C$DW$330       .dwtag  DW_TAG_subprogram
    5072                            .dwattr $C$DW$330, DW_AT_name("osal_memset")
    5073                            .dwattr $C$DW$330, DW_AT_low_pc(osal_memset)
    5074                            .dwattr $C$DW$330, DW_AT_high_pc(0x00)
    5075                            .dwattr $C$DW$330, DW_AT_TI_symbol_name("osal_memset")
    5076                            .dwattr $C$DW$330, DW_AT_external
    5077                            .dwattr $C$DW$330, DW_AT_type(*$C$DW$T$3)
    5078                            .dwattr $C$DW$330, DW_AT_TI_begin_file("../Application/MAC/OSAL/osal.c")
    5079                            .dwattr $C$DW$330, DW_AT_TI_begin_line(0x15e)
    5080                            .dwattr $C$DW$330, DW_AT_TI_begin_column(0x07)
    5081                            .dwattr $C$DW$330, DW_AT_decl_file("../Application/MAC/OSAL/osal.c")
    5082                            .dwattr $C$DW$330, DW_AT_decl_line(0x15e)
    5083                            .dwattr $C$DW$330, DW_AT_decl_column(0x07)
    5084                            .dwattr $C$DW$330, DW_AT_TI_max_frame_size(0x00)
    5085                            .dwpsn  file "../Application/MAC/OSAL/osal.c",line 351,column 1,is_stmt,address osal_memset,is
    5086                    
    5087                            .dwfde $C$DW$CIE, osal_memset
    5088                    $C$DW$331       .dwtag  DW_TAG_formal_parameter
    5089                            .dwattr $C$DW$331, DW_AT_name("dest")
    5090                            .dwattr $C$DW$331, DW_AT_TI_symbol_name("dest")
    5091                            .dwattr $C$DW$331, DW_AT_type(*$C$DW$T$3)
    5092                            .dwattr $C$DW$331, DW_AT_location[DW_OP_reg0]
    5093                    
    5094                    $C$DW$332       .dwtag  DW_TAG_formal_parameter
    5095                            .dwattr $C$DW$332, DW_AT_name("value")
    5096                            .dwattr $C$DW$332, DW_AT_TI_symbol_name("value")
    5097                            .dwattr $C$DW$332, DW_AT_type(*$C$DW$T$10)
    5098                            .dwattr $C$DW$332, DW_AT_location[DW_OP_reg1]
    5099                    
    5100                    $C$DW$333       .dwtag  DW_TAG_formal_parameter
    5101                            .dwattr $C$DW$333, DW_AT_name("len")
    5102                            .dwattr $C$DW$333, DW_AT_TI_symbol_name("len")
    5103                            .dwattr $C$DW$333, DW_AT_type(*$C$DW$T$10)
    5104                            .dwattr $C$DW$333, DW_AT_location[DW_OP_reg2]
    5105                    
    5106                    
    5107                    ;*****************************************************************************
    5108                    ;* FUNCTION NAME: osal_memset                                                *
    5109                    ;*                                                                           *
    5110                    ;*   Regs Modified     : A1,A2,A3,A4,V9,LR,SR                                *
    5111                    ;*   Regs Used         : A1,A2,A3,A4,V9,SP,LR,SR                             *
    5112                    ;*   Local Frame Size  : 0 Args + 0 Auto + 0 Save = 0 byte                   *
    5113                    ;*****************************************************************************
    5114 00000000           osal_memset:
    5115                    ;* --------------------------------------------------------------------------*
TI ARM Assembler PC v16.9.9 Sun Nov 25 16:40:48 2018

Tools Copyright (c) 1996-2017 Texas Instruments Incorporated
C:\Users\Stryd\AppData\Local\Temp\{8719FFD6-004A-4401-8DC3-4DA83C6CF1D8} PAGE   94

    5116                            .dwcfi  cfa_offset, 0
    5117                            .dwpsn  file "../Application/MAC/OSAL/osal.c",line 352,column 3,is_stmt,isa 1
    5118                    $C$DW$334       .dwtag  DW_TAG_TI_branch
    5119                            .dwattr $C$DW$334, DW_AT_low_pc(0x00)
    5120                            .dwattr $C$DW$334, DW_AT_name("memset")
    5121                            .dwattr $C$DW$334, DW_AT_TI_call
    5122                            .dwattr $C$DW$334, DW_AT_TI_return
    5123                    
    5124 00000000 BFFEF7FF!         CRET      memset                ; [DPU_3_PIPE] |352|  ; [KEEP 32-BIT INS]
    5125                            ; CALL OCCURS {memset }          ; [] |352| 
    5126                            .dwattr $C$DW$330, DW_AT_TI_end_file("../Application/MAC/OSAL/osal.c")
    5127                            .dwattr $C$DW$330, DW_AT_TI_end_line(0x161)
    5128                            .dwattr $C$DW$330, DW_AT_TI_end_column(0x01)
    5129                            .dwendentry
    5130                            .dwendtag $C$DW$330
    5131                    
    5132 00000000                   .sect   ".text:osal_memcpy"
    5133                            .clink
    5134                            .thumbfunc osal_memcpy
    5135 00000000                   .thumb
    5136                            .global osal_memcpy
    5137                    
    5138                    $C$DW$335       .dwtag  DW_TAG_subprogram
    5139                            .dwattr $C$DW$335, DW_AT_name("osal_memcpy")
    5140                            .dwattr $C$DW$335, DW_AT_low_pc(osal_memcpy)
    5141                            .dwattr $C$DW$335, DW_AT_high_pc(0x00)
    5142                            .dwattr $C$DW$335, DW_AT_TI_symbol_name("osal_memcpy")
    5143                            .dwattr $C$DW$335, DW_AT_external
    5144                            .dwattr $C$DW$335, DW_AT_type(*$C$DW$T$3)
    5145                            .dwattr $C$DW$335, DW_AT_TI_begin_file("../Application/MAC/OSAL/osal.c")
    5146                            .dwattr $C$DW$335, DW_AT_TI_begin_line(0xec)
    5147                            .dwattr $C$DW$335, DW_AT_TI_begin_column(0x07)
    5148                            .dwattr $C$DW$335, DW_AT_decl_file("../Application/MAC/OSAL/osal.c")
    5149                            .dwattr $C$DW$335, DW_AT_decl_line(0xec)
    5150                            .dwattr $C$DW$335, DW_AT_decl_column(0x07)
    5151                            .dwattr $C$DW$335, DW_AT_TI_max_frame_size(0x00)
    5152                            .dwpsn  file "../Application/MAC/OSAL/osal.c",line 237,column 1,is_stmt,address osal_memcpy,is
    5153                    
    5154                            .dwfde $C$DW$CIE, osal_memcpy
    5155                    $C$DW$336       .dwtag  DW_TAG_formal_parameter
    5156                            .dwattr $C$DW$336, DW_AT_name("dst")
    5157                            .dwattr $C$DW$336, DW_AT_TI_symbol_name("dst")
    5158                            .dwattr $C$DW$336, DW_AT_type(*$C$DW$T$3)
    5159                            .dwattr $C$DW$336, DW_AT_location[DW_OP_reg0]
    5160                    
    5161                    $C$DW$337       .dwtag  DW_TAG_formal_parameter
    5162                            .dwattr $C$DW$337, DW_AT_name("src")
    5163                            .dwattr $C$DW$337, DW_AT_TI_symbol_name("src")
    5164                            .dwattr $C$DW$337, DW_AT_type(*$C$DW$T$167)
    5165                            .dwattr $C$DW$337, DW_AT_location[DW_OP_reg1]
    5166                    
    5167                    $C$DW$338       .dwtag  DW_TAG_formal_parameter
    5168                            .dwattr $C$DW$338, DW_AT_name("len")
    5169                            .dwattr $C$DW$338, DW_AT_TI_symbol_name("len")
    5170                            .dwattr $C$DW$338, DW_AT_type(*$C$DW$T$11)
TI ARM Assembler PC v16.9.9 Sun Nov 25 16:40:48 2018

Tools Copyright (c) 1996-2017 Texas Instruments Incorporated
C:\Users\Stryd\AppData\Local\Temp\{8719FFD6-004A-4401-8DC3-4DA83C6CF1D8} PAGE   95

    5171                            .dwattr $C$DW$338, DW_AT_location[DW_OP_reg2]
    5172                    
    5173                    
    5174                    ;*****************************************************************************
    5175                    ;* FUNCTION NAME: osal_memcpy                                                *
    5176                    ;*                                                                           *
    5177                    ;*   Regs Modified     : A1,A2,A3,A4,SR                                      *
    5178                    ;*   Regs Used         : A1,A2,A3,A4,LR,SR                                   *
    5179                    ;*   Local Frame Size  : 0 Args + 0 Auto + 0 Save = 0 byte                   *
    5180                    ;*****************************************************************************
    5181                    osal_memcpy:
    5182                    ;* --------------------------------------------------------------------------*
    5183                    ;* A1    assigned to len
    5184                    $C$DW$339       .dwtag  DW_TAG_variable
    5185                            .dwattr $C$DW$339, DW_AT_name("len")
    5186                            .dwattr $C$DW$339, DW_AT_TI_symbol_name("len")
    5187                            .dwattr $C$DW$339, DW_AT_type(*$C$DW$T$11)
    5188                            .dwattr $C$DW$339, DW_AT_location[DW_OP_reg0]
    5189                    
    5190                    ;* A3    assigned to pDst
    5191                    $C$DW$340       .dwtag  DW_TAG_variable
    5192                            .dwattr $C$DW$340, DW_AT_name("pDst")
    5193                            .dwattr $C$DW$340, DW_AT_TI_symbol_name("pDst")
    5194                            .dwattr $C$DW$340, DW_AT_type(*$C$DW$T$77)
    5195                            .dwattr $C$DW$340, DW_AT_location[DW_OP_reg2]
    5196                    
    5197                    ;* A2    assigned to pSrc
    5198                    $C$DW$341       .dwtag  DW_TAG_variable
    5199                            .dwattr $C$DW$341, DW_AT_name("pSrc")
    5200                            .dwattr $C$DW$341, DW_AT_TI_symbol_name("pSrc")
    5201                            .dwattr $C$DW$341, DW_AT_type(*$C$DW$T$299)
    5202                            .dwattr $C$DW$341, DW_AT_location[DW_OP_reg1]
    5203                    
    5204                            .dwcfi  cfa_offset, 0
    5205 00000000 4603              MOV       A4, A1                ; [DPU_3_PIPE] |237|  ; [ORIG 16-BIT INS]
    5206 00000002 4610              MOV       A1, A3                ; [DPU_3_PIPE] |237|  ; [ORIG 16-BIT INS]
    5207 00000004 461A              MOV       A3, A4                ; [DPU_3_PIPE] |237|  ; [ORIG 16-BIT INS]
    5208 00000006 B128              CBZ       A1, ||$C$L74||        ; []  ; [ORIG 16-BIT INS]
    5209                            .dwpsn  file "../Application/MAC/OSAL/osal.c",line 244,column 3,is_stmt,isa 1
    5210                            ; BRANCHCC OCCURS {||$C$L74||}   ; [] |244| 
    5211                    ;* --------------------------------------------------------------------------*
    5212                    ;*   BEGIN LOOP ||$C$L73||
    5213                    ;*
    5214                    ;*   Loop source line                : 244
    5215                    ;*   Loop closing brace source line  : 245
    5216                    ;*   Known Minimum Trip Count        : 1
    5217                    ;*   Known Maximum Trip Count        : 4294967295
    5218                    ;*   Known Max Trip Count Factor     : 1
    5219                    ;* --------------------------------------------------------------------------*
    5220 00000008           ||$C$L73||:    
    5221                            .dwpsn  file "../Application/MAC/OSAL/osal.c",line 245,column 5,is_stmt,isa 1
    5222 00000008 3B01F811          LDRB      A4, [A2], #1          ; [DPU_3_PIPE] |245|  ; [KEEP 32-BIT INS]
    5223                            .dwpsn  file "../Application/MAC/OSAL/osal.c",line 244,column 3,is_stmt,isa 1
    5224 0000000c 1E40              SUBS      A1, A1, #1            ; [DPU_3_PIPE] |244|  ; [ORIG 16-BIT INS]
    5225                            .dwpsn  file "../Application/MAC/OSAL/osal.c",line 245,column 5,is_stmt,isa 1
TI ARM Assembler PC v16.9.9 Sun Nov 25 16:40:48 2018

Tools Copyright (c) 1996-2017 Texas Instruments Incorporated
C:\Users\Stryd\AppData\Local\Temp\{8719FFD6-004A-4401-8DC3-4DA83C6CF1D8} PAGE   96

    5226 0000000e 3B01F802          STRB      A4, [A3], #1          ; [DPU_3_PIPE] |245|  ; [KEEP 32-BIT INS]
    5227                            .dwpsn  file "../Application/MAC/OSAL/osal.c",line 244,column 3,is_stmt,isa 1
    5228 00000012 D1F9              BNE       ||$C$L73||            ; [DPU_3_PIPE] |244|  ; [ORIG 16-BIT INS]
    5229                            ; BRANCHCC OCCURS {||$C$L73||}   ; [] |244| 
    5230                    ;* --------------------------------------------------------------------------*
    5231 00000014           ||$C$L74||:    
    5232                            .dwpsn  file "../Application/MAC/OSAL/osal.c",line 247,column 3,is_stmt,isa 1
    5233 00000014 4610              MOV       A1, A3                ; [DPU_3_PIPE] |247|  ; [ORIG 16-BIT INS]
    5234                    $C$DW$342       .dwtag  DW_TAG_TI_branch
    5235                            .dwattr $C$DW$342, DW_AT_low_pc(0x00)
    5236                            .dwattr $C$DW$342, DW_AT_TI_return
    5237                    
    5238 00000016 4770              BX        LR                    ; [DPU_3_PIPE]  ; [ORIG 16-BIT INS]
    5239                            ; BRANCH OCCURS                  ; [] 
    5240                            .dwattr $C$DW$335, DW_AT_TI_end_file("../Application/MAC/OSAL/osal.c")
    5241                            .dwattr $C$DW$335, DW_AT_TI_end_line(0xf8)
    5242                            .dwattr $C$DW$335, DW_AT_TI_end_column(0x01)
    5243                            .dwendentry
    5244                            .dwendtag $C$DW$335
    5245                    
    5246 00000000                   .sect   ".text:osal_memdup"
    5247                            .clink
    5248                            .thumbfunc osal_memdup
    5249 00000000                   .thumb
    5250                            .global osal_memdup
    5251                    
    5252                    $C$DW$343       .dwtag  DW_TAG_subprogram
    5253                            .dwattr $C$DW$343, DW_AT_name("osal_memdup")
    5254                            .dwattr $C$DW$343, DW_AT_low_pc(osal_memdup)
    5255                            .dwattr $C$DW$343, DW_AT_high_pc(0x00)
    5256                            .dwattr $C$DW$343, DW_AT_TI_symbol_name("osal_memdup")
    5257                            .dwattr $C$DW$343, DW_AT_external
    5258                            .dwattr $C$DW$343, DW_AT_type(*$C$DW$T$3)
    5259                            .dwattr $C$DW$343, DW_AT_TI_begin_file("../Application/MAC/OSAL/osal.c")
    5260                            .dwattr $C$DW$343, DW_AT_TI_begin_line(0x126)
    5261                            .dwattr $C$DW$343, DW_AT_TI_begin_column(0x07)
    5262                            .dwattr $C$DW$343, DW_AT_decl_file("../Application/MAC/OSAL/osal.c")
    5263                            .dwattr $C$DW$343, DW_AT_decl_line(0x126)
    5264                            .dwattr $C$DW$343, DW_AT_decl_column(0x07)
    5265                            .dwattr $C$DW$343, DW_AT_TI_max_frame_size(0x10)
    5266                            .dwpsn  file "../Application/MAC/OSAL/osal.c",line 295,column 1,is_stmt,address osal_memdup,is
    5267                    
    5268                            .dwfde $C$DW$CIE, osal_memdup
    5269                    $C$DW$344       .dwtag  DW_TAG_formal_parameter
    5270                            .dwattr $C$DW$344, DW_AT_name("src")
    5271                            .dwattr $C$DW$344, DW_AT_TI_symbol_name("src")
    5272                            .dwattr $C$DW$344, DW_AT_type(*$C$DW$T$167)
    5273                            .dwattr $C$DW$344, DW_AT_location[DW_OP_reg0]
    5274                    
    5275                    $C$DW$345       .dwtag  DW_TAG_formal_parameter
    5276                            .dwattr $C$DW$345, DW_AT_name("len")
    5277                            .dwattr $C$DW$345, DW_AT_TI_symbol_name("len")
    5278                            .dwattr $C$DW$345, DW_AT_type(*$C$DW$T$11)
    5279                            .dwattr $C$DW$345, DW_AT_location[DW_OP_reg1]
    5280                    
TI ARM Assembler PC v16.9.9 Sun Nov 25 16:40:48 2018

Tools Copyright (c) 1996-2017 Texas Instruments Incorporated
C:\Users\Stryd\AppData\Local\Temp\{8719FFD6-004A-4401-8DC3-4DA83C6CF1D8} PAGE   97

    5281                    
    5282                    ;*****************************************************************************
    5283                    ;* FUNCTION NAME: osal_memdup                                                *
    5284                    ;*                                                                           *
    5285                    ;*   Regs Modified     : A1,A2,A3,A4,V1,V2,V3,V9,SP,LR,SR                    *
    5286                    ;*   Regs Used         : A1,A2,A3,A4,V1,V2,V3,V9,SP,LR,SR                    *
    5287                    ;*   Local Frame Size  : 0 Args + 0 Auto + 16 Save = 16 byte                 *
    5288                    ;*****************************************************************************
    5289                    osal_memdup:
    5290                    ;* --------------------------------------------------------------------------*
    5291                    ;* V3    assigned to src
    5292                    $C$DW$346       .dwtag  DW_TAG_variable
    5293                            .dwattr $C$DW$346, DW_AT_name("src")
    5294                            .dwattr $C$DW$346, DW_AT_TI_symbol_name("src")
    5295                            .dwattr $C$DW$346, DW_AT_type(*$C$DW$T$225)
    5296                            .dwattr $C$DW$346, DW_AT_location[DW_OP_reg6]
    5297                    
    5298                    ;* V2    assigned to len
    5299                    $C$DW$347       .dwtag  DW_TAG_variable
    5300                            .dwattr $C$DW$347, DW_AT_name("len")
    5301                            .dwattr $C$DW$347, DW_AT_TI_symbol_name("len")
    5302                            .dwattr $C$DW$347, DW_AT_type(*$C$DW$T$367)
    5303                            .dwattr $C$DW$347, DW_AT_location[DW_OP_reg5]
    5304                    
    5305                    ;* V1    assigned to pDst
    5306                    $C$DW$348       .dwtag  DW_TAG_variable
    5307                            .dwattr $C$DW$348, DW_AT_name("pDst")
    5308                            .dwattr $C$DW$348, DW_AT_TI_symbol_name("pDst")
    5309                            .dwattr $C$DW$348, DW_AT_type(*$C$DW$T$77)
    5310                            .dwattr $C$DW$348, DW_AT_location[DW_OP_reg4]
    5311                    
    5312                            .dwcfi  cfa_offset, 0
    5313 00000000 B570              PUSH      {V1, V2, V3, LR}      ; [DPU_3_PIPE]  ; [ORIG 16-BIT INS]
    5314                            .dwcfi  cfa_offset, 16
    5315                            .dwcfi  save_reg_to_mem, 14, -4
    5316                            .dwcfi  save_reg_to_mem, 6, -8
    5317                            .dwcfi  save_reg_to_mem, 5, -12
    5318                            .dwcfi  save_reg_to_mem, 4, -16
    5319 00000002 460D              MOV       V2, A2                ; [DPU_3_PIPE] |295|  ; [ORIG 16-BIT INS]
    5320 00000004 4606              MOV       V3, A1                ; [DPU_3_PIPE] |295|  ; [ORIG 16-BIT INS]
    5321                            .dwpsn  file "../Application/MAC/OSAL/osal.c",line 298,column 3,is_stmt,isa 1
    5322 00000006 B2A8              UXTH      A1, V2                ; [DPU_3_PIPE] |298|  ; [ORIG 16-BIT INS]
    5323                    $C$DW$349       .dwtag  DW_TAG_TI_branch
    5324                            .dwattr $C$DW$349, DW_AT_low_pc(0x00)
    5325                            .dwattr $C$DW$349, DW_AT_name("osal_mem_alloc")
    5326                            .dwattr $C$DW$349, DW_AT_TI_call
    5327                    
    5328 00000008 FFFEF7FF!         BL        osal_mem_alloc        ; [DPU_3_PIPE] |298|  ; [KEEP 32-BIT INS]
    5329                            ; CALL OCCURS {osal_mem_alloc }  ; [] |298| 
    5330                            .dwpsn  file "../Application/MAC/OSAL/osal.c",line 299,column 3,is_stmt,isa 1
    5331 0000000c 1C04              MOVS      V1, A1                ; [DPU_3_PIPE] |299|  ; [ORIG 16-BIT INS]
    5332 0000000e D003              BEQ       ||$C$L75||            ; [DPU_3_PIPE] |299|  ; [ORIG 16-BIT INS]
    5333                            ; BRANCHCC OCCURS {||$C$L75||}   ; [] |299| 
    5334                    ;* --------------------------------------------------------------------------*
    5335                            .dwpsn  file "../Application/MAC/OSAL/osal.c",line 301,column 5,is_stmt,isa 1
TI ARM Assembler PC v16.9.9 Sun Nov 25 16:40:48 2018

Tools Copyright (c) 1996-2017 Texas Instruments Incorporated
C:\Users\Stryd\AppData\Local\Temp\{8719FFD6-004A-4401-8DC3-4DA83C6CF1D8} PAGE   98

    5336 00000010 4631              MOV       A2, V3                ; [DPU_3_PIPE] |301|  ; [ORIG 16-BIT INS]
    5337 00000012 462A              MOV       A3, V2                ; [DPU_3_PIPE] |301|  ; [ORIG 16-BIT INS]
    5338                    $C$DW$350       .dwtag  DW_TAG_TI_branch
    5339                            .dwattr $C$DW$350, DW_AT_low_pc(0x00)
    5340                            .dwattr $C$DW$350, DW_AT_name("osal_memcpy")
    5341                            .dwattr $C$DW$350, DW_AT_TI_call
    5342                    
    5343 00000014 FFFEF7FF!         BL        osal_memcpy           ; [DPU_3_PIPE] |301|  ; [KEEP 32-BIT INS]
    5344                            ; CALL OCCURS {osal_memcpy }     ; [] |301| 
    5345                    ;* --------------------------------------------------------------------------*
    5346 00000018           ||$C$L75||:    
    5347                            .dwpsn  file "../Application/MAC/OSAL/osal.c",line 304,column 3,is_stmt,isa 1
    5348 00000018 4620              MOV       A1, V1                ; [DPU_3_PIPE] |304|  ; [ORIG 16-BIT INS]
    5349                    $C$DW$351       .dwtag  DW_TAG_TI_branch
    5350                            .dwattr $C$DW$351, DW_AT_low_pc(0x00)
    5351                            .dwattr $C$DW$351, DW_AT_TI_return
    5352                    
    5353 0000001a BD70              POP       {V1, V2, V3, PC}      ; [DPU_3_PIPE]  ; [ORIG 16-BIT INS]
    5354                            .dwcfi  cfa_offset, 0
    5355                            .dwcfi  restore_reg, 6
    5356                            .dwcfi  restore_reg, 5
    5357                            .dwcfi  restore_reg, 4
    5358                            ; BRANCH OCCURS                  ; [] 
    5359                            .dwattr $C$DW$343, DW_AT_TI_end_file("../Application/MAC/OSAL/osal.c")
    5360                            .dwattr $C$DW$343, DW_AT_TI_end_line(0x131)
    5361                            .dwattr $C$DW$343, DW_AT_TI_end_column(0x01)
    5362                            .dwendentry
    5363                            .dwendtag $C$DW$343
    5364                    
    5365 00000000                   .sect   ".text:osal_memcmp"
    5366                            .clink
    5367                            .thumbfunc osal_memcmp
    5368 00000000                   .thumb
    5369                            .global osal_memcmp
    5370                    
    5371                    $C$DW$352       .dwtag  DW_TAG_subprogram
    5372                            .dwattr $C$DW$352, DW_AT_name("osal_memcmp")
    5373                            .dwattr $C$DW$352, DW_AT_low_pc(osal_memcmp)
    5374                            .dwattr $C$DW$352, DW_AT_high_pc(0x00)
    5375                            .dwattr $C$DW$352, DW_AT_TI_symbol_name("osal_memcmp")
    5376                            .dwattr $C$DW$352, DW_AT_external
    5377                            .dwattr $C$DW$352, DW_AT_type(*$C$DW$T$19)
    5378                            .dwattr $C$DW$352, DW_AT_TI_begin_file("../Application/MAC/OSAL/osal.c")
    5379                            .dwattr $C$DW$352, DW_AT_TI_begin_line(0x140)
    5380                            .dwattr $C$DW$352, DW_AT_TI_begin_column(0x07)
    5381                            .dwattr $C$DW$352, DW_AT_decl_file("../Application/MAC/OSAL/osal.c")
    5382                            .dwattr $C$DW$352, DW_AT_decl_line(0x140)
    5383                            .dwattr $C$DW$352, DW_AT_decl_column(0x07)
    5384                            .dwattr $C$DW$352, DW_AT_TI_max_frame_size(0x08)
    5385                            .dwpsn  file "../Application/MAC/OSAL/osal.c",line 321,column 1,is_stmt,address osal_memcmp,is
    5386                    
    5387                            .dwfde $C$DW$CIE, osal_memcmp
    5388                    $C$DW$353       .dwtag  DW_TAG_formal_parameter
    5389                            .dwattr $C$DW$353, DW_AT_name("src1")
    5390                            .dwattr $C$DW$353, DW_AT_TI_symbol_name("src1")
TI ARM Assembler PC v16.9.9 Sun Nov 25 16:40:48 2018

Tools Copyright (c) 1996-2017 Texas Instruments Incorporated
C:\Users\Stryd\AppData\Local\Temp\{8719FFD6-004A-4401-8DC3-4DA83C6CF1D8} PAGE   99

    5391                            .dwattr $C$DW$353, DW_AT_type(*$C$DW$T$167)
    5392                            .dwattr $C$DW$353, DW_AT_location[DW_OP_reg0]
    5393                    
    5394                    $C$DW$354       .dwtag  DW_TAG_formal_parameter
    5395                            .dwattr $C$DW$354, DW_AT_name("src2")
    5396                            .dwattr $C$DW$354, DW_AT_TI_symbol_name("src2")
    5397                            .dwattr $C$DW$354, DW_AT_type(*$C$DW$T$167)
    5398                            .dwattr $C$DW$354, DW_AT_location[DW_OP_reg1]
    5399                    
    5400                    $C$DW$355       .dwtag  DW_TAG_formal_parameter
    5401                            .dwattr $C$DW$355, DW_AT_name("len")
    5402                            .dwattr $C$DW$355, DW_AT_TI_symbol_name("len")
    5403                            .dwattr $C$DW$355, DW_AT_type(*$C$DW$T$11)
    5404                            .dwattr $C$DW$355, DW_AT_location[DW_OP_reg2]
    5405                    
    5406                    
    5407                    ;*****************************************************************************
    5408                    ;* FUNCTION NAME: osal_memcmp                                                *
    5409                    ;*                                                                           *
    5410                    ;*   Regs Modified     : A1,A2,A3,A4,V1,SP,SR                                *
    5411                    ;*   Regs Used         : A1,A2,A3,A4,V1,SP,LR,SR                             *
    5412                    ;*   Local Frame Size  : 0 Args + 0 Auto + 8 Save = 8 byte                   *
    5413                    ;*****************************************************************************
    5414                    osal_memcmp:
    5415                    ;* --------------------------------------------------------------------------*
    5416                    ;* A1    assigned to src1
    5417                    $C$DW$356       .dwtag  DW_TAG_variable
    5418                            .dwattr $C$DW$356, DW_AT_name("src1")
    5419                            .dwattr $C$DW$356, DW_AT_TI_symbol_name("src1")
    5420                            .dwattr $C$DW$356, DW_AT_type(*$C$DW$T$225)
    5421                            .dwattr $C$DW$356, DW_AT_location[DW_OP_reg0]
    5422                    
    5423                    ;* A2    assigned to src2
    5424                    $C$DW$357       .dwtag  DW_TAG_variable
    5425                            .dwattr $C$DW$357, DW_AT_name("src2")
    5426                            .dwattr $C$DW$357, DW_AT_TI_symbol_name("src2")
    5427                            .dwattr $C$DW$357, DW_AT_type(*$C$DW$T$225)
    5428                            .dwattr $C$DW$357, DW_AT_location[DW_OP_reg1]
    5429                    
    5430                    ;* A3    assigned to len
    5431                    $C$DW$358       .dwtag  DW_TAG_variable
    5432                            .dwattr $C$DW$358, DW_AT_name("len")
    5433                            .dwattr $C$DW$358, DW_AT_TI_symbol_name("len")
    5434                            .dwattr $C$DW$358, DW_AT_type(*$C$DW$T$11)
    5435                            .dwattr $C$DW$358, DW_AT_location[DW_OP_reg2]
    5436                    
    5437                    ;* A1    assigned to pSrc1
    5438                    $C$DW$359       .dwtag  DW_TAG_variable
    5439                            .dwattr $C$DW$359, DW_AT_name("pSrc1")
    5440                            .dwattr $C$DW$359, DW_AT_TI_symbol_name("pSrc1")
    5441                            .dwattr $C$DW$359, DW_AT_type(*$C$DW$T$299)
    5442                            .dwattr $C$DW$359, DW_AT_location[DW_OP_reg0]
    5443                    
    5444                    ;* A2    assigned to pSrc2
    5445                    $C$DW$360       .dwtag  DW_TAG_variable
TI ARM Assembler PC v16.9.9 Sun Nov 25 16:40:48 2018

Tools Copyright (c) 1996-2017 Texas Instruments Incorporated
C:\Users\Stryd\AppData\Local\Temp\{8719FFD6-004A-4401-8DC3-4DA83C6CF1D8} PAGE  100

    5446                            .dwattr $C$DW$360, DW_AT_name("pSrc2")
    5447                            .dwattr $C$DW$360, DW_AT_TI_symbol_name("pSrc2")
    5448                            .dwattr $C$DW$360, DW_AT_type(*$C$DW$T$299)
    5449                            .dwattr $C$DW$360, DW_AT_location[DW_OP_reg1]
    5450                    
    5451                            .dwcfi  cfa_offset, 0
    5452 00000000 B510              PUSH      {V1, LR}              ; [DPU_3_PIPE]  ; [ORIG 16-BIT INS]
    5453                            .dwcfi  cfa_offset, 8
    5454                            .dwcfi  save_reg_to_mem, 14, -4
    5455                            .dwcfi  save_reg_to_mem, 4, -8
    5456                            .dwpsn  file "../Application/MAC/OSAL/osal.c",line 325,column 3,is_stmt,isa 1
    5457 00000002 1E40              SUBS      A1, A1, #1            ; [DPU_3_PIPE] |325|  ; [ORIG 16-BIT INS]
    5458                            .dwpsn  file "../Application/MAC/OSAL/osal.c",line 326,column 3,is_stmt,isa 1
    5459 00000004 1E49              SUBS      A2, A2, #1            ; [DPU_3_PIPE] |326|  ; [ORIG 16-BIT INS]
    5460 00000006 B14A              CBZ       A3, ||$C$L77||        ; []  ; [ORIG 16-BIT INS]
    5461                            .dwpsn  file "../Application/MAC/OSAL/osal.c",line 328,column 3,is_stmt,isa 1
    5462                            ; BRANCHCC OCCURS {||$C$L77||}   ; [] |328| 
    5463                    ;* --------------------------------------------------------------------------*
    5464                    ;*   BEGIN LOOP ||$C$L76||
    5465                    ;*
    5466                    ;*   Loop source line                : 328
    5467                    ;*   Loop closing brace source line  : 332
    5468                    ;*   Known Minimum Trip Count        : 1
    5469                    ;*   Known Maximum Trip Count        : 4294967295
    5470                    ;*   Known Max Trip Count Factor     : 1
    5471                    ;* --------------------------------------------------------------------------*
    5472 00000008           ||$C$L76||:    
    5473                            .dwpsn  file "../Application/MAC/OSAL/osal.c",line 330,column 5,is_stmt,isa 1
    5474 00000008 3F01F811          LDRB      A4, [A2, #1]!         ; [DPU_3_PIPE] |330|  ; [KEEP 32-BIT INS]
    5475 0000000c 4F01F810          LDRB      V1, [A1, #1]!         ; [DPU_3_PIPE] |330|  ; [KEEP 32-BIT INS]
    5476 00000010 42A3              CMP       A4, V1                ; [DPU_3_PIPE] |330|  ; [ORIG 16-BIT INS]
    5477 00000012 BF18              IT        NE                    ; [DPU_3_PIPE]  ; [ORIG 16-BIT INS]
    5478                            .dwpsn  file "../Application/MAC/OSAL/osal.c",line 331,column 7,is_stmt,isa 1
    5479 00000014 2000              MOVNE     A1, #0                ; [DPU_3_PIPE] |331|  ; [ORIG 16-BIT INS]
    5480 00000016 D102              BNE       ||$C$L78||            ; [DPU_3_PIPE] |331|  ; [ORIG 16-BIT INS]
    5481                            ; BRANCHCC OCCURS {||$C$L78||}   ; [] |331| 
    5482                    ;* --------------------------------------------------------------------------*
    5483                            .dwpsn  file "../Application/MAC/OSAL/osal.c",line 328,column 3,is_stmt,isa 1
    5484 00000018 1E52              SUBS      A3, A3, #1            ; [DPU_3_PIPE] |328|  ; [ORIG 16-BIT INS]
    5485 0000001a D1F5              BNE       ||$C$L76||            ; [DPU_3_PIPE] |328|  ; [ORIG 16-BIT INS]
    5486                            ; BRANCHCC OCCURS {||$C$L76||}   ; [] |328| 
    5487                    ;* --------------------------------------------------------------------------*
    5488 0000001c           ||$C$L77||:    
    5489                            .dwpsn  file "../Application/MAC/OSAL/osal.c",line 333,column 3,is_stmt,isa 1
    5490 0000001c 2001              MOVS      A1, #1                ; [DPU_3_PIPE] |333|  ; [ORIG 16-BIT INS]
    5491                    ;* --------------------------------------------------------------------------*
    5492                    ||$C$L78||:    
    5493                    $C$DW$361       .dwtag  DW_TAG_TI_branch
    5494                            .dwattr $C$DW$361, DW_AT_low_pc(0x00)
    5495                            .dwattr $C$DW$361, DW_AT_TI_return
    5496                    
    5497 0000001e BD10              POP       {V1, PC}              ; [DPU_3_PIPE]  ; [ORIG 16-BIT INS]
    5498                            .dwcfi  cfa_offset, 0
    5499                            .dwcfi  restore_reg, 4
    5500                            ; BRANCH OCCURS                  ; [] 
TI ARM Assembler PC v16.9.9 Sun Nov 25 16:40:48 2018

Tools Copyright (c) 1996-2017 Texas Instruments Incorporated
C:\Users\Stryd\AppData\Local\Temp\{8719FFD6-004A-4401-8DC3-4DA83C6CF1D8} PAGE  101

    5501                            .dwattr $C$DW$352, DW_AT_TI_end_file("../Application/MAC/OSAL/osal.c")
    5502                            .dwattr $C$DW$352, DW_AT_TI_end_line(0x14e)
    5503                            .dwattr $C$DW$352, DW_AT_TI_end_column(0x01)
    5504                            .dwendentry
    5505                            .dwendtag $C$DW$352
    5506                    
    5507 00000000                   .sect   ".text:osal_isr_register"
    5508                            .clink
    5509                            .thumbfunc osal_isr_register
    5510 00000000                   .thumb
    5511                            .global osal_isr_register
    5512                    
    5513                    $C$DW$362       .dwtag  DW_TAG_subprogram
    5514                            .dwattr $C$DW$362, DW_AT_name("osal_isr_register")
    5515                            .dwattr $C$DW$362, DW_AT_low_pc(osal_isr_register)
    5516                            .dwattr $C$DW$362, DW_AT_high_pc(0x00)
    5517                            .dwattr $C$DW$362, DW_AT_TI_symbol_name("osal_isr_register")
    5518                            .dwattr $C$DW$362, DW_AT_external
    5519                            .dwattr $C$DW$362, DW_AT_type(*$C$DW$T$19)
    5520                            .dwattr $C$DW$362, DW_AT_TI_begin_file("../Application/MAC/OSAL/osal.c")
    5521                            .dwattr $C$DW$362, DW_AT_TI_begin_line(0x4f8)
    5522                            .dwattr $C$DW$362, DW_AT_TI_begin_column(0x07)
    5523                            .dwattr $C$DW$362, DW_AT_decl_file("../Application/MAC/OSAL/osal.c")
    5524                            .dwattr $C$DW$362, DW_AT_decl_line(0x4f8)
    5525                            .dwattr $C$DW$362, DW_AT_decl_column(0x07)
    5526                            .dwattr $C$DW$362, DW_AT_TI_max_frame_size(0x00)
    5527                            .dwpsn  file "../Application/MAC/OSAL/osal.c",line 1273,column 1,is_stmt,address osal_isr_regi
    5528                    
    5529                            .dwfde $C$DW$CIE, osal_isr_register
    5530                    $C$DW$363       .dwtag  DW_TAG_formal_parameter
    5531                            .dwattr $C$DW$363, DW_AT_name("interrupt_id")
    5532                            .dwattr $C$DW$363, DW_AT_TI_symbol_name("interrupt_id")
    5533                            .dwattr $C$DW$363, DW_AT_type(*$C$DW$T$10)
    5534                            .dwattr $C$DW$363, DW_AT_location[DW_OP_reg0]
    5535                    
    5536                    $C$DW$364       .dwtag  DW_TAG_formal_parameter
    5537                            .dwattr $C$DW$364, DW_AT_name("isr_ptr")
    5538                            .dwattr $C$DW$364, DW_AT_TI_symbol_name("isr_ptr")
    5539                            .dwattr $C$DW$364, DW_AT_type(*$C$DW$T$236)
    5540                            .dwattr $C$DW$364, DW_AT_location[DW_OP_reg1]
    5541                    
    5542                    
    5543                    ;*****************************************************************************
    5544                    ;* FUNCTION NAME: osal_isr_register                                          *
    5545                    ;*                                                                           *
    5546                    ;*   Regs Modified     : A1,SR                                               *
    5547                    ;*   Regs Used         : A1,LR,SR                                            *
    5548                    ;*   Local Frame Size  : 0 Args + 0 Auto + 0 Save = 0 byte                   *
    5549                    ;*****************************************************************************
    5550 00000000           osal_isr_register:
    5551                    ;* --------------------------------------------------------------------------*
    5552                            .dwcfi  cfa_offset, 0
    5553                            .dwpsn  file "../Application/MAC/OSAL/osal.c",line 1277,column 3,is_stmt,isa 1
    5554 00000000 2000              MOVS      A1, #0                ; [DPU_3_PIPE] |1277|  ; [ORIG 16-BIT INS]
    5555                    $C$DW$365       .dwtag  DW_TAG_TI_branch
TI ARM Assembler PC v16.9.9 Sun Nov 25 16:40:48 2018

Tools Copyright (c) 1996-2017 Texas Instruments Incorporated
C:\Users\Stryd\AppData\Local\Temp\{8719FFD6-004A-4401-8DC3-4DA83C6CF1D8} PAGE  102

    5556                            .dwattr $C$DW$365, DW_AT_low_pc(0x00)
    5557                            .dwattr $C$DW$365, DW_AT_TI_return
    5558                    
    5559 00000002 4770              BX        LR                    ; [DPU_3_PIPE]  ; [ORIG 16-BIT INS]
    5560                            ; BRANCH OCCURS                  ; [] 
    5561                            .dwattr $C$DW$362, DW_AT_TI_end_file("../Application/MAC/OSAL/osal.c")
    5562                            .dwattr $C$DW$362, DW_AT_TI_end_line(0x4fe)
    5563                            .dwattr $C$DW$362, DW_AT_TI_end_column(0x01)
    5564                            .dwendentry
    5565                            .dwendtag $C$DW$362
    5566                    
    5567 00000000                   .sect   ".text:osal_isbufset"
    5568                            .clink
    5569                            .thumbfunc osal_isbufset
    5570 00000000                   .thumb
    5571                            .global osal_isbufset
    5572                    
    5573                    $C$DW$366       .dwtag  DW_TAG_subprogram
    5574                            .dwattr $C$DW$366, DW_AT_name("osal_isbufset")
    5575                            .dwattr $C$DW$366, DW_AT_low_pc(osal_isbufset)
    5576                            .dwattr $C$DW$366, DW_AT_high_pc(0x00)
    5577                            .dwattr $C$DW$366, DW_AT_TI_symbol_name("osal_isbufset")
    5578                            .dwattr $C$DW$366, DW_AT_external
    5579                            .dwattr $C$DW$366, DW_AT_type(*$C$DW$T$19)
    5580                            .dwattr $C$DW$366, DW_AT_TI_begin_file("../Application/MAC/OSAL/osal.c")
    5581                            .dwattr $C$DW$366, DW_AT_TI_begin_line(0x76c)
    5582                            .dwattr $C$DW$366, DW_AT_TI_begin_column(0x07)
    5583                            .dwattr $C$DW$366, DW_AT_decl_file("../Application/MAC/OSAL/osal.c")
    5584                            .dwattr $C$DW$366, DW_AT_decl_line(0x76c)
    5585                            .dwattr $C$DW$366, DW_AT_decl_column(0x07)
    5586                            .dwattr $C$DW$366, DW_AT_TI_max_frame_size(0x00)
    5587                            .dwpsn  file "../Application/MAC/OSAL/osal.c",line 1901,column 1,is_stmt,address osal_isbufset
    5588                    
    5589                            .dwfde $C$DW$CIE, osal_isbufset
    5590                    $C$DW$367       .dwtag  DW_TAG_formal_parameter
    5591                            .dwattr $C$DW$367, DW_AT_name("buf")
    5592                            .dwattr $C$DW$367, DW_AT_TI_symbol_name("buf")
    5593                            .dwattr $C$DW$367, DW_AT_type(*$C$DW$T$77)
    5594                            .dwattr $C$DW$367, DW_AT_location[DW_OP_reg0]
    5595                    
    5596                    $C$DW$368       .dwtag  DW_TAG_formal_parameter
    5597                            .dwattr $C$DW$368, DW_AT_name("val")
    5598                            .dwattr $C$DW$368, DW_AT_TI_symbol_name("val")
    5599                            .dwattr $C$DW$368, DW_AT_type(*$C$DW$T$10)
    5600                            .dwattr $C$DW$368, DW_AT_location[DW_OP_reg1]
    5601                    
    5602                    $C$DW$369       .dwtag  DW_TAG_formal_parameter
    5603                            .dwattr $C$DW$369, DW_AT_name("len")
    5604                            .dwattr $C$DW$369, DW_AT_TI_symbol_name("len")
    5605                            .dwattr $C$DW$369, DW_AT_type(*$C$DW$T$10)
    5606                            .dwattr $C$DW$369, DW_AT_location[DW_OP_reg2]
    5607                    
    5608                    
    5609                    ;*****************************************************************************
    5610                    ;* FUNCTION NAME: osal_isbufset                                              *
TI ARM Assembler PC v16.9.9 Sun Nov 25 16:40:48 2018

Tools Copyright (c) 1996-2017 Texas Instruments Incorporated
C:\Users\Stryd\AppData\Local\Temp\{8719FFD6-004A-4401-8DC3-4DA83C6CF1D8} PAGE  103

    5611                    ;*                                                                           *
    5612                    ;*   Regs Modified     : A1,A3,A4,SR                                         *
    5613                    ;*   Regs Used         : A1,A2,A3,A4,LR,SR                                   *
    5614                    ;*   Local Frame Size  : 0 Args + 0 Auto + 0 Save = 0 byte                   *
    5615                    ;*****************************************************************************
    5616                    osal_isbufset:
    5617                    ;* --------------------------------------------------------------------------*
    5618                    ;* A1    assigned to $O$U10
    5619                    ;* A3    assigned to $O$L1
    5620                    ;* A1    assigned to buf
    5621                    $C$DW$370       .dwtag  DW_TAG_variable
    5622                            .dwattr $C$DW$370, DW_AT_name("buf")
    5623                            .dwattr $C$DW$370, DW_AT_TI_symbol_name("buf")
    5624                            .dwattr $C$DW$370, DW_AT_type(*$C$DW$T$284)
    5625                            .dwattr $C$DW$370, DW_AT_location[DW_OP_reg0]
    5626                    
    5627                    ;* A2    assigned to val
    5628                    $C$DW$371       .dwtag  DW_TAG_variable
    5629                            .dwattr $C$DW$371, DW_AT_name("val")
    5630                            .dwattr $C$DW$371, DW_AT_TI_symbol_name("val")
    5631                            .dwattr $C$DW$371, DW_AT_type(*$C$DW$T$298)
    5632                            .dwattr $C$DW$371, DW_AT_location[DW_OP_reg1]
    5633                    
    5634                    ;* A3    assigned to len
    5635                    $C$DW$372       .dwtag  DW_TAG_variable
    5636                            .dwattr $C$DW$372, DW_AT_name("len")
    5637                            .dwattr $C$DW$372, DW_AT_TI_symbol_name("len")
    5638                            .dwattr $C$DW$372, DW_AT_type(*$C$DW$T$298)
    5639                            .dwattr $C$DW$372, DW_AT_location[DW_OP_reg2]
    5640                    
    5641                            .dwcfi  cfa_offset, 0
    5642 00000000 B128              CBZ       A1, ||$C$L80||        ; []  ; [ORIG 16-BIT INS]
    5643                            .dwpsn  file "../Application/MAC/OSAL/osal.c",line 1904,column 3,is_stmt,isa 1
    5644                            ; BRANCHCC OCCURS {||$C$L80||}   ; [] |1904| 
    5645                    ;* --------------------------------------------------------------------------*
    5646 00000002 B142              CBZ       A3, ||$C$L82||        ; []  ; [ORIG 16-BIT INS]
    5647                            .dwpsn  file "../Application/MAC/OSAL/osal.c",line 1909,column 16,is_stmt,isa 1
    5648                            ; BRANCHCC OCCURS {||$C$L82||}   ; [] |1909| 
    5649                    ;* --------------------------------------------------------------------------*
    5650 00000004 1E40              SUBS      A1, A1, #1            ; [DPU_3_PIPE]  ; [ORIG 16-BIT INS]
    5651                    ;* --------------------------------------------------------------------------*
    5652                    ;*   BEGIN LOOP ||$C$L79||
    5653                    ;*
    5654                    ;*   Loop source line                : 1909
    5655                    ;*   Loop closing brace source line  : 1916
    5656                    ;*   Known Minimum Trip Count        : 1
    5657                    ;*   Known Maximum Trip Count        : 255
    5658                    ;*   Known Max Trip Count Factor     : 1
    5659                    ;* --------------------------------------------------------------------------*
    5660 00000006           ||$C$L79||:    
    5661                            .dwpsn  file "../Application/MAC/OSAL/osal.c",line 1912,column 5,is_stmt,isa 1
    5662 00000006 3F01F810          LDRB      A4, [A1, #1]!         ; [DPU_3_PIPE] |1912|  ; [KEEP 32-BIT INS]
    5663 0000000a 4299              CMP       A2, A4                ; [DPU_3_PIPE] |1912|  ; [ORIG 16-BIT INS]
    5664 0000000c D001              BEQ       ||$C$L81||            ; [DPU_3_PIPE] |1912|  ; [ORIG 16-BIT INS]
    5665                            ; BRANCHCC OCCURS {||$C$L81||}   ; [] |1912| 
TI ARM Assembler PC v16.9.9 Sun Nov 25 16:40:48 2018

Tools Copyright (c) 1996-2017 Texas Instruments Incorporated
C:\Users\Stryd\AppData\Local\Temp\{8719FFD6-004A-4401-8DC3-4DA83C6CF1D8} PAGE  104

    5666                    ;* --------------------------------------------------------------------------*
    5667 0000000e           ||$C$L80||:    
    5668                            .dwcfi  remember_state
    5669                            .dwpsn  file "../Application/MAC/OSAL/osal.c",line 1914,column 7,is_stmt,isa 1
    5670 0000000e 2000              MOVS      A1, #0                ; [DPU_3_PIPE] |1914|  ; [ORIG 16-BIT INS]
    5671                    $C$DW$373       .dwtag  DW_TAG_TI_branch
    5672                            .dwattr $C$DW$373, DW_AT_low_pc(0x00)
    5673                            .dwattr $C$DW$373, DW_AT_TI_return
    5674                    
    5675 00000010 4770              BX        LR                    ; [DPU_3_PIPE]  ; [ORIG 16-BIT INS]
    5676                            ; BRANCH OCCURS                  ; [] 
    5677                            .dwcfi  restore_state
    5678                    ;* --------------------------------------------------------------------------*
    5679 00000012           ||$C$L81||:    
    5680                            .dwpsn  file "../Application/MAC/OSAL/osal.c",line 1909,column 25,is_stmt,isa 1
    5681 00000012 1E52              SUBS      A3, A3, #1            ; [DPU_3_PIPE] |1909|  ; [ORIG 16-BIT INS]
    5682 00000014 D1F7              BNE       ||$C$L79||            ; [DPU_3_PIPE] |1909|  ; [ORIG 16-BIT INS]
    5683                            ; BRANCHCC OCCURS {||$C$L79||}   ; [] |1909| 
    5684                    ;* --------------------------------------------------------------------------*
    5685 00000016           ||$C$L82||:    
    5686                            .dwpsn  file "../Application/MAC/OSAL/osal.c",line 1917,column 3,is_stmt,isa 1
    5687 00000016 2001              MOVS      A1, #1                ; [DPU_3_PIPE] |1917|  ; [ORIG 16-BIT INS]
    5688                    ;* --------------------------------------------------------------------------*
    5689                    $C$DW$374       .dwtag  DW_TAG_TI_branch
    5690                            .dwattr $C$DW$374, DW_AT_low_pc(0x00)
    5691                            .dwattr $C$DW$374, DW_AT_TI_return
    5692                    
    5693 00000018 4770              BX        LR                    ; [DPU_3_PIPE]  ; [ORIG 16-BIT INS]
    5694                            ; BRANCH OCCURS                  ; [] 
    5695                            .dwattr $C$DW$366, DW_AT_TI_end_file("../Application/MAC/OSAL/osal.c")
    5696                            .dwattr $C$DW$366, DW_AT_TI_end_line(0x77e)
    5697                            .dwattr $C$DW$366, DW_AT_TI_end_column(0x01)
    5698                            .dwendentry
    5699                            .dwendtag $C$DW$366
    5700                    
    5701 00000000                   .sect   ".text:osal_int_enable"
    5702                            .clink
    5703                            .thumbfunc osal_int_enable
    5704 00000000                   .thumb
    5705                            .global osal_int_enable
    5706                    
    5707                    $C$DW$375       .dwtag  DW_TAG_subprogram
    5708                            .dwattr $C$DW$375, DW_AT_name("osal_int_enable")
    5709                            .dwattr $C$DW$375, DW_AT_low_pc(osal_int_enable)
    5710                            .dwattr $C$DW$375, DW_AT_high_pc(0x00)
    5711                            .dwattr $C$DW$375, DW_AT_TI_symbol_name("osal_int_enable")
    5712                            .dwattr $C$DW$375, DW_AT_external
    5713                            .dwattr $C$DW$375, DW_AT_type(*$C$DW$T$19)
    5714                            .dwattr $C$DW$375, DW_AT_TI_begin_file("../Application/MAC/OSAL/osal.c")
    5715                            .dwattr $C$DW$375, DW_AT_TI_begin_line(0x511)
    5716                            .dwattr $C$DW$375, DW_AT_TI_begin_column(0x07)
    5717                            .dwattr $C$DW$375, DW_AT_decl_file("../Application/MAC/OSAL/osal.c")
    5718                            .dwattr $C$DW$375, DW_AT_decl_line(0x511)
    5719                            .dwattr $C$DW$375, DW_AT_decl_column(0x07)
    5720                            .dwattr $C$DW$375, DW_AT_TI_max_frame_size(0x08)
TI ARM Assembler PC v16.9.9 Sun Nov 25 16:40:48 2018

Tools Copyright (c) 1996-2017 Texas Instruments Incorporated
C:\Users\Stryd\AppData\Local\Temp\{8719FFD6-004A-4401-8DC3-4DA83C6CF1D8} PAGE  105

    5721                            .dwpsn  file "../Application/MAC/OSAL/osal.c",line 1298,column 1,is_stmt,address osal_int_enab
    5722                    
    5723                            .dwfde $C$DW$CIE, osal_int_enable
    5724                    $C$DW$376       .dwtag  DW_TAG_formal_parameter
    5725                            .dwattr $C$DW$376, DW_AT_name("interrupt_id")
    5726                            .dwattr $C$DW$376, DW_AT_TI_symbol_name("interrupt_id")
    5727                            .dwattr $C$DW$376, DW_AT_type(*$C$DW$T$10)
    5728                            .dwattr $C$DW$376, DW_AT_location[DW_OP_reg0]
    5729                    
    5730                    
    5731                    ;*****************************************************************************
    5732                    ;* FUNCTION NAME: osal_int_enable                                            *
    5733                    ;*                                                                           *
    5734                    ;*   Regs Modified     : A1,A2,A3,A4,V9,SP,LR,SR                             *
    5735                    ;*   Regs Used         : A1,A2,A3,A4,V9,SP,LR,SR                             *
    5736                    ;*   Local Frame Size  : 0 Args + 4 Auto + 4 Save = 8 byte                   *
    5737                    ;*****************************************************************************
    5738                    osal_int_enable:
    5739                    ;* --------------------------------------------------------------------------*
    5740                    $C$DW$377       .dwtag  DW_TAG_variable
    5741                            .dwattr $C$DW$377, DW_AT_name("args")
    5742                            .dwattr $C$DW$377, DW_AT_TI_symbol_name("args")
    5743                            .dwattr $C$DW$377, DW_AT_type(*$C$DW$T$101)
    5744                            .dwattr $C$DW$377, DW_AT_location[DW_OP_breg13 0]
    5745                    
    5746                    ;* A1    assigned to interrupt_id
    5747                    $C$DW$378       .dwtag  DW_TAG_variable
    5748                            .dwattr $C$DW$378, DW_AT_name("interrupt_id")
    5749                            .dwattr $C$DW$378, DW_AT_TI_symbol_name("interrupt_id")
    5750                            .dwattr $C$DW$378, DW_AT_type(*$C$DW$T$298)
    5751                            .dwattr $C$DW$378, DW_AT_location[DW_OP_reg0]
    5752                    
    5753                            .dwcfi  cfa_offset, 0
    5754                            .dwpsn  file "../Application/MAC/OSAL/osal.c",line 1300,column 3,is_stmt,isa 1
    5755 00000000 28FF              CMP       A1, #255              ; [DPU_3_PIPE] |1300|  ; [ORIG 16-BIT INS]
    5756 00000002 B508              PUSH      {A4, LR}              ; [DPU_3_PIPE]  ; [ORIG 16-BIT INS]
    5757                            .dwcfi  cfa_offset, 8
    5758                            .dwcfi  save_reg_to_mem, 14, -4
    5759                            .dwcfi  save_reg_to_mem, 3, -8
    5760 00000004 D10B              BNE       ||$C$L83||            ; [DPU_3_PIPE] |1300|  ; [ORIG 16-BIT INS]
    5761                            ; BRANCHCC OCCURS {||$C$L83||}   ; [] |1300| 
    5762                    ;* --------------------------------------------------------------------------*
    5763                            .dwcfi  remember_state
    5764                            .dwpsn  file "C:/ti/simplelink_cc13x0_sdk_2_30_00_20/source/ti/ti154stack/icall/src/inc/icall.
    5765 00000006 4A07              LDR       A3, $C$CON90          ; [DPU_3_PIPE] |2168|  ; [ORIG 16-BIT INS]
    5766                            .dwpsn  file "C:/ti/simplelink_cc13x0_sdk_2_30_00_20/source/ti/ti154stack/icall/src/inc/icall.
    5767 00000008 2008              MOVS      A1, #8                ; [DPU_3_PIPE] |2166|  ; [ORIG 16-BIT INS]
    5768                            .dwpsn  file "C:/ti/simplelink_cc13x0_sdk_2_30_00_20/source/ti/ti154stack/icall/src/inc/icall.
    5769 0000000a 230F              MOVS      A4, #15               ; [DPU_3_PIPE] |2167|  ; [ORIG 16-BIT INS]
    5770                            .dwpsn  file "C:/ti/simplelink_cc13x0_sdk_2_30_00_20/source/ti/ti154stack/icall/src/inc/icall.
    5771 0000000c 0000F8AD          STRH      A1, [SP, #0]          ; [DPU_3_PIPE] |2166|  ; [KEEP 32-BIT INS]
    5772                            .dwpsn  file "C:/ti/simplelink_cc13x0_sdk_2_30_00_20/source/ti/ti154stack/icall/src/inc/icall.
    5773 00000010 6811              LDR       A2, [A3, #0]          ; [DPU_3_PIPE] |2168|  ; [ORIG 16-BIT INS]
    5774                            .dwpsn  file "C:/ti/simplelink_cc13x0_sdk_2_30_00_20/source/ti/ti154stack/icall/src/inc/icall.
    5775 00000012 3002F8AD          STRH      A4, [SP, #2]          ; [DPU_3_PIPE] |2167|  ; [KEEP 32-BIT INS]
TI ARM Assembler PC v16.9.9 Sun Nov 25 16:40:48 2018

Tools Copyright (c) 1996-2017 Texas Instruments Incorporated
C:\Users\Stryd\AppData\Local\Temp\{8719FFD6-004A-4401-8DC3-4DA83C6CF1D8} PAGE  106

    5776                            .dwpsn  file "C:/ti/simplelink_cc13x0_sdk_2_30_00_20/source/ti/ti154stack/icall/src/inc/icall.
    5777 00000016 4668              MOV       A1, SP                ; [DPU_3_PIPE] |2168|  ; [ORIG 16-BIT INS]
    5778                    $C$DW$379       .dwtag  DW_TAG_TI_branch
    5779                            .dwattr $C$DW$379, DW_AT_low_pc(0x00)
    5780                            .dwattr $C$DW$379, DW_AT_TI_call
    5781                            .dwattr $C$DW$379, DW_AT_TI_indirect
    5782                    
    5783 00000018 4788              BLX       A2                    ; [DPU_3_PIPE] |2168|  ; [ORIG 16-BIT INS]
    5784                            ; CALL OCCURS {}                 ; [] |2168| 
    5785                            .dwpsn  file "../Application/MAC/OSAL/osal.c",line 1303,column 5,is_stmt,isa 1
    5786 0000001a 2000              MOVS      A1, #0                ; [DPU_3_PIPE] |1303|  ; [ORIG 16-BIT INS]
    5787                    $C$DW$380       .dwtag  DW_TAG_TI_branch
    5788                            .dwattr $C$DW$380, DW_AT_low_pc(0x00)
    5789                            .dwattr $C$DW$380, DW_AT_TI_return
    5790                    
    5791 0000001c BD08              POP       {A4, PC}              ; [DPU_3_PIPE]  ; [ORIG 16-BIT INS]
    5792                            .dwcfi  cfa_offset, 0
    5793                            .dwcfi  restore_reg, 3
    5794                            ; BRANCH OCCURS                  ; [] 
    5795                            .dwcfi  restore_state
    5796                    ;* --------------------------------------------------------------------------*
    5797 0000001e           ||$C$L83||:    
    5798                            .dwpsn  file "../Application/MAC/OSAL/osal.c",line 1307,column 5,is_stmt,isa 1
    5799 0000001e 2007              MOVS      A1, #7                ; [DPU_3_PIPE] |1307|  ; [ORIG 16-BIT INS]
    5800                    ;* --------------------------------------------------------------------------*
    5801                    $C$DW$381       .dwtag  DW_TAG_TI_branch
    5802                            .dwattr $C$DW$381, DW_AT_low_pc(0x00)
    5803                            .dwattr $C$DW$381, DW_AT_TI_return
    5804                    
    5805 00000020 BD08              POP       {A4, PC}              ; [DPU_3_PIPE]  ; [ORIG 16-BIT INS]
    5806                            .dwcfi  cfa_offset, 0
    5807                            .dwcfi  restore_reg, 3
    5808                            ; BRANCH OCCURS                  ; [] 
    5809                            .dwattr $C$DW$375, DW_AT_TI_end_file("../Application/MAC/OSAL/osal.c")
    5810                            .dwattr $C$DW$375, DW_AT_TI_end_line(0x51d)
    5811                            .dwattr $C$DW$375, DW_AT_TI_end_column(0x01)
    5812                            .dwendentry
    5813                            .dwendtag $C$DW$375
    5814                    
    5815 00000000                   .sect   ".text:osal_int_disable"
    5816                            .clink
    5817                            .thumbfunc osal_int_disable
    5818 00000000                   .thumb
    5819                            .global osal_int_disable
    5820                    
    5821                    $C$DW$382       .dwtag  DW_TAG_subprogram
    5822                            .dwattr $C$DW$382, DW_AT_name("osal_int_disable")
    5823                            .dwattr $C$DW$382, DW_AT_low_pc(osal_int_disable)
    5824                            .dwattr $C$DW$382, DW_AT_high_pc(0x00)
    5825                            .dwattr $C$DW$382, DW_AT_TI_symbol_name("osal_int_disable")
    5826                            .dwattr $C$DW$382, DW_AT_external
    5827                            .dwattr $C$DW$382, DW_AT_type(*$C$DW$T$19)
    5828                            .dwattr $C$DW$382, DW_AT_TI_begin_file("../Application/MAC/OSAL/osal.c")
    5829                            .dwattr $C$DW$382, DW_AT_TI_begin_line(0x52f)
    5830                            .dwattr $C$DW$382, DW_AT_TI_begin_column(0x07)
TI ARM Assembler PC v16.9.9 Sun Nov 25 16:40:48 2018

Tools Copyright (c) 1996-2017 Texas Instruments Incorporated
C:\Users\Stryd\AppData\Local\Temp\{8719FFD6-004A-4401-8DC3-4DA83C6CF1D8} PAGE  107

    5831                            .dwattr $C$DW$382, DW_AT_decl_file("../Application/MAC/OSAL/osal.c")
    5832                            .dwattr $C$DW$382, DW_AT_decl_line(0x52f)
    5833                            .dwattr $C$DW$382, DW_AT_decl_column(0x07)
    5834                            .dwattr $C$DW$382, DW_AT_TI_max_frame_size(0x08)
    5835                            .dwpsn  file "../Application/MAC/OSAL/osal.c",line 1328,column 1,is_stmt,address osal_int_disa
    5836                    
    5837                            .dwfde $C$DW$CIE, osal_int_disable
    5838                    $C$DW$383       .dwtag  DW_TAG_formal_parameter
    5839                            .dwattr $C$DW$383, DW_AT_name("interrupt_id")
    5840                            .dwattr $C$DW$383, DW_AT_TI_symbol_name("interrupt_id")
    5841                            .dwattr $C$DW$383, DW_AT_type(*$C$DW$T$10)
    5842                            .dwattr $C$DW$383, DW_AT_location[DW_OP_reg0]
    5843                    
    5844                    
    5845                    ;*****************************************************************************
    5846                    ;* FUNCTION NAME: osal_int_disable                                           *
    5847                    ;*                                                                           *
    5848                    ;*   Regs Modified     : A1,A2,A3,A4,V9,SP,LR,SR                             *
    5849                    ;*   Regs Used         : A1,A2,A3,A4,V9,SP,LR,SR                             *
    5850                    ;*   Local Frame Size  : 0 Args + 4 Auto + 4 Save = 8 byte                   *
    5851                    ;*****************************************************************************
    5852                    osal_int_disable:
    5853                    ;* --------------------------------------------------------------------------*
    5854                    $C$DW$384       .dwtag  DW_TAG_variable
    5855                            .dwattr $C$DW$384, DW_AT_name("args")
    5856                            .dwattr $C$DW$384, DW_AT_TI_symbol_name("args")
    5857                            .dwattr $C$DW$384, DW_AT_type(*$C$DW$T$101)
    5858                            .dwattr $C$DW$384, DW_AT_location[DW_OP_breg13 0]
    5859                    
    5860                    ;* A1    assigned to interrupt_id
    5861                    $C$DW$385       .dwtag  DW_TAG_variable
    5862                            .dwattr $C$DW$385, DW_AT_name("interrupt_id")
    5863                            .dwattr $C$DW$385, DW_AT_TI_symbol_name("interrupt_id")
    5864                            .dwattr $C$DW$385, DW_AT_type(*$C$DW$T$298)
    5865                            .dwattr $C$DW$385, DW_AT_location[DW_OP_reg0]
    5866                    
    5867                            .dwcfi  cfa_offset, 0
    5868                            .dwpsn  file "../Application/MAC/OSAL/osal.c",line 1330,column 3,is_stmt,isa 1
    5869 00000000 28FF              CMP       A1, #255              ; [DPU_3_PIPE] |1330|  ; [ORIG 16-BIT INS]
    5870 00000002 B508              PUSH      {A4, LR}              ; [DPU_3_PIPE]  ; [ORIG 16-BIT INS]
    5871                            .dwcfi  cfa_offset, 8
    5872                            .dwcfi  save_reg_to_mem, 14, -4
    5873                            .dwcfi  save_reg_to_mem, 3, -8
    5874 00000004 D10B              BNE       ||$C$L84||            ; [DPU_3_PIPE] |1330|  ; [ORIG 16-BIT INS]
    5875                            ; BRANCHCC OCCURS {||$C$L84||}   ; [] |1330| 
    5876                    ;* --------------------------------------------------------------------------*
    5877                            .dwcfi  remember_state
    5878                            .dwpsn  file "C:/ti/simplelink_cc13x0_sdk_2_30_00_20/source/ti/ti154stack/icall/src/inc/icall.
    5879 00000006 4A07              LDR       A3, $C$CON92          ; [DPU_3_PIPE] |2181|  ; [ORIG 16-BIT INS]
    5880                            .dwpsn  file "C:/ti/simplelink_cc13x0_sdk_2_30_00_20/source/ti/ti154stack/icall/src/inc/icall.
    5881 00000008 2008              MOVS      A1, #8                ; [DPU_3_PIPE] |2179|  ; [ORIG 16-BIT INS]
    5882                            .dwpsn  file "C:/ti/simplelink_cc13x0_sdk_2_30_00_20/source/ti/ti154stack/icall/src/inc/icall.
    5883 0000000a 2310              MOVS      A4, #16               ; [DPU_3_PIPE] |2180|  ; [ORIG 16-BIT INS]
    5884                            .dwpsn  file "C:/ti/simplelink_cc13x0_sdk_2_30_00_20/source/ti/ti154stack/icall/src/inc/icall.
    5885 0000000c 0000F8AD          STRH      A1, [SP, #0]          ; [DPU_3_PIPE] |2179|  ; [KEEP 32-BIT INS]
TI ARM Assembler PC v16.9.9 Sun Nov 25 16:40:48 2018

Tools Copyright (c) 1996-2017 Texas Instruments Incorporated
C:\Users\Stryd\AppData\Local\Temp\{8719FFD6-004A-4401-8DC3-4DA83C6CF1D8} PAGE  108

    5886                            .dwpsn  file "C:/ti/simplelink_cc13x0_sdk_2_30_00_20/source/ti/ti154stack/icall/src/inc/icall.
    5887 00000010 6811              LDR       A2, [A3, #0]          ; [DPU_3_PIPE] |2181|  ; [ORIG 16-BIT INS]
    5888                            .dwpsn  file "C:/ti/simplelink_cc13x0_sdk_2_30_00_20/source/ti/ti154stack/icall/src/inc/icall.
    5889 00000012 3002F8AD          STRH      A4, [SP, #2]          ; [DPU_3_PIPE] |2180|  ; [KEEP 32-BIT INS]
    5890                            .dwpsn  file "C:/ti/simplelink_cc13x0_sdk_2_30_00_20/source/ti/ti154stack/icall/src/inc/icall.
    5891 00000016 4668              MOV       A1, SP                ; [DPU_3_PIPE] |2181|  ; [ORIG 16-BIT INS]
    5892                    $C$DW$386       .dwtag  DW_TAG_TI_branch
    5893                            .dwattr $C$DW$386, DW_AT_low_pc(0x00)
    5894                            .dwattr $C$DW$386, DW_AT_TI_call
    5895                            .dwattr $C$DW$386, DW_AT_TI_indirect
    5896                    
    5897 00000018 4788              BLX       A2                    ; [DPU_3_PIPE] |2181|  ; [ORIG 16-BIT INS]
    5898                            ; CALL OCCURS {}                 ; [] |2181| 
    5899                            .dwpsn  file "../Application/MAC/OSAL/osal.c",line 1333,column 5,is_stmt,isa 1
    5900 0000001a 2000              MOVS      A1, #0                ; [DPU_3_PIPE] |1333|  ; [ORIG 16-BIT INS]
    5901                    $C$DW$387       .dwtag  DW_TAG_TI_branch
    5902                            .dwattr $C$DW$387, DW_AT_low_pc(0x00)
    5903                            .dwattr $C$DW$387, DW_AT_TI_return
    5904                    
    5905 0000001c BD08              POP       {A4, PC}              ; [DPU_3_PIPE]  ; [ORIG 16-BIT INS]
    5906                            .dwcfi  cfa_offset, 0
    5907                            .dwcfi  restore_reg, 3
    5908                            ; BRANCH OCCURS                  ; [] 
    5909                            .dwcfi  restore_state
    5910                    ;* --------------------------------------------------------------------------*
    5911 0000001e           ||$C$L84||:    
    5912                            .dwpsn  file "../Application/MAC/OSAL/osal.c",line 1337,column 5,is_stmt,isa 1
    5913 0000001e 2007              MOVS      A1, #7                ; [DPU_3_PIPE] |1337|  ; [ORIG 16-BIT INS]
    5914                    ;* --------------------------------------------------------------------------*
    5915                    $C$DW$388       .dwtag  DW_TAG_TI_branch
    5916                            .dwattr $C$DW$388, DW_AT_low_pc(0x00)
    5917                            .dwattr $C$DW$388, DW_AT_TI_return
    5918                    
    5919 00000020 BD08              POP       {A4, PC}              ; [DPU_3_PIPE]  ; [ORIG 16-BIT INS]
    5920                            .dwcfi  cfa_offset, 0
    5921                            .dwcfi  restore_reg, 3
    5922                            ; BRANCH OCCURS                  ; [] 
    5923                            .dwattr $C$DW$382, DW_AT_TI_end_file("../Application/MAC/OSAL/osal.c")
    5924                            .dwattr $C$DW$382, DW_AT_TI_end_line(0x53b)
    5925                            .dwattr $C$DW$382, DW_AT_TI_end_column(0x01)
    5926                            .dwendentry
    5927                            .dwendtag $C$DW$382
    5928                    
    5929 00000000                   .sect   ".text:osal_init_system"
    5930                            .clink
    5931                            .thumbfunc osal_init_system
    5932 00000000                   .thumb
    5933                            .global osal_init_system
    5934                    
    5935                    $C$DW$389       .dwtag  DW_TAG_subprogram
    5936                            .dwattr $C$DW$389, DW_AT_name("osal_init_system")
    5937                            .dwattr $C$DW$389, DW_AT_low_pc(osal_init_system)
    5938                            .dwattr $C$DW$389, DW_AT_high_pc(0x00)
    5939                            .dwattr $C$DW$389, DW_AT_TI_symbol_name("osal_init_system")
    5940                            .dwattr $C$DW$389, DW_AT_external
TI ARM Assembler PC v16.9.9 Sun Nov 25 16:40:48 2018

Tools Copyright (c) 1996-2017 Texas Instruments Incorporated
C:\Users\Stryd\AppData\Local\Temp\{8719FFD6-004A-4401-8DC3-4DA83C6CF1D8} PAGE  109

    5941                            .dwattr $C$DW$389, DW_AT_type(*$C$DW$T$19)
    5942                            .dwattr $C$DW$389, DW_AT_TI_begin_file("../Application/MAC/OSAL/osal.c")
    5943                            .dwattr $C$DW$389, DW_AT_TI_begin_line(0x549)
    5944                            .dwattr $C$DW$389, DW_AT_TI_begin_column(0x07)
    5945                            .dwattr $C$DW$389, DW_AT_decl_file("../Application/MAC/OSAL/osal.c")
    5946                            .dwattr $C$DW$389, DW_AT_decl_line(0x549)
    5947                            .dwattr $C$DW$389, DW_AT_decl_column(0x07)
    5948                            .dwattr $C$DW$389, DW_AT_TI_max_frame_size(0x28)
    5949                            .dwpsn  file "../Application/MAC/OSAL/osal.c",line 1354,column 1,is_stmt,address osal_init_sys
    5950                    
    5951                            .dwfde $C$DW$CIE, osal_init_system
    5952                    
    5953                    ;*****************************************************************************
    5954                    ;* FUNCTION NAME: osal_init_system                                           *
    5955                    ;*                                                                           *
    5956                    ;*   Regs Modified     : A1,A2,A3,A4,V1,V2,V3,V4,V9,SP,LR,SR                 *
    5957                    ;*   Regs Used         : A1,A2,A3,A4,V1,V2,V3,V4,V9,SP,LR,SR                 *
    5958                    ;*   Local Frame Size  : 0 Args + 16 Auto + 20 Save = 36 byte                *
    5959                    ;*****************************************************************************
    5960                    osal_init_system:
    5961                    ;* --------------------------------------------------------------------------*
    5962                    $C$DW$390       .dwtag  DW_TAG_variable
    5963                            .dwattr $C$DW$390, DW_AT_name("args")
    5964                            .dwattr $C$DW$390, DW_AT_TI_symbol_name("args")
    5965                            .dwattr $C$DW$390, DW_AT_type(*$C$DW$T$405)
    5966                            .dwattr $C$DW$390, DW_AT_location[DW_OP_breg13 0]
    5967                    
    5968                    $C$DW$391       .dwtag  DW_TAG_variable
    5969                            .dwattr $C$DW$391, DW_AT_name("args")
    5970                            .dwattr $C$DW$391, DW_AT_TI_symbol_name("args")
    5971                            .dwattr $C$DW$391, DW_AT_type(*$C$DW$T$405)
    5972                            .dwattr $C$DW$391, DW_AT_location[DW_OP_breg13 8]
    5973                    
    5974                    ;* V2    assigned to $O$C1
    5975                    ;* V1    assigned to $O$C2
    5976                    ;* V4    assigned to $O$C3
    5977                    ;* V1    assigned to $O$C4
    5978                            .dwcfi  cfa_offset, 0
    5979 00000000 B5F0              PUSH      {V1, V2, V3, V4, LR}  ; [DPU_3_PIPE]  ; [ORIG 16-BIT INS]
    5980                            .dwcfi  cfa_offset, 20
    5981                            .dwcfi  save_reg_to_mem, 14, -4
    5982                            .dwcfi  save_reg_to_mem, 7, -8
    5983                            .dwcfi  save_reg_to_mem, 6, -12
    5984                            .dwcfi  save_reg_to_mem, 5, -16
    5985                            .dwcfi  save_reg_to_mem, 4, -20
    5986                            .dwpsn  file "../Application/MAC/OSAL/osal.c",line 1361,column 3,is_stmt,isa 1
    5987 00000002 4D1C              LDR       V2, $C$CON93          ; [DPU_3_PIPE] |1361|  ; [ORIG 16-BIT INS]
    5988 00000004 2600              MOVS      V3, #0                ; [DPU_3_PIPE] |1361|  ; [ORIG 16-BIT INS]
    5989 00000006 0D14F1AD          SUB       SP, SP, #20           ; [DPU_3_PIPE]  ; [KEEP 32-BIT INS]
    5990                            .dwcfi  cfa_offset, 40
    5991 0000000a 606E              STR       V3, [V2, #4]          ; [DPU_3_PIPE] |1361|  ; [ORIG 16-BIT INS]
    5992                            .dwpsn  file "../Application/MAC/OSAL/osal.c",line 1364,column 3,is_stmt,isa 1
    5993                    $C$DW$392       .dwtag  DW_TAG_TI_branch
    5994                            .dwattr $C$DW$392, DW_AT_low_pc(0x00)
    5995                            .dwattr $C$DW$392, DW_AT_name("osalTimerInit")
TI ARM Assembler PC v16.9.9 Sun Nov 25 16:40:48 2018

Tools Copyright (c) 1996-2017 Texas Instruments Incorporated
C:\Users\Stryd\AppData\Local\Temp\{8719FFD6-004A-4401-8DC3-4DA83C6CF1D8} PAGE  110

    5996                            .dwattr $C$DW$392, DW_AT_TI_call
    5997                    
    5998 0000000c FFFEF7FF!         BL        osalTimerInit         ; [DPU_3_PIPE] |1364|  ; [KEEP 32-BIT INS]
    5999                            ; CALL OCCURS {osalTimerInit }   ; [] |1364| 
    6000                            .dwpsn  file "../Application/MAC/OSAL/osal.c",line 1367,column 3,is_stmt,isa 1
    6001                    $C$DW$393       .dwtag  DW_TAG_TI_branch
    6002                            .dwattr $C$DW$393, DW_AT_low_pc(0x00)
    6003                            .dwattr $C$DW$393, DW_AT_name("osal_pwrmgr_init")
    6004                            .dwattr $C$DW$393, DW_AT_TI_call
    6005                    
    6006 00000010 FFFEF7FF!         BL        osal_pwrmgr_init      ; [DPU_3_PIPE] |1367|  ; [KEEP 32-BIT INS]
    6007                            ; CALL OCCURS {osal_pwrmgr_init }  ; [] |1367| 
    6008                            .dwpsn  file "../Application/MAC/OSAL/osal.c",line 505,column 3,is_stmt,isa 1
    6009 00000014 4C18              LDR       V1, $C$CON94          ; [DPU_3_PIPE] |505|  ; [ORIG 16-BIT INS]
    6010 00000016 7820              LDRB      A1, [V1, #0]          ; [DPU_3_PIPE] |505|  ; [ORIG 16-BIT INS]
    6011 00000018 0040              LSLS      A1, A1, #1            ; [DPU_3_PIPE] |505|  ; [ORIG 16-BIT INS]
    6012                    $C$DW$394       .dwtag  DW_TAG_TI_branch
    6013                            .dwattr $C$DW$394, DW_AT_low_pc(0x00)
    6014                            .dwattr $C$DW$394, DW_AT_name("osal_mem_alloc")
    6015                            .dwattr $C$DW$394, DW_AT_TI_call
    6016                    
    6017 0000001a FFFEF7FF!         BL        osal_mem_alloc        ; [DPU_3_PIPE] |505|  ; [KEEP 32-BIT INS]
    6018                            ; CALL OCCURS {osal_mem_alloc }  ; [] |505| 
    6019 0000001e 62A8              STR       A1, [V2, #40]         ; [DPU_3_PIPE] |505|  ; [ORIG 16-BIT INS]
    6020                            .dwpsn  file "../Application/MAC/OSAL/osal.c",line 506,column 3,is_stmt,isa 1
    6021 00000020 7821              LDRB      A2, [V1, #0]          ; [DPU_3_PIPE] |506|  ; [ORIG 16-BIT INS]
    6022 00000022 6AA8              LDR       A1, [V2, #40]         ; [DPU_3_PIPE] |506|  ; [ORIG 16-BIT INS]
    6023 00000024 004A              LSLS      A3, A2, #1            ; [DPU_3_PIPE] |506|  ; [ORIG 16-BIT INS]
    6024 00000026 21FF              MOVS      A2, #255              ; [DPU_3_PIPE] |506|  ; [ORIG 16-BIT INS]
    6025                    $C$DW$395       .dwtag  DW_TAG_TI_branch
    6026                            .dwattr $C$DW$395, DW_AT_low_pc(0x00)
    6027                            .dwattr $C$DW$395, DW_AT_name("osal_memset")
    6028                            .dwattr $C$DW$395, DW_AT_TI_call
    6029                    
    6030 00000028 FFFEF7FF!         BL        osal_memset           ; [DPU_3_PIPE] |506|  ; [KEEP 32-BIT INS]
    6031                            ; CALL OCCURS {osal_memset }     ; [] |506| 
    6032                            .dwpsn  file "../Application/MAC/OSAL/osal.c",line 507,column 3,is_stmt,isa 1
    6033 0000002c 21FF              MOVS      A2, #255              ; [DPU_3_PIPE] |507|  ; [ORIG 16-BIT INS]
    6034 0000002e 2202              MOVS      A3, #2                ; [DPU_3_PIPE] |507|  ; [ORIG 16-BIT INS]
    6035 00000030 1CA8              ADDS      A1, V2, #2            ; [DPU_3_PIPE]  ; [ORIG 16-BIT INS]
    6036                    $C$DW$396       .dwtag  DW_TAG_TI_branch
    6037                            .dwattr $C$DW$396, DW_AT_low_pc(0x00)
    6038                            .dwattr $C$DW$396, DW_AT_name("osal_memset")
    6039                            .dwattr $C$DW$396, DW_AT_TI_call
    6040                    
    6041 00000032 FFFEF7FF!         BL        osal_memset           ; [DPU_3_PIPE] |507|  ; [KEEP 32-BIT INS]
    6042                            ; CALL OCCURS {osal_memset }     ; [] |507| 
    6043                            .dwpsn  file "../Application/MAC/OSAL/osal.c",line 1375,column 3,is_stmt,isa 1
    6044                    $C$DW$397       .dwtag  DW_TAG_TI_branch
    6045                            .dwattr $C$DW$397, DW_AT_low_pc(0x00)
    6046                            .dwattr $C$DW$397, DW_AT_name("osalInitTasks")
    6047                            .dwattr $C$DW$397, DW_AT_TI_call
    6048                    
    6049 00000036 FFFEF7FF!         BL        osalInitTasks         ; [DPU_3_PIPE] |1375|  ; [KEEP 32-BIT INS]
    6050                            ; CALL OCCURS {osalInitTasks }   ; [] |1375| 
TI ARM Assembler PC v16.9.9 Sun Nov 25 16:40:48 2018

Tools Copyright (c) 1996-2017 Texas Instruments Incorporated
C:\Users\Stryd\AppData\Local\Temp\{8719FFD6-004A-4401-8DC3-4DA83C6CF1D8} PAGE  111

    6051                            .dwpsn  file "../Application/MAC/OSAL/osal.c",line 1384,column 3,is_stmt,isa 1
    6052                    $C$DW$398       .dwtag  DW_TAG_TI_branch
    6053                            .dwattr $C$DW$398, DW_AT_low_pc(0x00)
    6054                            .dwattr $C$DW$398, DW_AT_name("ICall_getTicks")
    6055                            .dwattr $C$DW$398, DW_AT_TI_call
    6056                    
    6057 0000003a FFFEF7FF!         BL        ICall_getTicks        ; [DPU_3_PIPE] |1384|  ; [KEEP 32-BIT INS]
    6058                            ; CALL OCCURS {ICall_getTicks }  ; [] |1384| 
    6059                            .dwpsn  file "C:/ti/simplelink_cc13x0_sdk_2_30_00_20/source/ti/ti154stack/icall/src/inc/icall.
    6060 0000003e 2708              MOVS      V4, #8                ; [DPU_3_PIPE] |2237|  ; [ORIG 16-BIT INS]
    6061                            .dwpsn  file "../Application/MAC/OSAL/osal.c",line 1384,column 3,is_stmt,isa 1
    6062 00000040 6168              STR       A1, [V2, #20]         ; [DPU_3_PIPE] |1384|  ; [ORIG 16-BIT INS]
    6063                            .dwpsn  file "C:/ti/simplelink_cc13x0_sdk_2_30_00_20/source/ti/ti154stack/icall/src/inc/icall.
    6064 00000042 4C0E              LDR       V1, $C$CON97          ; [DPU_3_PIPE] |2239|  ; [ORIG 16-BIT INS]
    6065                            .dwpsn  file "C:/ti/simplelink_cc13x0_sdk_2_30_00_20/source/ti/ti154stack/icall/src/inc/icall.
    6066 00000044 7000F8AD          STRH      V4, [SP, #0]          ; [DPU_3_PIPE] |2237|  ; [KEEP 32-BIT INS]
    6067                            .dwpsn  file "C:/ti/simplelink_cc13x0_sdk_2_30_00_20/source/ti/ti154stack/icall/src/inc/icall.
    6068 00000048 2014              MOVS      A1, #20               ; [DPU_3_PIPE] |2238|  ; [ORIG 16-BIT INS]
    6069                            .dwpsn  file "C:/ti/simplelink_cc13x0_sdk_2_30_00_20/source/ti/ti154stack/icall/src/inc/icall.
    6070 0000004a 6821              LDR       A2, [V1, #0]          ; [DPU_3_PIPE] |2239|  ; [ORIG 16-BIT INS]
    6071                            .dwpsn  file "C:/ti/simplelink_cc13x0_sdk_2_30_00_20/source/ti/ti154stack/icall/src/inc/icall.
    6072 0000004c 0002F8AD          STRH      A1, [SP, #2]          ; [DPU_3_PIPE] |2238|  ; [KEEP 32-BIT INS]
    6073                            .dwpsn  file "C:/ti/simplelink_cc13x0_sdk_2_30_00_20/source/ti/ti154stack/icall/src/inc/icall.
    6074 00000050 4668              MOV       A1, SP                ; [DPU_3_PIPE] |2239|  ; [ORIG 16-BIT INS]
    6075                    $C$DW$399       .dwtag  DW_TAG_TI_branch
    6076                            .dwattr $C$DW$399, DW_AT_low_pc(0x00)
    6077                            .dwattr $C$DW$399, DW_AT_TI_call
    6078                            .dwattr $C$DW$399, DW_AT_TI_indirect
    6079                    
    6080 00000052 4788              BLX       A2                    ; [DPU_3_PIPE] |2239|  ; [ORIG 16-BIT INS]
    6081                            ; CALL OCCURS {}                 ; [] |2239| 
    6082                            .dwpsn  file "C:/ti/simplelink_cc13x0_sdk_2_30_00_20/source/ti/ti154stack/icall/src/inc/icall.
    6083 00000054 9801              LDR       A1, [SP, #4]          ; [DPU_3_PIPE] |2240|  ; [ORIG 16-BIT INS]
    6084                            .dwpsn  file "C:/ti/simplelink_cc13x0_sdk_2_30_00_20/source/ti/ti154stack/icall/src/inc/icall.
    6085 00000056 7008F8AD          STRH      V4, [SP, #8]          ; [DPU_3_PIPE] |2253|  ; [KEEP 32-BIT INS]
    6086                            .dwpsn  file "C:/ti/simplelink_cc13x0_sdk_2_30_00_20/source/ti/ti154stack/icall/src/inc/icall.
    6087 0000005a 6821              LDR       A2, [V1, #0]          ; [DPU_3_PIPE] |2255|  ; [ORIG 16-BIT INS]
    6088                            .dwpsn  file "C:/ti/simplelink_cc13x0_sdk_2_30_00_20/source/ti/ti154stack/icall/src/inc/icall.
    6089 0000005c 61A8              STR       A1, [V2, #24]         ; [DPU_3_PIPE] |2240|  ; [ORIG 16-BIT INS]
    6090                            .dwpsn  file "C:/ti/simplelink_cc13x0_sdk_2_30_00_20/source/ti/ti154stack/icall/src/inc/icall.
    6091 0000005e 2015              MOVS      A1, #21               ; [DPU_3_PIPE] |2254|  ; [ORIG 16-BIT INS]
    6092 00000060 000AF8AD          STRH      A1, [SP, #10]         ; [DPU_3_PIPE] |2254|  ; [KEEP 32-BIT INS]
    6093                            .dwpsn  file "C:/ti/simplelink_cc13x0_sdk_2_30_00_20/source/ti/ti154stack/icall/src/inc/icall.
    6094 00000064 A802              ADD       A1, SP, #8            ; [DPU_3_PIPE] |2255|  ; [ORIG 16-BIT INS]
    6095                    $C$DW$400       .dwtag  DW_TAG_TI_branch
    6096                            .dwattr $C$DW$400, DW_AT_low_pc(0x00)
    6097                            .dwattr $C$DW$400, DW_AT_TI_call
    6098                            .dwattr $C$DW$400, DW_AT_TI_indirect
    6099                    
    6100 00000066 4788              BLX       A2                    ; [DPU_3_PIPE] |2255|  ; [ORIG 16-BIT INS]
    6101                            ; CALL OCCURS {}                 ; [] |2255| 
    6102                            .dwpsn  file "C:/ti/simplelink_cc13x0_sdk_2_30_00_20/source/ti/ti154stack/icall/src/inc/icall.
    6103 00000068 9803              LDR       A1, [SP, #12]         ; [DPU_3_PIPE] |2256|  ; [ORIG 16-BIT INS]
    6104 0000006a 1E80              SUBS      A1, A1, #2            ; [DPU_3_PIPE] |2256|  ; [ORIG 16-BIT INS]
    6105 0000006c 61E8              STR       A1, [V2, #28]         ; [DPU_3_PIPE] |2256|  ; [ORIG 16-BIT INS]
TI ARM Assembler PC v16.9.9 Sun Nov 25 16:40:48 2018

Tools Copyright (c) 1996-2017 Texas Instruments Incorporated
C:\Users\Stryd\AppData\Local\Temp\{8719FFD6-004A-4401-8DC3-4DA83C6CF1D8} PAGE  112

    6106 0000006e 4630              MOV       A1, V3                ; [DPU_3_PIPE] |2256|  ; [ORIG 16-BIT INS]
    6107 00000070 B005              ADD       SP, SP, #20           ; [DPU_3_PIPE]  ; [ORIG 16-BIT INS]
    6108                            .dwcfi  cfa_offset, 20
    6109                    $C$DW$401       .dwtag  DW_TAG_TI_branch
    6110                            .dwattr $C$DW$401, DW_AT_low_pc(0x00)
    6111                            .dwattr $C$DW$401, DW_AT_TI_return
    6112                    
    6113 00000072 BDF0              POP       {V1, V2, V3, V4, PC}  ; [DPU_3_PIPE]  ; [ORIG 16-BIT INS]
    6114                            .dwcfi  cfa_offset, 0
    6115                            .dwcfi  restore_reg, 7
    6116                            .dwcfi  restore_reg, 6
    6117                            .dwcfi  restore_reg, 5
    6118                            .dwcfi  restore_reg, 4
    6119                            ; BRANCH OCCURS                  ; [] 
    6120                            .dwattr $C$DW$389, DW_AT_TI_end_file("../Application/MAC/OSAL/osal.c")
    6121                            .dwattr $C$DW$389, DW_AT_TI_end_line(0x572)
    6122                            .dwattr $C$DW$389, DW_AT_TI_end_column(0x01)
    6123                            .dwendentry
    6124                            .dwendtag $C$DW$389
    6125                    
    6126 00000000                   .sect   ".text:osal_enroll_senderid"
    6127                            .clink
    6128                            .thumbfunc osal_enroll_senderid
    6129 00000000                   .thumb
    6130                            .global osal_enroll_senderid
    6131                    
    6132                    $C$DW$402       .dwtag  DW_TAG_subprogram
    6133                            .dwattr $C$DW$402, DW_AT_name("osal_enroll_senderid")
    6134                            .dwattr $C$DW$402, DW_AT_low_pc(osal_enroll_senderid)
    6135                            .dwattr $C$DW$402, DW_AT_high_pc(0x00)
    6136                            .dwattr $C$DW$402, DW_AT_TI_symbol_name("osal_enroll_senderid")
    6137                            .dwattr $C$DW$402, DW_AT_external
    6138                            .dwattr $C$DW$402, DW_AT_TI_begin_file("../Application/MAC/OSAL/osal.c")
    6139                            .dwattr $C$DW$402, DW_AT_TI_begin_line(0x21f)
    6140                            .dwattr $C$DW$402, DW_AT_TI_begin_column(0x06)
    6141                            .dwattr $C$DW$402, DW_AT_decl_file("../Application/MAC/OSAL/osal.c")
    6142                            .dwattr $C$DW$402, DW_AT_decl_line(0x21f)
    6143                            .dwattr $C$DW$402, DW_AT_decl_column(0x06)
    6144                            .dwattr $C$DW$402, DW_AT_TI_max_frame_size(0x00)
    6145                            .dwpsn  file "../Application/MAC/OSAL/osal.c",line 544,column 1,is_stmt,address osal_enroll_se
    6146                    
    6147                            .dwfde $C$DW$CIE, osal_enroll_senderid
    6148                    $C$DW$403       .dwtag  DW_TAG_formal_parameter
    6149                            .dwattr $C$DW$403, DW_AT_name("taskid")
    6150                            .dwattr $C$DW$403, DW_AT_TI_symbol_name("taskid")
    6151                            .dwattr $C$DW$403, DW_AT_type(*$C$DW$T$10)
    6152                            .dwattr $C$DW$403, DW_AT_location[DW_OP_reg0]
    6153                    
    6154                    $C$DW$404       .dwtag  DW_TAG_formal_parameter
    6155                            .dwattr $C$DW$404, DW_AT_name("dispatchid")
    6156                            .dwattr $C$DW$404, DW_AT_TI_symbol_name("dispatchid")
    6157                            .dwattr $C$DW$404, DW_AT_type(*$C$DW$T$10)
    6158                            .dwattr $C$DW$404, DW_AT_location[DW_OP_reg1]
    6159                    
    6160                    
TI ARM Assembler PC v16.9.9 Sun Nov 25 16:40:48 2018

Tools Copyright (c) 1996-2017 Texas Instruments Incorporated
C:\Users\Stryd\AppData\Local\Temp\{8719FFD6-004A-4401-8DC3-4DA83C6CF1D8} PAGE  113

    6161                    ;*****************************************************************************
    6162                    ;* FUNCTION NAME: osal_enroll_senderid                                       *
    6163                    ;*                                                                           *
    6164                    ;*   Regs Modified     : A1,A3,SR                                            *
    6165                    ;*   Regs Used         : A1,A2,A3,LR,SR                                      *
    6166                    ;*   Local Frame Size  : 0 Args + 0 Auto + 0 Save = 0 byte                   *
    6167                    ;*****************************************************************************
    6168                    osal_enroll_senderid:
    6169                    ;* --------------------------------------------------------------------------*
    6170                    ;* A1    assigned to taskid
    6171                    $C$DW$405       .dwtag  DW_TAG_variable
    6172                            .dwattr $C$DW$405, DW_AT_name("taskid")
    6173                            .dwattr $C$DW$405, DW_AT_TI_symbol_name("taskid")
    6174                            .dwattr $C$DW$405, DW_AT_type(*$C$DW$T$298)
    6175                            .dwattr $C$DW$405, DW_AT_location[DW_OP_reg0]
    6176                    
    6177                    ;* A2    assigned to dispatchid
    6178                    $C$DW$406       .dwtag  DW_TAG_variable
    6179                            .dwattr $C$DW$406, DW_AT_name("dispatchid")
    6180                            .dwattr $C$DW$406, DW_AT_TI_symbol_name("dispatchid")
    6181                            .dwattr $C$DW$406, DW_AT_type(*$C$DW$T$302)
    6182                            .dwattr $C$DW$406, DW_AT_location[DW_OP_reg1]
    6183                    
    6184                            .dwcfi  cfa_offset, 0
    6185                            .dwpsn  file "../Application/MAC/OSAL/osal.c",line 545,column 3,is_stmt,isa 1
    6186 00000000 4A03              LDR       A3, $C$CON100         ; [DPU_3_PIPE] |545|  ; [ORIG 16-BIT INS]
    6187 00000002 7812              LDRB      A3, [A3, #0]          ; [DPU_3_PIPE] |545|  ; [ORIG 16-BIT INS]
    6188 00000004 1812              ADDS      A3, A3, A1            ; [DPU_3_PIPE] |545|  ; [ORIG 16-BIT INS]
    6189 00000006 4803              LDR       A1, $C$CON101         ; [DPU_3_PIPE] |545|  ; [ORIG 16-BIT INS]
    6190 00000008 3028              ADDS      A1, A1, #40           ; [DPU_3_PIPE]  ; [ORIG 16-BIT INS]
    6191 0000000a 6800              LDR       A1, [A1, #0]          ; [DPU_3_PIPE] |545|  ; [ORIG 16-BIT INS]
    6192 0000000c 5481              STRB      A2, [A1, +A3]         ; [DPU_3_PIPE] |545|  ; [ORIG 16-BIT INS]
    6193                    $C$DW$407       .dwtag  DW_TAG_TI_branch
    6194                            .dwattr $C$DW$407, DW_AT_low_pc(0x00)
    6195                            .dwattr $C$DW$407, DW_AT_TI_return
    6196                    
    6197 0000000e 4770              BX        LR                    ; [DPU_3_PIPE]  ; [ORIG 16-BIT INS]
    6198                            ; BRANCH OCCURS                  ; [] 
    6199                            .dwattr $C$DW$402, DW_AT_TI_end_file("../Application/MAC/OSAL/osal.c")
    6200                            .dwattr $C$DW$402, DW_AT_TI_end_line(0x222)
    6201                            .dwattr $C$DW$402, DW_AT_TI_end_column(0x01)
    6202                            .dwendentry
    6203                            .dwendtag $C$DW$402
    6204                    
    6205 00000000                   .sect   ".text:osal_enroll_notasksender"
    6206                            .clink
    6207                            .thumbfunc osal_enroll_notasksender
    6208 00000000                   .thumb
    6209                            .global osal_enroll_notasksender
    6210                    
    6211                    $C$DW$408       .dwtag  DW_TAG_subprogram
    6212                            .dwattr $C$DW$408, DW_AT_name("osal_enroll_notasksender")
    6213                            .dwattr $C$DW$408, DW_AT_low_pc(osal_enroll_notasksender)
    6214                            .dwattr $C$DW$408, DW_AT_high_pc(0x00)
    6215                            .dwattr $C$DW$408, DW_AT_TI_symbol_name("osal_enroll_notasksender")
TI ARM Assembler PC v16.9.9 Sun Nov 25 16:40:48 2018

Tools Copyright (c) 1996-2017 Texas Instruments Incorporated
C:\Users\Stryd\AppData\Local\Temp\{8719FFD6-004A-4401-8DC3-4DA83C6CF1D8} PAGE  114

    6216                            .dwattr $C$DW$408, DW_AT_external
    6217                            .dwattr $C$DW$408, DW_AT_TI_begin_file("../Application/MAC/OSAL/osal.c")
    6218                            .dwattr $C$DW$408, DW_AT_TI_begin_line(0x22e)
    6219                            .dwattr $C$DW$408, DW_AT_TI_begin_column(0x06)
    6220                            .dwattr $C$DW$408, DW_AT_decl_file("../Application/MAC/OSAL/osal.c")
    6221                            .dwattr $C$DW$408, DW_AT_decl_line(0x22e)
    6222                            .dwattr $C$DW$408, DW_AT_decl_column(0x06)
    6223                            .dwattr $C$DW$408, DW_AT_TI_max_frame_size(0x00)
    6224                            .dwpsn  file "../Application/MAC/OSAL/osal.c",line 559,column 1,is_stmt,address osal_enroll_no
    6225                    
    6226                            .dwfde $C$DW$CIE, osal_enroll_notasksender
    6227                    $C$DW$409       .dwtag  DW_TAG_formal_parameter
    6228                            .dwattr $C$DW$409, DW_AT_name("dispatchid")
    6229                            .dwattr $C$DW$409, DW_AT_TI_symbol_name("dispatchid")
    6230                            .dwattr $C$DW$409, DW_AT_type(*$C$DW$T$10)
    6231                            .dwattr $C$DW$409, DW_AT_location[DW_OP_reg0]
    6232                    
    6233                    
    6234                    ;*****************************************************************************
    6235                    ;* FUNCTION NAME: osal_enroll_notasksender                                   *
    6236                    ;*                                                                           *
    6237                    ;*   Regs Modified     : A2,SR                                               *
    6238                    ;*   Regs Used         : A1,A2,LR,SR                                         *
    6239                    ;*   Local Frame Size  : 0 Args + 0 Auto + 0 Save = 0 byte                   *
    6240                    ;*****************************************************************************
    6241                    osal_enroll_notasksender:
    6242                    ;* --------------------------------------------------------------------------*
    6243                    ;* A1    assigned to dispatchid
    6244                    $C$DW$410       .dwtag  DW_TAG_variable
    6245                            .dwattr $C$DW$410, DW_AT_name("dispatchid")
    6246                            .dwattr $C$DW$410, DW_AT_TI_symbol_name("dispatchid")
    6247                            .dwattr $C$DW$410, DW_AT_type(*$C$DW$T$302)
    6248                            .dwattr $C$DW$410, DW_AT_location[DW_OP_reg0]
    6249                    
    6250                            .dwcfi  cfa_offset, 0
    6251                            .dwpsn  file "../Application/MAC/OSAL/osal.c",line 560,column 3,is_stmt,isa 1
    6252 00000000 4901              LDR       A2, $C$CON103         ; [DPU_3_PIPE] |560|  ; [ORIG 16-BIT INS]
    6253 00000002 1C49              ADDS      A2, A2, #1            ; [DPU_3_PIPE]  ; [ORIG 16-BIT INS]
    6254 00000004 7008              STRB      A1, [A2, #0]          ; [DPU_3_PIPE] |560|  ; [ORIG 16-BIT INS]
    6255                    $C$DW$411       .dwtag  DW_TAG_TI_branch
    6256                            .dwattr $C$DW$411, DW_AT_low_pc(0x00)
    6257                            .dwattr $C$DW$411, DW_AT_TI_return
    6258                    
    6259 00000006 4770              BX        LR                    ; [DPU_3_PIPE]  ; [ORIG 16-BIT INS]
    6260                            ; BRANCH OCCURS                  ; [] 
    6261                            .dwattr $C$DW$408, DW_AT_TI_end_file("../Application/MAC/OSAL/osal.c")
    6262                            .dwattr $C$DW$408, DW_AT_TI_end_line(0x231)
    6263                            .dwattr $C$DW$408, DW_AT_TI_end_column(0x01)
    6264                            .dwendentry
    6265                            .dwendtag $C$DW$408
    6266                    
    6267 00000000                   .sect   ".text:osal_enroll_dispatchid"
    6268                            .clink
    6269                            .thumbfunc osal_enroll_dispatchid
    6270 00000000                   .thumb
TI ARM Assembler PC v16.9.9 Sun Nov 25 16:40:48 2018

Tools Copyright (c) 1996-2017 Texas Instruments Incorporated
C:\Users\Stryd\AppData\Local\Temp\{8719FFD6-004A-4401-8DC3-4DA83C6CF1D8} PAGE  115

    6271                            .global osal_enroll_dispatchid
    6272                    
    6273                    $C$DW$412       .dwtag  DW_TAG_subprogram
    6274                            .dwattr $C$DW$412, DW_AT_name("osal_enroll_dispatchid")
    6275                            .dwattr $C$DW$412, DW_AT_low_pc(osal_enroll_dispatchid)
    6276                            .dwattr $C$DW$412, DW_AT_high_pc(0x00)
    6277                            .dwattr $C$DW$412, DW_AT_TI_symbol_name("osal_enroll_dispatchid")
    6278                            .dwattr $C$DW$412, DW_AT_external
    6279                            .dwattr $C$DW$412, DW_AT_TI_begin_file("../Application/MAC/OSAL/osal.c")
    6280                            .dwattr $C$DW$412, DW_AT_TI_begin_line(0x20a)
    6281                            .dwattr $C$DW$412, DW_AT_TI_begin_column(0x06)
    6282                            .dwattr $C$DW$412, DW_AT_decl_file("../Application/MAC/OSAL/osal.c")
    6283                            .dwattr $C$DW$412, DW_AT_decl_line(0x20a)
    6284                            .dwattr $C$DW$412, DW_AT_decl_column(0x06)
    6285                            .dwattr $C$DW$412, DW_AT_TI_max_frame_size(0x00)
    6286                            .dwpsn  file "../Application/MAC/OSAL/osal.c",line 523,column 1,is_stmt,address osal_enroll_di
    6287                    
    6288                            .dwfde $C$DW$CIE, osal_enroll_dispatchid
    6289                    $C$DW$413       .dwtag  DW_TAG_formal_parameter
    6290                            .dwattr $C$DW$413, DW_AT_name("taskid")
    6291                            .dwattr $C$DW$413, DW_AT_TI_symbol_name("taskid")
    6292                            .dwattr $C$DW$413, DW_AT_type(*$C$DW$T$10)
    6293                            .dwattr $C$DW$413, DW_AT_location[DW_OP_reg0]
    6294                    
    6295                    $C$DW$414       .dwtag  DW_TAG_formal_parameter
    6296                            .dwattr $C$DW$414, DW_AT_name("dispatchid")
    6297                            .dwattr $C$DW$414, DW_AT_TI_symbol_name("dispatchid")
    6298                            .dwattr $C$DW$414, DW_AT_type(*$C$DW$T$10)
    6299                            .dwattr $C$DW$414, DW_AT_location[DW_OP_reg1]
    6300                    
    6301                    
    6302                    ;*****************************************************************************
    6303                    ;* FUNCTION NAME: osal_enroll_dispatchid                                     *
    6304                    ;*                                                                           *
    6305                    ;*   Regs Modified     : A3,A4,SR                                            *
    6306                    ;*   Regs Used         : A1,A2,A3,A4,LR,SR                                   *
    6307                    ;*   Local Frame Size  : 0 Args + 0 Auto + 0 Save = 0 byte                   *
    6308                    ;*****************************************************************************
    6309                    osal_enroll_dispatchid:
    6310                    ;* --------------------------------------------------------------------------*
    6311                    ;* A4    assigned to $O$v1
    6312                    ;* A1    assigned to taskid
    6313                    $C$DW$415       .dwtag  DW_TAG_variable
    6314                            .dwattr $C$DW$415, DW_AT_name("taskid")
    6315                            .dwattr $C$DW$415, DW_AT_TI_symbol_name("taskid")
    6316                            .dwattr $C$DW$415, DW_AT_type(*$C$DW$T$298)
    6317                            .dwattr $C$DW$415, DW_AT_location[DW_OP_reg0]
    6318                    
    6319                    ;* A2    assigned to dispatchid
    6320                    $C$DW$416       .dwtag  DW_TAG_variable
    6321                            .dwattr $C$DW$416, DW_AT_name("dispatchid")
    6322                            .dwattr $C$DW$416, DW_AT_TI_symbol_name("dispatchid")
    6323                            .dwattr $C$DW$416, DW_AT_type(*$C$DW$T$302)
    6324                            .dwattr $C$DW$416, DW_AT_location[DW_OP_reg1]
    6325                    
TI ARM Assembler PC v16.9.9 Sun Nov 25 16:40:48 2018

Tools Copyright (c) 1996-2017 Texas Instruments Incorporated
C:\Users\Stryd\AppData\Local\Temp\{8719FFD6-004A-4401-8DC3-4DA83C6CF1D8} PAGE  116

    6326                            .dwcfi  cfa_offset, 0
    6327                            .dwpsn  file "../Application/MAC/OSAL/osal.c",line 524,column 3,is_stmt,isa 1
    6328 00000000 4A04              LDR       A3, $C$CON106         ; [DPU_3_PIPE] |524|  ; [ORIG 16-BIT INS]
    6329 00000002 3228              ADDS      A3, A3, #40           ; [DPU_3_PIPE]  ; [ORIG 16-BIT INS]
    6330 00000004 6813              LDR       A4, [A3, #0]          ; [DPU_3_PIPE] |524|  ; [ORIG 16-BIT INS]
    6331                            .dwpsn  file "../Application/MAC/OSAL/osal.c",line 525,column 3,is_stmt,isa 1
    6332 00000006 4A04              LDR       A3, $C$CON107         ; [DPU_3_PIPE] |525|  ; [ORIG 16-BIT INS]
    6333 00000008 7812              LDRB      A3, [A3, #0]          ; [DPU_3_PIPE] |525|  ; [ORIG 16-BIT INS]
    6334                            .dwpsn  file "../Application/MAC/OSAL/osal.c",line 524,column 3,is_stmt,isa 1
    6335 0000000a 5419              STRB      A2, [A4, +A1]         ; [DPU_3_PIPE] |524|  ; [ORIG 16-BIT INS]
    6336                            .dwpsn  file "../Application/MAC/OSAL/osal.c",line 525,column 3,is_stmt,isa 1
    6337 0000000c 1812              ADDS      A3, A3, A1            ; [DPU_3_PIPE] |525|  ; [ORIG 16-BIT INS]
    6338 0000000e 5499              STRB      A2, [A4, +A3]         ; [DPU_3_PIPE] |525|  ; [ORIG 16-BIT INS]
    6339                    $C$DW$417       .dwtag  DW_TAG_TI_branch
    6340                            .dwattr $C$DW$417, DW_AT_low_pc(0x00)
    6341                            .dwattr $C$DW$417, DW_AT_TI_return
    6342                    
    6343 00000010 4770              BX        LR                    ; [DPU_3_PIPE]  ; [ORIG 16-BIT INS]
    6344                            ; BRANCH OCCURS                  ; [] 
    6345                            .dwattr $C$DW$412, DW_AT_TI_end_file("../Application/MAC/OSAL/osal.c")
    6346                            .dwattr $C$DW$412, DW_AT_TI_end_line(0x20e)
    6347                            .dwattr $C$DW$412, DW_AT_TI_end_column(0x01)
    6348                            .dwendentry
    6349                            .dwendtag $C$DW$412
    6350                    
    6351 00000000                   .sect   ".text:osal_build_uint32"
    6352                            .clink
    6353                            .thumbfunc osal_build_uint32
    6354 00000000                   .thumb
    6355                            .global osal_build_uint32
    6356                    
    6357                    $C$DW$418       .dwtag  DW_TAG_subprogram
    6358                            .dwattr $C$DW$418, DW_AT_name("osal_build_uint32")
    6359                            .dwattr $C$DW$418, DW_AT_low_pc(osal_build_uint32)
    6360                            .dwattr $C$DW$418, DW_AT_high_pc(0x00)
    6361                            .dwattr $C$DW$418, DW_AT_TI_symbol_name("osal_build_uint32")
    6362                            .dwattr $C$DW$418, DW_AT_external
    6363                            .dwattr $C$DW$418, DW_AT_type(*$C$DW$T$81)
    6364                            .dwattr $C$DW$418, DW_AT_TI_begin_file("../Application/MAC/OSAL/osal.c")
    6365                            .dwattr $C$DW$418, DW_AT_TI_begin_line(0x17f)
    6366                            .dwattr $C$DW$418, DW_AT_TI_begin_column(0x08)
    6367                            .dwattr $C$DW$418, DW_AT_decl_file("../Application/MAC/OSAL/osal.c")
    6368                            .dwattr $C$DW$418, DW_AT_decl_line(0x17f)
    6369                            .dwattr $C$DW$418, DW_AT_decl_column(0x08)
    6370                            .dwattr $C$DW$418, DW_AT_TI_max_frame_size(0x00)
    6371                            .dwpsn  file "../Application/MAC/OSAL/osal.c",line 384,column 1,is_stmt,address osal_build_uin
    6372                    
    6373                            .dwfde $C$DW$CIE, osal_build_uint32
    6374                    $C$DW$419       .dwtag  DW_TAG_formal_parameter
    6375                            .dwattr $C$DW$419, DW_AT_name("swapped")
    6376                            .dwattr $C$DW$419, DW_AT_TI_symbol_name("swapped")
    6377                            .dwattr $C$DW$419, DW_AT_type(*$C$DW$T$77)
    6378                            .dwattr $C$DW$419, DW_AT_location[DW_OP_reg0]
    6379                    
    6380                    $C$DW$420       .dwtag  DW_TAG_formal_parameter
TI ARM Assembler PC v16.9.9 Sun Nov 25 16:40:48 2018

Tools Copyright (c) 1996-2017 Texas Instruments Incorporated
C:\Users\Stryd\AppData\Local\Temp\{8719FFD6-004A-4401-8DC3-4DA83C6CF1D8} PAGE  117

    6381                            .dwattr $C$DW$420, DW_AT_name("len")
    6382                            .dwattr $C$DW$420, DW_AT_TI_symbol_name("len")
    6383                            .dwattr $C$DW$420, DW_AT_type(*$C$DW$T$10)
    6384                            .dwattr $C$DW$420, DW_AT_location[DW_OP_reg1]
    6385                    
    6386                    
    6387                    ;*****************************************************************************
    6388                    ;* FUNCTION NAME: osal_build_uint32                                          *
    6389                    ;*                                                                           *
    6390                    ;*   Regs Modified     : A1,A2,A3,SR                                         *
    6391                    ;*   Regs Used         : A1,A2,A3,LR,SR                                      *
    6392                    ;*   Local Frame Size  : 0 Args + 0 Auto + 0 Save = 0 byte                   *
    6393                    ;*****************************************************************************
    6394                    osal_build_uint32:
    6395                    ;* --------------------------------------------------------------------------*
    6396                    ;* A1    assigned to swapped
    6397                    $C$DW$421       .dwtag  DW_TAG_variable
    6398                            .dwattr $C$DW$421, DW_AT_name("swapped")
    6399                            .dwattr $C$DW$421, DW_AT_TI_symbol_name("swapped")
    6400                            .dwattr $C$DW$421, DW_AT_type(*$C$DW$T$284)
    6401                            .dwattr $C$DW$421, DW_AT_location[DW_OP_reg0]
    6402                    
    6403                    ;* A2    assigned to len
    6404                    $C$DW$422       .dwtag  DW_TAG_variable
    6405                            .dwattr $C$DW$422, DW_AT_name("len")
    6406                            .dwattr $C$DW$422, DW_AT_TI_symbol_name("len")
    6407                            .dwattr $C$DW$422, DW_AT_type(*$C$DW$T$298)
    6408                            .dwattr $C$DW$422, DW_AT_location[DW_OP_reg1]
    6409                    
    6410                            .dwcfi  cfa_offset, 0
    6411                            .dwpsn  file "../Application/MAC/OSAL/osal.c",line 385,column 3,is_stmt,isa 1
    6412 00000000 2902              CMP       A2, #2                ; [DPU_3_PIPE] |385|  ; [ORIG 16-BIT INS]
    6413 00000002 BF08              IT        EQ                    ; [DPU_3_PIPE]  ; [ORIG 16-BIT INS]
    6414                            .dwpsn  file "../Application/MAC/OSAL/osal.c",line 386,column 5,is_stmt,isa 1
    6415 00000004 7801              LDRBEQ    A2, [A1, #0]          ; [DPU_3_PIPE] |386|  ; [ORIG 16-BIT INS]
    6416 00000006 D00C              BEQ       ||$C$L86||            ; [DPU_3_PIPE] |386|  ; [ORIG 16-BIT INS]
    6417                            ; BRANCHCC OCCURS {||$C$L86||}   ; [] |386| 
    6418                    ;* --------------------------------------------------------------------------*
    6419                            .dwpsn  file "../Application/MAC/OSAL/osal.c",line 387,column 8,is_stmt,isa 1
    6420 00000008 2903              CMP       A2, #3                ; [DPU_3_PIPE] |387|  ; [ORIG 16-BIT INS]
    6421 0000000a BF08              IT        EQ                    ; [DPU_3_PIPE]  ; [ORIG 16-BIT INS]
    6422                            .dwpsn  file "../Application/MAC/OSAL/osal.c",line 388,column 5,is_stmt,isa 1
    6423 0000000c 7801              LDRBEQ    A2, [A1, #0]          ; [DPU_3_PIPE] |388|  ; [ORIG 16-BIT INS]
    6424 0000000e D005              BEQ       ||$C$L85||            ; [DPU_3_PIPE] |388|  ; [ORIG 16-BIT INS]
    6425                            ; BRANCHCC OCCURS {||$C$L85||}   ; [] |388| 
    6426                    ;* --------------------------------------------------------------------------*
    6427                            .dwpsn  file "../Application/MAC/OSAL/osal.c",line 389,column 8,is_stmt,isa 1
    6428 00000010 2904              CMP       A2, #4                ; [DPU_3_PIPE] |389|  ; [ORIG 16-BIT INS]
    6429 00000012 D10A              BNE       ||$C$L87||            ; [DPU_3_PIPE] |389|  ; [ORIG 16-BIT INS]
    6430                            ; BRANCHCC OCCURS {||$C$L87||}   ; [] |389| 
    6431                    ;* --------------------------------------------------------------------------*
    6432                            .dwcfi  remember_state
    6433                            .dwpsn  file "../Application/MAC/OSAL/osal.c",line 390,column 5,is_stmt,isa 1
    6434 00000014 78C2              LDRB      A3, [A1, #3]          ; [DPU_3_PIPE] |390|  ; [ORIG 16-BIT INS]
    6435 00000016 7801              LDRB      A2, [A1, #0]          ; [DPU_3_PIPE] |390|  ; [ORIG 16-BIT INS]
TI ARM Assembler PC v16.9.9 Sun Nov 25 16:40:48 2018

Tools Copyright (c) 1996-2017 Texas Instruments Incorporated
C:\Users\Stryd\AppData\Local\Temp\{8719FFD6-004A-4401-8DC3-4DA83C6CF1D8} PAGE  118

    6436 00000018 6102EB01          ADD       A2, A2, A3, LSL #24   ; [DPU_3_PIPE] |390|  ; [KEEP 32-BIT INS]
    6437                    ;* --------------------------------------------------------------------------*
    6438 0000001c           ||$C$L85||:    
    6439 0000001c 7882              LDRB      A3, [A1, #2]          ; [DPU_3_PIPE] |390|  ; [ORIG 16-BIT INS]
    6440 0000001e 4102EB01          ADD       A2, A2, A3, LSL #16   ; [DPU_3_PIPE] |390|  ; [KEEP 32-BIT INS]
    6441                    ;* --------------------------------------------------------------------------*
    6442 00000022           ||$C$L86||:    
    6443 00000022 7840              LDRB      A1, [A1, #1]          ; [DPU_3_PIPE] |390|  ; [ORIG 16-BIT INS]
    6444 00000024 2000EB01          ADD       A1, A2, A1, LSL #8    ; [DPU_3_PIPE] |390|  ; [KEEP 32-BIT INS]
    6445                    $C$DW$423       .dwtag  DW_TAG_TI_branch
    6446                            .dwattr $C$DW$423, DW_AT_low_pc(0x00)
    6447                            .dwattr $C$DW$423, DW_AT_TI_return
    6448                    
    6449 00000028 4770              BX        LR                    ; [DPU_3_PIPE]  ; [ORIG 16-BIT INS]
    6450                            ; BRANCH OCCURS                  ; [] 
    6451                            .dwcfi  restore_state
    6452                    ;* --------------------------------------------------------------------------*
    6453 0000002a           ||$C$L87||:    
    6454                            .dwpsn  file "../Application/MAC/OSAL/osal.c",line 392,column 5,is_stmt,isa 1
    6455 0000002a 7800              LDRB      A1, [A1, #0]          ; [DPU_3_PIPE] |392|  ; [ORIG 16-BIT INS]
    6456                    ;* --------------------------------------------------------------------------*
    6457                    $C$DW$424       .dwtag  DW_TAG_TI_branch
    6458                            .dwattr $C$DW$424, DW_AT_low_pc(0x00)
    6459                            .dwattr $C$DW$424, DW_AT_TI_return
    6460                    
    6461 0000002c 4770              BX        LR                    ; [DPU_3_PIPE]  ; [ORIG 16-BIT INS]
    6462                            ; BRANCH OCCURS                  ; [] 
    6463                            .dwattr $C$DW$418, DW_AT_TI_end_file("../Application/MAC/OSAL/osal.c")
    6464                            .dwattr $C$DW$418, DW_AT_TI_end_line(0x189)
    6465                            .dwattr $C$DW$418, DW_AT_TI_end_column(0x01)
    6466                            .dwendentry
    6467                            .dwendtag $C$DW$418
    6468                    
    6469 00000000                   .sect   ".text:osal_build_uint16"
    6470                            .clink
    6471                            .thumbfunc osal_build_uint16
    6472 00000000                   .thumb
    6473                            .global osal_build_uint16
    6474                    
    6475                    $C$DW$425       .dwtag  DW_TAG_subprogram
    6476                            .dwattr $C$DW$425, DW_AT_name("osal_build_uint16")
    6477                            .dwattr $C$DW$425, DW_AT_low_pc(osal_build_uint16)
    6478                            .dwattr $C$DW$425, DW_AT_high_pc(0x00)
    6479                            .dwattr $C$DW$425, DW_AT_TI_symbol_name("osal_build_uint16")
    6480                            .dwattr $C$DW$425, DW_AT_external
    6481                            .dwattr $C$DW$425, DW_AT_type(*$C$DW$T$73)
    6482                            .dwattr $C$DW$425, DW_AT_TI_begin_file("../Application/MAC/OSAL/osal.c")
    6483                            .dwattr $C$DW$425, DW_AT_TI_begin_line(0x16e)
    6484                            .dwattr $C$DW$425, DW_AT_TI_begin_column(0x08)
    6485                            .dwattr $C$DW$425, DW_AT_decl_file("../Application/MAC/OSAL/osal.c")
    6486                            .dwattr $C$DW$425, DW_AT_decl_line(0x16e)
    6487                            .dwattr $C$DW$425, DW_AT_decl_column(0x08)
    6488                            .dwattr $C$DW$425, DW_AT_TI_max_frame_size(0x00)
    6489                            .dwpsn  file "../Application/MAC/OSAL/osal.c",line 367,column 1,is_stmt,address osal_build_uin
    6490                    
TI ARM Assembler PC v16.9.9 Sun Nov 25 16:40:48 2018

Tools Copyright (c) 1996-2017 Texas Instruments Incorporated
C:\Users\Stryd\AppData\Local\Temp\{8719FFD6-004A-4401-8DC3-4DA83C6CF1D8} PAGE  119

    6491                            .dwfde $C$DW$CIE, osal_build_uint16
    6492                    $C$DW$426       .dwtag  DW_TAG_formal_parameter
    6493                            .dwattr $C$DW$426, DW_AT_name("swapped")
    6494                            .dwattr $C$DW$426, DW_AT_TI_symbol_name("swapped")
    6495                            .dwattr $C$DW$426, DW_AT_type(*$C$DW$T$77)
    6496                            .dwattr $C$DW$426, DW_AT_location[DW_OP_reg0]
    6497                    
    6498                    
    6499                    ;*****************************************************************************
    6500                    ;* FUNCTION NAME: osal_build_uint16                                          *
    6501                    ;*                                                                           *
    6502                    ;*   Regs Modified     : A1,A2                                               *
    6503                    ;*   Regs Used         : A1,A2,LR                                            *
    6504                    ;*   Local Frame Size  : 0 Args + 0 Auto + 0 Save = 0 byte                   *
    6505                    ;*****************************************************************************
    6506                    osal_build_uint16:
    6507                    ;* --------------------------------------------------------------------------*
    6508                    ;* A1    assigned to swapped
    6509                    $C$DW$427       .dwtag  DW_TAG_variable
    6510                            .dwattr $C$DW$427, DW_AT_name("swapped")
    6511                            .dwattr $C$DW$427, DW_AT_TI_symbol_name("swapped")
    6512                            .dwattr $C$DW$427, DW_AT_type(*$C$DW$T$284)
    6513                            .dwattr $C$DW$427, DW_AT_location[DW_OP_reg0]
    6514                    
    6515                            .dwcfi  cfa_offset, 0
    6516                            .dwpsn  file "../Application/MAC/OSAL/osal.c",line 368,column 3,is_stmt,isa 1
    6517 00000000 7841              LDRB      A2, [A1, #1]          ; [DPU_3_PIPE] |368|  ; [ORIG 16-BIT INS]
    6518 00000002 7800              LDRB      A1, [A1, #0]          ; [DPU_3_PIPE] |368|  ; [ORIG 16-BIT INS]
    6519 00000004 2001EB00          ADD       A1, A1, A2, LSL #8    ; [DPU_3_PIPE] |368|  ; [KEEP 32-BIT INS]
    6520 00000008 B280              UXTH      A1, A1                ; [DPU_3_PIPE] |368|  ; [ORIG 16-BIT INS]
    6521                    $C$DW$428       .dwtag  DW_TAG_TI_branch
    6522                            .dwattr $C$DW$428, DW_AT_low_pc(0x00)
    6523                            .dwattr $C$DW$428, DW_AT_TI_return
    6524                    
    6525 0000000a 4770              BX        LR                    ; [DPU_3_PIPE]  ; [ORIG 16-BIT INS]
    6526                            ; BRANCH OCCURS                  ; [] 
    6527                            .dwattr $C$DW$425, DW_AT_TI_end_file("../Application/MAC/OSAL/osal.c")
    6528                            .dwattr $C$DW$425, DW_AT_TI_end_line(0x171)
    6529                            .dwattr $C$DW$425, DW_AT_TI_end_column(0x01)
    6530                            .dwendentry
    6531                            .dwendtag $C$DW$425
    6532                    
    6533 00000000                   .sect   ".text:osal_buffer_uint32"
    6534                            .clink
    6535                            .thumbfunc osal_buffer_uint32
    6536 00000000                   .thumb
    6537                            .global osal_buffer_uint32
    6538                    
    6539                    $C$DW$429       .dwtag  DW_TAG_subprogram
    6540                            .dwattr $C$DW$429, DW_AT_name("osal_buffer_uint32")
    6541                            .dwattr $C$DW$429, DW_AT_low_pc(osal_buffer_uint32)
    6542                            .dwattr $C$DW$429, DW_AT_high_pc(0x00)
    6543                            .dwattr $C$DW$429, DW_AT_TI_symbol_name("osal_buffer_uint32")
    6544                            .dwattr $C$DW$429, DW_AT_external
    6545                            .dwattr $C$DW$429, DW_AT_type(*$C$DW$T$77)
TI ARM Assembler PC v16.9.9 Sun Nov 25 16:40:48 2018

Tools Copyright (c) 1996-2017 Texas Instruments Incorporated
C:\Users\Stryd\AppData\Local\Temp\{8719FFD6-004A-4401-8DC3-4DA83C6CF1D8} PAGE  120

    6546                            .dwattr $C$DW$429, DW_AT_TI_begin_file("../Application/MAC/OSAL/osal.c")
    6547                            .dwattr $C$DW$429, DW_AT_TI_begin_line(0x73e)
    6548                            .dwattr $C$DW$429, DW_AT_TI_begin_column(0x08)
    6549                            .dwattr $C$DW$429, DW_AT_decl_file("../Application/MAC/OSAL/osal.c")
    6550                            .dwattr $C$DW$429, DW_AT_decl_line(0x73e)
    6551                            .dwattr $C$DW$429, DW_AT_decl_column(0x08)
    6552                            .dwattr $C$DW$429, DW_AT_TI_max_frame_size(0x00)
    6553                            .dwpsn  file "../Application/MAC/OSAL/osal.c",line 1855,column 1,is_stmt,address osal_buffer_u
    6554                    
    6555                            .dwfde $C$DW$CIE, osal_buffer_uint32
    6556                    $C$DW$430       .dwtag  DW_TAG_formal_parameter
    6557                            .dwattr $C$DW$430, DW_AT_name("buf")
    6558                            .dwattr $C$DW$430, DW_AT_TI_symbol_name("buf")
    6559                            .dwattr $C$DW$430, DW_AT_type(*$C$DW$T$77)
    6560                            .dwattr $C$DW$430, DW_AT_location[DW_OP_reg0]
    6561                    
    6562                    $C$DW$431       .dwtag  DW_TAG_formal_parameter
    6563                            .dwattr $C$DW$431, DW_AT_name("val")
    6564                            .dwattr $C$DW$431, DW_AT_TI_symbol_name("val")
    6565                            .dwattr $C$DW$431, DW_AT_type(*$C$DW$T$81)
    6566                            .dwattr $C$DW$431, DW_AT_location[DW_OP_reg1]
    6567                    
    6568                    
    6569                    ;*****************************************************************************
    6570                    ;* FUNCTION NAME: osal_buffer_uint32                                         *
    6571                    ;*                                                                           *
    6572                    ;*   Regs Modified     : A1,A2,A3,SR                                         *
    6573                    ;*   Regs Used         : A1,A2,A3,LR,SR                                      *
    6574                    ;*   Local Frame Size  : 0 Args + 0 Auto + 0 Save = 0 byte                   *
    6575                    ;*****************************************************************************
    6576                    osal_buffer_uint32:
    6577                    ;* --------------------------------------------------------------------------*
    6578                    ;* A1    assigned to buf
    6579                    $C$DW$432       .dwtag  DW_TAG_variable
    6580                            .dwattr $C$DW$432, DW_AT_name("buf")
    6581                            .dwattr $C$DW$432, DW_AT_TI_symbol_name("buf")
    6582                            .dwattr $C$DW$432, DW_AT_type(*$C$DW$T$77)
    6583                            .dwattr $C$DW$432, DW_AT_location[DW_OP_reg0]
    6584                    
    6585                    ;* A2    assigned to val
    6586                    $C$DW$433       .dwtag  DW_TAG_variable
    6587                            .dwattr $C$DW$433, DW_AT_name("val")
    6588                            .dwattr $C$DW$433, DW_AT_TI_symbol_name("val")
    6589                            .dwattr $C$DW$433, DW_AT_type(*$C$DW$T$382)
    6590                            .dwattr $C$DW$433, DW_AT_location[DW_OP_reg1]
    6591                    
    6592                            .dwcfi  cfa_offset, 0
    6593                            .dwpsn  file "../Application/MAC/OSAL/osal.c",line 1856,column 3,is_stmt,isa 1
    6594 00000000 1B01F800          STRB      A2, [A1], #1          ; [DPU_3_PIPE] |1856|  ; [KEEP 32-BIT INS]
    6595                            .dwpsn  file "../Application/MAC/OSAL/osal.c",line 1857,column 3,is_stmt,isa 1
    6596 00000004 0A0A              LSRS      A3, A2, #8            ; [DPU_3_PIPE] |1857|  ; [ORIG 16-BIT INS]
    6597 00000006 2B01F800          STRB      A3, [A1], #1          ; [DPU_3_PIPE] |1857|  ; [KEEP 32-BIT INS]
    6598                            .dwpsn  file "../Application/MAC/OSAL/osal.c",line 1858,column 3,is_stmt,isa 1
    6599 0000000a 0C0A              LSRS      A3, A2, #16           ; [DPU_3_PIPE] |1858|  ; [ORIG 16-BIT INS]
    6600 0000000c 2B01F800          STRB      A3, [A1], #1          ; [DPU_3_PIPE] |1858|  ; [KEEP 32-BIT INS]
TI ARM Assembler PC v16.9.9 Sun Nov 25 16:40:48 2018

Tools Copyright (c) 1996-2017 Texas Instruments Incorporated
C:\Users\Stryd\AppData\Local\Temp\{8719FFD6-004A-4401-8DC3-4DA83C6CF1D8} PAGE  121

    6601                            .dwpsn  file "../Application/MAC/OSAL/osal.c",line 1859,column 3,is_stmt,isa 1
    6602 00000010 0E09              LSRS      A2, A2, #24           ; [DPU_3_PIPE] |1859|  ; [ORIG 16-BIT INS]
    6603 00000012 1B01F800          STRB      A2, [A1], #1          ; [DPU_3_PIPE] |1859|  ; [KEEP 32-BIT INS]
    6604                    $C$DW$434       .dwtag  DW_TAG_TI_branch
    6605                            .dwattr $C$DW$434, DW_AT_low_pc(0x00)
    6606                            .dwattr $C$DW$434, DW_AT_TI_return
    6607                    
    6608 00000016 4770              BX        LR                    ; [DPU_3_PIPE]  ; [ORIG 16-BIT INS]
    6609                            ; BRANCH OCCURS                  ; [] 
    6610                            .dwattr $C$DW$429, DW_AT_TI_end_file("../Application/MAC/OSAL/osal.c")
    6611                            .dwattr $C$DW$429, DW_AT_TI_end_line(0x746)
    6612                            .dwattr $C$DW$429, DW_AT_TI_end_column(0x01)
    6613                            .dwendentry
    6614                            .dwendtag $C$DW$429
    6615                    
    6616 00000000                   .sect   ".text:osal_buffer_uint24"
    6617                            .clink
    6618                            .thumbfunc osal_buffer_uint24
    6619 00000000                   .thumb
    6620                            .global osal_buffer_uint24
    6621                    
    6622                    $C$DW$435       .dwtag  DW_TAG_subprogram
    6623                            .dwattr $C$DW$435, DW_AT_name("osal_buffer_uint24")
    6624                            .dwattr $C$DW$435, DW_AT_low_pc(osal_buffer_uint24)
    6625                            .dwattr $C$DW$435, DW_AT_high_pc(0x00)
    6626                            .dwattr $C$DW$435, DW_AT_TI_symbol_name("osal_buffer_uint24")
    6627                            .dwattr $C$DW$435, DW_AT_external
    6628                            .dwattr $C$DW$435, DW_AT_type(*$C$DW$T$77)
    6629                            .dwattr $C$DW$435, DW_AT_TI_begin_file("../Application/MAC/OSAL/osal.c")
    6630                            .dwattr $C$DW$435, DW_AT_TI_begin_line(0x755)
    6631                            .dwattr $C$DW$435, DW_AT_TI_begin_column(0x08)
    6632                            .dwattr $C$DW$435, DW_AT_decl_file("../Application/MAC/OSAL/osal.c")
    6633                            .dwattr $C$DW$435, DW_AT_decl_line(0x755)
    6634                            .dwattr $C$DW$435, DW_AT_decl_column(0x08)
    6635                            .dwattr $C$DW$435, DW_AT_TI_max_frame_size(0x00)
    6636                            .dwpsn  file "../Application/MAC/OSAL/osal.c",line 1878,column 1,is_stmt,address osal_buffer_u
    6637                    
    6638                            .dwfde $C$DW$CIE, osal_buffer_uint24
    6639                    $C$DW$436       .dwtag  DW_TAG_formal_parameter
    6640                            .dwattr $C$DW$436, DW_AT_name("buf")
    6641                            .dwattr $C$DW$436, DW_AT_TI_symbol_name("buf")
    6642                            .dwattr $C$DW$436, DW_AT_type(*$C$DW$T$77)
    6643                            .dwattr $C$DW$436, DW_AT_location[DW_OP_reg0]
    6644                    
    6645                    $C$DW$437       .dwtag  DW_TAG_formal_parameter
    6646                            .dwattr $C$DW$437, DW_AT_name("val")
    6647                            .dwattr $C$DW$437, DW_AT_TI_symbol_name("val")
    6648                            .dwattr $C$DW$437, DW_AT_type(*$C$DW$T$252)
    6649                            .dwattr $C$DW$437, DW_AT_location[DW_OP_reg1]
    6650                    
    6651                    
    6652                    ;*****************************************************************************
    6653                    ;* FUNCTION NAME: osal_buffer_uint24                                         *
    6654                    ;*                                                                           *
    6655                    ;*   Regs Modified     : A1,A2,A3,SR                                         *
TI ARM Assembler PC v16.9.9 Sun Nov 25 16:40:48 2018

Tools Copyright (c) 1996-2017 Texas Instruments Incorporated
C:\Users\Stryd\AppData\Local\Temp\{8719FFD6-004A-4401-8DC3-4DA83C6CF1D8} PAGE  122

    6656                    ;*   Regs Used         : A1,A2,A3,LR,SR                                      *
    6657                    ;*   Local Frame Size  : 0 Args + 0 Auto + 0 Save = 0 byte                   *
    6658                    ;*****************************************************************************
    6659                    osal_buffer_uint24:
    6660                    ;* --------------------------------------------------------------------------*
    6661                    ;* A1    assigned to buf
    6662                    $C$DW$438       .dwtag  DW_TAG_variable
    6663                            .dwattr $C$DW$438, DW_AT_name("buf")
    6664                            .dwattr $C$DW$438, DW_AT_TI_symbol_name("buf")
    6665                            .dwattr $C$DW$438, DW_AT_type(*$C$DW$T$77)
    6666                            .dwattr $C$DW$438, DW_AT_location[DW_OP_reg0]
    6667                    
    6668                    ;* A2    assigned to val
    6669                    $C$DW$439       .dwtag  DW_TAG_variable
    6670                            .dwattr $C$DW$439, DW_AT_name("val")
    6671                            .dwattr $C$DW$439, DW_AT_TI_symbol_name("val")
    6672                            .dwattr $C$DW$439, DW_AT_type(*$C$DW$T$381)
    6673                            .dwattr $C$DW$439, DW_AT_location[DW_OP_reg1]
    6674                    
    6675                            .dwcfi  cfa_offset, 0
    6676                            .dwpsn  file "../Application/MAC/OSAL/osal.c",line 1879,column 3,is_stmt,isa 1
    6677 00000000 1B01F800          STRB      A2, [A1], #1          ; [DPU_3_PIPE] |1879|  ; [KEEP 32-BIT INS]
    6678                            .dwpsn  file "../Application/MAC/OSAL/osal.c",line 1880,column 3,is_stmt,isa 1
    6679 00000004 0A0A              LSRS      A3, A2, #8            ; [DPU_3_PIPE] |1880|  ; [ORIG 16-BIT INS]
    6680 00000006 2B01F800          STRB      A3, [A1], #1          ; [DPU_3_PIPE] |1880|  ; [KEEP 32-BIT INS]
    6681                            .dwpsn  file "../Application/MAC/OSAL/osal.c",line 1881,column 3,is_stmt,isa 1
    6682 0000000a 0C09              LSRS      A2, A2, #16           ; [DPU_3_PIPE] |1881|  ; [ORIG 16-BIT INS]
    6683 0000000c 1B01F800          STRB      A2, [A1], #1          ; [DPU_3_PIPE] |1881|  ; [KEEP 32-BIT INS]
    6684                    $C$DW$440       .dwtag  DW_TAG_TI_branch
    6685                            .dwattr $C$DW$440, DW_AT_low_pc(0x00)
    6686                            .dwattr $C$DW$440, DW_AT_TI_return
    6687                    
    6688 00000010 4770              BX        LR                    ; [DPU_3_PIPE]  ; [ORIG 16-BIT INS]
    6689                            ; BRANCH OCCURS                  ; [] 
    6690                            .dwattr $C$DW$435, DW_AT_TI_end_file("../Application/MAC/OSAL/osal.c")
    6691                            .dwattr $C$DW$435, DW_AT_TI_end_line(0x75c)
    6692                            .dwattr $C$DW$435, DW_AT_TI_end_column(0x01)
    6693                            .dwendentry
    6694                            .dwendtag $C$DW$435
    6695                    
    6696 00000000                   .sect   ".text:_ltoa"
    6697                            .clink
    6698                            .thumbfunc _ltoa
    6699 00000000                   .thumb
    6700                            .global _ltoa
    6701                    
    6702                    $C$DW$441       .dwtag  DW_TAG_subprogram
    6703                            .dwattr $C$DW$441, DW_AT_name("_ltoa")
    6704                            .dwattr $C$DW$441, DW_AT_low_pc(_ltoa)
    6705                            .dwattr $C$DW$441, DW_AT_high_pc(0x00)
    6706                            .dwattr $C$DW$441, DW_AT_TI_symbol_name("_ltoa")
    6707                            .dwattr $C$DW$441, DW_AT_external
    6708                            .dwattr $C$DW$441, DW_AT_type(*$C$DW$T$98)
    6709                            .dwattr $C$DW$441, DW_AT_TI_begin_file("../Application/MAC/OSAL/osal.c")
    6710                            .dwattr $C$DW$441, DW_AT_TI_begin_line(0x199)
TI ARM Assembler PC v16.9.9 Sun Nov 25 16:40:48 2018

Tools Copyright (c) 1996-2017 Texas Instruments Incorporated
C:\Users\Stryd\AppData\Local\Temp\{8719FFD6-004A-4401-8DC3-4DA83C6CF1D8} PAGE  123

    6711                            .dwattr $C$DW$441, DW_AT_TI_begin_column(0x11)
    6712                            .dwattr $C$DW$441, DW_AT_decl_file("../Application/MAC/OSAL/osal.c")
    6713                            .dwattr $C$DW$441, DW_AT_decl_line(0x199)
    6714                            .dwattr $C$DW$441, DW_AT_decl_column(0x11)
    6715                            .dwattr $C$DW$441, DW_AT_TI_max_frame_size(0x00)
    6716                            .dwpsn  file "../Application/MAC/OSAL/osal.c",line 410,column 1,is_stmt,address _ltoa,isa 1
    6717                    
    6718                            .dwfde $C$DW$CIE, _ltoa
    6719                    $C$DW$442       .dwtag  DW_TAG_formal_parameter
    6720                            .dwattr $C$DW$442, DW_AT_name("l")
    6721                            .dwattr $C$DW$442, DW_AT_TI_symbol_name("l")
    6722                            .dwattr $C$DW$442, DW_AT_type(*$C$DW$T$13)
    6723                            .dwattr $C$DW$442, DW_AT_location[DW_OP_reg0]
    6724                    
    6725                    $C$DW$443       .dwtag  DW_TAG_formal_parameter
    6726                            .dwattr $C$DW$443, DW_AT_name("buf")
    6727                            .dwattr $C$DW$443, DW_AT_TI_symbol_name("buf")
    6728                            .dwattr $C$DW$443, DW_AT_type(*$C$DW$T$98)
    6729                            .dwattr $C$DW$443, DW_AT_location[DW_OP_reg1]
    6730                    
    6731                    $C$DW$444       .dwtag  DW_TAG_formal_parameter
    6732                            .dwattr $C$DW$444, DW_AT_name("radix")
    6733                            .dwattr $C$DW$444, DW_AT_TI_symbol_name("radix")
    6734                            .dwattr $C$DW$444, DW_AT_type(*$C$DW$T$10)
    6735                            .dwattr $C$DW$444, DW_AT_location[DW_OP_reg2]
    6736                    
    6737                    
    6738                    ;*****************************************************************************
    6739                    ;* FUNCTION NAME: _ltoa                                                      *
    6740                    ;*                                                                           *
    6741                    ;*   Regs Modified     : A1,A2,A3,A4,V9,LR,SR                                *
    6742                    ;*   Regs Used         : A1,A2,A3,A4,V9,SP,LR,SR                             *
    6743                    ;*   Local Frame Size  : 0 Args + 0 Auto + 0 Save = 0 byte                   *
    6744                    ;*****************************************************************************
    6745 00000000           _ltoa:
    6746                    ;* --------------------------------------------------------------------------*
    6747                            .dwcfi  cfa_offset, 0
    6748                            .dwpsn  file "../Application/MAC/OSAL/osal.c",line 412,column 3,is_stmt,isa 1
    6749                    $C$DW$445       .dwtag  DW_TAG_TI_branch
    6750                            .dwattr $C$DW$445, DW_AT_low_pc(0x00)
    6751                            .dwattr $C$DW$445, DW_AT_name("ltoa")
    6752                            .dwattr $C$DW$445, DW_AT_TI_call
    6753                            .dwattr $C$DW$445, DW_AT_TI_return
    6754                    
    6755 00000000 BFFEF7FF!         CRET      ltoa                  ; [DPU_3_PIPE] |412|  ; [KEEP 32-BIT INS]
    6756                            ; CALL OCCURS {ltoa }            ; [] |412| 
    6757                            .dwattr $C$DW$441, DW_AT_TI_end_file("../Application/MAC/OSAL/osal.c")
    6758                            .dwattr $C$DW$441, DW_AT_TI_end_line(0x1d7)
    6759                            .dwattr $C$DW$441, DW_AT_TI_end_column(0x01)
    6760                            .dwendentry
    6761                            .dwendtag $C$DW$441
    6762                    
    6763                    ;******************************************************************************
    6764                    ;* CONSTANT TABLE                                                             *
    6765                    ;******************************************************************************
TI ARM Assembler PC v16.9.9 Sun Nov 25 16:40:48 2018

Tools Copyright (c) 1996-2017 Texas Instruments Incorporated
C:\Users\Stryd\AppData\Local\Temp\{8719FFD6-004A-4401-8DC3-4DA83C6CF1D8} PAGE  124

    6766 0000001a                   .sect   ".text:ICall_signal"
    6767                            .align  4
    6768 0000001a 000046C0! ||$C$CON1||:    .bits   ICall_dispatcher,32
         0000001e 00000000 
    6769                    ;******************************************************************************
    6770                    ;* CONSTANT TABLE                                                             *
    6771                    ;******************************************************************************
    6772 00000024                   .sect   ".text:osal_msec_timer_cback"
    6773                            .align  4
    6774 00000024 00000000! ||$C$CON2||:    .bits   ICall_enterCriticalSection,32
    6775                            .align  4
    6776 00000028 00000000! ||$C$CON3||:    .bits   ||$O1$$||,32
    6777                            .align  4
    6778 0000002c 00000000! ||$C$CON4||:    .bits   ICall_leaveCriticalSection,32
    6779                    ;******************************************************************************
    6780                    ;* CONSTANT TABLE                                                             *
    6781                    ;******************************************************************************
    6782 00000032                   .sect   ".text:ICall_setTimer"
    6783                            .align  4
    6784 00000032 000046C0! ||$C$CON5||:    .bits   osal_msec_timer_cback,32
         00000036 00000000 
    6785                            .align  4
    6786 00000036 00000000! ||$C$CON8||:    .bits   ||$O1$$||,32
         0000003a 00000000 
    6787                            .align  4
    6788 0000003a 00000000! ||$C$CON9||:    .bits   ICall_dispatcher,32
         0000003e 00000000 
    6789                    ;******************************************************************************
    6790                    ;* CONSTANT TABLE                                                             *
    6791                    ;******************************************************************************
    6792 00000018                   .sect   ".text:ICall_abort"
    6793                            .align  4
    6794 00000018 00000000! ||$C$CON11||:   .bits   ICall_dispatcher,32
    6795                    ;******************************************************************************
    6796                    ;* CONSTANT TABLE                                                             *
    6797                    ;******************************************************************************
    6798 0000001a                   .sect   ".text:ICall_getTicks"
    6799                            .align  4
    6800 0000001a 000046C0! ||$C$CON13||:   .bits   ICall_dispatcher,32
         0000001e 00000000 
    6801                    ;******************************************************************************
    6802                    ;* CONSTANT TABLE                                                             *
    6803                    ;******************************************************************************
    6804 0000002c                   .sect   ".text:osal_alien2proxy"
    6805                            .align  4
    6806 0000002c 00000000! ||$C$CON15||:   .bits   ||$O1$$||,32
    6807                    ;******************************************************************************
    6808                    ;* CONSTANT TABLE                                                             *
    6809                    ;******************************************************************************
    6810 00000030                   .sect   ".text:osal_msg_enqueue"
    6811                            .align  4
    6812 00000030 00000000! ||$C$CON18||:   .bits   ICall_enterCriticalSection,32
    6813                            .align  4
    6814 00000034 00000000! ||$C$CON19||:   .bits   ICall_leaveCriticalSection,32
    6815                    ;******************************************************************************
TI ARM Assembler PC v16.9.9 Sun Nov 25 16:40:48 2018

Tools Copyright (c) 1996-2017 Texas Instruments Incorporated
C:\Users\Stryd\AppData\Local\Temp\{8719FFD6-004A-4401-8DC3-4DA83C6CF1D8} PAGE  125

    6816                    ;* CONSTANT TABLE                                                             *
    6817                    ;******************************************************************************
    6818 0000001c                   .sect   ".text:osal_msg_push"
    6819                            .align  4
    6820 0000001c 00000000! ||$C$CON22||:   .bits   ICall_enterCriticalSection,32
    6821                            .align  4
    6822 00000020 00000000! ||$C$CON23||:   .bits   ICall_leaveCriticalSection,32
    6823                    ;******************************************************************************
    6824                    ;* CONSTANT TABLE                                                             *
    6825                    ;******************************************************************************
    6826 00000006                   .sect   ".text:osal_self"
    6827                            .align  4
    6828 00000006 000046C0! ||$C$CON24||:   .bits   ||$O1$$||,32
         0000000a 00000000 
    6829                    ;******************************************************************************
    6830                    ;* CONSTANT TABLE                                                             *
    6831                    ;******************************************************************************
    6832 00000016                   .sect   ".text:osal_proxy2alien"
    6833                            .align  4
    6834 00000016 000046C0! ||$C$CON26||:   .bits   ||$O1$$||,32
         0000001a 00000000 
    6835                    ;******************************************************************************
    6836                    ;* CONSTANT TABLE                                                             *
    6837                    ;******************************************************************************
    6838 0000002e                   .sect   ".text:ICall_send"
    6839                            .align  4
    6840 0000002e 000046C0! ||$C$CON27||:   .bits   ICall_dispatcher,32
         00000032 00000000 
    6841                    ;******************************************************************************
    6842                    ;* CONSTANT TABLE                                                             *
    6843                    ;******************************************************************************
    6844 000000b2                   .sect   ".text:osal_set_event"
    6845                            .align  4
    6846 000000b2 000046C0! ||$C$CON28||:   .bits   tasksCnt,32
         000000b6 00000000 
    6847                            .align  4
    6848 000000b6 00000000! ||$C$CON29||:   .bits   ICall_enterCriticalSection,32
         000000ba 00000000 
    6849                            .align  4
    6850 000000ba 00000000! ||$C$CON30||:   .bits   macTasksEvents,32
         000000be 00000000 
    6851                            .align  4
    6852 000000be 00000000! ||$C$CON31||:   .bits   ICall_leaveCriticalSection,32
         000000c2 00000000 
    6853                            .align  4
    6854 000000c2 00000000! ||$C$CON34||:   .bits   ||$O1$$||,32
         000000c6 00000000 
    6855                    ;******************************************************************************
    6856                    ;* CONSTANT TABLE                                                             *
    6857                    ;******************************************************************************
    6858 00000064                   .sect   ".text:osal_msg_enqueue_push"
    6859                            .align  4
    6860 00000064 00000004! ||$C$CON36||:   .bits   ||$O1$$||+4,32
    6861                            .align  4
    6862 00000068 00000000! ||$C$CON37||:   .bits   tasksCnt,32
TI ARM Assembler PC v16.9.9 Sun Nov 25 16:40:48 2018

Tools Copyright (c) 1996-2017 Texas Instruments Incorporated
C:\Users\Stryd\AppData\Local\Temp\{8719FFD6-004A-4401-8DC3-4DA83C6CF1D8} PAGE  126

    6863                    ;******************************************************************************
    6864                    ;* CONSTANT TABLE                                                             *
    6865                    ;******************************************************************************
    6866 00000060                   .sect   ".text:osal_msg_send"
    6867                            .align  4
    6868 00000060 00000004! ||$C$CON40||:   .bits   ||$O1$$||+4,32
    6869                            .align  4
    6870 00000064 00000000! ||$C$CON41||:   .bits   tasksCnt,32
    6871                    ;******************************************************************************
    6872                    ;* CONSTANT TABLE                                                             *
    6873                    ;******************************************************************************
    6874 00000032                   .sect   ".text:ICall_setTimerMSecs"
    6875                            .align  4
    6876 00000032 000046C0! ||$C$CON42||:   .bits   osal_msec_timer_cback,32
         00000036 00000000 
    6877                            .align  4
    6878 00000036 00000000! ||$C$CON44||:   .bits   ICall_dispatcher,32
         0000003a 00000000 
    6879                            .align  4
    6880 0000003a 00040000! ||$C$CON45||:   .bits   ||$O1$$||+4,32
         0000003e 00000000 
    6881                    ;******************************************************************************
    6882                    ;* CONSTANT TABLE                                                             *
    6883                    ;******************************************************************************
    6884 0000019e                   .sect   ".text:osal_run_system"
    6885                            .align  4
    6886 0000019e 000046C0! ||$C$CON46||:   .bits   ||$O1$$||,32
         000001a2 00000000 
    6887                            .align  4
    6888 000001a2 00000000! ||$C$CON47||:   .bits   tasksCnt,32
         000001a6 00000000 
    6889                            .align  4
    6890 000001a6 00000000! ||$C$CON49||:   .bits   macTasksEvents,32
         000001aa 00000000 
    6891                            .align  4
    6892 000001aa 00000000! ||$C$CON50||:   .bits   ICall_enterCriticalSection,32
         000001ae 00000000 
    6893                            .align  4
    6894 000001ae 00000000! ||$C$CON51||:   .bits   ICall_leaveCriticalSection,32
         000001b2 00000000 
    6895                            .align  4
    6896 000001b2 00000000! ||$C$CON52||:   .bits   tasksArr,32
         000001b6 00000000 
    6897                            .align  4
    6898 000001b6 C28E0000  ||$C$CON53||:   .bits   687194766,32
         000001ba 000028F5 
    6899                            .align  4
    6900 000001ba 000028F5! ||$C$CON54||:   .bits   ICall_dispatcher,32
         000001be 00000000 
    6901                    ;******************************************************************************
    6902                    ;* CONSTANT TABLE                                                             *
    6903                    ;******************************************************************************
    6904 00000030                   .sect   ".text:osal_start_system"
    6905                            .align  4
    6906 00000030 00000024! ||$C$CON55||:   .bits   ||$O1$$||+36,32
TI ARM Assembler PC v16.9.9 Sun Nov 25 16:40:48 2018

Tools Copyright (c) 1996-2017 Texas Instruments Incorporated
C:\Users\Stryd\AppData\Local\Temp\{8719FFD6-004A-4401-8DC3-4DA83C6CF1D8} PAGE  127

    6907                            .align  4
    6908 00000034 00000000! ||$C$CON56||:   .bits   ICall_dispatcher,32
    6909                    ;******************************************************************************
    6910                    ;* CONSTANT TABLE                                                             *
    6911                    ;******************************************************************************
    6912 00000008                   .sect   ".text:osal_set_icall_hook"
    6913                            .align  4
    6914 00000008 00000024! ||$C$CON58||:   .bits   ||$O1$$||+36,32
    6915                    ;******************************************************************************
    6916                    ;* CONSTANT TABLE                                                             *
    6917                    ;******************************************************************************
    6918 00000030                   .sect   ".text:osal_clear_event"
    6919                            .align  4
    6920 00000030 00000000! ||$C$CON59||:   .bits   tasksCnt,32
    6921                            .align  4
    6922 00000034 00000000! ||$C$CON60||:   .bits   ICall_enterCriticalSection,32
    6923                            .align  4
    6924 00000038 00000000! ||$C$CON61||:   .bits   macTasksEvents,32
    6925                            .align  4
    6926 0000003c 00000000! ||$C$CON62||:   .bits   ICall_leaveCriticalSection,32
    6927                    ;******************************************************************************
    6928                    ;* CONSTANT TABLE                                                             *
    6929                    ;******************************************************************************
    6930 00000036                   .sect   ".text:osal_msg_extract"
    6931                            .align  4
    6932 00000036 000046C0! ||$C$CON65||:   .bits   ICall_enterCriticalSection,32
         0000003a 00000000 
    6933                            .align  4
    6934 0000003a 00000000! ||$C$CON66||:   .bits   ICall_leaveCriticalSection,32
         0000003e 00000000 
    6935                    ;******************************************************************************
    6936                    ;* CONSTANT TABLE                                                             *
    6937                    ;******************************************************************************
    6938 00000066                   .sect   ".text:osal_msg_receive"
    6939                            .align  4
    6940 00000066 000046C0! ||$C$CON70||:   .bits   ICall_enterCriticalSection,32
         0000006a 00000000 
    6941                            .align  4
    6942 0000006a 00240000! ||$C$CON71||:   .bits   ||$O1$$||+36,32
         0000006e 00000000 
    6943                            .align  4
    6944 0000006e 00000000! ||$C$CON72||:   .bits   ICall_leaveCriticalSection,32
         00000072 00000000 
    6945                    ;******************************************************************************
    6946                    ;* CONSTANT TABLE                                                             *
    6947                    ;******************************************************************************
    6948 00000034                   .sect   ".text:osal_msg_find"
    6949                            .align  4
    6950 00000034 00000004! ||$C$CON74||:   .bits   ||$O1$$||+4,32
    6951                            .align  4
    6952 00000038 00000000! ||$C$CON76||:   .bits   ICall_enterCriticalSection,32
    6953                            .align  4
    6954 0000003c 00000000! ||$C$CON77||:   .bits   ICall_leaveCriticalSection,32
    6955                    ;******************************************************************************
    6956                    ;* CONSTANT TABLE                                                             *
TI ARM Assembler PC v16.9.9 Sun Nov 25 16:40:48 2018

Tools Copyright (c) 1996-2017 Texas Instruments Incorporated
C:\Users\Stryd\AppData\Local\Temp\{8719FFD6-004A-4401-8DC3-4DA83C6CF1D8} PAGE  128

    6957                    ;******************************************************************************
    6958 0000004a                   .sect   ".text:osal_msg_enqueue_max"
    6959                            .align  4
    6960 0000004a 000046C0! ||$C$CON80||:   .bits   ICall_enterCriticalSection,32
         0000004e 00000000 
    6961                            .align  4
    6962 0000004e 00000000! ||$C$CON81||:   .bits   ICall_leaveCriticalSection,32
         00000052 00000000 
    6963                    ;******************************************************************************
    6964                    ;* CONSTANT TABLE                                                             *
    6965                    ;******************************************************************************
    6966 00000032                   .sect   ".text:osal_msg_dequeue"
    6967                            .align  4
    6968 00000032 000046C0! ||$C$CON82||:   .bits   ICall_enterCriticalSection,32
         00000036 00000000 
    6969                            .align  4
    6970 00000036 00000000! ||$C$CON83||:   .bits   ICall_leaveCriticalSection,32
         0000003a 00000000 
    6971                    ;******************************************************************************
    6972                    ;* CONSTANT TABLE                                                             *
    6973                    ;******************************************************************************
    6974 0000003c                   .sect   ".text:osal_msg_count"
    6975                            .align  4
    6976 0000003c 00000000! ||$C$CON87||:   .bits   ICall_enterCriticalSection,32
    6977                            .align  4
    6978 00000040 00000004! ||$C$CON88||:   .bits   ||$O1$$||+4,32
    6979                            .align  4
    6980 00000044 00000000! ||$C$CON89||:   .bits   ICall_leaveCriticalSection,32
    6981                    ;******************************************************************************
    6982                    ;* CONSTANT TABLE                                                             *
    6983                    ;******************************************************************************
    6984 00000022                   .sect   ".text:osal_int_enable"
    6985                            .align  4
    6986 00000022 000046C0! ||$C$CON90||:   .bits   ICall_dispatcher,32
         00000026 00000000 
    6987                    ;******************************************************************************
    6988                    ;* CONSTANT TABLE                                                             *
    6989                    ;******************************************************************************
    6990 00000022                   .sect   ".text:osal_int_disable"
    6991                            .align  4
    6992 00000022 000046C0! ||$C$CON92||:   .bits   ICall_dispatcher,32
         00000026 00000000 
    6993                    ;******************************************************************************
    6994                    ;* CONSTANT TABLE                                                             *
    6995                    ;******************************************************************************
    6996 00000074                   .sect   ".text:osal_init_system"
    6997                            .align  4
    6998 00000074 00000000! ||$C$CON93||:   .bits   ||$O1$$||,32
    6999                            .align  4
    7000 00000078 00000000! ||$C$CON94||:   .bits   tasksCnt,32
    7001                            .align  4
    7002 0000007c 00000000! ||$C$CON97||:   .bits   ICall_dispatcher,32
    7003                    ;******************************************************************************
    7004                    ;* CONSTANT TABLE                                                             *
    7005                    ;******************************************************************************
TI ARM Assembler PC v16.9.9 Sun Nov 25 16:40:48 2018

Tools Copyright (c) 1996-2017 Texas Instruments Incorporated
C:\Users\Stryd\AppData\Local\Temp\{8719FFD6-004A-4401-8DC3-4DA83C6CF1D8} PAGE  129

    7006 00000010                   .sect   ".text:osal_enroll_senderid"
    7007                            .align  4
    7008 00000010 00000000! ||$C$CON100||:  .bits   tasksCnt,32
    7009                            .align  4
    7010 00000014 00000000! ||$C$CON101||:  .bits   ||$O1$$||,32
    7011                    ;******************************************************************************
    7012                    ;* CONSTANT TABLE                                                             *
    7013                    ;******************************************************************************
    7014 00000008                   .sect   ".text:osal_enroll_notasksender"
    7015                            .align  4
    7016 00000008 00000000! ||$C$CON103||:  .bits   ||$O1$$||,32
    7017                    ;******************************************************************************
    7018                    ;* CONSTANT TABLE                                                             *
    7019                    ;******************************************************************************
    7020 00000012                   .sect   ".text:osal_enroll_dispatchid"
    7021                            .align  4
    7022 00000012 000046C0! ||$C$CON106||:  .bits   ||$O1$$||,32
         00000016 00000000 
    7023                            .align  4
    7024 00000016 00000000! ||$C$CON107||:  .bits   tasksCnt,32
         0000001a 00000000 
    7025                    ;*****************************************************************************
    7026                    ;* UNDEFINED EXTERNAL REFERENCES                                             *
    7027                    ;*****************************************************************************
    7028                            .global strlen
    7029                            .global memset
    7030                            .global ltoa
    7031                            .global osal_mem_alloc
    7032                            .global osal_mem_free
    7033                            .global osalTimerInit
    7034                            .global osal_next_timeout
    7035                            .global osalInitTasks
    7036                            .global osal_pwrmgr_init
    7037                            .global osalAdjustTimer
    7038                            .global Onboard_rand
    7039                            .global ICall_dispatcher
    7040                            .global ICall_enterCriticalSection
    7041                            .global ICall_leaveCriticalSection
    7042                            .global tasksArr
    7043                            .global tasksCnt
    7044                            .global macTasksEvents
    7045                            .global __aeabi_uldivmod
    7046                            .global __aeabi_lmul
    7047                    
    7048                    ;******************************************************************************
    7049                    ;* BUILD ATTRIBUTES                                                           *
    7050                    ;******************************************************************************
    7051                            .battr "aeabi", Tag_File, 1, Tag_ABI_PCS_wchar_t(2)
    7052                            .battr "aeabi", Tag_File, 1, Tag_ABI_FP_rounding(0)
    7053                            .battr "aeabi", Tag_File, 1, Tag_ABI_FP_denormal(0)
    7054                            .battr "aeabi", Tag_File, 1, Tag_ABI_FP_exceptions(0)
    7055                            .battr "aeabi", Tag_File, 1, Tag_ABI_FP_number_model(1)
    7056                            .battr "aeabi", Tag_File, 1, Tag_ABI_enum_size(1)
    7057                            .battr "aeabi", Tag_File, 1, Tag_ABI_optimization_goals(0)
    7058                            .battr "aeabi", Tag_File, 1, Tag_ABI_FP_optimization_goals(0)
TI ARM Assembler PC v16.9.9 Sun Nov 25 16:40:48 2018

Tools Copyright (c) 1996-2017 Texas Instruments Incorporated
C:\Users\Stryd\AppData\Local\Temp\{8719FFD6-004A-4401-8DC3-4DA83C6CF1D8} PAGE  130

    7059                            .battr "TI", Tag_File, 1, Tag_Bitfield_layout(2)
    7060                            .battr "aeabi", Tag_File, 1, Tag_ABI_VFP_args(3)
    7061                            .battr "TI", Tag_File, 1, Tag_FP_interface(1)
    7062                    
    7063                    ;******************************************************************************
    7064                    ;* TYPE INFORMATION                                                           *
    7065                    ;******************************************************************************
    7066                    
    7067                    $C$DW$T$175     .dwtag  DW_TAG_enumeration_type
    7068                            .dwattr $C$DW$T$175, DW_AT_byte_size(0x01)
    7069                    $C$DW$446       .dwtag  DW_TAG_enumerator
    7070                            .dwattr $C$DW$446, DW_AT_name("FAPI_PROGRAM_DATA")
    7071                            .dwattr $C$DW$446, DW_AT_const_value(0x02)
    7072                            .dwattr $C$DW$446, DW_AT_decl_file("C:/ti/simplelink_cc13x0_sdk_2_30_00_20/source/ti/devices/c
    7073                            .dwattr $C$DW$446, DW_AT_decl_line(0xa6)
    7074                            .dwattr $C$DW$446, DW_AT_decl_column(0x05)
    7075                    
    7076                    $C$DW$447       .dwtag  DW_TAG_enumerator
    7077                            .dwattr $C$DW$447, DW_AT_name("FAPI_ERASE_SECTOR")
    7078                            .dwattr $C$DW$447, DW_AT_const_value(0x06)
    7079                            .dwattr $C$DW$447, DW_AT_decl_file("C:/ti/simplelink_cc13x0_sdk_2_30_00_20/source/ti/devices/c
    7080                            .dwattr $C$DW$447, DW_AT_decl_line(0xa7)
    7081                            .dwattr $C$DW$447, DW_AT_decl_column(0x05)
    7082                    
    7083                    $C$DW$448       .dwtag  DW_TAG_enumerator
    7084                            .dwattr $C$DW$448, DW_AT_name("FAPI_ERASE_BANK")
    7085                            .dwattr $C$DW$448, DW_AT_const_value(0x08)
    7086                            .dwattr $C$DW$448, DW_AT_decl_file("C:/ti/simplelink_cc13x0_sdk_2_30_00_20/source/ti/devices/c
    7087                            .dwattr $C$DW$448, DW_AT_decl_line(0xa8)
    7088                            .dwattr $C$DW$448, DW_AT_decl_column(0x05)
    7089                    
    7090                    $C$DW$449       .dwtag  DW_TAG_enumerator
    7091                            .dwattr $C$DW$449, DW_AT_name("FAPI_VALIDATE_SECTOR")
    7092                            .dwattr $C$DW$449, DW_AT_const_value(0x0e)
    7093                            .dwattr $C$DW$449, DW_AT_decl_file("C:/ti/simplelink_cc13x0_sdk_2_30_00_20/source/ti/devices/c
    7094                            .dwattr $C$DW$449, DW_AT_decl_line(0xa9)
    7095                            .dwattr $C$DW$449, DW_AT_decl_column(0x05)
    7096                    
    7097                    $C$DW$450       .dwtag  DW_TAG_enumerator
    7098                            .dwattr $C$DW$450, DW_AT_name("FAPI_CLEAR_STATUS")
    7099                            .dwattr $C$DW$450, DW_AT_const_value(0x10)
    7100                            .dwattr $C$DW$450, DW_AT_decl_file("C:/ti/simplelink_cc13x0_sdk_2_30_00_20/source/ti/devices/c
    7101                            .dwattr $C$DW$450, DW_AT_decl_line(0xaa)
    7102                            .dwattr $C$DW$450, DW_AT_decl_column(0x05)
    7103                    
    7104                    $C$DW$451       .dwtag  DW_TAG_enumerator
    7105                            .dwattr $C$DW$451, DW_AT_name("FAPI_PROGRAM_RESUME")
    7106                            .dwattr $C$DW$451, DW_AT_const_value(0x14)
    7107                            .dwattr $C$DW$451, DW_AT_decl_file("C:/ti/simplelink_cc13x0_sdk_2_30_00_20/source/ti/devices/c
    7108                            .dwattr $C$DW$451, DW_AT_decl_line(0xab)
    7109                            .dwattr $C$DW$451, DW_AT_decl_column(0x05)
    7110                    
    7111                    $C$DW$452       .dwtag  DW_TAG_enumerator
    7112                            .dwattr $C$DW$452, DW_AT_name("FAPI_ERASE_RESUME")
    7113                            .dwattr $C$DW$452, DW_AT_const_value(0x16)
TI ARM Assembler PC v16.9.9 Sun Nov 25 16:40:48 2018

Tools Copyright (c) 1996-2017 Texas Instruments Incorporated
C:\Users\Stryd\AppData\Local\Temp\{8719FFD6-004A-4401-8DC3-4DA83C6CF1D8} PAGE  131

    7114                            .dwattr $C$DW$452, DW_AT_decl_file("C:/ti/simplelink_cc13x0_sdk_2_30_00_20/source/ti/devices/c
    7115                            .dwattr $C$DW$452, DW_AT_decl_line(0xac)
    7116                            .dwattr $C$DW$452, DW_AT_decl_column(0x05)
    7117                    
    7118                    $C$DW$453       .dwtag  DW_TAG_enumerator
    7119                            .dwattr $C$DW$453, DW_AT_name("FAPI_CLEAR_MORE")
    7120                            .dwattr $C$DW$453, DW_AT_const_value(0x18)
    7121                            .dwattr $C$DW$453, DW_AT_decl_file("C:/ti/simplelink_cc13x0_sdk_2_30_00_20/source/ti/devices/c
    7122                            .dwattr $C$DW$453, DW_AT_decl_line(0xad)
    7123                            .dwattr $C$DW$453, DW_AT_decl_column(0x05)
    7124                    
    7125                    $C$DW$454       .dwtag  DW_TAG_enumerator
    7126                            .dwattr $C$DW$454, DW_AT_name("FAPI_PROGRAM_SECTOR")
    7127                            .dwattr $C$DW$454, DW_AT_const_value(0x20)
    7128                            .dwattr $C$DW$454, DW_AT_decl_file("C:/ti/simplelink_cc13x0_sdk_2_30_00_20/source/ti/devices/c
    7129                            .dwattr $C$DW$454, DW_AT_decl_line(0xae)
    7130                            .dwattr $C$DW$454, DW_AT_decl_column(0x05)
    7131                    
    7132                    $C$DW$455       .dwtag  DW_TAG_enumerator
    7133                            .dwattr $C$DW$455, DW_AT_name("FAPI_ERASE_OTP")
    7134                            .dwattr $C$DW$455, DW_AT_const_value(0x30)
    7135                            .dwattr $C$DW$455, DW_AT_decl_file("C:/ti/simplelink_cc13x0_sdk_2_30_00_20/source/ti/devices/c
    7136                            .dwattr $C$DW$455, DW_AT_decl_line(0xaf)
    7137                            .dwattr $C$DW$455, DW_AT_decl_column(0x05)
    7138                    
    7139                            .dwattr $C$DW$T$175, DW_AT_decl_file("C:/ti/simplelink_cc13x0_sdk_2_30_00_20/source/ti/devices
    7140                            .dwattr $C$DW$T$175, DW_AT_decl_line(0xa5)
    7141                            .dwattr $C$DW$T$175, DW_AT_decl_column(0x01)
    7142                            .dwendtag $C$DW$T$175
    7143                    
    7144                    $C$DW$T$176     .dwtag  DW_TAG_typedef
    7145                            .dwattr $C$DW$T$176, DW_AT_name("tFlashStateCommandsType")
    7146                            .dwattr $C$DW$T$176, DW_AT_type(*$C$DW$T$175)
    7147                            .dwattr $C$DW$T$176, DW_AT_language(DW_LANG_C)
    7148                            .dwattr $C$DW$T$176, DW_AT_decl_file("C:/ti/simplelink_cc13x0_sdk_2_30_00_20/source/ti/devices
    7149                            .dwattr $C$DW$T$176, DW_AT_decl_line(0xb0)
    7150                            .dwattr $C$DW$T$176, DW_AT_decl_column(0x03)
    7151                    
    7152                    
    7153                    $C$DW$T$177     .dwtag  DW_TAG_enumeration_type
    7154                            .dwattr $C$DW$T$177, DW_AT_byte_size(0x01)
    7155                    $C$DW$456       .dwtag  DW_TAG_enumerator
    7156                            .dwattr $C$DW$456, DW_AT_name("ICALL_RTI_APP_CMD_EVENT")
    7157                            .dwattr $C$DW$456, DW_AT_const_value(0xe0)
    7158                            .dwattr $C$DW$456, DW_AT_decl_file("C:/ti/simplelink_cc13x0_sdk_2_30_00_20/source/ti/ti154stac
    7159                            .dwattr $C$DW$456, DW_AT_decl_line(0x3de)
    7160                            .dwattr $C$DW$456, DW_AT_decl_column(0x04)
    7161                    
    7162                    $C$DW$457       .dwtag  DW_TAG_enumerator
    7163                            .dwattr $C$DW$457, DW_AT_name("ICALL_RTI_STACK_CMD_EVENT")
    7164                            .dwattr $C$DW$457, DW_AT_const_value(0xe1)
    7165                            .dwattr $C$DW$457, DW_AT_decl_file("C:/ti/simplelink_cc13x0_sdk_2_30_00_20/source/ti/ti154stac
    7166                            .dwattr $C$DW$457, DW_AT_decl_line(0x3e0)
    7167                            .dwattr $C$DW$457, DW_AT_decl_column(0x04)
    7168                    
TI ARM Assembler PC v16.9.9 Sun Nov 25 16:40:48 2018

Tools Copyright (c) 1996-2017 Texas Instruments Incorporated
C:\Users\Stryd\AppData\Local\Temp\{8719FFD6-004A-4401-8DC3-4DA83C6CF1D8} PAGE  132

    7169                    $C$DW$458       .dwtag  DW_TAG_enumerator
    7170                            .dwattr $C$DW$458, DW_AT_name("ICALL_RTI_APP_ASYNC_CMD_EVENT")
    7171                            .dwattr $C$DW$458, DW_AT_const_value(0xe2)
    7172                            .dwattr $C$DW$458, DW_AT_decl_file("C:/ti/simplelink_cc13x0_sdk_2_30_00_20/source/ti/ti154stac
    7173                            .dwattr $C$DW$458, DW_AT_decl_line(0x3e2)
    7174                            .dwattr $C$DW$458, DW_AT_decl_column(0x04)
    7175                    
    7176                    $C$DW$459       .dwtag  DW_TAG_enumerator
    7177                            .dwattr $C$DW$459, DW_AT_name("ICALL_RTI_APP_SYNC_CMD_EVENT")
    7178                            .dwattr $C$DW$459, DW_AT_const_value(0xe3)
    7179                            .dwattr $C$DW$459, DW_AT_decl_file("C:/ti/simplelink_cc13x0_sdk_2_30_00_20/source/ti/ti154stac
    7180                            .dwattr $C$DW$459, DW_AT_decl_line(0x3e4)
    7181                            .dwattr $C$DW$459, DW_AT_decl_column(0x04)
    7182                    
    7183                    $C$DW$460       .dwtag  DW_TAG_enumerator
    7184                            .dwattr $C$DW$460, DW_AT_name("ICALL_RCN_APP_ASYNC_CMD_EVENT")
    7185                            .dwattr $C$DW$460, DW_AT_const_value(0xe4)
    7186                            .dwattr $C$DW$460, DW_AT_decl_file("C:/ti/simplelink_cc13x0_sdk_2_30_00_20/source/ti/ti154stac
    7187                            .dwattr $C$DW$460, DW_AT_decl_line(0x3e6)
    7188                            .dwattr $C$DW$460, DW_AT_decl_column(0x04)
    7189                    
    7190                    $C$DW$461       .dwtag  DW_TAG_enumerator
    7191                            .dwattr $C$DW$461, DW_AT_name("ICALL_RCN_APP_SYNC_CMD_EVENT")
    7192                            .dwattr $C$DW$461, DW_AT_const_value(0xe5)
    7193                            .dwattr $C$DW$461, DW_AT_decl_file("C:/ti/simplelink_cc13x0_sdk_2_30_00_20/source/ti/ti154stac
    7194                            .dwattr $C$DW$461, DW_AT_decl_line(0x3e8)
    7195                            .dwattr $C$DW$461, DW_AT_decl_column(0x04)
    7196                    
    7197                            .dwattr $C$DW$T$177, DW_AT_decl_file("C:/ti/simplelink_cc13x0_sdk_2_30_00_20/source/ti/ti154st
    7198                            .dwattr $C$DW$T$177, DW_AT_decl_line(0x3dc)
    7199                            .dwattr $C$DW$T$177, DW_AT_decl_column(0x01)
    7200                            .dwendtag $C$DW$T$177
    7201                    
    7202                    $C$DW$T$178     .dwtag  DW_TAG_typedef
    7203                            .dwattr $C$DW$T$178, DW_AT_name("ICall_RemotiCmdEvent_t")
    7204                            .dwattr $C$DW$T$178, DW_AT_type(*$C$DW$T$177)
    7205                            .dwattr $C$DW$T$178, DW_AT_language(DW_LANG_C)
    7206                            .dwattr $C$DW$T$178, DW_AT_decl_file("C:/ti/simplelink_cc13x0_sdk_2_30_00_20/source/ti/ti154st
    7207                            .dwattr $C$DW$T$178, DW_AT_decl_line(0x3e9)
    7208                            .dwattr $C$DW$T$178, DW_AT_decl_column(0x02)
    7209                    
    7210                    
    7211                    $C$DW$T$20      .dwtag  DW_TAG_structure_type
    7212                            .dwattr $C$DW$T$20, DW_AT_byte_size(0x02)
    7213                    $C$DW$462       .dwtag  DW_TAG_member
    7214                            .dwattr $C$DW$462, DW_AT_type(*$C$DW$T$19)
    7215                            .dwattr $C$DW$462, DW_AT_name("event")
    7216                            .dwattr $C$DW$462, DW_AT_TI_symbol_name("event")
    7217                            .dwattr $C$DW$462, DW_AT_data_member_location[DW_OP_plus_uconst 0x0]
    7218                            .dwattr $C$DW$462, DW_AT_accessibility(DW_ACCESS_public)
    7219                            .dwattr $C$DW$462, DW_AT_decl_file("..\Application\MAC\OSAL\osal.h")
    7220                            .dwattr $C$DW$462, DW_AT_decl_line(0x79)
    7221                            .dwattr $C$DW$462, DW_AT_decl_column(0x0a)
    7222                    
    7223                    $C$DW$463       .dwtag  DW_TAG_member
TI ARM Assembler PC v16.9.9 Sun Nov 25 16:40:48 2018

Tools Copyright (c) 1996-2017 Texas Instruments Incorporated
C:\Users\Stryd\AppData\Local\Temp\{8719FFD6-004A-4401-8DC3-4DA83C6CF1D8} PAGE  133

    7224                            .dwattr $C$DW$463, DW_AT_type(*$C$DW$T$19)
    7225                            .dwattr $C$DW$463, DW_AT_name("status")
    7226                            .dwattr $C$DW$463, DW_AT_TI_symbol_name("status")
    7227                            .dwattr $C$DW$463, DW_AT_data_member_location[DW_OP_plus_uconst 0x1]
    7228                            .dwattr $C$DW$463, DW_AT_accessibility(DW_ACCESS_public)
    7229                            .dwattr $C$DW$463, DW_AT_decl_file("..\Application\MAC\OSAL\osal.h")
    7230                            .dwattr $C$DW$463, DW_AT_decl_line(0x7a)
    7231                            .dwattr $C$DW$463, DW_AT_decl_column(0x0a)
    7232                    
    7233                            .dwattr $C$DW$T$20, DW_AT_decl_file("..\Application\MAC\OSAL\osal.h")
    7234                            .dwattr $C$DW$T$20, DW_AT_decl_line(0x78)
    7235                            .dwattr $C$DW$T$20, DW_AT_decl_column(0x01)
    7236                            .dwendtag $C$DW$T$20
    7237                    
    7238                    $C$DW$T$86      .dwtag  DW_TAG_typedef
    7239                            .dwattr $C$DW$T$86, DW_AT_name("osal_event_hdr_t")
    7240                            .dwattr $C$DW$T$86, DW_AT_type(*$C$DW$T$20)
    7241                            .dwattr $C$DW$T$86, DW_AT_language(DW_LANG_C)
    7242                            .dwattr $C$DW$T$86, DW_AT_decl_file("..\Application\MAC\OSAL\osal.h")
    7243                            .dwattr $C$DW$T$86, DW_AT_decl_line(0x7b)
    7244                            .dwattr $C$DW$T$86, DW_AT_decl_column(0x03)
    7245                    
    7246                    $C$DW$T$181     .dwtag  DW_TAG_pointer_type
    7247                            .dwattr $C$DW$T$181, DW_AT_type(*$C$DW$T$86)
    7248                            .dwattr $C$DW$T$181, DW_AT_address_class(0x20)
    7249                    
    7250                    
    7251                    $C$DW$T$62      .dwtag  DW_TAG_structure_type
    7252                            .dwattr $C$DW$T$62, DW_AT_byte_size(0x4c)
    7253                    $C$DW$464       .dwtag  DW_TAG_member
    7254                            .dwattr $C$DW$464, DW_AT_type(*$C$DW$T$26)
    7255                            .dwattr $C$DW$464, DW_AT_name("Crc32")
    7256                            .dwattr $C$DW$464, DW_AT_TI_symbol_name("Crc32")
    7257                            .dwattr $C$DW$464, DW_AT_data_member_location[DW_OP_plus_uconst 0x0]
    7258                            .dwattr $C$DW$464, DW_AT_accessibility(DW_ACCESS_public)
    7259                            .dwattr $C$DW$464, DW_AT_decl_file("C:\ti\simplelink_cc13x0_sdk_2_30_00_20\source\ti\devices\c
    7260                            .dwattr $C$DW$464, DW_AT_decl_line(0x76)
    7261                            .dwattr $C$DW$464, DW_AT_decl_column(0x25)
    7262                    
    7263                    $C$DW$465       .dwtag  DW_TAG_member
    7264                            .dwattr $C$DW$465, DW_AT_type(*$C$DW$T$29)
    7265                            .dwattr $C$DW$465, DW_AT_name("FlashGetSize")
    7266                            .dwattr $C$DW$465, DW_AT_TI_symbol_name("FlashGetSize")
    7267                            .dwattr $C$DW$465, DW_AT_data_member_location[DW_OP_plus_uconst 0x4]
    7268                            .dwattr $C$DW$465, DW_AT_accessibility(DW_ACCESS_public)
    7269                            .dwattr $C$DW$465, DW_AT_decl_file("C:\ti\simplelink_cc13x0_sdk_2_30_00_20\source\ti\devices\c
    7270                            .dwattr $C$DW$465, DW_AT_decl_line(0x77)
    7271                            .dwattr $C$DW$465, DW_AT_decl_column(0x25)
    7272                    
    7273                    $C$DW$466       .dwtag  DW_TAG_member
    7274                            .dwattr $C$DW$466, DW_AT_type(*$C$DW$T$30)
    7275                            .dwattr $C$DW$466, DW_AT_name("GetChipId")
    7276                            .dwattr $C$DW$466, DW_AT_TI_symbol_name("GetChipId")
    7277                            .dwattr $C$DW$466, DW_AT_data_member_location[DW_OP_plus_uconst 0x8]
    7278                            .dwattr $C$DW$466, DW_AT_accessibility(DW_ACCESS_public)
TI ARM Assembler PC v16.9.9 Sun Nov 25 16:40:48 2018

Tools Copyright (c) 1996-2017 Texas Instruments Incorporated
C:\Users\Stryd\AppData\Local\Temp\{8719FFD6-004A-4401-8DC3-4DA83C6CF1D8} PAGE  134

    7279                            .dwattr $C$DW$466, DW_AT_decl_file("C:\ti\simplelink_cc13x0_sdk_2_30_00_20\source\ti\devices\c
    7280                            .dwattr $C$DW$466, DW_AT_decl_line(0x78)
    7281                            .dwattr $C$DW$466, DW_AT_decl_column(0x25)
    7282                    
    7283                    $C$DW$467       .dwtag  DW_TAG_member
    7284                            .dwattr $C$DW$467, DW_AT_type(*$C$DW$T$33)
    7285                            .dwattr $C$DW$467, DW_AT_name("ReservedLocation1")
    7286                            .dwattr $C$DW$467, DW_AT_TI_symbol_name("ReservedLocation1")
    7287                            .dwattr $C$DW$467, DW_AT_data_member_location[DW_OP_plus_uconst 0xc]
    7288                            .dwattr $C$DW$467, DW_AT_accessibility(DW_ACCESS_public)
    7289                            .dwattr $C$DW$467, DW_AT_decl_file("C:\ti\simplelink_cc13x0_sdk_2_30_00_20\source\ti\devices\c
    7290                            .dwattr $C$DW$467, DW_AT_decl_line(0x79)
    7291                            .dwattr $C$DW$467, DW_AT_decl_column(0x25)
    7292                    
    7293                    $C$DW$468       .dwtag  DW_TAG_member
    7294                            .dwattr $C$DW$468, DW_AT_type(*$C$DW$T$34)
    7295                            .dwattr $C$DW$468, DW_AT_name("ReservedLocation2")
    7296                            .dwattr $C$DW$468, DW_AT_TI_symbol_name("ReservedLocation2")
    7297                            .dwattr $C$DW$468, DW_AT_data_member_location[DW_OP_plus_uconst 0x10]
    7298                            .dwattr $C$DW$468, DW_AT_accessibility(DW_ACCESS_public)
    7299                            .dwattr $C$DW$468, DW_AT_decl_file("C:\ti\simplelink_cc13x0_sdk_2_30_00_20\source\ti\devices\c
    7300                            .dwattr $C$DW$468, DW_AT_decl_line(0x7a)
    7301                            .dwattr $C$DW$468, DW_AT_decl_column(0x25)
    7302                    
    7303                    $C$DW$469       .dwtag  DW_TAG_member
    7304                            .dwattr $C$DW$469, DW_AT_type(*$C$DW$T$35)
    7305                            .dwattr $C$DW$469, DW_AT_name("ReservedLocation3")
    7306                            .dwattr $C$DW$469, DW_AT_TI_symbol_name("ReservedLocation3")
    7307                            .dwattr $C$DW$469, DW_AT_data_member_location[DW_OP_plus_uconst 0x14]
    7308                            .dwattr $C$DW$469, DW_AT_accessibility(DW_ACCESS_public)
    7309                            .dwattr $C$DW$469, DW_AT_decl_file("C:\ti\simplelink_cc13x0_sdk_2_30_00_20\source\ti\devices\c
    7310                            .dwattr $C$DW$469, DW_AT_decl_line(0x7b)
    7311                            .dwattr $C$DW$469, DW_AT_decl_column(0x25)
    7312                    
    7313                    $C$DW$470       .dwtag  DW_TAG_member
    7314                            .dwattr $C$DW$470, DW_AT_type(*$C$DW$T$38)
    7315                            .dwattr $C$DW$470, DW_AT_name("ResetDevice")
    7316                            .dwattr $C$DW$470, DW_AT_TI_symbol_name("ResetDevice")
    7317                            .dwattr $C$DW$470, DW_AT_data_member_location[DW_OP_plus_uconst 0x18]
    7318                            .dwattr $C$DW$470, DW_AT_accessibility(DW_ACCESS_public)
    7319                            .dwattr $C$DW$470, DW_AT_decl_file("C:\ti\simplelink_cc13x0_sdk_2_30_00_20\source\ti\devices\c
    7320                            .dwattr $C$DW$470, DW_AT_decl_line(0x7c)
    7321                            .dwattr $C$DW$470, DW_AT_decl_column(0x25)
    7322                    
    7323                    $C$DW$471       .dwtag  DW_TAG_member
    7324                            .dwattr $C$DW$471, DW_AT_type(*$C$DW$T$43)
    7325                            .dwattr $C$DW$471, DW_AT_name("Fletcher32")
    7326                            .dwattr $C$DW$471, DW_AT_TI_symbol_name("Fletcher32")
    7327                            .dwattr $C$DW$471, DW_AT_data_member_location[DW_OP_plus_uconst 0x1c]
    7328                            .dwattr $C$DW$471, DW_AT_accessibility(DW_ACCESS_public)
    7329                            .dwattr $C$DW$471, DW_AT_decl_file("C:\ti\simplelink_cc13x0_sdk_2_30_00_20\source\ti\devices\c
    7330                            .dwattr $C$DW$471, DW_AT_decl_line(0x7d)
    7331                            .dwattr $C$DW$471, DW_AT_decl_column(0x25)
    7332                    
    7333                    $C$DW$472       .dwtag  DW_TAG_member
TI ARM Assembler PC v16.9.9 Sun Nov 25 16:40:48 2018

Tools Copyright (c) 1996-2017 Texas Instruments Incorporated
C:\Users\Stryd\AppData\Local\Temp\{8719FFD6-004A-4401-8DC3-4DA83C6CF1D8} PAGE  135

    7334                            .dwattr $C$DW$472, DW_AT_type(*$C$DW$T$47)
    7335                            .dwattr $C$DW$472, DW_AT_name("MinValue")
    7336                            .dwattr $C$DW$472, DW_AT_TI_symbol_name("MinValue")
    7337                            .dwattr $C$DW$472, DW_AT_data_member_location[DW_OP_plus_uconst 0x20]
    7338                            .dwattr $C$DW$472, DW_AT_accessibility(DW_ACCESS_public)
    7339                            .dwattr $C$DW$472, DW_AT_decl_file("C:\ti\simplelink_cc13x0_sdk_2_30_00_20\source\ti\devices\c
    7340                            .dwattr $C$DW$472, DW_AT_decl_line(0x7e)
    7341                            .dwattr $C$DW$472, DW_AT_decl_column(0x25)
    7342                    
    7343                    $C$DW$473       .dwtag  DW_TAG_member
    7344                            .dwattr $C$DW$473, DW_AT_type(*$C$DW$T$48)
    7345                            .dwattr $C$DW$473, DW_AT_name("MaxValue")
    7346                            .dwattr $C$DW$473, DW_AT_TI_symbol_name("MaxValue")
    7347                            .dwattr $C$DW$473, DW_AT_data_member_location[DW_OP_plus_uconst 0x24]
    7348                            .dwattr $C$DW$473, DW_AT_accessibility(DW_ACCESS_public)
    7349                            .dwattr $C$DW$473, DW_AT_decl_file("C:\ti\simplelink_cc13x0_sdk_2_30_00_20\source\ti\devices\c
    7350                            .dwattr $C$DW$473, DW_AT_decl_line(0x7f)
    7351                            .dwattr $C$DW$473, DW_AT_decl_column(0x25)
    7352                    
    7353                    $C$DW$474       .dwtag  DW_TAG_member
    7354                            .dwattr $C$DW$474, DW_AT_type(*$C$DW$T$49)
    7355                            .dwattr $C$DW$474, DW_AT_name("MeanValue")
    7356                            .dwattr $C$DW$474, DW_AT_TI_symbol_name("MeanValue")
    7357                            .dwattr $C$DW$474, DW_AT_data_member_location[DW_OP_plus_uconst 0x28]
    7358                            .dwattr $C$DW$474, DW_AT_accessibility(DW_ACCESS_public)
    7359                            .dwattr $C$DW$474, DW_AT_decl_file("C:\ti\simplelink_cc13x0_sdk_2_30_00_20\source\ti\devices\c
    7360                            .dwattr $C$DW$474, DW_AT_decl_line(0x80)
    7361                            .dwattr $C$DW$474, DW_AT_decl_column(0x25)
    7362                    
    7363                    $C$DW$475       .dwtag  DW_TAG_member
    7364                            .dwattr $C$DW$475, DW_AT_type(*$C$DW$T$50)
    7365                            .dwattr $C$DW$475, DW_AT_name("StandDeviationValue")
    7366                            .dwattr $C$DW$475, DW_AT_TI_symbol_name("StandDeviationValue")
    7367                            .dwattr $C$DW$475, DW_AT_data_member_location[DW_OP_plus_uconst 0x2c]
    7368                            .dwattr $C$DW$475, DW_AT_accessibility(DW_ACCESS_public)
    7369                            .dwattr $C$DW$475, DW_AT_decl_file("C:\ti\simplelink_cc13x0_sdk_2_30_00_20\source\ti\devices\c
    7370                            .dwattr $C$DW$475, DW_AT_decl_line(0x81)
    7371                            .dwattr $C$DW$475, DW_AT_decl_column(0x25)
    7372                    
    7373                    $C$DW$476       .dwtag  DW_TAG_member
    7374                            .dwattr $C$DW$476, DW_AT_type(*$C$DW$T$53)
    7375                            .dwattr $C$DW$476, DW_AT_name("ReservedLocation4")
    7376                            .dwattr $C$DW$476, DW_AT_TI_symbol_name("ReservedLocation4")
    7377                            .dwattr $C$DW$476, DW_AT_data_member_location[DW_OP_plus_uconst 0x30]
    7378                            .dwattr $C$DW$476, DW_AT_accessibility(DW_ACCESS_public)
    7379                            .dwattr $C$DW$476, DW_AT_decl_file("C:\ti\simplelink_cc13x0_sdk_2_30_00_20\source\ti\devices\c
    7380                            .dwattr $C$DW$476, DW_AT_decl_line(0x82)
    7381                            .dwattr $C$DW$476, DW_AT_decl_column(0x25)
    7382                    
    7383                    $C$DW$477       .dwtag  DW_TAG_member
    7384                            .dwattr $C$DW$477, DW_AT_type(*$C$DW$T$54)
    7385                            .dwattr $C$DW$477, DW_AT_name("ReservedLocation5")
    7386                            .dwattr $C$DW$477, DW_AT_TI_symbol_name("ReservedLocation5")
    7387                            .dwattr $C$DW$477, DW_AT_data_member_location[DW_OP_plus_uconst 0x34]
    7388                            .dwattr $C$DW$477, DW_AT_accessibility(DW_ACCESS_public)
TI ARM Assembler PC v16.9.9 Sun Nov 25 16:40:48 2018

Tools Copyright (c) 1996-2017 Texas Instruments Incorporated
C:\Users\Stryd\AppData\Local\Temp\{8719FFD6-004A-4401-8DC3-4DA83C6CF1D8} PAGE  136

    7389                            .dwattr $C$DW$477, DW_AT_decl_file("C:\ti\simplelink_cc13x0_sdk_2_30_00_20\source\ti\devices\c
    7390                            .dwattr $C$DW$477, DW_AT_decl_line(0x83)
    7391                            .dwattr $C$DW$477, DW_AT_decl_column(0x25)
    7392                    
    7393                    $C$DW$478       .dwtag  DW_TAG_member
    7394                            .dwattr $C$DW$478, DW_AT_type(*$C$DW$T$55)
    7395                            .dwattr $C$DW$478, DW_AT_name("HFSourceSafeSwitch")
    7396                            .dwattr $C$DW$478, DW_AT_TI_symbol_name("HFSourceSafeSwitch")
    7397                            .dwattr $C$DW$478, DW_AT_data_member_location[DW_OP_plus_uconst 0x38]
    7398                            .dwattr $C$DW$478, DW_AT_accessibility(DW_ACCESS_public)
    7399                            .dwattr $C$DW$478, DW_AT_decl_file("C:\ti\simplelink_cc13x0_sdk_2_30_00_20\source\ti\devices\c
    7400                            .dwattr $C$DW$478, DW_AT_decl_line(0x84)
    7401                            .dwattr $C$DW$478, DW_AT_decl_column(0x25)
    7402                    
    7403                    $C$DW$479       .dwtag  DW_TAG_member
    7404                            .dwattr $C$DW$479, DW_AT_type(*$C$DW$T$58)
    7405                            .dwattr $C$DW$479, DW_AT_name("SelectCompAInput")
    7406                            .dwattr $C$DW$479, DW_AT_TI_symbol_name("SelectCompAInput")
    7407                            .dwattr $C$DW$479, DW_AT_data_member_location[DW_OP_plus_uconst 0x3c]
    7408                            .dwattr $C$DW$479, DW_AT_accessibility(DW_ACCESS_public)
    7409                            .dwattr $C$DW$479, DW_AT_decl_file("C:\ti\simplelink_cc13x0_sdk_2_30_00_20\source\ti\devices\c
    7410                            .dwattr $C$DW$479, DW_AT_decl_line(0x85)
    7411                            .dwattr $C$DW$479, DW_AT_decl_column(0x25)
    7412                    
    7413                    $C$DW$480       .dwtag  DW_TAG_member
    7414                            .dwattr $C$DW$480, DW_AT_type(*$C$DW$T$59)
    7415                            .dwattr $C$DW$480, DW_AT_name("SelectCompARef")
    7416                            .dwattr $C$DW$480, DW_AT_TI_symbol_name("SelectCompARef")
    7417                            .dwattr $C$DW$480, DW_AT_data_member_location[DW_OP_plus_uconst 0x40]
    7418                            .dwattr $C$DW$480, DW_AT_accessibility(DW_ACCESS_public)
    7419                            .dwattr $C$DW$480, DW_AT_decl_file("C:\ti\simplelink_cc13x0_sdk_2_30_00_20\source\ti\devices\c
    7420                            .dwattr $C$DW$480, DW_AT_decl_line(0x86)
    7421                            .dwattr $C$DW$480, DW_AT_decl_column(0x25)
    7422                    
    7423                    $C$DW$481       .dwtag  DW_TAG_member
    7424                            .dwattr $C$DW$481, DW_AT_type(*$C$DW$T$60)
    7425                            .dwattr $C$DW$481, DW_AT_name("SelectADCCompBInput")
    7426                            .dwattr $C$DW$481, DW_AT_TI_symbol_name("SelectADCCompBInput")
    7427                            .dwattr $C$DW$481, DW_AT_data_member_location[DW_OP_plus_uconst 0x44]
    7428                            .dwattr $C$DW$481, DW_AT_accessibility(DW_ACCESS_public)
    7429                            .dwattr $C$DW$481, DW_AT_decl_file("C:\ti\simplelink_cc13x0_sdk_2_30_00_20\source\ti\devices\c
    7430                            .dwattr $C$DW$481, DW_AT_decl_line(0x87)
    7431                            .dwattr $C$DW$481, DW_AT_decl_column(0x25)
    7432                    
    7433                    $C$DW$482       .dwtag  DW_TAG_member
    7434                            .dwattr $C$DW$482, DW_AT_type(*$C$DW$T$61)
    7435                            .dwattr $C$DW$482, DW_AT_name("SelectCompBRef")
    7436                            .dwattr $C$DW$482, DW_AT_TI_symbol_name("SelectCompBRef")
    7437                            .dwattr $C$DW$482, DW_AT_data_member_location[DW_OP_plus_uconst 0x48]
    7438                            .dwattr $C$DW$482, DW_AT_accessibility(DW_ACCESS_public)
    7439                            .dwattr $C$DW$482, DW_AT_decl_file("C:\ti\simplelink_cc13x0_sdk_2_30_00_20\source\ti\devices\c
    7440                            .dwattr $C$DW$482, DW_AT_decl_line(0x88)
    7441                            .dwattr $C$DW$482, DW_AT_decl_column(0x25)
    7442                    
    7443                            .dwattr $C$DW$T$62, DW_AT_decl_file("C:\ti\simplelink_cc13x0_sdk_2_30_00_20\source\ti\devices\
TI ARM Assembler PC v16.9.9 Sun Nov 25 16:40:48 2018

Tools Copyright (c) 1996-2017 Texas Instruments Incorporated
C:\Users\Stryd\AppData\Local\Temp\{8719FFD6-004A-4401-8DC3-4DA83C6CF1D8} PAGE  137

    7444                            .dwattr $C$DW$T$62, DW_AT_decl_line(0x75)
    7445                            .dwattr $C$DW$T$62, DW_AT_decl_column(0x01)
    7446                            .dwendtag $C$DW$T$62
    7447                    
    7448                    $C$DW$T$183     .dwtag  DW_TAG_typedef
    7449                            .dwattr $C$DW$T$183, DW_AT_name("HARD_API_T")
    7450                            .dwattr $C$DW$T$183, DW_AT_type(*$C$DW$T$62)
    7451                            .dwattr $C$DW$T$183, DW_AT_language(DW_LANG_C)
    7452                            .dwattr $C$DW$T$183, DW_AT_decl_file("C:\ti\simplelink_cc13x0_sdk_2_30_00_20\source\ti\devices
    7453                            .dwattr $C$DW$T$183, DW_AT_decl_line(0x89)
    7454                            .dwattr $C$DW$T$183, DW_AT_decl_column(0x03)
    7455                    
    7456                    
    7457                    $C$DW$T$63      .dwtag  DW_TAG_structure_type
    7458                            .dwattr $C$DW$T$63, DW_AT_byte_size(0x08)
    7459                    $C$DW$483       .dwtag  DW_TAG_member
    7460                            .dwattr $C$DW$483, DW_AT_type(*$C$DW$T$10)
    7461                            .dwattr $C$DW$483, DW_AT_name("quot")
    7462                            .dwattr $C$DW$483, DW_AT_TI_symbol_name("quot")
    7463                            .dwattr $C$DW$483, DW_AT_data_member_location[DW_OP_plus_uconst 0x0]
    7464                            .dwattr $C$DW$483, DW_AT_accessibility(DW_ACCESS_public)
    7465                            .dwattr $C$DW$483, DW_AT_decl_file("C:/ti/ccsv7/tools/compiler/ti-cgt-arm_16.9.9.LTS/include/s
    7466                            .dwattr $C$DW$483, DW_AT_decl_line(0x5c)
    7467                            .dwattr $C$DW$483, DW_AT_decl_column(0x16)
    7468                    
    7469                    $C$DW$484       .dwtag  DW_TAG_member
    7470                            .dwattr $C$DW$484, DW_AT_type(*$C$DW$T$10)
    7471                            .dwattr $C$DW$484, DW_AT_name("rem")
    7472                            .dwattr $C$DW$484, DW_AT_TI_symbol_name("rem")
    7473                            .dwattr $C$DW$484, DW_AT_data_member_location[DW_OP_plus_uconst 0x4]
    7474                            .dwattr $C$DW$484, DW_AT_accessibility(DW_ACCESS_public)
    7475                            .dwattr $C$DW$484, DW_AT_decl_file("C:/ti/ccsv7/tools/compiler/ti-cgt-arm_16.9.9.LTS/include/s
    7476                            .dwattr $C$DW$484, DW_AT_decl_line(0x5c)
    7477                            .dwattr $C$DW$484, DW_AT_decl_column(0x1c)
    7478                    
    7479                            .dwattr $C$DW$T$63, DW_AT_decl_file("C:/ti/ccsv7/tools/compiler/ti-cgt-arm_16.9.9.LTS/include/
    7480                            .dwattr $C$DW$T$63, DW_AT_decl_line(0x5c)
    7481                            .dwattr $C$DW$T$63, DW_AT_decl_column(0x10)
    7482                            .dwendtag $C$DW$T$63
    7483                    
    7484                    $C$DW$T$184     .dwtag  DW_TAG_typedef
    7485                            .dwattr $C$DW$T$184, DW_AT_name("div_t")
    7486                            .dwattr $C$DW$T$184, DW_AT_type(*$C$DW$T$63)
    7487                            .dwattr $C$DW$T$184, DW_AT_language(DW_LANG_C)
    7488                            .dwattr $C$DW$T$184, DW_AT_decl_file("C:/ti/ccsv7/tools/compiler/ti-cgt-arm_16.9.9.LTS/include
    7489                            .dwattr $C$DW$T$184, DW_AT_decl_line(0x5c)
    7490                            .dwattr $C$DW$T$184, DW_AT_decl_column(0x23)
    7491                    
    7492                    
    7493                    $C$DW$T$64      .dwtag  DW_TAG_structure_type
    7494                            .dwattr $C$DW$T$64, DW_AT_byte_size(0x08)
    7495                    $C$DW$485       .dwtag  DW_TAG_member
    7496                            .dwattr $C$DW$485, DW_AT_type(*$C$DW$T$10)
    7497                            .dwattr $C$DW$485, DW_AT_name("quot")
    7498                            .dwattr $C$DW$485, DW_AT_TI_symbol_name("quot")
TI ARM Assembler PC v16.9.9 Sun Nov 25 16:40:48 2018

Tools Copyright (c) 1996-2017 Texas Instruments Incorporated
C:\Users\Stryd\AppData\Local\Temp\{8719FFD6-004A-4401-8DC3-4DA83C6CF1D8} PAGE  138

    7499                            .dwattr $C$DW$485, DW_AT_data_member_location[DW_OP_plus_uconst 0x0]
    7500                            .dwattr $C$DW$485, DW_AT_accessibility(DW_ACCESS_public)
    7501                            .dwattr $C$DW$485, DW_AT_decl_file("C:/ti/ccsv7/tools/compiler/ti-cgt-arm_16.9.9.LTS/include/s
    7502                            .dwattr $C$DW$485, DW_AT_decl_line(0x5e)
    7503                            .dwattr $C$DW$485, DW_AT_decl_column(0x16)
    7504                    
    7505                    $C$DW$486       .dwtag  DW_TAG_member
    7506                            .dwattr $C$DW$486, DW_AT_type(*$C$DW$T$10)
    7507                            .dwattr $C$DW$486, DW_AT_name("rem")
    7508                            .dwattr $C$DW$486, DW_AT_TI_symbol_name("rem")
    7509                            .dwattr $C$DW$486, DW_AT_data_member_location[DW_OP_plus_uconst 0x4]
    7510                            .dwattr $C$DW$486, DW_AT_accessibility(DW_ACCESS_public)
    7511                            .dwattr $C$DW$486, DW_AT_decl_file("C:/ti/ccsv7/tools/compiler/ti-cgt-arm_16.9.9.LTS/include/s
    7512                            .dwattr $C$DW$486, DW_AT_decl_line(0x5e)
    7513                            .dwattr $C$DW$486, DW_AT_decl_column(0x1c)
    7514                    
    7515                            .dwattr $C$DW$T$64, DW_AT_decl_file("C:/ti/ccsv7/tools/compiler/ti-cgt-arm_16.9.9.LTS/include/
    7516                            .dwattr $C$DW$T$64, DW_AT_decl_line(0x5e)
    7517                            .dwattr $C$DW$T$64, DW_AT_decl_column(0x10)
    7518                            .dwendtag $C$DW$T$64
    7519                    
    7520                    $C$DW$T$185     .dwtag  DW_TAG_typedef
    7521                            .dwattr $C$DW$T$185, DW_AT_name("ldiv_t")
    7522                            .dwattr $C$DW$T$185, DW_AT_type(*$C$DW$T$64)
    7523                            .dwattr $C$DW$T$185, DW_AT_language(DW_LANG_C)
    7524                            .dwattr $C$DW$T$185, DW_AT_decl_file("C:/ti/ccsv7/tools/compiler/ti-cgt-arm_16.9.9.LTS/include
    7525                            .dwattr $C$DW$T$185, DW_AT_decl_line(0x5e)
    7526                            .dwattr $C$DW$T$185, DW_AT_decl_column(0x23)
    7527                    
    7528                    
    7529                    $C$DW$T$65      .dwtag  DW_TAG_structure_type
    7530                            .dwattr $C$DW$T$65, DW_AT_byte_size(0x10)
    7531                    $C$DW$487       .dwtag  DW_TAG_member
    7532                            .dwattr $C$DW$487, DW_AT_type(*$C$DW$T$14)
    7533                            .dwattr $C$DW$487, DW_AT_name("quot")
    7534                            .dwattr $C$DW$487, DW_AT_TI_symbol_name("quot")
    7535                            .dwattr $C$DW$487, DW_AT_data_member_location[DW_OP_plus_uconst 0x0]
    7536                            .dwattr $C$DW$487, DW_AT_accessibility(DW_ACCESS_public)
    7537                            .dwattr $C$DW$487, DW_AT_decl_file("C:/ti/ccsv7/tools/compiler/ti-cgt-arm_16.9.9.LTS/include/s
    7538                            .dwattr $C$DW$487, DW_AT_decl_line(0x61)
    7539                            .dwattr $C$DW$487, DW_AT_decl_column(0x1c)
    7540                    
    7541                    $C$DW$488       .dwtag  DW_TAG_member
    7542                            .dwattr $C$DW$488, DW_AT_type(*$C$DW$T$14)
    7543                            .dwattr $C$DW$488, DW_AT_name("rem")
    7544                            .dwattr $C$DW$488, DW_AT_TI_symbol_name("rem")
    7545                            .dwattr $C$DW$488, DW_AT_data_member_location[DW_OP_plus_uconst 0x8]
    7546                            .dwattr $C$DW$488, DW_AT_accessibility(DW_ACCESS_public)
    7547                            .dwattr $C$DW$488, DW_AT_decl_file("C:/ti/ccsv7/tools/compiler/ti-cgt-arm_16.9.9.LTS/include/s
    7548                            .dwattr $C$DW$488, DW_AT_decl_line(0x61)
    7549                            .dwattr $C$DW$488, DW_AT_decl_column(0x22)
    7550                    
    7551                            .dwattr $C$DW$T$65, DW_AT_decl_file("C:/ti/ccsv7/tools/compiler/ti-cgt-arm_16.9.9.LTS/include/
    7552                            .dwattr $C$DW$T$65, DW_AT_decl_line(0x61)
    7553                            .dwattr $C$DW$T$65, DW_AT_decl_column(0x10)
TI ARM Assembler PC v16.9.9 Sun Nov 25 16:40:48 2018

Tools Copyright (c) 1996-2017 Texas Instruments Incorporated
C:\Users\Stryd\AppData\Local\Temp\{8719FFD6-004A-4401-8DC3-4DA83C6CF1D8} PAGE  139

    7554                            .dwendtag $C$DW$T$65
    7555                    
    7556                    $C$DW$T$186     .dwtag  DW_TAG_typedef
    7557                            .dwattr $C$DW$T$186, DW_AT_name("lldiv_t")
    7558                            .dwattr $C$DW$T$186, DW_AT_type(*$C$DW$T$65)
    7559                            .dwattr $C$DW$T$186, DW_AT_language(DW_LANG_C)
    7560                            .dwattr $C$DW$T$186, DW_AT_decl_file("C:/ti/ccsv7/tools/compiler/ti-cgt-arm_16.9.9.LTS/include
    7561                            .dwattr $C$DW$T$186, DW_AT_decl_line(0x61)
    7562                            .dwattr $C$DW$T$186, DW_AT_decl_column(0x29)
    7563                    
    7564                    
    7565                    $C$DW$T$69      .dwtag  DW_TAG_structure_type
    7566                            .dwattr $C$DW$T$69, DW_AT_byte_size(0x08)
    7567                    $C$DW$489       .dwtag  DW_TAG_member
    7568                            .dwattr $C$DW$489, DW_AT_type(*$C$DW$T$67)
    7569                            .dwattr $C$DW$489, DW_AT_name("pointerStack")
    7570                            .dwattr $C$DW$489, DW_AT_TI_symbol_name("pointerStack")
    7571                            .dwattr $C$DW$489, DW_AT_data_member_location[DW_OP_plus_uconst 0x0]
    7572                            .dwattr $C$DW$489, DW_AT_accessibility(DW_ACCESS_public)
    7573                            .dwattr $C$DW$489, DW_AT_decl_file("C:/ti/simplelink_cc13x0_sdk_2_30_00_20/source/ti/ti154stac
    7574                            .dwattr $C$DW$489, DW_AT_decl_line(0x3f5)
    7575                            .dwattr $C$DW$489, DW_AT_decl_column(0x16)
    7576                    
    7577                    $C$DW$490       .dwtag  DW_TAG_member
    7578                            .dwattr $C$DW$490, DW_AT_type(*$C$DW$T$68)
    7579                            .dwattr $C$DW$490, DW_AT_name("directAPI")
    7580                            .dwattr $C$DW$490, DW_AT_TI_symbol_name("directAPI")
    7581                            .dwattr $C$DW$490, DW_AT_data_member_location[DW_OP_plus_uconst 0x4]
    7582                            .dwattr $C$DW$490, DW_AT_accessibility(DW_ACCESS_public)
    7583                            .dwattr $C$DW$490, DW_AT_decl_file("C:/ti/simplelink_cc13x0_sdk_2_30_00_20/source/ti/ti154stac
    7584                            .dwattr $C$DW$490, DW_AT_decl_line(0x3f6)
    7585                            .dwattr $C$DW$490, DW_AT_decl_column(0x15)
    7586                    
    7587                            .dwattr $C$DW$T$69, DW_AT_decl_file("C:/ti/simplelink_cc13x0_sdk_2_30_00_20/source/ti/ti154sta
    7588                            .dwattr $C$DW$T$69, DW_AT_decl_line(0x3f4)
    7589                            .dwattr $C$DW$T$69, DW_AT_decl_column(0x01)
    7590                            .dwendtag $C$DW$T$69
    7591                    
    7592                    $C$DW$T$71      .dwtag  DW_TAG_typedef
    7593                            .dwattr $C$DW$T$71, DW_AT_name("icall_directAPIMsg_t")
    7594                            .dwattr $C$DW$T$71, DW_AT_type(*$C$DW$T$69)
    7595                            .dwattr $C$DW$T$71, DW_AT_language(DW_LANG_C)
    7596                            .dwattr $C$DW$T$71, DW_AT_decl_file("C:/ti/simplelink_cc13x0_sdk_2_30_00_20/source/ti/ti154sta
    7597                            .dwattr $C$DW$T$71, DW_AT_decl_line(0x3f7)
    7598                            .dwattr $C$DW$T$71, DW_AT_decl_column(0x03)
    7599                    
    7600                    
    7601                    $C$DW$T$72      .dwtag  DW_TAG_structure_type
    7602                            .dwattr $C$DW$T$72, DW_AT_byte_size(0x14)
    7603                    $C$DW$491       .dwtag  DW_TAG_member
    7604                            .dwattr $C$DW$491, DW_AT_type(*$C$DW$T$70)
    7605                            .dwattr $C$DW$491, DW_AT_name("hdr")
    7606                            .dwattr $C$DW$491, DW_AT_TI_symbol_name("hdr")
    7607                            .dwattr $C$DW$491, DW_AT_data_member_location[DW_OP_plus_uconst 0x0]
    7608                            .dwattr $C$DW$491, DW_AT_accessibility(DW_ACCESS_public)
TI ARM Assembler PC v16.9.9 Sun Nov 25 16:40:48 2018

Tools Copyright (c) 1996-2017 Texas Instruments Incorporated
C:\Users\Stryd\AppData\Local\Temp\{8719FFD6-004A-4401-8DC3-4DA83C6CF1D8} PAGE  140

    7609                            .dwattr $C$DW$491, DW_AT_decl_file("C:/ti/simplelink_cc13x0_sdk_2_30_00_20/source/ti/ti154stac
    7610                            .dwattr $C$DW$491, DW_AT_decl_line(0x3fb)
    7611                            .dwattr $C$DW$491, DW_AT_decl_column(0x10)
    7612                    
    7613                    $C$DW$492       .dwtag  DW_TAG_member
    7614                            .dwattr $C$DW$492, DW_AT_type(*$C$DW$T$71)
    7615                            .dwattr $C$DW$492, DW_AT_name("msg")
    7616                            .dwattr $C$DW$492, DW_AT_TI_symbol_name("msg")
    7617                            .dwattr $C$DW$492, DW_AT_data_member_location[DW_OP_plus_uconst 0xc]
    7618                            .dwattr $C$DW$492, DW_AT_accessibility(DW_ACCESS_public)
    7619                            .dwattr $C$DW$492, DW_AT_decl_file("C:/ti/simplelink_cc13x0_sdk_2_30_00_20/source/ti/ti154stac
    7620                            .dwattr $C$DW$492, DW_AT_decl_line(0x3fc)
    7621                            .dwattr $C$DW$492, DW_AT_decl_column(0x1a)
    7622                    
    7623                            .dwattr $C$DW$T$72, DW_AT_decl_file("C:/ti/simplelink_cc13x0_sdk_2_30_00_20/source/ti/ti154sta
    7624                            .dwattr $C$DW$T$72, DW_AT_decl_line(0x3fa)
    7625                            .dwattr $C$DW$T$72, DW_AT_decl_column(0x01)
    7626                            .dwendtag $C$DW$T$72
    7627                    
    7628                    $C$DW$T$187     .dwtag  DW_TAG_typedef
    7629                            .dwattr $C$DW$T$187, DW_AT_name("icallLiteMsg_t")
    7630                            .dwattr $C$DW$T$187, DW_AT_type(*$C$DW$T$72)
    7631                            .dwattr $C$DW$T$187, DW_AT_language(DW_LANG_C)
    7632                            .dwattr $C$DW$T$187, DW_AT_decl_file("C:/ti/simplelink_cc13x0_sdk_2_30_00_20/source/ti/ti154st
    7633                            .dwattr $C$DW$T$187, DW_AT_decl_line(0x3fd)
    7634                            .dwattr $C$DW$T$187, DW_AT_decl_column(0x03)
    7635                    
    7636                    
    7637                    $C$DW$T$74      .dwtag  DW_TAG_structure_type
    7638                            .dwattr $C$DW$T$74, DW_AT_byte_size(0x02)
    7639                    $C$DW$493       .dwtag  DW_TAG_member
    7640                            .dwattr $C$DW$493, DW_AT_type(*$C$DW$T$73)
    7641                            .dwattr $C$DW$493, DW_AT_name("pwrmgr_task_state")
    7642                            .dwattr $C$DW$493, DW_AT_TI_symbol_name("pwrmgr_task_state")
    7643                            .dwattr $C$DW$493, DW_AT_data_member_location[DW_OP_plus_uconst 0x0]
    7644                            .dwattr $C$DW$493, DW_AT_accessibility(DW_ACCESS_public)
    7645                            .dwattr $C$DW$493, DW_AT_decl_file("..\Application\MAC\OSAL\osal_pwrmgr.h")
    7646                            .dwattr $C$DW$493, DW_AT_decl_line(0x48)
    7647                            .dwattr $C$DW$493, DW_AT_decl_column(0x0a)
    7648                    
    7649                            .dwattr $C$DW$T$74, DW_AT_decl_file("..\Application\MAC\OSAL\osal_pwrmgr.h")
    7650                            .dwattr $C$DW$T$74, DW_AT_decl_line(0x47)
    7651                            .dwattr $C$DW$T$74, DW_AT_decl_column(0x01)
    7652                            .dwendtag $C$DW$T$74
    7653                    
    7654                    $C$DW$T$188     .dwtag  DW_TAG_typedef
    7655                            .dwattr $C$DW$T$188, DW_AT_name("pwrmgr_attribute_t")
    7656                            .dwattr $C$DW$T$188, DW_AT_type(*$C$DW$T$74)
    7657                            .dwattr $C$DW$T$188, DW_AT_language(DW_LANG_C)
    7658                            .dwattr $C$DW$T$188, DW_AT_decl_file("..\Application\MAC\OSAL\osal_pwrmgr.h")
    7659                            .dwattr $C$DW$T$188, DW_AT_decl_line(0x4e)
    7660                            .dwattr $C$DW$T$188, DW_AT_decl_column(0x03)
    7661                    
    7662                    
    7663                    $C$DW$T$75      .dwtag  DW_TAG_structure_type
TI ARM Assembler PC v16.9.9 Sun Nov 25 16:40:48 2018

Tools Copyright (c) 1996-2017 Texas Instruments Incorporated
C:\Users\Stryd\AppData\Local\Temp\{8719FFD6-004A-4401-8DC3-4DA83C6CF1D8} PAGE  141

    7664                            .dwattr $C$DW$T$75, DW_AT_byte_size(0x08)
    7665                    $C$DW$494       .dwtag  DW_TAG_member
    7666                            .dwattr $C$DW$494, DW_AT_type(*$C$DW$T$19)
    7667                            .dwattr $C$DW$494, DW_AT_name("seconds")
    7668                            .dwattr $C$DW$494, DW_AT_TI_symbol_name("seconds")
    7669                            .dwattr $C$DW$494, DW_AT_data_member_location[DW_OP_plus_uconst 0x0]
    7670                            .dwattr $C$DW$494, DW_AT_accessibility(DW_ACCESS_public)
    7671                            .dwattr $C$DW$494, DW_AT_decl_file("..\Application\MAC\OSAL\osal_clock.h")
    7672                            .dwattr $C$DW$494, DW_AT_decl_line(0x50)
    7673                            .dwattr $C$DW$494, DW_AT_decl_column(0x09)
    7674                    
    7675                    $C$DW$495       .dwtag  DW_TAG_member
    7676                            .dwattr $C$DW$495, DW_AT_type(*$C$DW$T$19)
    7677                            .dwattr $C$DW$495, DW_AT_name("minutes")
    7678                            .dwattr $C$DW$495, DW_AT_TI_symbol_name("minutes")
    7679                            .dwattr $C$DW$495, DW_AT_data_member_location[DW_OP_plus_uconst 0x1]
    7680                            .dwattr $C$DW$495, DW_AT_accessibility(DW_ACCESS_public)
    7681                            .dwattr $C$DW$495, DW_AT_decl_file("..\Application\MAC\OSAL\osal_clock.h")
    7682                            .dwattr $C$DW$495, DW_AT_decl_line(0x51)
    7683                            .dwattr $C$DW$495, DW_AT_decl_column(0x09)
    7684                    
    7685                    $C$DW$496       .dwtag  DW_TAG_member
    7686                            .dwattr $C$DW$496, DW_AT_type(*$C$DW$T$19)
    7687                            .dwattr $C$DW$496, DW_AT_name("hour")
    7688                            .dwattr $C$DW$496, DW_AT_TI_symbol_name("hour")
    7689                            .dwattr $C$DW$496, DW_AT_data_member_location[DW_OP_plus_uconst 0x2]
    7690                            .dwattr $C$DW$496, DW_AT_accessibility(DW_ACCESS_public)
    7691                            .dwattr $C$DW$496, DW_AT_decl_file("..\Application\MAC\OSAL\osal_clock.h")
    7692                            .dwattr $C$DW$496, DW_AT_decl_line(0x52)
    7693                            .dwattr $C$DW$496, DW_AT_decl_column(0x09)
    7694                    
    7695                    $C$DW$497       .dwtag  DW_TAG_member
    7696                            .dwattr $C$DW$497, DW_AT_type(*$C$DW$T$19)
    7697                            .dwattr $C$DW$497, DW_AT_name("day")
    7698                            .dwattr $C$DW$497, DW_AT_TI_symbol_name("day")
    7699                            .dwattr $C$DW$497, DW_AT_data_member_location[DW_OP_plus_uconst 0x3]
    7700                            .dwattr $C$DW$497, DW_AT_accessibility(DW_ACCESS_public)
    7701                            .dwattr $C$DW$497, DW_AT_decl_file("..\Application\MAC\OSAL\osal_clock.h")
    7702                            .dwattr $C$DW$497, DW_AT_decl_line(0x53)
    7703                            .dwattr $C$DW$497, DW_AT_decl_column(0x09)
    7704                    
    7705                    $C$DW$498       .dwtag  DW_TAG_member
    7706                            .dwattr $C$DW$498, DW_AT_type(*$C$DW$T$19)
    7707                            .dwattr $C$DW$498, DW_AT_name("month")
    7708                            .dwattr $C$DW$498, DW_AT_TI_symbol_name("month")
    7709                            .dwattr $C$DW$498, DW_AT_data_member_location[DW_OP_plus_uconst 0x4]
    7710                            .dwattr $C$DW$498, DW_AT_accessibility(DW_ACCESS_public)
    7711                            .dwattr $C$DW$498, DW_AT_decl_file("..\Application\MAC\OSAL\osal_clock.h")
    7712                            .dwattr $C$DW$498, DW_AT_decl_line(0x54)
    7713                            .dwattr $C$DW$498, DW_AT_decl_column(0x09)
    7714                    
    7715                    $C$DW$499       .dwtag  DW_TAG_member
    7716                            .dwattr $C$DW$499, DW_AT_type(*$C$DW$T$73)
    7717                            .dwattr $C$DW$499, DW_AT_name("year")
    7718                            .dwattr $C$DW$499, DW_AT_TI_symbol_name("year")
TI ARM Assembler PC v16.9.9 Sun Nov 25 16:40:48 2018

Tools Copyright (c) 1996-2017 Texas Instruments Incorporated
C:\Users\Stryd\AppData\Local\Temp\{8719FFD6-004A-4401-8DC3-4DA83C6CF1D8} PAGE  142

    7719                            .dwattr $C$DW$499, DW_AT_data_member_location[DW_OP_plus_uconst 0x6]
    7720                            .dwattr $C$DW$499, DW_AT_accessibility(DW_ACCESS_public)
    7721                            .dwattr $C$DW$499, DW_AT_decl_file("..\Application\MAC\OSAL\osal_clock.h")
    7722                            .dwattr $C$DW$499, DW_AT_decl_line(0x55)
    7723                            .dwattr $C$DW$499, DW_AT_decl_column(0x0a)
    7724                    
    7725                            .dwattr $C$DW$T$75, DW_AT_decl_file("..\Application\MAC\OSAL\osal_clock.h")
    7726                            .dwattr $C$DW$T$75, DW_AT_decl_line(0x4f)
    7727                            .dwattr $C$DW$T$75, DW_AT_decl_column(0x01)
    7728                            .dwendtag $C$DW$T$75
    7729                    
    7730                    $C$DW$T$189     .dwtag  DW_TAG_typedef
    7731                            .dwattr $C$DW$T$189, DW_AT_name("UTCTimeStruct")
    7732                            .dwattr $C$DW$T$189, DW_AT_type(*$C$DW$T$75)
    7733                            .dwattr $C$DW$T$189, DW_AT_language(DW_LANG_C)
    7734                            .dwattr $C$DW$T$189, DW_AT_decl_file("..\Application\MAC\OSAL\osal_clock.h")
    7735                            .dwattr $C$DW$T$189, DW_AT_decl_line(0x56)
    7736                            .dwattr $C$DW$T$189, DW_AT_decl_column(0x03)
    7737                    
    7738                    
    7739                    $C$DW$T$78      .dwtag  DW_TAG_structure_type
    7740                            .dwattr $C$DW$T$78, DW_AT_byte_size(0x0c)
    7741                    $C$DW$500       .dwtag  DW_TAG_member
    7742                            .dwattr $C$DW$500, DW_AT_type(*$C$DW$T$76)
    7743                            .dwattr $C$DW$500, DW_AT_name("bufferHead")
    7744                            .dwattr $C$DW$500, DW_AT_TI_symbol_name("bufferHead")
    7745                            .dwattr $C$DW$500, DW_AT_data_member_location[DW_OP_plus_uconst 0x0]
    7746                            .dwattr $C$DW$500, DW_AT_accessibility(DW_ACCESS_public)
    7747                            .dwattr $C$DW$500, DW_AT_decl_file("C:/ti/simplelink_cc13x0_sdk_2_30_00_20/source/ti/ti154stac
    7748                            .dwattr $C$DW$500, DW_AT_decl_line(0x80)
    7749                            .dwattr $C$DW$500, DW_AT_decl_column(0x13)
    7750                    
    7751                    $C$DW$501       .dwtag  DW_TAG_member
    7752                            .dwattr $C$DW$501, DW_AT_type(*$C$DW$T$76)
    7753                            .dwattr $C$DW$501, DW_AT_name("bufferTail")
    7754                            .dwattr $C$DW$501, DW_AT_TI_symbol_name("bufferTail")
    7755                            .dwattr $C$DW$501, DW_AT_data_member_location[DW_OP_plus_uconst 0x2]
    7756                            .dwattr $C$DW$501, DW_AT_accessibility(DW_ACCESS_public)
    7757                            .dwattr $C$DW$501, DW_AT_decl_file("C:/ti/simplelink_cc13x0_sdk_2_30_00_20/source/ti/ti154stac
    7758                            .dwattr $C$DW$501, DW_AT_decl_line(0x81)
    7759                            .dwattr $C$DW$501, DW_AT_decl_column(0x13)
    7760                    
    7761                    $C$DW$502       .dwtag  DW_TAG_member
    7762                            .dwattr $C$DW$502, DW_AT_type(*$C$DW$T$73)
    7763                            .dwattr $C$DW$502, DW_AT_name("maxBufSize")
    7764                            .dwattr $C$DW$502, DW_AT_TI_symbol_name("maxBufSize")
    7765                            .dwattr $C$DW$502, DW_AT_data_member_location[DW_OP_plus_uconst 0x4]
    7766                            .dwattr $C$DW$502, DW_AT_accessibility(DW_ACCESS_public)
    7767                            .dwattr $C$DW$502, DW_AT_decl_file("C:/ti/simplelink_cc13x0_sdk_2_30_00_20/source/ti/ti154stac
    7768                            .dwattr $C$DW$502, DW_AT_decl_line(0x82)
    7769                            .dwattr $C$DW$502, DW_AT_decl_column(0x0a)
    7770                    
    7771                    $C$DW$503       .dwtag  DW_TAG_member
    7772                            .dwattr $C$DW$503, DW_AT_type(*$C$DW$T$77)
    7773                            .dwattr $C$DW$503, DW_AT_name("pBuffer")
TI ARM Assembler PC v16.9.9 Sun Nov 25 16:40:48 2018

Tools Copyright (c) 1996-2017 Texas Instruments Incorporated
C:\Users\Stryd\AppData\Local\Temp\{8719FFD6-004A-4401-8DC3-4DA83C6CF1D8} PAGE  143

    7774                            .dwattr $C$DW$503, DW_AT_TI_symbol_name("pBuffer")
    7775                            .dwattr $C$DW$503, DW_AT_data_member_location[DW_OP_plus_uconst 0x8]
    7776                            .dwattr $C$DW$503, DW_AT_accessibility(DW_ACCESS_public)
    7777                            .dwattr $C$DW$503, DW_AT_decl_file("C:/ti/simplelink_cc13x0_sdk_2_30_00_20/source/ti/ti154stac
    7778                            .dwattr $C$DW$503, DW_AT_decl_line(0x83)
    7779                            .dwattr $C$DW$503, DW_AT_decl_column(0x0a)
    7780                    
    7781                            .dwattr $C$DW$T$78, DW_AT_decl_file("C:/ti/simplelink_cc13x0_sdk_2_30_00_20/source/ti/ti154sta
    7782                            .dwattr $C$DW$T$78, DW_AT_decl_line(0x7e)
    7783                            .dwattr $C$DW$T$78, DW_AT_decl_column(0x01)
    7784                            .dwendtag $C$DW$T$78
    7785                    
    7786                    $C$DW$T$80      .dwtag  DW_TAG_typedef
    7787                            .dwattr $C$DW$T$80, DW_AT_name("halUARTBufControl_t")
    7788                            .dwattr $C$DW$T$80, DW_AT_type(*$C$DW$T$78)
    7789                            .dwattr $C$DW$T$80, DW_AT_language(DW_LANG_C)
    7790                            .dwattr $C$DW$T$80, DW_AT_decl_file("C:/ti/simplelink_cc13x0_sdk_2_30_00_20/source/ti/ti154sta
    7791                            .dwattr $C$DW$T$80, DW_AT_decl_line(0x84)
    7792                            .dwattr $C$DW$T$80, DW_AT_decl_column(0x03)
    7793                    
    7794                    
    7795                    $C$DW$T$85      .dwtag  DW_TAG_structure_type
    7796                            .dwattr $C$DW$T$85, DW_AT_byte_size(0x2c)
    7797                    $C$DW$504       .dwtag  DW_TAG_member
    7798                            .dwattr $C$DW$504, DW_AT_type(*$C$DW$T$79)
    7799                            .dwattr $C$DW$504, DW_AT_name("configured")
    7800                            .dwattr $C$DW$504, DW_AT_TI_symbol_name("configured")
    7801                            .dwattr $C$DW$504, DW_AT_data_member_location[DW_OP_plus_uconst 0x0]
    7802                            .dwattr $C$DW$504, DW_AT_accessibility(DW_ACCESS_public)
    7803                            .dwattr $C$DW$504, DW_AT_decl_file("C:/ti/simplelink_cc13x0_sdk_2_30_00_20/source/ti/ti154stac
    7804                            .dwattr $C$DW$504, DW_AT_decl_line(0x88)
    7805                            .dwattr $C$DW$504, DW_AT_decl_column(0x17)
    7806                    
    7807                    $C$DW$505       .dwtag  DW_TAG_member
    7808                            .dwattr $C$DW$505, DW_AT_type(*$C$DW$T$19)
    7809                            .dwattr $C$DW$505, DW_AT_name("baudRate")
    7810                            .dwattr $C$DW$505, DW_AT_TI_symbol_name("baudRate")
    7811                            .dwattr $C$DW$505, DW_AT_data_member_location[DW_OP_plus_uconst 0x1]
    7812                            .dwattr $C$DW$505, DW_AT_accessibility(DW_ACCESS_public)
    7813                            .dwattr $C$DW$505, DW_AT_decl_file("C:/ti/simplelink_cc13x0_sdk_2_30_00_20/source/ti/ti154stac
    7814                            .dwattr $C$DW$505, DW_AT_decl_line(0x89)
    7815                            .dwattr $C$DW$505, DW_AT_decl_column(0x17)
    7816                    
    7817                    $C$DW$506       .dwtag  DW_TAG_member
    7818                            .dwattr $C$DW$506, DW_AT_type(*$C$DW$T$79)
    7819                            .dwattr $C$DW$506, DW_AT_name("flowControl")
    7820                            .dwattr $C$DW$506, DW_AT_TI_symbol_name("flowControl")
    7821                            .dwattr $C$DW$506, DW_AT_data_member_location[DW_OP_plus_uconst 0x2]
    7822                            .dwattr $C$DW$506, DW_AT_accessibility(DW_ACCESS_public)
    7823                            .dwattr $C$DW$506, DW_AT_decl_file("C:/ti/simplelink_cc13x0_sdk_2_30_00_20/source/ti/ti154stac
    7824                            .dwattr $C$DW$506, DW_AT_decl_line(0x8a)
    7825                            .dwattr $C$DW$506, DW_AT_decl_column(0x17)
    7826                    
    7827                    $C$DW$507       .dwtag  DW_TAG_member
    7828                            .dwattr $C$DW$507, DW_AT_type(*$C$DW$T$73)
TI ARM Assembler PC v16.9.9 Sun Nov 25 16:40:48 2018

Tools Copyright (c) 1996-2017 Texas Instruments Incorporated
C:\Users\Stryd\AppData\Local\Temp\{8719FFD6-004A-4401-8DC3-4DA83C6CF1D8} PAGE  144

    7829                            .dwattr $C$DW$507, DW_AT_name("flowControlThreshold")
    7830                            .dwattr $C$DW$507, DW_AT_TI_symbol_name("flowControlThreshold")
    7831                            .dwattr $C$DW$507, DW_AT_data_member_location[DW_OP_plus_uconst 0x4]
    7832                            .dwattr $C$DW$507, DW_AT_accessibility(DW_ACCESS_public)
    7833                            .dwattr $C$DW$507, DW_AT_decl_file("C:/ti/simplelink_cc13x0_sdk_2_30_00_20/source/ti/ti154stac
    7834                            .dwattr $C$DW$507, DW_AT_decl_line(0x8b)
    7835                            .dwattr $C$DW$507, DW_AT_decl_column(0x17)
    7836                    
    7837                    $C$DW$508       .dwtag  DW_TAG_member
    7838                            .dwattr $C$DW$508, DW_AT_type(*$C$DW$T$19)
    7839                            .dwattr $C$DW$508, DW_AT_name("idleTimeout")
    7840                            .dwattr $C$DW$508, DW_AT_TI_symbol_name("idleTimeout")
    7841                            .dwattr $C$DW$508, DW_AT_data_member_location[DW_OP_plus_uconst 0x6]
    7842                            .dwattr $C$DW$508, DW_AT_accessibility(DW_ACCESS_public)
    7843                            .dwattr $C$DW$508, DW_AT_decl_file("C:/ti/simplelink_cc13x0_sdk_2_30_00_20/source/ti/ti154stac
    7844                            .dwattr $C$DW$508, DW_AT_decl_line(0x8c)
    7845                            .dwattr $C$DW$508, DW_AT_decl_column(0x17)
    7846                    
    7847                    $C$DW$509       .dwtag  DW_TAG_member
    7848                            .dwattr $C$DW$509, DW_AT_type(*$C$DW$T$80)
    7849                            .dwattr $C$DW$509, DW_AT_name("rx")
    7850                            .dwattr $C$DW$509, DW_AT_TI_symbol_name("rx")
    7851                            .dwattr $C$DW$509, DW_AT_data_member_location[DW_OP_plus_uconst 0x8]
    7852                            .dwattr $C$DW$509, DW_AT_accessibility(DW_ACCESS_public)
    7853                            .dwattr $C$DW$509, DW_AT_decl_file("C:/ti/simplelink_cc13x0_sdk_2_30_00_20/source/ti/ti154stac
    7854                            .dwattr $C$DW$509, DW_AT_decl_line(0x8d)
    7855                            .dwattr $C$DW$509, DW_AT_decl_column(0x17)
    7856                    
    7857                    $C$DW$510       .dwtag  DW_TAG_member
    7858                            .dwattr $C$DW$510, DW_AT_type(*$C$DW$T$80)
    7859                            .dwattr $C$DW$510, DW_AT_name("tx")
    7860                            .dwattr $C$DW$510, DW_AT_TI_symbol_name("tx")
    7861                            .dwattr $C$DW$510, DW_AT_data_member_location[DW_OP_plus_uconst 0x14]
    7862                            .dwattr $C$DW$510, DW_AT_accessibility(DW_ACCESS_public)
    7863                            .dwattr $C$DW$510, DW_AT_decl_file("C:/ti/simplelink_cc13x0_sdk_2_30_00_20/source/ti/ti154stac
    7864                            .dwattr $C$DW$510, DW_AT_decl_line(0x8e)
    7865                            .dwattr $C$DW$510, DW_AT_decl_column(0x17)
    7866                    
    7867                    $C$DW$511       .dwtag  DW_TAG_member
    7868                            .dwattr $C$DW$511, DW_AT_type(*$C$DW$T$79)
    7869                            .dwattr $C$DW$511, DW_AT_name("intEnable")
    7870                            .dwattr $C$DW$511, DW_AT_TI_symbol_name("intEnable")
    7871                            .dwattr $C$DW$511, DW_AT_data_member_location[DW_OP_plus_uconst 0x20]
    7872                            .dwattr $C$DW$511, DW_AT_accessibility(DW_ACCESS_public)
    7873                            .dwattr $C$DW$511, DW_AT_decl_file("C:/ti/simplelink_cc13x0_sdk_2_30_00_20/source/ti/ti154stac
    7874                            .dwattr $C$DW$511, DW_AT_decl_line(0x8f)
    7875                            .dwattr $C$DW$511, DW_AT_decl_column(0x17)
    7876                    
    7877                    $C$DW$512       .dwtag  DW_TAG_member
    7878                            .dwattr $C$DW$512, DW_AT_type(*$C$DW$T$81)
    7879                            .dwattr $C$DW$512, DW_AT_name("rxChRvdTime")
    7880                            .dwattr $C$DW$512, DW_AT_TI_symbol_name("rxChRvdTime")
    7881                            .dwattr $C$DW$512, DW_AT_data_member_location[DW_OP_plus_uconst 0x24]
    7882                            .dwattr $C$DW$512, DW_AT_accessibility(DW_ACCESS_public)
    7883                            .dwattr $C$DW$512, DW_AT_decl_file("C:/ti/simplelink_cc13x0_sdk_2_30_00_20/source/ti/ti154stac
TI ARM Assembler PC v16.9.9 Sun Nov 25 16:40:48 2018

Tools Copyright (c) 1996-2017 Texas Instruments Incorporated
C:\Users\Stryd\AppData\Local\Temp\{8719FFD6-004A-4401-8DC3-4DA83C6CF1D8} PAGE  145

    7884                            .dwattr $C$DW$512, DW_AT_decl_line(0x90)
    7885                            .dwattr $C$DW$512, DW_AT_decl_column(0x17)
    7886                    
    7887                    $C$DW$513       .dwtag  DW_TAG_member
    7888                            .dwattr $C$DW$513, DW_AT_type(*$C$DW$T$84)
    7889                            .dwattr $C$DW$513, DW_AT_name("callBackFunc")
    7890                            .dwattr $C$DW$513, DW_AT_TI_symbol_name("callBackFunc")
    7891                            .dwattr $C$DW$513, DW_AT_data_member_location[DW_OP_plus_uconst 0x28]
    7892                            .dwattr $C$DW$513, DW_AT_accessibility(DW_ACCESS_public)
    7893                            .dwattr $C$DW$513, DW_AT_decl_file("C:/ti/simplelink_cc13x0_sdk_2_30_00_20/source/ti/ti154stac
    7894                            .dwattr $C$DW$513, DW_AT_decl_line(0x91)
    7895                            .dwattr $C$DW$513, DW_AT_decl_column(0x17)
    7896                    
    7897                            .dwattr $C$DW$T$85, DW_AT_decl_file("C:/ti/simplelink_cc13x0_sdk_2_30_00_20/source/ti/ti154sta
    7898                            .dwattr $C$DW$T$85, DW_AT_decl_line(0x87)
    7899                            .dwattr $C$DW$T$85, DW_AT_decl_column(0x01)
    7900                            .dwendtag $C$DW$T$85
    7901                    
    7902                    $C$DW$T$190     .dwtag  DW_TAG_typedef
    7903                            .dwattr $C$DW$T$190, DW_AT_name("halUARTCfg_t")
    7904                            .dwattr $C$DW$T$190, DW_AT_type(*$C$DW$T$85)
    7905                            .dwattr $C$DW$T$190, DW_AT_language(DW_LANG_C)
    7906                            .dwattr $C$DW$T$190, DW_AT_decl_file("C:/ti/simplelink_cc13x0_sdk_2_30_00_20/source/ti/ti154st
    7907                            .dwattr $C$DW$T$190, DW_AT_decl_line(0x92)
    7908                            .dwattr $C$DW$T$190, DW_AT_decl_column(0x02)
    7909                    
    7910                    
    7911                    $C$DW$T$87      .dwtag  DW_TAG_structure_type
    7912                            .dwattr $C$DW$T$87, DW_AT_byte_size(0x04)
    7913                    $C$DW$514       .dwtag  DW_TAG_member
    7914                            .dwattr $C$DW$514, DW_AT_type(*$C$DW$T$86)
    7915                            .dwattr $C$DW$514, DW_AT_name("hdr")
    7916                            .dwattr $C$DW$514, DW_AT_TI_symbol_name("hdr")
    7917                            .dwattr $C$DW$514, DW_AT_data_member_location[DW_OP_plus_uconst 0x0]
    7918                            .dwattr $C$DW$514, DW_AT_accessibility(DW_ACCESS_public)
    7919                            .dwattr $C$DW$514, DW_AT_decl_file("C:/ti/simplelink_cc13x0_sdk_2_30_00_20/examples/rtos/CC135
    7920                            .dwattr $C$DW$514, DW_AT_decl_line(0xbc)
    7921                            .dwattr $C$DW$514, DW_AT_decl_column(0x14)
    7922                    
    7923                    $C$DW$515       .dwtag  DW_TAG_member
    7924                            .dwattr $C$DW$515, DW_AT_type(*$C$DW$T$19)
    7925                            .dwattr $C$DW$515, DW_AT_name("state")
    7926                            .dwattr $C$DW$515, DW_AT_TI_symbol_name("state")
    7927                            .dwattr $C$DW$515, DW_AT_data_member_location[DW_OP_plus_uconst 0x2]
    7928                            .dwattr $C$DW$515, DW_AT_accessibility(DW_ACCESS_public)
    7929                            .dwattr $C$DW$515, DW_AT_decl_file("C:/ti/simplelink_cc13x0_sdk_2_30_00_20/examples/rtos/CC135
    7930                            .dwattr $C$DW$515, DW_AT_decl_line(0xbd)
    7931                            .dwattr $C$DW$515, DW_AT_decl_column(0x09)
    7932                    
    7933                    $C$DW$516       .dwtag  DW_TAG_member
    7934                            .dwattr $C$DW$516, DW_AT_type(*$C$DW$T$19)
    7935                            .dwattr $C$DW$516, DW_AT_name("keys")
    7936                            .dwattr $C$DW$516, DW_AT_TI_symbol_name("keys")
    7937                            .dwattr $C$DW$516, DW_AT_data_member_location[DW_OP_plus_uconst 0x3]
    7938                            .dwattr $C$DW$516, DW_AT_accessibility(DW_ACCESS_public)
TI ARM Assembler PC v16.9.9 Sun Nov 25 16:40:48 2018

Tools Copyright (c) 1996-2017 Texas Instruments Incorporated
C:\Users\Stryd\AppData\Local\Temp\{8719FFD6-004A-4401-8DC3-4DA83C6CF1D8} PAGE  146

    7939                            .dwattr $C$DW$516, DW_AT_decl_file("C:/ti/simplelink_cc13x0_sdk_2_30_00_20/examples/rtos/CC135
    7940                            .dwattr $C$DW$516, DW_AT_decl_line(0xbe)
    7941                            .dwattr $C$DW$516, DW_AT_decl_column(0x09)
    7942                    
    7943                            .dwattr $C$DW$T$87, DW_AT_decl_file("C:/ti/simplelink_cc13x0_sdk_2_30_00_20/examples/rtos/CC13
    7944                            .dwattr $C$DW$T$87, DW_AT_decl_line(0xbb)
    7945                            .dwattr $C$DW$T$87, DW_AT_decl_column(0x01)
    7946                            .dwendtag $C$DW$T$87
    7947                    
    7948                    $C$DW$T$191     .dwtag  DW_TAG_typedef
    7949                            .dwattr $C$DW$T$191, DW_AT_name("keyChange_t")
    7950                            .dwattr $C$DW$T$191, DW_AT_type(*$C$DW$T$87)
    7951                            .dwattr $C$DW$T$191, DW_AT_language(DW_LANG_C)
    7952                            .dwattr $C$DW$T$191, DW_AT_decl_file("C:/ti/simplelink_cc13x0_sdk_2_30_00_20/examples/rtos/CC1
    7953                            .dwattr $C$DW$T$191, DW_AT_decl_line(0xbf)
    7954                            .dwattr $C$DW$T$191, DW_AT_decl_column(0x03)
    7955                    
    7956                    
    7957                    $C$DW$T$92      .dwtag  DW_TAG_union_type
    7958                            .dwattr $C$DW$T$92, DW_AT_byte_size(0x02)
    7959                    $C$DW$517       .dwtag  DW_TAG_member
    7960                            .dwattr $C$DW$517, DW_AT_type(*$C$DW$T$89)
    7961                            .dwattr $C$DW$517, DW_AT_name("entityId")
    7962                            .dwattr $C$DW$517, DW_AT_TI_symbol_name("entityId")
    7963                            .dwattr $C$DW$517, DW_AT_data_member_location[DW_OP_plus_uconst 0x0]
    7964                            .dwattr $C$DW$517, DW_AT_accessibility(DW_ACCESS_public)
    7965                            .dwattr $C$DW$517, DW_AT_decl_file("C:/ti/simplelink_cc13x0_sdk_2_30_00_20/source/ti/ti154stac
    7966                            .dwattr $C$DW$517, DW_AT_decl_line(0x1fe)
    7967                            .dwattr $C$DW$517, DW_AT_decl_column(0x14)
    7968                    
    7969                    $C$DW$518       .dwtag  DW_TAG_member
    7970                            .dwattr $C$DW$518, DW_AT_type(*$C$DW$T$91)
    7971                            .dwattr $C$DW$518, DW_AT_name("servId")
    7972                            .dwattr $C$DW$518, DW_AT_TI_symbol_name("servId")
    7973                            .dwattr $C$DW$518, DW_AT_data_member_location[DW_OP_plus_uconst 0x0]
    7974                            .dwattr $C$DW$518, DW_AT_accessibility(DW_ACCESS_public)
    7975                            .dwattr $C$DW$518, DW_AT_decl_file("C:/ti/simplelink_cc13x0_sdk_2_30_00_20/source/ti/ti154stac
    7976                            .dwattr $C$DW$518, DW_AT_decl_line(0x200)
    7977                            .dwattr $C$DW$518, DW_AT_decl_column(0x17)
    7978                    
    7979                            .dwattr $C$DW$T$92, DW_AT_decl_file("C:/ti/simplelink_cc13x0_sdk_2_30_00_20/source/ti/ti154sta
    7980                            .dwattr $C$DW$T$92, DW_AT_decl_line(0x1fc)
    7981                            .dwattr $C$DW$T$92, DW_AT_decl_column(0x03)
    7982                            .dwendtag $C$DW$T$92
    7983                    
    7984                    
    7985                    $C$DW$T$93      .dwtag  DW_TAG_union_type
    7986                            .dwattr $C$DW$T$93, DW_AT_byte_size(0x02)
    7987                    $C$DW$519       .dwtag  DW_TAG_member
    7988                            .dwattr $C$DW$519, DW_AT_type(*$C$DW$T$91)
    7989                            .dwattr $C$DW$519, DW_AT_name("servId")
    7990                            .dwattr $C$DW$519, DW_AT_TI_symbol_name("servId")
    7991                            .dwattr $C$DW$519, DW_AT_data_member_location[DW_OP_plus_uconst 0x0]
    7992                            .dwattr $C$DW$519, DW_AT_accessibility(DW_ACCESS_public)
    7993                            .dwattr $C$DW$519, DW_AT_decl_file("C:/ti/simplelink_cc13x0_sdk_2_30_00_20/source/ti/ti154stac
TI ARM Assembler PC v16.9.9 Sun Nov 25 16:40:48 2018

Tools Copyright (c) 1996-2017 Texas Instruments Incorporated
C:\Users\Stryd\AppData\Local\Temp\{8719FFD6-004A-4401-8DC3-4DA83C6CF1D8} PAGE  147

    7994                            .dwattr $C$DW$519, DW_AT_decl_line(0x211)
    7995                            .dwattr $C$DW$519, DW_AT_decl_column(0x17)
    7996                    
    7997                    $C$DW$520       .dwtag  DW_TAG_member
    7998                            .dwattr $C$DW$520, DW_AT_type(*$C$DW$T$89)
    7999                            .dwattr $C$DW$520, DW_AT_name("entityId")
    8000                            .dwattr $C$DW$520, DW_AT_TI_symbol_name("entityId")
    8001                            .dwattr $C$DW$520, DW_AT_data_member_location[DW_OP_plus_uconst 0x0]
    8002                            .dwattr $C$DW$520, DW_AT_accessibility(DW_ACCESS_public)
    8003                            .dwattr $C$DW$520, DW_AT_decl_file("C:/ti/simplelink_cc13x0_sdk_2_30_00_20/source/ti/ti154stac
    8004                            .dwattr $C$DW$520, DW_AT_decl_line(0x213)
    8005                            .dwattr $C$DW$520, DW_AT_decl_column(0x14)
    8006                    
    8007                            .dwattr $C$DW$T$93, DW_AT_decl_file("C:/ti/simplelink_cc13x0_sdk_2_30_00_20/source/ti/ti154sta
    8008                            .dwattr $C$DW$T$93, DW_AT_decl_line(0x20f)
    8009                            .dwattr $C$DW$T$93, DW_AT_decl_column(0x03)
    8010                            .dwendtag $C$DW$T$93
    8011                    
    8012                    
    8013                    $C$DW$T$94      .dwtag  DW_TAG_union_type
    8014                            .dwattr $C$DW$T$94, DW_AT_byte_size(0x02)
    8015                    $C$DW$521       .dwtag  DW_TAG_member
    8016                            .dwattr $C$DW$521, DW_AT_type(*$C$DW$T$79)
    8017                            .dwattr $C$DW$521, DW_AT_name("paramCTS")
    8018                            .dwattr $C$DW$521, DW_AT_TI_symbol_name("paramCTS")
    8019                            .dwattr $C$DW$521, DW_AT_data_member_location[DW_OP_plus_uconst 0x0]
    8020                            .dwattr $C$DW$521, DW_AT_accessibility(DW_ACCESS_public)
    8021                            .dwattr $C$DW$521, DW_AT_decl_file("C:/ti/simplelink_cc13x0_sdk_2_30_00_20/source/ti/ti154stac
    8022                            .dwattr $C$DW$521, DW_AT_decl_line(0x96)
    8023                            .dwattr $C$DW$521, DW_AT_decl_column(0x08)
    8024                    
    8025                    $C$DW$522       .dwtag  DW_TAG_member
    8026                            .dwattr $C$DW$522, DW_AT_type(*$C$DW$T$79)
    8027                            .dwattr $C$DW$522, DW_AT_name("paramRTS")
    8028                            .dwattr $C$DW$522, DW_AT_TI_symbol_name("paramRTS")
    8029                            .dwattr $C$DW$522, DW_AT_data_member_location[DW_OP_plus_uconst 0x0]
    8030                            .dwattr $C$DW$522, DW_AT_accessibility(DW_ACCESS_public)
    8031                            .dwattr $C$DW$522, DW_AT_decl_file("C:/ti/simplelink_cc13x0_sdk_2_30_00_20/source/ti/ti154stac
    8032                            .dwattr $C$DW$522, DW_AT_decl_line(0x97)
    8033                            .dwattr $C$DW$522, DW_AT_decl_column(0x08)
    8034                    
    8035                    $C$DW$523       .dwtag  DW_TAG_member
    8036                            .dwattr $C$DW$523, DW_AT_type(*$C$DW$T$79)
    8037                            .dwattr $C$DW$523, DW_AT_name("paramDSR")
    8038                            .dwattr $C$DW$523, DW_AT_TI_symbol_name("paramDSR")
    8039                            .dwattr $C$DW$523, DW_AT_data_member_location[DW_OP_plus_uconst 0x0]
    8040                            .dwattr $C$DW$523, DW_AT_accessibility(DW_ACCESS_public)
    8041                            .dwattr $C$DW$523, DW_AT_decl_file("C:/ti/simplelink_cc13x0_sdk_2_30_00_20/source/ti/ti154stac
    8042                            .dwattr $C$DW$523, DW_AT_decl_line(0x98)
    8043                            .dwattr $C$DW$523, DW_AT_decl_column(0x08)
    8044                    
    8045                    $C$DW$524       .dwtag  DW_TAG_member
    8046                            .dwattr $C$DW$524, DW_AT_type(*$C$DW$T$79)
    8047                            .dwattr $C$DW$524, DW_AT_name("paramDTR")
    8048                            .dwattr $C$DW$524, DW_AT_TI_symbol_name("paramDTR")
TI ARM Assembler PC v16.9.9 Sun Nov 25 16:40:48 2018

Tools Copyright (c) 1996-2017 Texas Instruments Incorporated
C:\Users\Stryd\AppData\Local\Temp\{8719FFD6-004A-4401-8DC3-4DA83C6CF1D8} PAGE  148

    8049                            .dwattr $C$DW$524, DW_AT_data_member_location[DW_OP_plus_uconst 0x0]
    8050                            .dwattr $C$DW$524, DW_AT_accessibility(DW_ACCESS_public)
    8051                            .dwattr $C$DW$524, DW_AT_decl_file("C:/ti/simplelink_cc13x0_sdk_2_30_00_20/source/ti/ti154stac
    8052                            .dwattr $C$DW$524, DW_AT_decl_line(0x99)
    8053                            .dwattr $C$DW$524, DW_AT_decl_column(0x08)
    8054                    
    8055                    $C$DW$525       .dwtag  DW_TAG_member
    8056                            .dwattr $C$DW$525, DW_AT_type(*$C$DW$T$79)
    8057                            .dwattr $C$DW$525, DW_AT_name("paramCD")
    8058                            .dwattr $C$DW$525, DW_AT_TI_symbol_name("paramCD")
    8059                            .dwattr $C$DW$525, DW_AT_data_member_location[DW_OP_plus_uconst 0x0]
    8060                            .dwattr $C$DW$525, DW_AT_accessibility(DW_ACCESS_public)
    8061                            .dwattr $C$DW$525, DW_AT_decl_file("C:/ti/simplelink_cc13x0_sdk_2_30_00_20/source/ti/ti154stac
    8062                            .dwattr $C$DW$525, DW_AT_decl_line(0x9a)
    8063                            .dwattr $C$DW$525, DW_AT_decl_column(0x08)
    8064                    
    8065                    $C$DW$526       .dwtag  DW_TAG_member
    8066                            .dwattr $C$DW$526, DW_AT_type(*$C$DW$T$79)
    8067                            .dwattr $C$DW$526, DW_AT_name("paramRI")
    8068                            .dwattr $C$DW$526, DW_AT_TI_symbol_name("paramRI")
    8069                            .dwattr $C$DW$526, DW_AT_data_member_location[DW_OP_plus_uconst 0x0]
    8070                            .dwattr $C$DW$526, DW_AT_accessibility(DW_ACCESS_public)
    8071                            .dwattr $C$DW$526, DW_AT_decl_file("C:/ti/simplelink_cc13x0_sdk_2_30_00_20/source/ti/ti154stac
    8072                            .dwattr $C$DW$526, DW_AT_decl_line(0x9b)
    8073                            .dwattr $C$DW$526, DW_AT_decl_column(0x08)
    8074                    
    8075                    $C$DW$527       .dwtag  DW_TAG_member
    8076                            .dwattr $C$DW$527, DW_AT_type(*$C$DW$T$73)
    8077                            .dwattr $C$DW$527, DW_AT_name("baudRate")
    8078                            .dwattr $C$DW$527, DW_AT_TI_symbol_name("baudRate")
    8079                            .dwattr $C$DW$527, DW_AT_data_member_location[DW_OP_plus_uconst 0x0]
    8080                            .dwattr $C$DW$527, DW_AT_accessibility(DW_ACCESS_public)
    8081                            .dwattr $C$DW$527, DW_AT_decl_file("C:/ti/simplelink_cc13x0_sdk_2_30_00_20/source/ti/ti154stac
    8082                            .dwattr $C$DW$527, DW_AT_decl_line(0x9c)
    8083                            .dwattr $C$DW$527, DW_AT_decl_column(0x0a)
    8084                    
    8085                    $C$DW$528       .dwtag  DW_TAG_member
    8086                            .dwattr $C$DW$528, DW_AT_type(*$C$DW$T$79)
    8087                            .dwattr $C$DW$528, DW_AT_name("flowControl")
    8088                            .dwattr $C$DW$528, DW_AT_TI_symbol_name("flowControl")
    8089                            .dwattr $C$DW$528, DW_AT_data_member_location[DW_OP_plus_uconst 0x0]
    8090                            .dwattr $C$DW$528, DW_AT_accessibility(DW_ACCESS_public)
    8091                            .dwattr $C$DW$528, DW_AT_decl_file("C:/ti/simplelink_cc13x0_sdk_2_30_00_20/source/ti/ti154stac
    8092                            .dwattr $C$DW$528, DW_AT_decl_line(0x9d)
    8093                            .dwattr $C$DW$528, DW_AT_decl_column(0x08)
    8094                    
    8095                    $C$DW$529       .dwtag  DW_TAG_member
    8096                            .dwattr $C$DW$529, DW_AT_type(*$C$DW$T$79)
    8097                            .dwattr $C$DW$529, DW_AT_name("flushControl")
    8098                            .dwattr $C$DW$529, DW_AT_TI_symbol_name("flushControl")
    8099                            .dwattr $C$DW$529, DW_AT_data_member_location[DW_OP_plus_uconst 0x0]
    8100                            .dwattr $C$DW$529, DW_AT_accessibility(DW_ACCESS_public)
    8101                            .dwattr $C$DW$529, DW_AT_decl_file("C:/ti/simplelink_cc13x0_sdk_2_30_00_20/source/ti/ti154stac
    8102                            .dwattr $C$DW$529, DW_AT_decl_line(0x9e)
    8103                            .dwattr $C$DW$529, DW_AT_decl_column(0x08)
TI ARM Assembler PC v16.9.9 Sun Nov 25 16:40:48 2018

Tools Copyright (c) 1996-2017 Texas Instruments Incorporated
C:\Users\Stryd\AppData\Local\Temp\{8719FFD6-004A-4401-8DC3-4DA83C6CF1D8} PAGE  149

    8104                    
    8105                            .dwattr $C$DW$T$94, DW_AT_decl_file("C:/ti/simplelink_cc13x0_sdk_2_30_00_20/source/ti/ti154sta
    8106                            .dwattr $C$DW$T$94, DW_AT_decl_line(0x95)
    8107                            .dwattr $C$DW$T$94, DW_AT_decl_column(0x01)
    8108                            .dwendtag $C$DW$T$94
    8109                    
    8110                    $C$DW$T$192     .dwtag  DW_TAG_typedef
    8111                            .dwattr $C$DW$T$192, DW_AT_name("halUARTIoctl_t")
    8112                            .dwattr $C$DW$T$192, DW_AT_type(*$C$DW$T$94)
    8113                            .dwattr $C$DW$T$192, DW_AT_language(DW_LANG_C)
    8114                            .dwattr $C$DW$T$192, DW_AT_decl_file("C:/ti/simplelink_cc13x0_sdk_2_30_00_20/source/ti/ti154st
    8115                            .dwattr $C$DW$T$192, DW_AT_decl_line(0x9f)
    8116                            .dwattr $C$DW$T$192, DW_AT_decl_column(0x02)
    8117                    
    8118                    
    8119                    $C$DW$T$99      .dwtag  DW_TAG_structure_type
    8120                            .dwattr $C$DW$T$99, DW_AT_name(".ggroup1")
    8121                            .dwattr $C$DW$T$99, DW_AT_byte_size(0x2c)
    8122                    $C$DW$530       .dwtag  DW_TAG_member
    8123                            .dwattr $C$DW$530, DW_AT_type(*$C$DW$T$6)
    8124                            .dwattr $C$DW$530, DW_AT_name("activeTaskID")
    8125                            .dwattr $C$DW$530, DW_AT_TI_symbol_name("activeTaskID")
    8126                            .dwattr $C$DW$530, DW_AT_data_member_location[DW_OP_plus_uconst 0x0]
    8127                            .dwattr $C$DW$530, DW_AT_accessibility(DW_ACCESS_public)
    8128                    
    8129                    $C$DW$531       .dwtag  DW_TAG_member
    8130                            .dwattr $C$DW$531, DW_AT_type(*$C$DW$T$6)
    8131                            .dwattr $C$DW$531, DW_AT_name("osal_notask_entity")
    8132                            .dwattr $C$DW$531, DW_AT_TI_symbol_name("osal_notask_entity")
    8133                            .dwattr $C$DW$531, DW_AT_data_member_location[DW_OP_plus_uconst 0x1]
    8134                            .dwattr $C$DW$531, DW_AT_accessibility(DW_ACCESS_public)
    8135                    
    8136                    $C$DW$532       .dwtag  DW_TAG_member
    8137                            .dwattr $C$DW$532, DW_AT_type(*$C$DW$T$95)
    8138                            .dwattr $C$DW$532, DW_AT_name("osal_proxy_tasks")
    8139                            .dwattr $C$DW$532, DW_AT_TI_symbol_name("osal_proxy_tasks")
    8140                            .dwattr $C$DW$532, DW_AT_data_member_location[DW_OP_plus_uconst 0x2]
    8141                            .dwattr $C$DW$532, DW_AT_accessibility(DW_ACCESS_public)
    8142                    
    8143                    $C$DW$533       .dwtag  DW_TAG_member
    8144                            .dwattr $C$DW$533, DW_AT_type(*$C$DW$T$3)
    8145                            .dwattr $C$DW$533, DW_AT_name("osal_qHead")
    8146                            .dwattr $C$DW$533, DW_AT_TI_symbol_name("osal_qHead")
    8147                            .dwattr $C$DW$533, DW_AT_data_member_location[DW_OP_plus_uconst 0x4]
    8148                            .dwattr $C$DW$533, DW_AT_accessibility(DW_ACCESS_public)
    8149                    
    8150                    $C$DW$534       .dwtag  DW_TAG_member
    8151                            .dwattr $C$DW$534, DW_AT_type(*$C$DW$T$37)
    8152                            .dwattr $C$DW$534, DW_AT_name("osal_eventloop_hook")
    8153                            .dwattr $C$DW$534, DW_AT_TI_symbol_name("osal_eventloop_hook")
    8154                            .dwattr $C$DW$534, DW_AT_data_member_location[DW_OP_plus_uconst 0x8]
    8155                            .dwattr $C$DW$534, DW_AT_accessibility(DW_ACCESS_public)
    8156                    
    8157                    $C$DW$535       .dwtag  DW_TAG_member
    8158                            .dwattr $C$DW$535, DW_AT_type(*$C$DW$T$97)
TI ARM Assembler PC v16.9.9 Sun Nov 25 16:40:48 2018

Tools Copyright (c) 1996-2017 Texas Instruments Incorporated
C:\Users\Stryd\AppData\Local\Temp\{8719FFD6-004A-4401-8DC3-4DA83C6CF1D8} PAGE  150

    8159                            .dwattr $C$DW$535, DW_AT_name("osal_icallMsg_hook")
    8160                            .dwattr $C$DW$535, DW_AT_TI_symbol_name("osal_icallMsg_hook")
    8161                            .dwattr $C$DW$535, DW_AT_data_member_location[DW_OP_plus_uconst 0xc]
    8162                            .dwattr $C$DW$535, DW_AT_accessibility(DW_ACCESS_public)
    8163                    
    8164                    $C$DW$536       .dwtag  DW_TAG_member
    8165                            .dwattr $C$DW$536, DW_AT_type(*$C$DW$T$3)
    8166                            .dwattr $C$DW$536, DW_AT_name("osal_semaphore")
    8167                            .dwattr $C$DW$536, DW_AT_TI_symbol_name("osal_semaphore")
    8168                            .dwattr $C$DW$536, DW_AT_data_member_location[DW_OP_plus_uconst 0x10]
    8169                            .dwattr $C$DW$536, DW_AT_accessibility(DW_ACCESS_public)
    8170                    
    8171                    $C$DW$537       .dwtag  DW_TAG_member
    8172                            .dwattr $C$DW$537, DW_AT_type(*$C$DW$T$11)
    8173                            .dwattr $C$DW$537, DW_AT_name("osal_last_timestamp")
    8174                            .dwattr $C$DW$537, DW_AT_TI_symbol_name("osal_last_timestamp")
    8175                            .dwattr $C$DW$537, DW_AT_data_member_location[DW_OP_plus_uconst 0x14]
    8176                            .dwattr $C$DW$537, DW_AT_accessibility(DW_ACCESS_public)
    8177                    
    8178                    $C$DW$538       .dwtag  DW_TAG_member
    8179                            .dwattr $C$DW$538, DW_AT_type(*$C$DW$T$11)
    8180                            .dwattr $C$DW$538, DW_AT_name("osal_tickperiod")
    8181                            .dwattr $C$DW$538, DW_AT_TI_symbol_name("osal_tickperiod")
    8182                            .dwattr $C$DW$538, DW_AT_data_member_location[DW_OP_plus_uconst 0x18]
    8183                            .dwattr $C$DW$538, DW_AT_accessibility(DW_ACCESS_public)
    8184                    
    8185                    $C$DW$539       .dwtag  DW_TAG_member
    8186                            .dwattr $C$DW$539, DW_AT_type(*$C$DW$T$11)
    8187                            .dwattr $C$DW$539, DW_AT_name("osal_max_msecs")
    8188                            .dwattr $C$DW$539, DW_AT_TI_symbol_name("osal_max_msecs")
    8189                            .dwattr $C$DW$539, DW_AT_data_member_location[DW_OP_plus_uconst 0x1c]
    8190                            .dwattr $C$DW$539, DW_AT_accessibility(DW_ACCESS_public)
    8191                    
    8192                    $C$DW$540       .dwtag  DW_TAG_member
    8193                            .dwattr $C$DW$540, DW_AT_type(*$C$DW$T$3)
    8194                            .dwattr $C$DW$540, DW_AT_name("osal_timerid_msec_timer")
    8195                            .dwattr $C$DW$540, DW_AT_TI_symbol_name("osal_timerid_msec_timer")
    8196                            .dwattr $C$DW$540, DW_AT_data_member_location[DW_OP_plus_uconst 0x20]
    8197                            .dwattr $C$DW$540, DW_AT_accessibility(DW_ACCESS_public)
    8198                    
    8199                    $C$DW$541       .dwtag  DW_TAG_member
    8200                            .dwattr $C$DW$541, DW_AT_type(*$C$DW$T$11)
    8201                            .dwattr $C$DW$541, DW_AT_name("osal_msec_timer_seq")
    8202                            .dwattr $C$DW$541, DW_AT_TI_symbol_name("osal_msec_timer_seq")
    8203                            .dwattr $C$DW$541, DW_AT_data_member_location[DW_OP_plus_uconst 0x24]
    8204                            .dwattr $C$DW$541, DW_AT_accessibility(DW_ACCESS_public)
    8205                    
    8206                    $C$DW$542       .dwtag  DW_TAG_member
    8207                            .dwattr $C$DW$542, DW_AT_type(*$C$DW$T$98)
    8208                            .dwattr $C$DW$542, DW_AT_name("osal_dispatch_entities")
    8209                            .dwattr $C$DW$542, DW_AT_TI_symbol_name("osal_dispatch_entities")
    8210                            .dwattr $C$DW$542, DW_AT_data_member_location[DW_OP_plus_uconst 0x28]
    8211                            .dwattr $C$DW$542, DW_AT_accessibility(DW_ACCESS_public)
    8212                    
    8213                            .dwendtag $C$DW$T$99
TI ARM Assembler PC v16.9.9 Sun Nov 25 16:40:48 2018

Tools Copyright (c) 1996-2017 Texas Instruments Incorporated
C:\Users\Stryd\AppData\Local\Temp\{8719FFD6-004A-4401-8DC3-4DA83C6CF1D8} PAGE  151

    8214                    
    8215                    
    8216                    $C$DW$T$100     .dwtag  DW_TAG_structure_type
    8217                            .dwattr $C$DW$T$100, DW_AT_name("_ICall_LiteCmdStatus_")
    8218                            .dwattr $C$DW$T$100, DW_AT_byte_size(0x01)
    8219                    $C$DW$543       .dwtag  DW_TAG_member
    8220                            .dwattr $C$DW$543, DW_AT_type(*$C$DW$T$88)
    8221                            .dwattr $C$DW$543, DW_AT_name("cmdId")
    8222                            .dwattr $C$DW$543, DW_AT_TI_symbol_name("cmdId")
    8223                            .dwattr $C$DW$543, DW_AT_data_member_location[DW_OP_plus_uconst 0x0]
    8224                            .dwattr $C$DW$543, DW_AT_accessibility(DW_ACCESS_public)
    8225                            .dwattr $C$DW$543, DW_AT_decl_file("C:/ti/simplelink_cc13x0_sdk_2_30_00_20/source/ti/ti154stac
    8226                            .dwattr $C$DW$543, DW_AT_decl_line(0x3f0)
    8227                            .dwattr $C$DW$543, DW_AT_decl_column(0x11)
    8228                    
    8229                            .dwattr $C$DW$T$100, DW_AT_decl_file("C:/ti/simplelink_cc13x0_sdk_2_30_00_20/source/ti/ti154st
    8230                            .dwattr $C$DW$T$100, DW_AT_decl_line(0x3ee)
    8231                            .dwattr $C$DW$T$100, DW_AT_decl_column(0x10)
    8232                            .dwendtag $C$DW$T$100
    8233                    
    8234                    $C$DW$T$194     .dwtag  DW_TAG_typedef
    8235                            .dwattr $C$DW$T$194, DW_AT_name("ICall_LiteCmdStatus")
    8236                            .dwattr $C$DW$T$194, DW_AT_type(*$C$DW$T$100)
    8237                            .dwattr $C$DW$T$194, DW_AT_language(DW_LANG_C)
    8238                            .dwattr $C$DW$T$194, DW_AT_decl_file("C:/ti/simplelink_cc13x0_sdk_2_30_00_20/source/ti/ti154st
    8239                            .dwattr $C$DW$T$194, DW_AT_decl_line(0x3f1)
    8240                            .dwattr $C$DW$T$194, DW_AT_decl_column(0x03)
    8241                    
    8242                    $C$DW$T$2       .dwtag  DW_TAG_unspecified_type
    8243                            .dwattr $C$DW$T$2, DW_AT_name("void")
    8244                    
    8245                    $C$DW$T$3       .dwtag  DW_TAG_pointer_type
    8246                            .dwattr $C$DW$T$3, DW_AT_type(*$C$DW$T$2)
    8247                            .dwattr $C$DW$T$3, DW_AT_address_class(0x20)
    8248                    
    8249                    $C$DW$T$195     .dwtag  DW_TAG_typedef
    8250                            .dwattr $C$DW$T$195, DW_AT_name("ICall_Semaphore")
    8251                            .dwattr $C$DW$T$195, DW_AT_type(*$C$DW$T$3)
    8252                            .dwattr $C$DW$T$195, DW_AT_language(DW_LANG_C)
    8253                            .dwattr $C$DW$T$195, DW_AT_decl_file("C:/ti/simplelink_cc13x0_sdk_2_30_00_20/source/ti/ti154st
    8254                            .dwattr $C$DW$T$195, DW_AT_decl_line(0x1ac)
    8255                            .dwattr $C$DW$T$195, DW_AT_decl_column(0x0f)
    8256                    
    8257                    $C$DW$T$114     .dwtag  DW_TAG_typedef
    8258                            .dwattr $C$DW$T$114, DW_AT_name("ICall_SyncHandle")
    8259                            .dwattr $C$DW$T$114, DW_AT_type(*$C$DW$T$3)
    8260                            .dwattr $C$DW$T$114, DW_AT_language(DW_LANG_C)
    8261                            .dwattr $C$DW$T$114, DW_AT_decl_file("C:/ti/simplelink_cc13x0_sdk_2_30_00_20/source/ti/ti154st
    8262                            .dwattr $C$DW$T$114, DW_AT_decl_line(0x1aa)
    8263                            .dwattr $C$DW$T$114, DW_AT_decl_column(0x0f)
    8264                    
    8265                    $C$DW$T$196     .dwtag  DW_TAG_const_type
    8266                            .dwattr $C$DW$T$196, DW_AT_type(*$C$DW$T$114)
    8267                    
    8268                    $C$DW$T$158     .dwtag  DW_TAG_typedef
TI ARM Assembler PC v16.9.9 Sun Nov 25 16:40:48 2018

Tools Copyright (c) 1996-2017 Texas Instruments Incorporated
C:\Users\Stryd\AppData\Local\Temp\{8719FFD6-004A-4401-8DC3-4DA83C6CF1D8} PAGE  152

    8269                            .dwattr $C$DW$T$158, DW_AT_name("ICall_TimerID")
    8270                            .dwattr $C$DW$T$158, DW_AT_type(*$C$DW$T$3)
    8271                            .dwattr $C$DW$T$158, DW_AT_language(DW_LANG_C)
    8272                            .dwattr $C$DW$T$158, DW_AT_decl_file("C:/ti/simplelink_cc13x0_sdk_2_30_00_20/source/ti/ti154st
    8273                            .dwattr $C$DW$T$158, DW_AT_decl_line(0x1b7)
    8274                            .dwattr $C$DW$T$158, DW_AT_decl_column(0x0f)
    8275                    
    8276                    $C$DW$T$212     .dwtag  DW_TAG_const_type
    8277                            .dwattr $C$DW$T$212, DW_AT_type(*$C$DW$T$3)
    8278                    
    8279                    $C$DW$T$209     .dwtag  DW_TAG_typedef
    8280                            .dwattr $C$DW$T$209, DW_AT_name("osal_msg_q_t")
    8281                            .dwattr $C$DW$T$209, DW_AT_type(*$C$DW$T$3)
    8282                            .dwattr $C$DW$T$209, DW_AT_language(DW_LANG_C)
    8283                            .dwattr $C$DW$T$209, DW_AT_decl_file("..\Application\MAC\OSAL\osal.h")
    8284                            .dwattr $C$DW$T$209, DW_AT_decl_line(0x7d)
    8285                            .dwattr $C$DW$T$209, DW_AT_decl_column(0x10)
    8286                    
    8287                    $C$DW$T$210     .dwtag  DW_TAG_pointer_type
    8288                            .dwattr $C$DW$T$210, DW_AT_type(*$C$DW$T$209)
    8289                            .dwattr $C$DW$T$210, DW_AT_address_class(0x20)
    8290                    
    8291                    $C$DW$T$213     .dwtag  DW_TAG_const_type
    8292                            .dwattr $C$DW$T$213, DW_AT_type(*$C$DW$T$210)
    8293                    
    8294                    
    8295                    $C$DW$T$36      .dwtag  DW_TAG_subroutine_type
    8296                            .dwattr $C$DW$T$36, DW_AT_language(DW_LANG_C)
    8297                            .dwendtag $C$DW$T$36
    8298                    
    8299                    $C$DW$T$37      .dwtag  DW_TAG_pointer_type
    8300                            .dwattr $C$DW$T$37, DW_AT_type(*$C$DW$T$36)
    8301                            .dwattr $C$DW$T$37, DW_AT_address_class(0x20)
    8302                    
    8303                    $C$DW$T$173     .dwtag  DW_TAG_typedef
    8304                            .dwattr $C$DW$T$173, DW_AT_name("APPASRTINTF_callAssrtHndler")
    8305                            .dwattr $C$DW$T$173, DW_AT_type(*$C$DW$T$37)
    8306                            .dwattr $C$DW$T$173, DW_AT_language(DW_LANG_C)
    8307                            .dwattr $C$DW$T$173, DW_AT_decl_file("C:/ti/simplelink_cc13x0_sdk_2_30_00_20/source/ti/ti154st
    8308                            .dwattr $C$DW$T$173, DW_AT_decl_line(0x43)
    8309                            .dwattr $C$DW$T$173, DW_AT_decl_column(0x10)
    8310                    
    8311                    $C$DW$T$55      .dwtag  DW_TAG_typedef
    8312                            .dwattr $C$DW$T$55, DW_AT_name("FPTR_HFSOURCESAFESWITCH_T")
    8313                            .dwattr $C$DW$T$55, DW_AT_type(*$C$DW$T$37)
    8314                            .dwattr $C$DW$T$55, DW_AT_language(DW_LANG_C)
    8315                            .dwattr $C$DW$T$55, DW_AT_decl_file("C:\ti\simplelink_cc13x0_sdk_2_30_00_20\source\ti\devices\
    8316                            .dwattr $C$DW$T$55, DW_AT_decl_line(0x5f)
    8317                            .dwattr $C$DW$T$55, DW_AT_decl_column(0x19)
    8318                    
    8319                    $C$DW$T$38      .dwtag  DW_TAG_typedef
    8320                            .dwattr $C$DW$T$38, DW_AT_name("FPTR_RESETDEV_T")
    8321                            .dwattr $C$DW$T$38, DW_AT_type(*$C$DW$T$37)
    8322                            .dwattr $C$DW$T$38, DW_AT_language(DW_LANG_C)
    8323                            .dwattr $C$DW$T$38, DW_AT_decl_file("C:\ti\simplelink_cc13x0_sdk_2_30_00_20\source\ti\devices\
TI ARM Assembler PC v16.9.9 Sun Nov 25 16:40:48 2018

Tools Copyright (c) 1996-2017 Texas Instruments Incorporated
C:\Users\Stryd\AppData\Local\Temp\{8719FFD6-004A-4401-8DC3-4DA83C6CF1D8} PAGE  153

    8324                            .dwattr $C$DW$T$38, DW_AT_decl_line(0x4d)
    8325                            .dwattr $C$DW$T$38, DW_AT_decl_column(0x19)
    8326                    
    8327                    $C$DW$T$214     .dwtag  DW_TAG_typedef
    8328                            .dwattr $C$DW$T$214, DW_AT_name("FPTR_VOID_VOID_T")
    8329                            .dwattr $C$DW$T$214, DW_AT_type(*$C$DW$T$37)
    8330                            .dwattr $C$DW$T$214, DW_AT_language(DW_LANG_C)
    8331                            .dwattr $C$DW$T$214, DW_AT_decl_file("C:/ti/simplelink_cc13x0_sdk_2_30_00_20/source/ti/devices
    8332                            .dwattr $C$DW$T$214, DW_AT_decl_line(0x33)
    8333                            .dwattr $C$DW$T$214, DW_AT_decl_column(0x11)
    8334                    
    8335                    $C$DW$T$215     .dwtag  DW_TAG_typedef
    8336                            .dwattr $C$DW$T$215, DW_AT_name("__TI_atexit_fn")
    8337                            .dwattr $C$DW$T$215, DW_AT_type(*$C$DW$T$37)
    8338                            .dwattr $C$DW$T$215, DW_AT_language(DW_LANG_C)
    8339                            .dwattr $C$DW$T$215, DW_AT_decl_file("C:/ti/ccsv7/tools/compiler/ti-cgt-arm_16.9.9.LTS/include
    8340                            .dwattr $C$DW$T$215, DW_AT_decl_line(0xb9)
    8341                            .dwattr $C$DW$T$215, DW_AT_decl_column(0x14)
    8342                    
    8343                    
    8344                    $C$DW$T$51      .dwtag  DW_TAG_subroutine_type
    8345                            .dwattr $C$DW$T$51, DW_AT_language(DW_LANG_C)
    8346                    $C$DW$544       .dwtag  DW_TAG_formal_parameter
    8347                            .dwattr $C$DW$544, DW_AT_type(*$C$DW$T$21)
    8348                    
    8349                            .dwendtag $C$DW$T$51
    8350                    
    8351                    $C$DW$T$52      .dwtag  DW_TAG_pointer_type
    8352                            .dwattr $C$DW$T$52, DW_AT_type(*$C$DW$T$51)
    8353                            .dwattr $C$DW$T$52, DW_AT_address_class(0x20)
    8354                    
    8355                    $C$DW$T$53      .dwtag  DW_TAG_typedef
    8356                            .dwattr $C$DW$T$53, DW_AT_name("FPTR_RESERVED4_T")
    8357                            .dwattr $C$DW$T$53, DW_AT_type(*$C$DW$T$52)
    8358                            .dwattr $C$DW$T$53, DW_AT_language(DW_LANG_C)
    8359                            .dwattr $C$DW$T$53, DW_AT_decl_file("C:\ti\simplelink_cc13x0_sdk_2_30_00_20\source\ti\devices\
    8360                            .dwattr $C$DW$T$53, DW_AT_decl_line(0x61)
    8361                            .dwattr $C$DW$T$53, DW_AT_decl_column(0x19)
    8362                    
    8363                    $C$DW$T$54      .dwtag  DW_TAG_typedef
    8364                            .dwattr $C$DW$T$54, DW_AT_name("FPTR_RESERVED5_T")
    8365                            .dwattr $C$DW$T$54, DW_AT_type(*$C$DW$T$52)
    8366                            .dwattr $C$DW$T$54, DW_AT_language(DW_LANG_C)
    8367                            .dwattr $C$DW$T$54, DW_AT_decl_file("C:\ti\simplelink_cc13x0_sdk_2_30_00_20\source\ti\devices\
    8368                            .dwattr $C$DW$T$54, DW_AT_decl_line(0x63)
    8369                            .dwattr $C$DW$T$54, DW_AT_decl_column(0x19)
    8370                    
    8371                    
    8372                    $C$DW$T$56      .dwtag  DW_TAG_subroutine_type
    8373                            .dwattr $C$DW$T$56, DW_AT_language(DW_LANG_C)
    8374                    $C$DW$545       .dwtag  DW_TAG_formal_parameter
    8375                            .dwattr $C$DW$545, DW_AT_type(*$C$DW$T$22)
    8376                    
    8377                            .dwendtag $C$DW$T$56
    8378                    
TI ARM Assembler PC v16.9.9 Sun Nov 25 16:40:48 2018

Tools Copyright (c) 1996-2017 Texas Instruments Incorporated
C:\Users\Stryd\AppData\Local\Temp\{8719FFD6-004A-4401-8DC3-4DA83C6CF1D8} PAGE  154

    8379                    $C$DW$T$57      .dwtag  DW_TAG_pointer_type
    8380                            .dwattr $C$DW$T$57, DW_AT_type(*$C$DW$T$56)
    8381                            .dwattr $C$DW$T$57, DW_AT_address_class(0x20)
    8382                    
    8383                    $C$DW$T$60      .dwtag  DW_TAG_typedef
    8384                            .dwattr $C$DW$T$60, DW_AT_name("FPTR_ADCCOMPBIN_T")
    8385                            .dwattr $C$DW$T$60, DW_AT_type(*$C$DW$T$57)
    8386                            .dwattr $C$DW$T$60, DW_AT_language(DW_LANG_C)
    8387                            .dwattr $C$DW$T$60, DW_AT_decl_file("C:\ti\simplelink_cc13x0_sdk_2_30_00_20\source\ti\devices\
    8388                            .dwattr $C$DW$T$60, DW_AT_decl_line(0x69)
    8389                            .dwattr $C$DW$T$60, DW_AT_decl_column(0x19)
    8390                    
    8391                    $C$DW$T$58      .dwtag  DW_TAG_typedef
    8392                            .dwattr $C$DW$T$58, DW_AT_name("FPTR_COMPAIN_T")
    8393                            .dwattr $C$DW$T$58, DW_AT_type(*$C$DW$T$57)
    8394                            .dwattr $C$DW$T$58, DW_AT_language(DW_LANG_C)
    8395                            .dwattr $C$DW$T$58, DW_AT_decl_file("C:\ti\simplelink_cc13x0_sdk_2_30_00_20\source\ti\devices\
    8396                            .dwattr $C$DW$T$58, DW_AT_decl_line(0x65)
    8397                            .dwattr $C$DW$T$58, DW_AT_decl_column(0x19)
    8398                    
    8399                    $C$DW$T$59      .dwtag  DW_TAG_typedef
    8400                            .dwattr $C$DW$T$59, DW_AT_name("FPTR_COMPAREF_T")
    8401                            .dwattr $C$DW$T$59, DW_AT_type(*$C$DW$T$57)
    8402                            .dwattr $C$DW$T$59, DW_AT_language(DW_LANG_C)
    8403                            .dwattr $C$DW$T$59, DW_AT_decl_file("C:\ti\simplelink_cc13x0_sdk_2_30_00_20\source\ti\devices\
    8404                            .dwattr $C$DW$T$59, DW_AT_decl_line(0x67)
    8405                            .dwattr $C$DW$T$59, DW_AT_decl_column(0x19)
    8406                    
    8407                    $C$DW$T$61      .dwtag  DW_TAG_typedef
    8408                            .dwattr $C$DW$T$61, DW_AT_name("FPTR_COMPBREF_T")
    8409                            .dwattr $C$DW$T$61, DW_AT_type(*$C$DW$T$57)
    8410                            .dwattr $C$DW$T$61, DW_AT_language(DW_LANG_C)
    8411                            .dwattr $C$DW$T$61, DW_AT_decl_file("C:\ti\simplelink_cc13x0_sdk_2_30_00_20\source\ti\devices\
    8412                            .dwattr $C$DW$T$61, DW_AT_decl_line(0x6b)
    8413                            .dwattr $C$DW$T$61, DW_AT_decl_column(0x19)
    8414                    
    8415                    $C$DW$T$217     .dwtag  DW_TAG_typedef
    8416                            .dwattr $C$DW$T$217, DW_AT_name("FPTR_VOID_UINT8_T")
    8417                            .dwattr $C$DW$T$217, DW_AT_type(*$C$DW$T$57)
    8418                            .dwattr $C$DW$T$217, DW_AT_language(DW_LANG_C)
    8419                            .dwattr $C$DW$T$217, DW_AT_decl_file("C:/ti/simplelink_cc13x0_sdk_2_30_00_20/source/ti/devices
    8420                            .dwattr $C$DW$T$217, DW_AT_decl_line(0x34)
    8421                            .dwattr $C$DW$T$217, DW_AT_decl_column(0x11)
    8422                    
    8423                    
    8424                    $C$DW$T$82      .dwtag  DW_TAG_subroutine_type
    8425                            .dwattr $C$DW$T$82, DW_AT_language(DW_LANG_C)
    8426                    $C$DW$546       .dwtag  DW_TAG_formal_parameter
    8427                            .dwattr $C$DW$546, DW_AT_type(*$C$DW$T$19)
    8428                    
    8429                    $C$DW$547       .dwtag  DW_TAG_formal_parameter
    8430                            .dwattr $C$DW$547, DW_AT_type(*$C$DW$T$19)
    8431                    
    8432                            .dwendtag $C$DW$T$82
    8433                    
TI ARM Assembler PC v16.9.9 Sun Nov 25 16:40:48 2018

Tools Copyright (c) 1996-2017 Texas Instruments Incorporated
C:\Users\Stryd\AppData\Local\Temp\{8719FFD6-004A-4401-8DC3-4DA83C6CF1D8} PAGE  155

    8434                    $C$DW$T$83      .dwtag  DW_TAG_pointer_type
    8435                            .dwattr $C$DW$T$83, DW_AT_type(*$C$DW$T$82)
    8436                            .dwattr $C$DW$T$83, DW_AT_address_class(0x20)
    8437                    
    8438                    $C$DW$T$218     .dwtag  DW_TAG_typedef
    8439                            .dwattr $C$DW$T$218, DW_AT_name("assertCback_t")
    8440                            .dwattr $C$DW$T$218, DW_AT_type(*$C$DW$T$83)
    8441                            .dwattr $C$DW$T$218, DW_AT_language(DW_LANG_C)
    8442                            .dwattr $C$DW$T$218, DW_AT_decl_file("C:/ti/simplelink_cc13x0_sdk_2_30_00_20/source/ti/ti154st
    8443                            .dwattr $C$DW$T$218, DW_AT_decl_line(0xd3)
    8444                            .dwattr $C$DW$T$218, DW_AT_decl_column(0x10)
    8445                    
    8446                    $C$DW$T$84      .dwtag  DW_TAG_typedef
    8447                            .dwattr $C$DW$T$84, DW_AT_name("halUARTCBack_t")
    8448                            .dwattr $C$DW$T$84, DW_AT_type(*$C$DW$T$83)
    8449                            .dwattr $C$DW$T$84, DW_AT_language(DW_LANG_C)
    8450                            .dwattr $C$DW$T$84, DW_AT_decl_file("C:/ti/simplelink_cc13x0_sdk_2_30_00_20/source/ti/ti154sta
    8451                            .dwattr $C$DW$T$84, DW_AT_decl_line(0x7b)
    8452                            .dwattr $C$DW$T$84, DW_AT_decl_column(0x10)
    8453                    
    8454                    
    8455                    $C$DW$T$96      .dwtag  DW_TAG_subroutine_type
    8456                            .dwattr $C$DW$T$96, DW_AT_language(DW_LANG_C)
    8457                    $C$DW$548       .dwtag  DW_TAG_formal_parameter
    8458                            .dwattr $C$DW$548, DW_AT_type(*$C$DW$T$3)
    8459                    
    8460                            .dwendtag $C$DW$T$96
    8461                    
    8462                    $C$DW$T$97      .dwtag  DW_TAG_pointer_type
    8463                            .dwattr $C$DW$T$97, DW_AT_type(*$C$DW$T$96)
    8464                            .dwattr $C$DW$T$97, DW_AT_address_class(0x20)
    8465                    
    8466                    $C$DW$T$159     .dwtag  DW_TAG_typedef
    8467                            .dwattr $C$DW$T$159, DW_AT_name("ICall_TimerCback")
    8468                            .dwattr $C$DW$T$159, DW_AT_type(*$C$DW$T$97)
    8469                            .dwattr $C$DW$T$159, DW_AT_language(DW_LANG_C)
    8470                            .dwattr $C$DW$T$159, DW_AT_decl_file("C:/ti/simplelink_cc13x0_sdk_2_30_00_20/source/ti/ti154st
    8471                            .dwattr $C$DW$T$159, DW_AT_decl_line(0x1c8)
    8472                            .dwattr $C$DW$T$159, DW_AT_decl_column(0x10)
    8473                    
    8474                    $C$DW$T$222     .dwtag  DW_TAG_typedef
    8475                            .dwattr $C$DW$T$222, DW_AT_name("osal_highres_timer_cback_t")
    8476                            .dwattr $C$DW$T$222, DW_AT_type(*$C$DW$T$97)
    8477                            .dwattr $C$DW$T$222, DW_AT_language(DW_LANG_C)
    8478                            .dwattr $C$DW$T$222, DW_AT_decl_file("..\Application\MAC\OSAL\osal.h")
    8479                            .dwattr $C$DW$T$222, DW_AT_decl_line(0x81)
    8480                            .dwattr $C$DW$T$222, DW_AT_decl_column(0x10)
    8481                    
    8482                    $C$DW$T$223     .dwtag  DW_TAG_typedef
    8483                            .dwattr $C$DW$T$223, DW_AT_name("osal_icallMsg_hook_t")
    8484                            .dwattr $C$DW$T$223, DW_AT_type(*$C$DW$T$97)
    8485                            .dwattr $C$DW$T$223, DW_AT_language(DW_LANG_C)
    8486                            .dwattr $C$DW$T$223, DW_AT_decl_file("..\Application\MAC\OSAL\osal.h")
    8487                            .dwattr $C$DW$T$223, DW_AT_decl_line(0x85)
    8488                            .dwattr $C$DW$T$223, DW_AT_decl_column(0x10)
TI ARM Assembler PC v16.9.9 Sun Nov 25 16:40:48 2018

Tools Copyright (c) 1996-2017 Texas Instruments Incorporated
C:\Users\Stryd\AppData\Local\Temp\{8719FFD6-004A-4401-8DC3-4DA83C6CF1D8} PAGE  156

    8489                    
    8490                    $C$DW$T$224     .dwtag  DW_TAG_const_type
    8491                            .dwattr $C$DW$T$224, DW_AT_type(*$C$DW$T$223)
    8492                    
    8493                    
    8494                    $C$DW$T$104     .dwtag  DW_TAG_subroutine_type
    8495                            .dwattr $C$DW$T$104, DW_AT_language(DW_LANG_C)
    8496                    $C$DW$549       .dwtag  DW_TAG_formal_parameter
    8497                            .dwattr $C$DW$549, DW_AT_type(*$C$DW$T$102)
    8498                    
    8499                            .dwendtag $C$DW$T$104
    8500                    
    8501                    $C$DW$T$105     .dwtag  DW_TAG_pointer_type
    8502                            .dwattr $C$DW$T$105, DW_AT_type(*$C$DW$T$104)
    8503                            .dwattr $C$DW$T$105, DW_AT_address_class(0x20)
    8504                    
    8505                    
    8506                    $C$DW$T$136     .dwtag  DW_TAG_subroutine_type
    8507                            .dwattr $C$DW$T$136, DW_AT_language(DW_LANG_C)
    8508                    $C$DW$550       .dwtag  DW_TAG_formal_parameter
    8509                            .dwattr $C$DW$550, DW_AT_type(*$C$DW$T$134)
    8510                    
    8511                    $C$DW$551       .dwtag  DW_TAG_formal_parameter
    8512                            .dwattr $C$DW$551, DW_AT_type(*$C$DW$T$135)
    8513                    
    8514                            .dwendtag $C$DW$T$136
    8515                    
    8516                    $C$DW$T$137     .dwtag  DW_TAG_pointer_type
    8517                            .dwattr $C$DW$T$137, DW_AT_type(*$C$DW$T$136)
    8518                            .dwattr $C$DW$T$137, DW_AT_address_class(0x20)
    8519                    
    8520                    $C$DW$T$138     .dwtag  DW_TAG_typedef
    8521                            .dwattr $C$DW$T$138, DW_AT_name("ICall_PwrNotifyFn")
    8522                            .dwattr $C$DW$T$138, DW_AT_type(*$C$DW$T$137)
    8523                            .dwattr $C$DW$T$138, DW_AT_language(DW_LANG_C)
    8524                            .dwattr $C$DW$T$138, DW_AT_decl_file("C:/ti/simplelink_cc13x0_sdk_2_30_00_20/source/ti/ti154st
    8525                            .dwattr $C$DW$T$138, DW_AT_decl_line(0x333)
    8526                            .dwattr $C$DW$T$138, DW_AT_decl_column(0x10)
    8527                    
    8528                    
    8529                    $C$DW$T$152     .dwtag  DW_TAG_subroutine_type
    8530                            .dwattr $C$DW$T$152, DW_AT_language(DW_LANG_C)
    8531                    $C$DW$552       .dwtag  DW_TAG_formal_parameter
    8532                            .dwattr $C$DW$552, DW_AT_type(*$C$DW$T$148)
    8533                    
    8534                            .dwendtag $C$DW$T$152
    8535                    
    8536                    $C$DW$T$153     .dwtag  DW_TAG_pointer_type
    8537                            .dwattr $C$DW$T$153, DW_AT_type(*$C$DW$T$152)
    8538                            .dwattr $C$DW$T$153, DW_AT_address_class(0x20)
    8539                    
    8540                    $C$DW$T$154     .dwtag  DW_TAG_typedef
    8541                            .dwattr $C$DW$T$154, DW_AT_name("ICall_LeaveCS")
    8542                            .dwattr $C$DW$T$154, DW_AT_type(*$C$DW$T$153)
    8543                            .dwattr $C$DW$T$154, DW_AT_language(DW_LANG_C)
TI ARM Assembler PC v16.9.9 Sun Nov 25 16:40:48 2018

Tools Copyright (c) 1996-2017 Texas Instruments Incorporated
C:\Users\Stryd\AppData\Local\Temp\{8719FFD6-004A-4401-8DC3-4DA83C6CF1D8} PAGE  157

    8544                            .dwattr $C$DW$T$154, DW_AT_decl_file("C:/ti/simplelink_cc13x0_sdk_2_30_00_20/source/ti/ti154st
    8545                            .dwattr $C$DW$T$154, DW_AT_decl_line(0x37e)
    8546                            .dwattr $C$DW$T$154, DW_AT_decl_column(0x10)
    8547                    
    8548                    $C$DW$T$166     .dwtag  DW_TAG_const_type
    8549                            .dwattr $C$DW$T$166, DW_AT_type(*$C$DW$T$2)
    8550                    
    8551                    $C$DW$T$167     .dwtag  DW_TAG_pointer_type
    8552                            .dwattr $C$DW$T$167, DW_AT_type(*$C$DW$T$166)
    8553                            .dwattr $C$DW$T$167, DW_AT_address_class(0x20)
    8554                    
    8555                    $C$DW$T$225     .dwtag  DW_TAG_const_type
    8556                            .dwattr $C$DW$T$225, DW_AT_type(*$C$DW$T$167)
    8557                    
    8558                    
    8559                    $C$DW$T$235     .dwtag  DW_TAG_subroutine_type
    8560                            .dwattr $C$DW$T$235, DW_AT_language(DW_LANG_C)
    8561                    $C$DW$553       .dwtag  DW_TAG_formal_parameter
    8562                            .dwattr $C$DW$553, DW_AT_type(*$C$DW$T$77)
    8563                    
    8564                            .dwendtag $C$DW$T$235
    8565                    
    8566                    $C$DW$T$236     .dwtag  DW_TAG_pointer_type
    8567                            .dwattr $C$DW$T$236, DW_AT_type(*$C$DW$T$235)
    8568                            .dwattr $C$DW$T$236, DW_AT_address_class(0x20)
    8569                    
    8570                    
    8571                    $C$DW$T$241     .dwtag  DW_TAG_subroutine_type
    8572                            .dwattr $C$DW$T$241, DW_AT_language(DW_LANG_C)
    8573                    $C$DW$554       .dwtag  DW_TAG_formal_parameter
    8574                            .dwattr $C$DW$554, DW_AT_type(*$C$DW$T$240)
    8575                    
    8576                    $C$DW$555       .dwtag  DW_TAG_formal_parameter
    8577                            .dwattr $C$DW$555, DW_AT_type(*$C$DW$T$3)
    8578                    
    8579                            .dwendtag $C$DW$T$241
    8580                    
    8581                    $C$DW$T$242     .dwtag  DW_TAG_pointer_type
    8582                            .dwattr $C$DW$T$242, DW_AT_type(*$C$DW$T$241)
    8583                            .dwattr $C$DW$T$242, DW_AT_address_class(0x20)
    8584                    
    8585                    $C$DW$T$243     .dwtag  DW_TAG_typedef
    8586                            .dwattr $C$DW$T$243, DW_AT_name("ICall_RemoteTaskEntry")
    8587                            .dwattr $C$DW$T$243, DW_AT_type(*$C$DW$T$242)
    8588                            .dwattr $C$DW$T$243, DW_AT_language(DW_LANG_C)
    8589                            .dwattr $C$DW$T$243, DW_AT_decl_file("C:/ti/simplelink_cc13x0_sdk_2_30_00_20/source/ti/ti154st
    8590                            .dwattr $C$DW$T$243, DW_AT_decl_line(0x39b)
    8591                            .dwattr $C$DW$T$243, DW_AT_decl_column(0x10)
    8592                    
    8593                    $C$DW$T$4       .dwtag  DW_TAG_base_type
    8594                            .dwattr $C$DW$T$4, DW_AT_encoding(DW_ATE_boolean)
    8595                            .dwattr $C$DW$T$4, DW_AT_name("bool")
    8596                            .dwattr $C$DW$T$4, DW_AT_byte_size(0x01)
    8597                    
    8598                    $C$DW$T$5       .dwtag  DW_TAG_base_type
TI ARM Assembler PC v16.9.9 Sun Nov 25 16:40:48 2018

Tools Copyright (c) 1996-2017 Texas Instruments Incorporated
C:\Users\Stryd\AppData\Local\Temp\{8719FFD6-004A-4401-8DC3-4DA83C6CF1D8} PAGE  158

    8599                            .dwattr $C$DW$T$5, DW_AT_encoding(DW_ATE_signed_char)
    8600                            .dwattr $C$DW$T$5, DW_AT_name("signed char")
    8601                            .dwattr $C$DW$T$5, DW_AT_byte_size(0x01)
    8602                    
    8603                    $C$DW$T$244     .dwtag  DW_TAG_typedef
    8604                            .dwattr $C$DW$T$244, DW_AT_name("int8")
    8605                            .dwattr $C$DW$T$244, DW_AT_type(*$C$DW$T$5)
    8606                            .dwattr $C$DW$T$244, DW_AT_language(DW_LANG_C)
    8607                            .dwattr $C$DW$T$244, DW_AT_decl_file("C:\ti\simplelink_cc13x0_sdk_2_30_00_20\source\ti\ti154st
    8608                            .dwattr $C$DW$T$244, DW_AT_decl_line(0x38)
    8609                            .dwattr $C$DW$T$244, DW_AT_decl_column(0x19)
    8610                    
    8611                    $C$DW$T$245     .dwtag  DW_TAG_typedef
    8612                            .dwattr $C$DW$T$245, DW_AT_name("int8_t")
    8613                            .dwattr $C$DW$T$245, DW_AT_type(*$C$DW$T$5)
    8614                            .dwattr $C$DW$T$245, DW_AT_language(DW_LANG_C)
    8615                            .dwattr $C$DW$T$245, DW_AT_decl_file("C:/ti/ccsv7/tools/compiler/ti-cgt-arm_16.9.9.LTS/include
    8616                            .dwattr $C$DW$T$245, DW_AT_decl_line(0x2a)
    8617                            .dwattr $C$DW$T$245, DW_AT_decl_column(0x1d)
    8618                    
    8619                    $C$DW$T$246     .dwtag  DW_TAG_typedef
    8620                            .dwattr $C$DW$T$246, DW_AT_name("int_least8_t")
    8621                            .dwattr $C$DW$T$246, DW_AT_type(*$C$DW$T$245)
    8622                            .dwattr $C$DW$T$246, DW_AT_language(DW_LANG_C)
    8623                            .dwattr $C$DW$T$246, DW_AT_decl_file("C:/ti/ccsv7/tools/compiler/ti-cgt-arm_16.9.9.LTS/include
    8624                            .dwattr $C$DW$T$246, DW_AT_decl_line(0x37)
    8625                            .dwattr $C$DW$T$246, DW_AT_decl_column(0x17)
    8626                    
    8627                    $C$DW$T$6       .dwtag  DW_TAG_base_type
    8628                            .dwattr $C$DW$T$6, DW_AT_encoding(DW_ATE_unsigned_char)
    8629                            .dwattr $C$DW$T$6, DW_AT_name("unsigned char")
    8630                            .dwattr $C$DW$T$6, DW_AT_byte_size(0x01)
    8631                    
    8632                    
    8633                    $C$DW$T$95      .dwtag  DW_TAG_array_type
    8634                            .dwattr $C$DW$T$95, DW_AT_type(*$C$DW$T$6)
    8635                            .dwattr $C$DW$T$95, DW_AT_language(DW_LANG_C)
    8636                            .dwattr $C$DW$T$95, DW_AT_byte_size(0x02)
    8637                    $C$DW$556       .dwtag  DW_TAG_subrange_type
    8638                            .dwattr $C$DW$556, DW_AT_upper_bound(0x01)
    8639                    
    8640                            .dwendtag $C$DW$T$95
    8641                    
    8642                    $C$DW$T$98      .dwtag  DW_TAG_pointer_type
    8643                            .dwattr $C$DW$T$98, DW_AT_type(*$C$DW$T$6)
    8644                            .dwattr $C$DW$T$98, DW_AT_address_class(0x20)
    8645                    
    8646                    $C$DW$T$19      .dwtag  DW_TAG_typedef
    8647                            .dwattr $C$DW$T$19, DW_AT_name("uint8")
    8648                            .dwattr $C$DW$T$19, DW_AT_type(*$C$DW$T$6)
    8649                            .dwattr $C$DW$T$19, DW_AT_language(DW_LANG_C)
    8650                            .dwattr $C$DW$T$19, DW_AT_decl_file("C:\ti\simplelink_cc13x0_sdk_2_30_00_20\source\ti\ti154sta
    8651                            .dwattr $C$DW$T$19, DW_AT_decl_line(0x39)
    8652                            .dwattr $C$DW$T$19, DW_AT_decl_column(0x19)
    8653                    
TI ARM Assembler PC v16.9.9 Sun Nov 25 16:40:48 2018

Tools Copyright (c) 1996-2017 Texas Instruments Incorporated
C:\Users\Stryd\AppData\Local\Temp\{8719FFD6-004A-4401-8DC3-4DA83C6CF1D8} PAGE  159

    8654                    $C$DW$T$279     .dwtag  DW_TAG_typedef
    8655                            .dwattr $C$DW$T$279, DW_AT_name("Status_t")
    8656                            .dwattr $C$DW$T$279, DW_AT_type(*$C$DW$T$19)
    8657                            .dwattr $C$DW$T$279, DW_AT_language(DW_LANG_C)
    8658                            .dwattr $C$DW$T$279, DW_AT_decl_file("..\Application\MAC\OSAL\comdef.h")
    8659                            .dwattr $C$DW$T$279, DW_AT_decl_line(0x77)
    8660                            .dwattr $C$DW$T$279, DW_AT_decl_column(0x0f)
    8661                    
    8662                    $C$DW$T$77      .dwtag  DW_TAG_pointer_type
    8663                            .dwattr $C$DW$T$77, DW_AT_type(*$C$DW$T$19)
    8664                            .dwattr $C$DW$T$77, DW_AT_address_class(0x20)
    8665                    
    8666                    $C$DW$T$284     .dwtag  DW_TAG_const_type
    8667                            .dwattr $C$DW$T$284, DW_AT_type(*$C$DW$T$77)
    8668                    
    8669                    
    8670                    $C$DW$T$297     .dwtag  DW_TAG_array_type
    8671                            .dwattr $C$DW$T$297, DW_AT_type(*$C$DW$T$19)
    8672                            .dwattr $C$DW$T$297, DW_AT_language(DW_LANG_C)
    8673                            .dwattr $C$DW$T$297, DW_AT_byte_size(0x02)
    8674                    $C$DW$557       .dwtag  DW_TAG_subrange_type
    8675                            .dwattr $C$DW$557, DW_AT_upper_bound(0x01)
    8676                    
    8677                            .dwendtag $C$DW$T$297
    8678                    
    8679                    $C$DW$T$298     .dwtag  DW_TAG_const_type
    8680                            .dwattr $C$DW$T$298, DW_AT_type(*$C$DW$T$19)
    8681                    
    8682                    $C$DW$T$299     .dwtag  DW_TAG_pointer_type
    8683                            .dwattr $C$DW$T$299, DW_AT_type(*$C$DW$T$298)
    8684                            .dwattr $C$DW$T$299, DW_AT_address_class(0x20)
    8685                    
    8686                    $C$DW$T$22      .dwtag  DW_TAG_typedef
    8687                            .dwattr $C$DW$T$22, DW_AT_name("uint8_t")
    8688                            .dwattr $C$DW$T$22, DW_AT_type(*$C$DW$T$6)
    8689                            .dwattr $C$DW$T$22, DW_AT_language(DW_LANG_C)
    8690                            .dwattr $C$DW$T$22, DW_AT_decl_file("C:/ti/ccsv7/tools/compiler/ti-cgt-arm_16.9.9.LTS/include/
    8691                            .dwattr $C$DW$T$22, DW_AT_decl_line(0x2b)
    8692                            .dwattr $C$DW$T$22, DW_AT_decl_column(0x1c)
    8693                    
    8694                    $C$DW$T$23      .dwtag  DW_TAG_pointer_type
    8695                            .dwattr $C$DW$T$23, DW_AT_type(*$C$DW$T$22)
    8696                            .dwattr $C$DW$T$23, DW_AT_address_class(0x20)
    8697                    
    8698                    $C$DW$T$300     .dwtag  DW_TAG_volatile_type
    8699                            .dwattr $C$DW$T$300, DW_AT_type(*$C$DW$T$22)
    8700                    
    8701                    $C$DW$T$301     .dwtag  DW_TAG_typedef
    8702                            .dwattr $C$DW$T$301, DW_AT_name("tFwpWriteByte")
    8703                            .dwattr $C$DW$T$301, DW_AT_type(*$C$DW$T$300)
    8704                            .dwattr $C$DW$T$301, DW_AT_language(DW_LANG_C)
    8705                            .dwattr $C$DW$T$301, DW_AT_decl_file("C:/ti/simplelink_cc13x0_sdk_2_30_00_20/source/ti/devices
    8706                            .dwattr $C$DW$T$301, DW_AT_decl_line(0xde)
    8707                            .dwattr $C$DW$T$301, DW_AT_decl_column(0x1a)
    8708                    
TI ARM Assembler PC v16.9.9 Sun Nov 25 16:40:48 2018

Tools Copyright (c) 1996-2017 Texas Instruments Incorporated
C:\Users\Stryd\AppData\Local\Temp\{8719FFD6-004A-4401-8DC3-4DA83C6CF1D8} PAGE  160

    8709                    $C$DW$T$88      .dwtag  DW_TAG_typedef
    8710                            .dwattr $C$DW$T$88, DW_AT_name("uint_least8_t")
    8711                            .dwattr $C$DW$T$88, DW_AT_type(*$C$DW$T$22)
    8712                            .dwattr $C$DW$T$88, DW_AT_language(DW_LANG_C)
    8713                            .dwattr $C$DW$T$88, DW_AT_decl_file("C:/ti/ccsv7/tools/compiler/ti-cgt-arm_16.9.9.LTS/include/
    8714                            .dwattr $C$DW$T$88, DW_AT_decl_line(0x38)
    8715                            .dwattr $C$DW$T$88, DW_AT_decl_column(0x16)
    8716                    
    8717                    $C$DW$T$89      .dwtag  DW_TAG_typedef
    8718                            .dwattr $C$DW$T$89, DW_AT_name("ICall_EntityID")
    8719                            .dwattr $C$DW$T$89, DW_AT_type(*$C$DW$T$88)
    8720                            .dwattr $C$DW$T$89, DW_AT_language(DW_LANG_C)
    8721                            .dwattr $C$DW$T$89, DW_AT_decl_file("C:/ti/simplelink_cc13x0_sdk_2_30_00_20/source/ti/ti154sta
    8722                            .dwattr $C$DW$T$89, DW_AT_decl_line(0x1b4)
    8723                            .dwattr $C$DW$T$89, DW_AT_decl_column(0x17)
    8724                    
    8725                    $C$DW$T$302     .dwtag  DW_TAG_const_type
    8726                            .dwattr $C$DW$T$302, DW_AT_type(*$C$DW$T$89)
    8727                    
    8728                    $C$DW$T$156     .dwtag  DW_TAG_typedef
    8729                            .dwattr $C$DW$T$156, DW_AT_name("ICall_MSGFormat")
    8730                            .dwattr $C$DW$T$156, DW_AT_type(*$C$DW$T$88)
    8731                            .dwattr $C$DW$T$156, DW_AT_language(DW_LANG_C)
    8732                            .dwattr $C$DW$T$156, DW_AT_decl_file("C:/ti/simplelink_cc13x0_sdk_2_30_00_20/source/ti/ti154st
    8733                            .dwattr $C$DW$T$156, DW_AT_decl_line(0x1a4)
    8734                            .dwattr $C$DW$T$156, DW_AT_decl_column(0x17)
    8735                    
    8736                    $C$DW$T$7       .dwtag  DW_TAG_base_type
    8737                            .dwattr $C$DW$T$7, DW_AT_encoding(DW_ATE_signed_char)
    8738                            .dwattr $C$DW$T$7, DW_AT_name("wchar_t")
    8739                            .dwattr $C$DW$T$7, DW_AT_byte_size(0x02)
    8740                    
    8741                    $C$DW$T$8       .dwtag  DW_TAG_base_type
    8742                            .dwattr $C$DW$T$8, DW_AT_encoding(DW_ATE_signed)
    8743                            .dwattr $C$DW$T$8, DW_AT_name("short")
    8744                            .dwattr $C$DW$T$8, DW_AT_byte_size(0x02)
    8745                    
    8746                    $C$DW$T$305     .dwtag  DW_TAG_typedef
    8747                            .dwattr $C$DW$T$305, DW_AT_name("int16")
    8748                            .dwattr $C$DW$T$305, DW_AT_type(*$C$DW$T$8)
    8749                            .dwattr $C$DW$T$305, DW_AT_language(DW_LANG_C)
    8750                            .dwattr $C$DW$T$305, DW_AT_decl_file("C:\ti\simplelink_cc13x0_sdk_2_30_00_20\source\ti\ti154st
    8751                            .dwattr $C$DW$T$305, DW_AT_decl_line(0x3b)
    8752                            .dwattr $C$DW$T$305, DW_AT_decl_column(0x19)
    8753                    
    8754                    $C$DW$T$306     .dwtag  DW_TAG_typedef
    8755                            .dwattr $C$DW$T$306, DW_AT_name("int16_t")
    8756                            .dwattr $C$DW$T$306, DW_AT_type(*$C$DW$T$8)
    8757                            .dwattr $C$DW$T$306, DW_AT_language(DW_LANG_C)
    8758                            .dwattr $C$DW$T$306, DW_AT_decl_file("C:/ti/ccsv7/tools/compiler/ti-cgt-arm_16.9.9.LTS/include
    8759                            .dwattr $C$DW$T$306, DW_AT_decl_line(0x2c)
    8760                            .dwattr $C$DW$T$306, DW_AT_decl_column(0x1d)
    8761                    
    8762                    $C$DW$T$307     .dwtag  DW_TAG_typedef
    8763                            .dwattr $C$DW$T$307, DW_AT_name("int_least16_t")
TI ARM Assembler PC v16.9.9 Sun Nov 25 16:40:48 2018

Tools Copyright (c) 1996-2017 Texas Instruments Incorporated
C:\Users\Stryd\AppData\Local\Temp\{8719FFD6-004A-4401-8DC3-4DA83C6CF1D8} PAGE  161

    8764                            .dwattr $C$DW$T$307, DW_AT_type(*$C$DW$T$306)
    8765                            .dwattr $C$DW$T$307, DW_AT_language(DW_LANG_C)
    8766                            .dwattr $C$DW$T$307, DW_AT_decl_file("C:/ti/ccsv7/tools/compiler/ti-cgt-arm_16.9.9.LTS/include
    8767                            .dwattr $C$DW$T$307, DW_AT_decl_line(0x3a)
    8768                            .dwattr $C$DW$T$307, DW_AT_decl_column(0x17)
    8769                    
    8770                    $C$DW$T$9       .dwtag  DW_TAG_base_type
    8771                            .dwattr $C$DW$T$9, DW_AT_encoding(DW_ATE_unsigned)
    8772                            .dwattr $C$DW$T$9, DW_AT_name("unsigned short")
    8773                            .dwattr $C$DW$T$9, DW_AT_byte_size(0x02)
    8774                    
    8775                    
    8776                    $C$DW$T$311     .dwtag  DW_TAG_subroutine_type
    8777                            .dwattr $C$DW$T$311, DW_AT_type(*$C$DW$T$9)
    8778                            .dwattr $C$DW$T$311, DW_AT_language(DW_LANG_C)
    8779                    $C$DW$558       .dwtag  DW_TAG_formal_parameter
    8780                            .dwattr $C$DW$558, DW_AT_type(*$C$DW$T$6)
    8781                    
    8782                    $C$DW$559       .dwtag  DW_TAG_formal_parameter
    8783                            .dwattr $C$DW$559, DW_AT_type(*$C$DW$T$9)
    8784                    
    8785                            .dwendtag $C$DW$T$311
    8786                    
    8787                    $C$DW$T$312     .dwtag  DW_TAG_pointer_type
    8788                            .dwattr $C$DW$T$312, DW_AT_type(*$C$DW$T$311)
    8789                            .dwattr $C$DW$T$312, DW_AT_address_class(0x20)
    8790                    
    8791                    $C$DW$T$316     .dwtag  DW_TAG_typedef
    8792                            .dwattr $C$DW$T$316, DW_AT_name("pTaskEventHandlerFn")
    8793                            .dwattr $C$DW$T$316, DW_AT_type(*$C$DW$T$312)
    8794                            .dwattr $C$DW$T$316, DW_AT_language(DW_LANG_C)
    8795                            .dwattr $C$DW$T$316, DW_AT_decl_file("C:/ti/simplelink_cc13x0_sdk_2_30_00_20/source/ti/ti154st
    8796                            .dwattr $C$DW$T$316, DW_AT_decl_line(0x4f)
    8797                            .dwattr $C$DW$T$316, DW_AT_decl_column(0x1a)
    8798                    
    8799                    $C$DW$T$317     .dwtag  DW_TAG_const_type
    8800                            .dwattr $C$DW$T$317, DW_AT_type(*$C$DW$T$316)
    8801                    
    8802                    
    8803                    $C$DW$T$318     .dwtag  DW_TAG_array_type
    8804                            .dwattr $C$DW$T$318, DW_AT_type(*$C$DW$T$317)
    8805                            .dwattr $C$DW$T$318, DW_AT_language(DW_LANG_C)
    8806                    $C$DW$560       .dwtag  DW_TAG_subrange_type
    8807                    
    8808                            .dwendtag $C$DW$T$318
    8809                    
    8810                    $C$DW$T$73      .dwtag  DW_TAG_typedef
    8811                            .dwattr $C$DW$T$73, DW_AT_name("uint16")
    8812                            .dwattr $C$DW$T$73, DW_AT_type(*$C$DW$T$9)
    8813                            .dwattr $C$DW$T$73, DW_AT_language(DW_LANG_C)
    8814                            .dwattr $C$DW$T$73, DW_AT_decl_file("C:\ti\simplelink_cc13x0_sdk_2_30_00_20\source\ti\ti154sta
    8815                            .dwattr $C$DW$T$73, DW_AT_decl_line(0x3c)
    8816                            .dwattr $C$DW$T$73, DW_AT_decl_column(0x19)
    8817                    
    8818                    $C$DW$T$325     .dwtag  DW_TAG_pointer_type
TI ARM Assembler PC v16.9.9 Sun Nov 25 16:40:48 2018

Tools Copyright (c) 1996-2017 Texas Instruments Incorporated
C:\Users\Stryd\AppData\Local\Temp\{8719FFD6-004A-4401-8DC3-4DA83C6CF1D8} PAGE  162

    8819                            .dwattr $C$DW$T$325, DW_AT_type(*$C$DW$T$73)
    8820                            .dwattr $C$DW$T$325, DW_AT_address_class(0x20)
    8821                    
    8822                    $C$DW$T$76      .dwtag  DW_TAG_volatile_type
    8823                            .dwattr $C$DW$T$76, DW_AT_type(*$C$DW$T$73)
    8824                    
    8825                    $C$DW$T$326     .dwtag  DW_TAG_const_type
    8826                            .dwattr $C$DW$T$326, DW_AT_type(*$C$DW$T$73)
    8827                    
    8828                    $C$DW$T$39      .dwtag  DW_TAG_typedef
    8829                            .dwattr $C$DW$T$39, DW_AT_name("uint16_t")
    8830                            .dwattr $C$DW$T$39, DW_AT_type(*$C$DW$T$9)
    8831                            .dwattr $C$DW$T$39, DW_AT_language(DW_LANG_C)
    8832                            .dwattr $C$DW$T$39, DW_AT_decl_file("C:/ti/ccsv7/tools/compiler/ti-cgt-arm_16.9.9.LTS/include/
    8833                            .dwattr $C$DW$T$39, DW_AT_decl_line(0x2d)
    8834                            .dwattr $C$DW$T$39, DW_AT_decl_column(0x1c)
    8835                    
    8836                    $C$DW$T$40      .dwtag  DW_TAG_pointer_type
    8837                            .dwattr $C$DW$T$40, DW_AT_type(*$C$DW$T$39)
    8838                            .dwattr $C$DW$T$40, DW_AT_address_class(0x20)
    8839                    
    8840                    $C$DW$T$90      .dwtag  DW_TAG_typedef
    8841                            .dwattr $C$DW$T$90, DW_AT_name("uint_least16_t")
    8842                            .dwattr $C$DW$T$90, DW_AT_type(*$C$DW$T$39)
    8843                            .dwattr $C$DW$T$90, DW_AT_language(DW_LANG_C)
    8844                            .dwattr $C$DW$T$90, DW_AT_decl_file("C:/ti/ccsv7/tools/compiler/ti-cgt-arm_16.9.9.LTS/include/
    8845                            .dwattr $C$DW$T$90, DW_AT_decl_line(0x3b)
    8846                            .dwattr $C$DW$T$90, DW_AT_decl_column(0x16)
    8847                    
    8848                    $C$DW$T$119     .dwtag  DW_TAG_typedef
    8849                            .dwattr $C$DW$T$119, DW_AT_name("ICall_FuncID")
    8850                            .dwattr $C$DW$T$119, DW_AT_type(*$C$DW$T$90)
    8851                            .dwattr $C$DW$T$119, DW_AT_language(DW_LANG_C)
    8852                            .dwattr $C$DW$T$119, DW_AT_decl_file("C:/ti/simplelink_cc13x0_sdk_2_30_00_20/source/ti/ti154st
    8853                            .dwattr $C$DW$T$119, DW_AT_decl_line(0x1a7)
    8854                            .dwattr $C$DW$T$119, DW_AT_decl_column(0x18)
    8855                    
    8856                    $C$DW$T$91      .dwtag  DW_TAG_typedef
    8857                            .dwattr $C$DW$T$91, DW_AT_name("ICall_ServiceEnum")
    8858                            .dwattr $C$DW$T$91, DW_AT_type(*$C$DW$T$90)
    8859                            .dwattr $C$DW$T$91, DW_AT_language(DW_LANG_C)
    8860                            .dwattr $C$DW$T$91, DW_AT_decl_file("C:/ti/simplelink_cc13x0_sdk_2_30_00_20/source/ti/ti154sta
    8861                            .dwattr $C$DW$T$91, DW_AT_decl_line(0x1a1)
    8862                            .dwattr $C$DW$T$91, DW_AT_decl_column(0x18)
    8863                    
    8864                    $C$DW$T$327     .dwtag  DW_TAG_typedef
    8865                            .dwattr $C$DW$T$327, DW_AT_name("wchar_t")
    8866                            .dwattr $C$DW$T$327, DW_AT_type(*$C$DW$T$9)
    8867                            .dwattr $C$DW$T$327, DW_AT_language(DW_LANG_C)
    8868                            .dwattr $C$DW$T$327, DW_AT_decl_file("C:/ti/ccsv7/tools/compiler/ti-cgt-arm_16.9.9.LTS/include
    8869                            .dwattr $C$DW$T$327, DW_AT_decl_line(0x78)
    8870                            .dwattr $C$DW$T$327, DW_AT_decl_column(0x1a)
    8871                    
    8872                    $C$DW$T$10      .dwtag  DW_TAG_base_type
    8873                            .dwattr $C$DW$T$10, DW_AT_encoding(DW_ATE_signed)
TI ARM Assembler PC v16.9.9 Sun Nov 25 16:40:48 2018

Tools Copyright (c) 1996-2017 Texas Instruments Incorporated
C:\Users\Stryd\AppData\Local\Temp\{8719FFD6-004A-4401-8DC3-4DA83C6CF1D8} PAGE  163

    8874                            .dwattr $C$DW$T$10, DW_AT_name("int")
    8875                            .dwattr $C$DW$T$10, DW_AT_byte_size(0x04)
    8876                    
    8877                    
    8878                    $C$DW$T$333     .dwtag  DW_TAG_subroutine_type
    8879                            .dwattr $C$DW$T$333, DW_AT_type(*$C$DW$T$10)
    8880                            .dwattr $C$DW$T$333, DW_AT_language(DW_LANG_C)
    8881                    $C$DW$561       .dwtag  DW_TAG_formal_parameter
    8882                            .dwattr $C$DW$561, DW_AT_type(*$C$DW$T$167)
    8883                    
    8884                    $C$DW$562       .dwtag  DW_TAG_formal_parameter
    8885                            .dwattr $C$DW$562, DW_AT_type(*$C$DW$T$167)
    8886                    
    8887                            .dwendtag $C$DW$T$333
    8888                    
    8889                    $C$DW$T$334     .dwtag  DW_TAG_pointer_type
    8890                            .dwattr $C$DW$T$334, DW_AT_type(*$C$DW$T$333)
    8891                            .dwattr $C$DW$T$334, DW_AT_address_class(0x20)
    8892                    
    8893                    $C$DW$T$335     .dwtag  DW_TAG_typedef
    8894                            .dwattr $C$DW$T$335, DW_AT_name("__TI_compar_fn")
    8895                            .dwattr $C$DW$T$335, DW_AT_type(*$C$DW$T$334)
    8896                            .dwattr $C$DW$T$335, DW_AT_language(DW_LANG_C)
    8897                            .dwattr $C$DW$T$335, DW_AT_decl_file("C:/ti/ccsv7/tools/compiler/ti-cgt-arm_16.9.9.LTS/include
    8898                            .dwattr $C$DW$T$335, DW_AT_decl_line(0xbc)
    8899                            .dwattr $C$DW$T$335, DW_AT_decl_column(0x13)
    8900                    
    8901                    $C$DW$T$107     .dwtag  DW_TAG_typedef
    8902                            .dwattr $C$DW$T$107, DW_AT_name("int32_t")
    8903                            .dwattr $C$DW$T$107, DW_AT_type(*$C$DW$T$10)
    8904                            .dwattr $C$DW$T$107, DW_AT_language(DW_LANG_C)
    8905                            .dwattr $C$DW$T$107, DW_AT_decl_file("C:/ti/ccsv7/tools/compiler/ti-cgt-arm_16.9.9.LTS/include
    8906                            .dwattr $C$DW$T$107, DW_AT_decl_line(0x2e)
    8907                            .dwattr $C$DW$T$107, DW_AT_decl_column(0x1d)
    8908                    
    8909                    $C$DW$T$108     .dwtag  DW_TAG_typedef
    8910                            .dwattr $C$DW$T$108, DW_AT_name("int_fast16_t")
    8911                            .dwattr $C$DW$T$108, DW_AT_type(*$C$DW$T$107)
    8912                            .dwattr $C$DW$T$108, DW_AT_language(DW_LANG_C)
    8913                            .dwattr $C$DW$T$108, DW_AT_decl_file("C:/ti/ccsv7/tools/compiler/ti-cgt-arm_16.9.9.LTS/include
    8914                            .dwattr $C$DW$T$108, DW_AT_decl_line(0x47)
    8915                            .dwattr $C$DW$T$108, DW_AT_decl_column(0x17)
    8916                    
    8917                    $C$DW$T$109     .dwtag  DW_TAG_typedef
    8918                            .dwattr $C$DW$T$109, DW_AT_name("ICall_Errno")
    8919                            .dwattr $C$DW$T$109, DW_AT_type(*$C$DW$T$108)
    8920                            .dwattr $C$DW$T$109, DW_AT_language(DW_LANG_C)
    8921                            .dwattr $C$DW$T$109, DW_AT_decl_file("C:/ti/simplelink_cc13x0_sdk_2_30_00_20/source/ti/ti154st
    8922                            .dwattr $C$DW$T$109, DW_AT_decl_line(0x19e)
    8923                            .dwattr $C$DW$T$109, DW_AT_decl_column(0x16)
    8924                    
    8925                    
    8926                    $C$DW$T$111     .dwtag  DW_TAG_subroutine_type
    8927                            .dwattr $C$DW$T$111, DW_AT_type(*$C$DW$T$109)
    8928                            .dwattr $C$DW$T$111, DW_AT_language(DW_LANG_C)
TI ARM Assembler PC v16.9.9 Sun Nov 25 16:40:48 2018

Tools Copyright (c) 1996-2017 Texas Instruments Incorporated
C:\Users\Stryd\AppData\Local\Temp\{8719FFD6-004A-4401-8DC3-4DA83C6CF1D8} PAGE  164

    8929                    $C$DW$563       .dwtag  DW_TAG_formal_parameter
    8930                            .dwattr $C$DW$563, DW_AT_type(*$C$DW$T$110)
    8931                    
    8932                            .dwendtag $C$DW$T$111
    8933                    
    8934                    $C$DW$T$112     .dwtag  DW_TAG_pointer_type
    8935                            .dwattr $C$DW$T$112, DW_AT_type(*$C$DW$T$111)
    8936                            .dwattr $C$DW$T$112, DW_AT_address_class(0x20)
    8937                    
    8938                    $C$DW$T$147     .dwtag  DW_TAG_typedef
    8939                            .dwattr $C$DW$T$147, DW_AT_name("ICall_Dispatcher")
    8940                            .dwattr $C$DW$T$147, DW_AT_type(*$C$DW$T$112)
    8941                            .dwattr $C$DW$T$147, DW_AT_language(DW_LANG_C)
    8942                            .dwattr $C$DW$T$147, DW_AT_decl_file("C:/ti/simplelink_cc13x0_sdk_2_30_00_20/source/ti/ti154st
    8943                            .dwattr $C$DW$T$147, DW_AT_decl_line(0x36c)
    8944                            .dwattr $C$DW$T$147, DW_AT_decl_column(0x17)
    8945                    
    8946                    $C$DW$T$113     .dwtag  DW_TAG_typedef
    8947                            .dwattr $C$DW$T$113, DW_AT_name("ICall_ServiceFunc")
    8948                            .dwattr $C$DW$T$113, DW_AT_type(*$C$DW$T$112)
    8949                            .dwattr $C$DW$T$113, DW_AT_language(DW_LANG_C)
    8950                            .dwattr $C$DW$T$113, DW_AT_decl_file("C:/ti/simplelink_cc13x0_sdk_2_30_00_20/source/ti/ti154st
    8951                            .dwattr $C$DW$T$113, DW_AT_decl_line(0x3a3)
    8952                            .dwattr $C$DW$T$113, DW_AT_decl_column(0x17)
    8953                    
    8954                    $C$DW$T$354     .dwtag  DW_TAG_typedef
    8955                            .dwattr $C$DW$T$354, DW_AT_name("int_fast32_t")
    8956                            .dwattr $C$DW$T$354, DW_AT_type(*$C$DW$T$107)
    8957                            .dwattr $C$DW$T$354, DW_AT_language(DW_LANG_C)
    8958                            .dwattr $C$DW$T$354, DW_AT_decl_file("C:/ti/ccsv7/tools/compiler/ti-cgt-arm_16.9.9.LTS/include
    8959                            .dwattr $C$DW$T$354, DW_AT_decl_line(0x4a)
    8960                            .dwattr $C$DW$T$354, DW_AT_decl_column(0x17)
    8961                    
    8962                    $C$DW$T$355     .dwtag  DW_TAG_typedef
    8963                            .dwattr $C$DW$T$355, DW_AT_name("int_fast8_t")
    8964                            .dwattr $C$DW$T$355, DW_AT_type(*$C$DW$T$107)
    8965                            .dwattr $C$DW$T$355, DW_AT_language(DW_LANG_C)
    8966                            .dwattr $C$DW$T$355, DW_AT_decl_file("C:/ti/ccsv7/tools/compiler/ti-cgt-arm_16.9.9.LTS/include
    8967                            .dwattr $C$DW$T$355, DW_AT_decl_line(0x45)
    8968                            .dwattr $C$DW$T$355, DW_AT_decl_column(0x17)
    8969                    
    8970                    $C$DW$T$125     .dwtag  DW_TAG_typedef
    8971                            .dwattr $C$DW$T$125, DW_AT_name("int_least32_t")
    8972                            .dwattr $C$DW$T$125, DW_AT_type(*$C$DW$T$107)
    8973                            .dwattr $C$DW$T$125, DW_AT_language(DW_LANG_C)
    8974                            .dwattr $C$DW$T$125, DW_AT_decl_file("C:/ti/ccsv7/tools/compiler/ti-cgt-arm_16.9.9.LTS/include
    8975                            .dwattr $C$DW$T$125, DW_AT_decl_line(0x3c)
    8976                            .dwattr $C$DW$T$125, DW_AT_decl_column(0x17)
    8977                    
    8978                    $C$DW$T$356     .dwtag  DW_TAG_typedef
    8979                            .dwattr $C$DW$T$356, DW_AT_name("intptr_t")
    8980                            .dwattr $C$DW$T$356, DW_AT_type(*$C$DW$T$10)
    8981                            .dwattr $C$DW$T$356, DW_AT_language(DW_LANG_C)
    8982                            .dwattr $C$DW$T$356, DW_AT_decl_file("C:/ti/ccsv7/tools/compiler/ti-cgt-arm_16.9.9.LTS/include
    8983                            .dwattr $C$DW$T$356, DW_AT_decl_line(0x52)
TI ARM Assembler PC v16.9.9 Sun Nov 25 16:40:48 2018

Tools Copyright (c) 1996-2017 Texas Instruments Incorporated
C:\Users\Stryd\AppData\Local\Temp\{8719FFD6-004A-4401-8DC3-4DA83C6CF1D8} PAGE  165

    8984                            .dwattr $C$DW$T$356, DW_AT_decl_column(0x1a)
    8985                    
    8986                    $C$DW$T$11      .dwtag  DW_TAG_base_type
    8987                            .dwattr $C$DW$T$11, DW_AT_encoding(DW_ATE_unsigned)
    8988                            .dwattr $C$DW$T$11, DW_AT_name("unsigned int")
    8989                            .dwattr $C$DW$T$11, DW_AT_byte_size(0x04)
    8990                    
    8991                    $C$DW$T$357     .dwtag  DW_TAG_typedef
    8992                            .dwattr $C$DW$T$357, DW_AT_name("__UINT32")
    8993                            .dwattr $C$DW$T$357, DW_AT_type(*$C$DW$T$11)
    8994                            .dwattr $C$DW$T$357, DW_AT_language(DW_LANG_C)
    8995                            .dwattr $C$DW$T$357, DW_AT_decl_file("C:/ti/simplelink_cc13x0_sdk_2_30_00_20/source/ti/devices
    8996                            .dwattr $C$DW$T$357, DW_AT_decl_line(0x45)
    8997                            .dwattr $C$DW$T$357, DW_AT_decl_column(0x17)
    8998                    
    8999                    $C$DW$T$367     .dwtag  DW_TAG_const_type
    9000                            .dwattr $C$DW$T$367, DW_AT_type(*$C$DW$T$11)
    9001                    
    9002                    $C$DW$T$102     .dwtag  DW_TAG_typedef
    9003                            .dwattr $C$DW$T$102, DW_AT_name("size_t")
    9004                            .dwattr $C$DW$T$102, DW_AT_type(*$C$DW$T$11)
    9005                            .dwattr $C$DW$T$102, DW_AT_language(DW_LANG_C)
    9006                            .dwattr $C$DW$T$102, DW_AT_decl_file("C:/ti/ccsv7/tools/compiler/ti-cgt-arm_16.9.9.LTS/include
    9007                            .dwattr $C$DW$T$102, DW_AT_decl_line(0x3f)
    9008                            .dwattr $C$DW$T$102, DW_AT_decl_column(0x19)
    9009                    
    9010                    $C$DW$T$21      .dwtag  DW_TAG_typedef
    9011                            .dwattr $C$DW$T$21, DW_AT_name("uint32_t")
    9012                            .dwattr $C$DW$T$21, DW_AT_type(*$C$DW$T$11)
    9013                            .dwattr $C$DW$T$21, DW_AT_language(DW_LANG_C)
    9014                            .dwattr $C$DW$T$21, DW_AT_decl_file("C:/ti/ccsv7/tools/compiler/ti-cgt-arm_16.9.9.LTS/include/
    9015                            .dwattr $C$DW$T$21, DW_AT_decl_line(0x2f)
    9016                            .dwattr $C$DW$T$21, DW_AT_decl_column(0x1c)
    9017                    
    9018                    
    9019                    $C$DW$T$24      .dwtag  DW_TAG_subroutine_type
    9020                            .dwattr $C$DW$T$24, DW_AT_type(*$C$DW$T$21)
    9021                            .dwattr $C$DW$T$24, DW_AT_language(DW_LANG_C)
    9022                    $C$DW$564       .dwtag  DW_TAG_formal_parameter
    9023                            .dwattr $C$DW$564, DW_AT_type(*$C$DW$T$23)
    9024                    
    9025                    $C$DW$565       .dwtag  DW_TAG_formal_parameter
    9026                            .dwattr $C$DW$565, DW_AT_type(*$C$DW$T$21)
    9027                    
    9028                    $C$DW$566       .dwtag  DW_TAG_formal_parameter
    9029                            .dwattr $C$DW$566, DW_AT_type(*$C$DW$T$21)
    9030                    
    9031                            .dwendtag $C$DW$T$24
    9032                    
    9033                    $C$DW$T$25      .dwtag  DW_TAG_pointer_type
    9034                            .dwattr $C$DW$T$25, DW_AT_type(*$C$DW$T$24)
    9035                            .dwattr $C$DW$T$25, DW_AT_address_class(0x20)
    9036                    
    9037                    $C$DW$T$26      .dwtag  DW_TAG_typedef
    9038                            .dwattr $C$DW$T$26, DW_AT_name("FPTR_CRC32_T")
TI ARM Assembler PC v16.9.9 Sun Nov 25 16:40:48 2018

Tools Copyright (c) 1996-2017 Texas Instruments Incorporated
C:\Users\Stryd\AppData\Local\Temp\{8719FFD6-004A-4401-8DC3-4DA83C6CF1D8} PAGE  166

    9039                            .dwattr $C$DW$T$26, DW_AT_type(*$C$DW$T$25)
    9040                            .dwattr $C$DW$T$26, DW_AT_language(DW_LANG_C)
    9041                            .dwattr $C$DW$T$26, DW_AT_decl_file("C:\ti\simplelink_cc13x0_sdk_2_30_00_20\source\ti\devices\
    9042                            .dwattr $C$DW$T$26, DW_AT_decl_line(0x3e)
    9043                            .dwattr $C$DW$T$26, DW_AT_decl_column(0x19)
    9044                    
    9045                    $C$DW$T$35      .dwtag  DW_TAG_typedef
    9046                            .dwattr $C$DW$T$35, DW_AT_name("FPTR_RESERVED3_T")
    9047                            .dwattr $C$DW$T$35, DW_AT_type(*$C$DW$T$25)
    9048                            .dwattr $C$DW$T$35, DW_AT_language(DW_LANG_C)
    9049                            .dwattr $C$DW$T$35, DW_AT_decl_file("C:\ti\simplelink_cc13x0_sdk_2_30_00_20\source\ti\devices\
    9050                            .dwattr $C$DW$T$35, DW_AT_decl_line(0x4a)
    9051                            .dwattr $C$DW$T$35, DW_AT_decl_column(0x19)
    9052                    
    9053                    
    9054                    $C$DW$T$27      .dwtag  DW_TAG_subroutine_type
    9055                            .dwattr $C$DW$T$27, DW_AT_type(*$C$DW$T$21)
    9056                            .dwattr $C$DW$T$27, DW_AT_language(DW_LANG_C)
    9057                            .dwendtag $C$DW$T$27
    9058                    
    9059                    $C$DW$T$28      .dwtag  DW_TAG_pointer_type
    9060                            .dwattr $C$DW$T$28, DW_AT_type(*$C$DW$T$27)
    9061                            .dwattr $C$DW$T$28, DW_AT_address_class(0x20)
    9062                    
    9063                    $C$DW$T$30      .dwtag  DW_TAG_typedef
    9064                            .dwattr $C$DW$T$30, DW_AT_name("FPTR_GETCHIPID_T")
    9065                            .dwattr $C$DW$T$30, DW_AT_type(*$C$DW$T$28)
    9066                            .dwattr $C$DW$T$30, DW_AT_language(DW_LANG_C)
    9067                            .dwattr $C$DW$T$30, DW_AT_decl_file("C:\ti\simplelink_cc13x0_sdk_2_30_00_20\source\ti\devices\
    9068                            .dwattr $C$DW$T$30, DW_AT_decl_line(0x44)
    9069                            .dwattr $C$DW$T$30, DW_AT_decl_column(0x19)
    9070                    
    9071                    $C$DW$T$29      .dwtag  DW_TAG_typedef
    9072                            .dwattr $C$DW$T$29, DW_AT_name("FPTR_GETFLSIZE_T")
    9073                            .dwattr $C$DW$T$29, DW_AT_type(*$C$DW$T$28)
    9074                            .dwattr $C$DW$T$29, DW_AT_language(DW_LANG_C)
    9075                            .dwattr $C$DW$T$29, DW_AT_decl_file("C:\ti\simplelink_cc13x0_sdk_2_30_00_20\source\ti\devices\
    9076                            .dwattr $C$DW$T$29, DW_AT_decl_line(0x42)
    9077                            .dwattr $C$DW$T$29, DW_AT_decl_column(0x19)
    9078                    
    9079                    $C$DW$T$34      .dwtag  DW_TAG_typedef
    9080                            .dwattr $C$DW$T$34, DW_AT_name("FPTR_RESERVED2_T")
    9081                            .dwattr $C$DW$T$34, DW_AT_type(*$C$DW$T$28)
    9082                            .dwattr $C$DW$T$34, DW_AT_language(DW_LANG_C)
    9083                            .dwattr $C$DW$T$34, DW_AT_decl_file("C:\ti\simplelink_cc13x0_sdk_2_30_00_20\source\ti\devices\
    9084                            .dwattr $C$DW$T$34, DW_AT_decl_line(0x48)
    9085                            .dwattr $C$DW$T$34, DW_AT_decl_column(0x19)
    9086                    
    9087                    
    9088                    $C$DW$T$31      .dwtag  DW_TAG_subroutine_type
    9089                            .dwattr $C$DW$T$31, DW_AT_type(*$C$DW$T$21)
    9090                            .dwattr $C$DW$T$31, DW_AT_language(DW_LANG_C)
    9091                    $C$DW$567       .dwtag  DW_TAG_formal_parameter
    9092                            .dwattr $C$DW$567, DW_AT_type(*$C$DW$T$21)
    9093                    
TI ARM Assembler PC v16.9.9 Sun Nov 25 16:40:48 2018

Tools Copyright (c) 1996-2017 Texas Instruments Incorporated
C:\Users\Stryd\AppData\Local\Temp\{8719FFD6-004A-4401-8DC3-4DA83C6CF1D8} PAGE  167

    9094                            .dwendtag $C$DW$T$31
    9095                    
    9096                    $C$DW$T$32      .dwtag  DW_TAG_pointer_type
    9097                            .dwattr $C$DW$T$32, DW_AT_type(*$C$DW$T$31)
    9098                            .dwattr $C$DW$T$32, DW_AT_address_class(0x20)
    9099                    
    9100                    $C$DW$T$33      .dwtag  DW_TAG_typedef
    9101                            .dwattr $C$DW$T$33, DW_AT_name("FPTR_RESERVED1_T")
    9102                            .dwattr $C$DW$T$33, DW_AT_type(*$C$DW$T$32)
    9103                            .dwattr $C$DW$T$33, DW_AT_language(DW_LANG_C)
    9104                            .dwattr $C$DW$T$33, DW_AT_decl_file("C:\ti\simplelink_cc13x0_sdk_2_30_00_20\source\ti\devices\
    9105                            .dwattr $C$DW$T$33, DW_AT_decl_line(0x46)
    9106                            .dwattr $C$DW$T$33, DW_AT_decl_column(0x19)
    9107                    
    9108                    
    9109                    $C$DW$T$41      .dwtag  DW_TAG_subroutine_type
    9110                            .dwattr $C$DW$T$41, DW_AT_type(*$C$DW$T$21)
    9111                            .dwattr $C$DW$T$41, DW_AT_language(DW_LANG_C)
    9112                    $C$DW$568       .dwtag  DW_TAG_formal_parameter
    9113                            .dwattr $C$DW$568, DW_AT_type(*$C$DW$T$40)
    9114                    
    9115                    $C$DW$569       .dwtag  DW_TAG_formal_parameter
    9116                            .dwattr $C$DW$569, DW_AT_type(*$C$DW$T$39)
    9117                    
    9118                    $C$DW$570       .dwtag  DW_TAG_formal_parameter
    9119                            .dwattr $C$DW$570, DW_AT_type(*$C$DW$T$39)
    9120                    
    9121                            .dwendtag $C$DW$T$41
    9122                    
    9123                    $C$DW$T$42      .dwtag  DW_TAG_pointer_type
    9124                            .dwattr $C$DW$T$42, DW_AT_type(*$C$DW$T$41)
    9125                            .dwattr $C$DW$T$42, DW_AT_address_class(0x20)
    9126                    
    9127                    $C$DW$T$43      .dwtag  DW_TAG_typedef
    9128                            .dwattr $C$DW$T$43, DW_AT_name("FPTR_FLETCHER32_T")
    9129                            .dwattr $C$DW$T$43, DW_AT_type(*$C$DW$T$42)
    9130                            .dwattr $C$DW$T$43, DW_AT_language(DW_LANG_C)
    9131                            .dwattr $C$DW$T$43, DW_AT_decl_file("C:\ti\simplelink_cc13x0_sdk_2_30_00_20\source\ti\devices\
    9132                            .dwattr $C$DW$T$43, DW_AT_decl_line(0x4f)
    9133                            .dwattr $C$DW$T$43, DW_AT_decl_column(0x19)
    9134                    
    9135                    $C$DW$T$44      .dwtag  DW_TAG_pointer_type
    9136                            .dwattr $C$DW$T$44, DW_AT_type(*$C$DW$T$21)
    9137                            .dwattr $C$DW$T$44, DW_AT_address_class(0x20)
    9138                    
    9139                    
    9140                    $C$DW$T$45      .dwtag  DW_TAG_subroutine_type
    9141                            .dwattr $C$DW$T$45, DW_AT_type(*$C$DW$T$21)
    9142                            .dwattr $C$DW$T$45, DW_AT_language(DW_LANG_C)
    9143                    $C$DW$571       .dwtag  DW_TAG_formal_parameter
    9144                            .dwattr $C$DW$571, DW_AT_type(*$C$DW$T$44)
    9145                    
    9146                    $C$DW$572       .dwtag  DW_TAG_formal_parameter
    9147                            .dwattr $C$DW$572, DW_AT_type(*$C$DW$T$21)
    9148                    
TI ARM Assembler PC v16.9.9 Sun Nov 25 16:40:48 2018

Tools Copyright (c) 1996-2017 Texas Instruments Incorporated
C:\Users\Stryd\AppData\Local\Temp\{8719FFD6-004A-4401-8DC3-4DA83C6CF1D8} PAGE  168

    9149                            .dwendtag $C$DW$T$45
    9150                    
    9151                    $C$DW$T$46      .dwtag  DW_TAG_pointer_type
    9152                            .dwattr $C$DW$T$46, DW_AT_type(*$C$DW$T$45)
    9153                            .dwattr $C$DW$T$46, DW_AT_address_class(0x20)
    9154                    
    9155                    $C$DW$T$48      .dwtag  DW_TAG_typedef
    9156                            .dwattr $C$DW$T$48, DW_AT_name("FPTR_MAXVAL_T")
    9157                            .dwattr $C$DW$T$48, DW_AT_type(*$C$DW$T$46)
    9158                            .dwattr $C$DW$T$48, DW_AT_language(DW_LANG_C)
    9159                            .dwattr $C$DW$T$48, DW_AT_decl_file("C:\ti\simplelink_cc13x0_sdk_2_30_00_20\source\ti\devices\
    9160                            .dwattr $C$DW$T$48, DW_AT_decl_line(0x56)
    9161                            .dwattr $C$DW$T$48, DW_AT_decl_column(0x19)
    9162                    
    9163                    $C$DW$T$49      .dwtag  DW_TAG_typedef
    9164                            .dwattr $C$DW$T$49, DW_AT_name("FPTR_MEANVAL_T")
    9165                            .dwattr $C$DW$T$49, DW_AT_type(*$C$DW$T$46)
    9166                            .dwattr $C$DW$T$49, DW_AT_language(DW_LANG_C)
    9167                            .dwattr $C$DW$T$49, DW_AT_decl_file("C:\ti\simplelink_cc13x0_sdk_2_30_00_20\source\ti\devices\
    9168                            .dwattr $C$DW$T$49, DW_AT_decl_line(0x59)
    9169                            .dwattr $C$DW$T$49, DW_AT_decl_column(0x19)
    9170                    
    9171                    $C$DW$T$47      .dwtag  DW_TAG_typedef
    9172                            .dwattr $C$DW$T$47, DW_AT_name("FPTR_MINVAL_T")
    9173                            .dwattr $C$DW$T$47, DW_AT_type(*$C$DW$T$46)
    9174                            .dwattr $C$DW$T$47, DW_AT_language(DW_LANG_C)
    9175                            .dwattr $C$DW$T$47, DW_AT_decl_file("C:\ti\simplelink_cc13x0_sdk_2_30_00_20\source\ti\devices\
    9176                            .dwattr $C$DW$T$47, DW_AT_decl_line(0x53)
    9177                            .dwattr $C$DW$T$47, DW_AT_decl_column(0x19)
    9178                    
    9179                    $C$DW$T$50      .dwtag  DW_TAG_typedef
    9180                            .dwattr $C$DW$T$50, DW_AT_name("FPTR_STDDVAL_T")
    9181                            .dwattr $C$DW$T$50, DW_AT_type(*$C$DW$T$46)
    9182                            .dwattr $C$DW$T$50, DW_AT_language(DW_LANG_C)
    9183                            .dwattr $C$DW$T$50, DW_AT_decl_file("C:\ti\simplelink_cc13x0_sdk_2_30_00_20\source\ti\devices\
    9184                            .dwattr $C$DW$T$50, DW_AT_decl_line(0x5c)
    9185                            .dwattr $C$DW$T$50, DW_AT_decl_column(0x19)
    9186                    
    9187                    $C$DW$T$369     .dwtag  DW_TAG_typedef
    9188                            .dwattr $C$DW$T$369, DW_AT_name("uint_fast16_t")
    9189                            .dwattr $C$DW$T$369, DW_AT_type(*$C$DW$T$21)
    9190                            .dwattr $C$DW$T$369, DW_AT_language(DW_LANG_C)
    9191                            .dwattr $C$DW$T$369, DW_AT_decl_file("C:/ti/ccsv7/tools/compiler/ti-cgt-arm_16.9.9.LTS/include
    9192                            .dwattr $C$DW$T$369, DW_AT_decl_line(0x48)
    9193                            .dwattr $C$DW$T$369, DW_AT_decl_column(0x16)
    9194                    
    9195                    $C$DW$T$128     .dwtag  DW_TAG_typedef
    9196                            .dwattr $C$DW$T$128, DW_AT_name("uint_fast32_t")
    9197                            .dwattr $C$DW$T$128, DW_AT_type(*$C$DW$T$21)
    9198                            .dwattr $C$DW$T$128, DW_AT_language(DW_LANG_C)
    9199                            .dwattr $C$DW$T$128, DW_AT_decl_file("C:/ti/ccsv7/tools/compiler/ti-cgt-arm_16.9.9.LTS/include
    9200                            .dwattr $C$DW$T$128, DW_AT_decl_line(0x4b)
    9201                            .dwattr $C$DW$T$128, DW_AT_decl_column(0x16)
    9202                    
    9203                    $C$DW$T$129     .dwtag  DW_TAG_typedef
TI ARM Assembler PC v16.9.9 Sun Nov 25 16:40:48 2018

Tools Copyright (c) 1996-2017 Texas Instruments Incorporated
C:\Users\Stryd\AppData\Local\Temp\{8719FFD6-004A-4401-8DC3-4DA83C6CF1D8} PAGE  169

    9204                            .dwattr $C$DW$T$129, DW_AT_name("ICall_PwrBitmap_t")
    9205                            .dwattr $C$DW$T$129, DW_AT_type(*$C$DW$T$128)
    9206                            .dwattr $C$DW$T$129, DW_AT_language(DW_LANG_C)
    9207                            .dwattr $C$DW$T$129, DW_AT_decl_file("C:/ti/simplelink_cc13x0_sdk_2_30_00_20/source/ti/ti154st
    9208                            .dwattr $C$DW$T$129, DW_AT_decl_line(0x287)
    9209                            .dwattr $C$DW$T$129, DW_AT_decl_column(0x17)
    9210                    
    9211                    $C$DW$T$371     .dwtag  DW_TAG_const_type
    9212                            .dwattr $C$DW$T$371, DW_AT_type(*$C$DW$T$128)
    9213                    
    9214                    $C$DW$T$131     .dwtag  DW_TAG_typedef
    9215                            .dwattr $C$DW$T$131, DW_AT_name("uint_fast8_t")
    9216                            .dwattr $C$DW$T$131, DW_AT_type(*$C$DW$T$21)
    9217                            .dwattr $C$DW$T$131, DW_AT_language(DW_LANG_C)
    9218                            .dwattr $C$DW$T$131, DW_AT_decl_file("C:/ti/ccsv7/tools/compiler/ti-cgt-arm_16.9.9.LTS/include
    9219                            .dwattr $C$DW$T$131, DW_AT_decl_line(0x46)
    9220                            .dwattr $C$DW$T$131, DW_AT_decl_column(0x16)
    9221                    
    9222                    $C$DW$T$134     .dwtag  DW_TAG_typedef
    9223                            .dwattr $C$DW$T$134, DW_AT_name("ICall_PwrTransition")
    9224                            .dwattr $C$DW$T$134, DW_AT_type(*$C$DW$T$131)
    9225                            .dwattr $C$DW$T$134, DW_AT_language(DW_LANG_C)
    9226                            .dwattr $C$DW$T$134, DW_AT_decl_file("C:/ti/simplelink_cc13x0_sdk_2_30_00_20/source/ti/ti154st
    9227                            .dwattr $C$DW$T$134, DW_AT_decl_line(0x326)
    9228                            .dwattr $C$DW$T$134, DW_AT_decl_column(0x16)
    9229                    
    9230                    $C$DW$T$66      .dwtag  DW_TAG_typedef
    9231                            .dwattr $C$DW$T$66, DW_AT_name("uint_least32_t")
    9232                            .dwattr $C$DW$T$66, DW_AT_type(*$C$DW$T$21)
    9233                            .dwattr $C$DW$T$66, DW_AT_language(DW_LANG_C)
    9234                            .dwattr $C$DW$T$66, DW_AT_decl_file("C:/ti/ccsv7/tools/compiler/ti-cgt-arm_16.9.9.LTS/include/
    9235                            .dwattr $C$DW$T$66, DW_AT_decl_line(0x3d)
    9236                            .dwattr $C$DW$T$66, DW_AT_decl_column(0x16)
    9237                    
    9238                    $C$DW$T$148     .dwtag  DW_TAG_typedef
    9239                            .dwattr $C$DW$T$148, DW_AT_name("ICall_CSState")
    9240                            .dwattr $C$DW$T$148, DW_AT_type(*$C$DW$T$66)
    9241                            .dwattr $C$DW$T$148, DW_AT_language(DW_LANG_C)
    9242                            .dwattr $C$DW$T$148, DW_AT_decl_file("C:/ti/simplelink_cc13x0_sdk_2_30_00_20/source/ti/ti154st
    9243                            .dwattr $C$DW$T$148, DW_AT_decl_line(0x371)
    9244                            .dwattr $C$DW$T$148, DW_AT_decl_column(0x18)
    9245                    
    9246                    
    9247                    $C$DW$T$149     .dwtag  DW_TAG_subroutine_type
    9248                            .dwattr $C$DW$T$149, DW_AT_type(*$C$DW$T$148)
    9249                            .dwattr $C$DW$T$149, DW_AT_language(DW_LANG_C)
    9250                            .dwendtag $C$DW$T$149
    9251                    
    9252                    $C$DW$T$150     .dwtag  DW_TAG_pointer_type
    9253                            .dwattr $C$DW$T$150, DW_AT_type(*$C$DW$T$149)
    9254                            .dwattr $C$DW$T$150, DW_AT_address_class(0x20)
    9255                    
    9256                    $C$DW$T$151     .dwtag  DW_TAG_typedef
    9257                            .dwattr $C$DW$T$151, DW_AT_name("ICall_EnterCS")
    9258                            .dwattr $C$DW$T$151, DW_AT_type(*$C$DW$T$150)
TI ARM Assembler PC v16.9.9 Sun Nov 25 16:40:48 2018

Tools Copyright (c) 1996-2017 Texas Instruments Incorporated
C:\Users\Stryd\AppData\Local\Temp\{8719FFD6-004A-4401-8DC3-4DA83C6CF1D8} PAGE  170

    9259                            .dwattr $C$DW$T$151, DW_AT_language(DW_LANG_C)
    9260                            .dwattr $C$DW$T$151, DW_AT_decl_file("C:/ti/simplelink_cc13x0_sdk_2_30_00_20/source/ti/ti154st
    9261                            .dwattr $C$DW$T$151, DW_AT_decl_line(0x377)
    9262                            .dwattr $C$DW$T$151, DW_AT_decl_column(0x19)
    9263                    
    9264                    $C$DW$T$372     .dwtag  DW_TAG_typedef
    9265                            .dwattr $C$DW$T$372, DW_AT_name("halIntState_t")
    9266                            .dwattr $C$DW$T$372, DW_AT_type(*$C$DW$T$148)
    9267                            .dwattr $C$DW$T$372, DW_AT_language(DW_LANG_C)
    9268                            .dwattr $C$DW$T$372, DW_AT_decl_file("C:\ti\simplelink_cc13x0_sdk_2_30_00_20\source\ti\ti154st
    9269                            .dwattr $C$DW$T$372, DW_AT_decl_line(0x6f)
    9270                            .dwattr $C$DW$T$372, DW_AT_decl_column(0x17)
    9271                    
    9272                    $C$DW$T$67      .dwtag  DW_TAG_pointer_type
    9273                            .dwattr $C$DW$T$67, DW_AT_type(*$C$DW$T$66)
    9274                            .dwattr $C$DW$T$67, DW_AT_address_class(0x20)
    9275                    
    9276                    $C$DW$T$68      .dwtag  DW_TAG_typedef
    9277                            .dwattr $C$DW$T$68, DW_AT_name("icall_lite_id_t")
    9278                            .dwattr $C$DW$T$68, DW_AT_type(*$C$DW$T$66)
    9279                            .dwattr $C$DW$T$68, DW_AT_language(DW_LANG_C)
    9280                            .dwattr $C$DW$T$68, DW_AT_decl_file("C:/ti/simplelink_cc13x0_sdk_2_30_00_20/source/ti/ti154sta
    9281                            .dwattr $C$DW$T$68, DW_AT_decl_line(0x3ec)
    9282                            .dwattr $C$DW$T$68, DW_AT_decl_column(0x18)
    9283                    
    9284                    $C$DW$T$373     .dwtag  DW_TAG_typedef
    9285                            .dwattr $C$DW$T$373, DW_AT_name("uintptr_t")
    9286                            .dwattr $C$DW$T$373, DW_AT_type(*$C$DW$T$11)
    9287                            .dwattr $C$DW$T$373, DW_AT_language(DW_LANG_C)
    9288                            .dwattr $C$DW$T$373, DW_AT_decl_file("C:/ti/ccsv7/tools/compiler/ti-cgt-arm_16.9.9.LTS/include
    9289                            .dwattr $C$DW$T$373, DW_AT_decl_line(0x53)
    9290                            .dwattr $C$DW$T$373, DW_AT_decl_column(0x1a)
    9291                    
    9292                    $C$DW$T$12      .dwtag  DW_TAG_base_type
    9293                            .dwattr $C$DW$T$12, DW_AT_encoding(DW_ATE_signed)
    9294                            .dwattr $C$DW$T$12, DW_AT_name("long")
    9295                            .dwattr $C$DW$T$12, DW_AT_byte_size(0x04)
    9296                    
    9297                    $C$DW$T$374     .dwtag  DW_TAG_typedef
    9298                            .dwattr $C$DW$T$374, DW_AT_name("int32")
    9299                            .dwattr $C$DW$T$374, DW_AT_type(*$C$DW$T$12)
    9300                            .dwattr $C$DW$T$374, DW_AT_language(DW_LANG_C)
    9301                            .dwattr $C$DW$T$374, DW_AT_decl_file("C:\ti\simplelink_cc13x0_sdk_2_30_00_20\source\ti\ti154st
    9302                            .dwattr $C$DW$T$374, DW_AT_decl_line(0x3e)
    9303                            .dwattr $C$DW$T$374, DW_AT_decl_column(0x19)
    9304                    
    9305                    $C$DW$T$375     .dwtag  DW_TAG_typedef
    9306                            .dwattr $C$DW$T$375, DW_AT_name("int24")
    9307                            .dwattr $C$DW$T$375, DW_AT_type(*$C$DW$T$374)
    9308                            .dwattr $C$DW$T$375, DW_AT_language(DW_LANG_C)
    9309                            .dwattr $C$DW$T$375, DW_AT_decl_file("..\Application\MAC\OSAL\comdef.h")
    9310                            .dwattr $C$DW$T$375, DW_AT_decl_line(0x7a)
    9311                            .dwattr $C$DW$T$375, DW_AT_decl_column(0x11)
    9312                    
    9313                    $C$DW$T$13      .dwtag  DW_TAG_base_type
TI ARM Assembler PC v16.9.9 Sun Nov 25 16:40:48 2018

Tools Copyright (c) 1996-2017 Texas Instruments Incorporated
C:\Users\Stryd\AppData\Local\Temp\{8719FFD6-004A-4401-8DC3-4DA83C6CF1D8} PAGE  171

    9314                            .dwattr $C$DW$T$13, DW_AT_encoding(DW_ATE_unsigned)
    9315                            .dwattr $C$DW$T$13, DW_AT_name("unsigned long")
    9316                            .dwattr $C$DW$T$13, DW_AT_byte_size(0x04)
    9317                    
    9318                    $C$DW$T$81      .dwtag  DW_TAG_typedef
    9319                            .dwattr $C$DW$T$81, DW_AT_name("uint32")
    9320                            .dwattr $C$DW$T$81, DW_AT_type(*$C$DW$T$13)
    9321                            .dwattr $C$DW$T$81, DW_AT_language(DW_LANG_C)
    9322                            .dwattr $C$DW$T$81, DW_AT_decl_file("C:\ti\simplelink_cc13x0_sdk_2_30_00_20\source\ti\ti154sta
    9323                            .dwattr $C$DW$T$81, DW_AT_decl_line(0x3f)
    9324                            .dwattr $C$DW$T$81, DW_AT_decl_column(0x19)
    9325                    
    9326                    $C$DW$T$377     .dwtag  DW_TAG_typedef
    9327                            .dwattr $C$DW$T$377, DW_AT_name("UTCTime")
    9328                            .dwattr $C$DW$T$377, DW_AT_type(*$C$DW$T$81)
    9329                            .dwattr $C$DW$T$377, DW_AT_language(DW_LANG_C)
    9330                            .dwattr $C$DW$T$377, DW_AT_decl_file("..\Application\MAC\OSAL\osal_clock.h")
    9331                            .dwattr $C$DW$T$377, DW_AT_decl_line(0x4b)
    9332                            .dwattr $C$DW$T$377, DW_AT_decl_column(0x10)
    9333                    
    9334                    $C$DW$T$380     .dwtag  DW_TAG_typedef
    9335                            .dwattr $C$DW$T$380, DW_AT_name("halDataAlign_t")
    9336                            .dwattr $C$DW$T$380, DW_AT_type(*$C$DW$T$81)
    9337                            .dwattr $C$DW$T$380, DW_AT_language(DW_LANG_C)
    9338                            .dwattr $C$DW$T$380, DW_AT_decl_file("C:\ti\simplelink_cc13x0_sdk_2_30_00_20\source\ti\ti154st
    9339                            .dwattr $C$DW$T$380, DW_AT_decl_line(0x43)
    9340                            .dwattr $C$DW$T$380, DW_AT_decl_column(0x19)
    9341                    
    9342                    $C$DW$T$252     .dwtag  DW_TAG_typedef
    9343                            .dwattr $C$DW$T$252, DW_AT_name("uint24")
    9344                            .dwattr $C$DW$T$252, DW_AT_type(*$C$DW$T$81)
    9345                            .dwattr $C$DW$T$252, DW_AT_language(DW_LANG_C)
    9346                            .dwattr $C$DW$T$252, DW_AT_decl_file("..\Application\MAC\OSAL\comdef.h")
    9347                            .dwattr $C$DW$T$252, DW_AT_decl_line(0x7b)
    9348                            .dwattr $C$DW$T$252, DW_AT_decl_column(0x11)
    9349                    
    9350                    $C$DW$T$381     .dwtag  DW_TAG_const_type
    9351                            .dwattr $C$DW$T$381, DW_AT_type(*$C$DW$T$252)
    9352                    
    9353                    $C$DW$T$382     .dwtag  DW_TAG_const_type
    9354                            .dwattr $C$DW$T$382, DW_AT_type(*$C$DW$T$81)
    9355                    
    9356                    $C$DW$T$14      .dwtag  DW_TAG_base_type
    9357                            .dwattr $C$DW$T$14, DW_AT_encoding(DW_ATE_signed)
    9358                            .dwattr $C$DW$T$14, DW_AT_name("long long")
    9359                            .dwattr $C$DW$T$14, DW_AT_byte_size(0x08)
    9360                    
    9361                    $C$DW$T$383     .dwtag  DW_TAG_typedef
    9362                            .dwattr $C$DW$T$383, DW_AT_name("int64_t")
    9363                            .dwattr $C$DW$T$383, DW_AT_type(*$C$DW$T$14)
    9364                            .dwattr $C$DW$T$383, DW_AT_language(DW_LANG_C)
    9365                            .dwattr $C$DW$T$383, DW_AT_decl_file("C:/ti/ccsv7/tools/compiler/ti-cgt-arm_16.9.9.LTS/include
    9366                            .dwattr $C$DW$T$383, DW_AT_decl_line(0x32)
    9367                            .dwattr $C$DW$T$383, DW_AT_decl_column(0x21)
    9368                    
TI ARM Assembler PC v16.9.9 Sun Nov 25 16:40:48 2018

Tools Copyright (c) 1996-2017 Texas Instruments Incorporated
C:\Users\Stryd\AppData\Local\Temp\{8719FFD6-004A-4401-8DC3-4DA83C6CF1D8} PAGE  172

    9369                    $C$DW$T$384     .dwtag  DW_TAG_typedef
    9370                            .dwattr $C$DW$T$384, DW_AT_name("int_fast64_t")
    9371                            .dwattr $C$DW$T$384, DW_AT_type(*$C$DW$T$383)
    9372                            .dwattr $C$DW$T$384, DW_AT_language(DW_LANG_C)
    9373                            .dwattr $C$DW$T$384, DW_AT_decl_file("C:/ti/ccsv7/tools/compiler/ti-cgt-arm_16.9.9.LTS/include
    9374                            .dwattr $C$DW$T$384, DW_AT_decl_line(0x4e)
    9375                            .dwattr $C$DW$T$384, DW_AT_decl_column(0x17)
    9376                    
    9377                    $C$DW$T$385     .dwtag  DW_TAG_typedef
    9378                            .dwattr $C$DW$T$385, DW_AT_name("int_least64_t")
    9379                            .dwattr $C$DW$T$385, DW_AT_type(*$C$DW$T$383)
    9380                            .dwattr $C$DW$T$385, DW_AT_language(DW_LANG_C)
    9381                            .dwattr $C$DW$T$385, DW_AT_decl_file("C:/ti/ccsv7/tools/compiler/ti-cgt-arm_16.9.9.LTS/include
    9382                            .dwattr $C$DW$T$385, DW_AT_decl_line(0x40)
    9383                            .dwattr $C$DW$T$385, DW_AT_decl_column(0x17)
    9384                    
    9385                    $C$DW$T$386     .dwtag  DW_TAG_typedef
    9386                            .dwattr $C$DW$T$386, DW_AT_name("intmax_t")
    9387                            .dwattr $C$DW$T$386, DW_AT_type(*$C$DW$T$14)
    9388                            .dwattr $C$DW$T$386, DW_AT_language(DW_LANG_C)
    9389                            .dwattr $C$DW$T$386, DW_AT_decl_file("C:/ti/ccsv7/tools/compiler/ti-cgt-arm_16.9.9.LTS/include
    9390                            .dwattr $C$DW$T$386, DW_AT_decl_line(0x56)
    9391                            .dwattr $C$DW$T$386, DW_AT_decl_column(0x20)
    9392                    
    9393                    $C$DW$T$15      .dwtag  DW_TAG_base_type
    9394                            .dwattr $C$DW$T$15, DW_AT_encoding(DW_ATE_unsigned)
    9395                            .dwattr $C$DW$T$15, DW_AT_name("unsigned long long")
    9396                            .dwattr $C$DW$T$15, DW_AT_byte_size(0x08)
    9397                    
    9398                    $C$DW$T$387     .dwtag  DW_TAG_typedef
    9399                            .dwattr $C$DW$T$387, DW_AT_name("uint64_t")
    9400                            .dwattr $C$DW$T$387, DW_AT_type(*$C$DW$T$15)
    9401                            .dwattr $C$DW$T$387, DW_AT_language(DW_LANG_C)
    9402                            .dwattr $C$DW$T$387, DW_AT_decl_file("C:/ti/ccsv7/tools/compiler/ti-cgt-arm_16.9.9.LTS/include
    9403                            .dwattr $C$DW$T$387, DW_AT_decl_line(0x33)
    9404                            .dwattr $C$DW$T$387, DW_AT_decl_column(0x20)
    9405                    
    9406                    $C$DW$T$388     .dwtag  DW_TAG_typedef
    9407                            .dwattr $C$DW$T$388, DW_AT_name("uint_fast64_t")
    9408                            .dwattr $C$DW$T$388, DW_AT_type(*$C$DW$T$387)
    9409                            .dwattr $C$DW$T$388, DW_AT_language(DW_LANG_C)
    9410                            .dwattr $C$DW$T$388, DW_AT_decl_file("C:/ti/ccsv7/tools/compiler/ti-cgt-arm_16.9.9.LTS/include
    9411                            .dwattr $C$DW$T$388, DW_AT_decl_line(0x4f)
    9412                            .dwattr $C$DW$T$388, DW_AT_decl_column(0x16)
    9413                    
    9414                    $C$DW$T$389     .dwtag  DW_TAG_typedef
    9415                            .dwattr $C$DW$T$389, DW_AT_name("uint_least64_t")
    9416                            .dwattr $C$DW$T$389, DW_AT_type(*$C$DW$T$387)
    9417                            .dwattr $C$DW$T$389, DW_AT_language(DW_LANG_C)
    9418                            .dwattr $C$DW$T$389, DW_AT_decl_file("C:/ti/ccsv7/tools/compiler/ti-cgt-arm_16.9.9.LTS/include
    9419                            .dwattr $C$DW$T$389, DW_AT_decl_line(0x41)
    9420                            .dwattr $C$DW$T$389, DW_AT_decl_column(0x16)
    9421                    
    9422                    $C$DW$T$390     .dwtag  DW_TAG_typedef
    9423                            .dwattr $C$DW$T$390, DW_AT_name("uintmax_t")
TI ARM Assembler PC v16.9.9 Sun Nov 25 16:40:48 2018

Tools Copyright (c) 1996-2017 Texas Instruments Incorporated
C:\Users\Stryd\AppData\Local\Temp\{8719FFD6-004A-4401-8DC3-4DA83C6CF1D8} PAGE  173

    9424                            .dwattr $C$DW$T$390, DW_AT_type(*$C$DW$T$15)
    9425                            .dwattr $C$DW$T$390, DW_AT_language(DW_LANG_C)
    9426                            .dwattr $C$DW$T$390, DW_AT_decl_file("C:/ti/ccsv7/tools/compiler/ti-cgt-arm_16.9.9.LTS/include
    9427                            .dwattr $C$DW$T$390, DW_AT_decl_line(0x57)
    9428                            .dwattr $C$DW$T$390, DW_AT_decl_column(0x20)
    9429                    
    9430                    $C$DW$T$16      .dwtag  DW_TAG_base_type
    9431                            .dwattr $C$DW$T$16, DW_AT_encoding(DW_ATE_float)
    9432                            .dwattr $C$DW$T$16, DW_AT_name("float")
    9433                            .dwattr $C$DW$T$16, DW_AT_byte_size(0x04)
    9434                    
    9435                    $C$DW$T$17      .dwtag  DW_TAG_base_type
    9436                            .dwattr $C$DW$T$17, DW_AT_encoding(DW_ATE_float)
    9437                            .dwattr $C$DW$T$17, DW_AT_name("double")
    9438                            .dwattr $C$DW$T$17, DW_AT_byte_size(0x08)
    9439                    
    9440                    $C$DW$T$18      .dwtag  DW_TAG_base_type
    9441                            .dwattr $C$DW$T$18, DW_AT_encoding(DW_ATE_float)
    9442                            .dwattr $C$DW$T$18, DW_AT_name("long double")
    9443                            .dwattr $C$DW$T$18, DW_AT_byte_size(0x08)
    9444                    
    9445                    $C$DW$T$79      .dwtag  DW_TAG_base_type
    9446                            .dwattr $C$DW$T$79, DW_AT_encoding(DW_ATE_unsigned_char)
    9447                            .dwattr $C$DW$T$79, DW_AT_name("unsigned char")
    9448                            .dwattr $C$DW$T$79, DW_AT_byte_size(0x01)
    9449                    
    9450                    
    9451                    $C$DW$T$168     .dwtag  DW_TAG_subroutine_type
    9452                            .dwattr $C$DW$T$168, DW_AT_type(*$C$DW$T$79)
    9453                            .dwattr $C$DW$T$168, DW_AT_language(DW_LANG_C)
    9454                    $C$DW$573       .dwtag  DW_TAG_formal_parameter
    9455                            .dwattr $C$DW$573, DW_AT_type(*$C$DW$T$91)
    9456                    
    9457                    $C$DW$574       .dwtag  DW_TAG_formal_parameter
    9458                            .dwattr $C$DW$574, DW_AT_type(*$C$DW$T$89)
    9459                    
    9460                    $C$DW$575       .dwtag  DW_TAG_formal_parameter
    9461                            .dwattr $C$DW$575, DW_AT_type(*$C$DW$T$167)
    9462                    
    9463                            .dwendtag $C$DW$T$168
    9464                    
    9465                    $C$DW$T$169     .dwtag  DW_TAG_pointer_type
    9466                            .dwattr $C$DW$T$169, DW_AT_type(*$C$DW$T$168)
    9467                            .dwattr $C$DW$T$169, DW_AT_address_class(0x20)
    9468                    
    9469                    $C$DW$T$170     .dwtag  DW_TAG_typedef
    9470                            .dwattr $C$DW$T$170, DW_AT_name("ICall_MsgMatchFn")
    9471                            .dwattr $C$DW$T$170, DW_AT_type(*$C$DW$T$169)
    9472                            .dwattr $C$DW$T$170, DW_AT_language(DW_LANG_C)
    9473                            .dwattr $C$DW$T$170, DW_AT_decl_file("C:/ti/simplelink_cc13x0_sdk_2_30_00_20/source/ti/ti154st
    9474                            .dwattr $C$DW$T$170, DW_AT_decl_line(0x1c1)
    9475                            .dwattr $C$DW$T$170, DW_AT_decl_column(0x10)
    9476                    
    9477                    $C$DW$T$329     .dwtag  DW_TAG_pointer_type
    9478                            .dwattr $C$DW$T$329, DW_AT_type(*$C$DW$T$6)
TI ARM Assembler PC v16.9.9 Sun Nov 25 16:40:48 2018

Tools Copyright (c) 1996-2017 Texas Instruments Incorporated
C:\Users\Stryd\AppData\Local\Temp\{8719FFD6-004A-4401-8DC3-4DA83C6CF1D8} PAGE  174

    9479                            .dwattr $C$DW$T$329, DW_AT_address_class(0x20)
    9480                    
    9481                    $C$DW$T$359     .dwtag  DW_TAG_const_type
    9482                            .dwattr $C$DW$T$359, DW_AT_type(*$C$DW$T$6)
    9483                    
    9484                    $C$DW$T$360     .dwtag  DW_TAG_pointer_type
    9485                            .dwattr $C$DW$T$360, DW_AT_type(*$C$DW$T$359)
    9486                            .dwattr $C$DW$T$360, DW_AT_address_class(0x20)
    9487                    
    9488                    
    9489                    $C$DW$T$103     .dwtag  DW_TAG_structure_type
    9490                            .dwattr $C$DW$T$103, DW_AT_name("_icall_alloc_args_t")
    9491                            .dwattr $C$DW$T$103, DW_AT_byte_size(0x0c)
    9492                    $C$DW$576       .dwtag  DW_TAG_member
    9493                            .dwattr $C$DW$576, DW_AT_type(*$C$DW$T$101)
    9494                            .dwattr $C$DW$576, DW_AT_name("hdr")
    9495                            .dwattr $C$DW$576, DW_AT_TI_symbol_name("hdr")
    9496                            .dwattr $C$DW$576, DW_AT_data_member_location[DW_OP_plus_uconst 0x0]
    9497                            .dwattr $C$DW$576, DW_AT_accessibility(DW_ACCESS_public)
    9498                            .dwattr $C$DW$576, DW_AT_decl_file("C:/ti/simplelink_cc13x0_sdk_2_30_00_20/source/ti/ti154stac
    9499                            .dwattr $C$DW$576, DW_AT_decl_line(0x1e3)
    9500                            .dwattr $C$DW$576, DW_AT_decl_column(0x15)
    9501                    
    9502                    $C$DW$577       .dwtag  DW_TAG_member
    9503                            .dwattr $C$DW$577, DW_AT_type(*$C$DW$T$102)
    9504                            .dwattr $C$DW$577, DW_AT_name("size")
    9505                            .dwattr $C$DW$577, DW_AT_TI_symbol_name("size")
    9506                            .dwattr $C$DW$577, DW_AT_data_member_location[DW_OP_plus_uconst 0x4]
    9507                            .dwattr $C$DW$577, DW_AT_accessibility(DW_ACCESS_public)
    9508                            .dwattr $C$DW$577, DW_AT_decl_file("C:/ti/simplelink_cc13x0_sdk_2_30_00_20/source/ti/ti154stac
    9509                            .dwattr $C$DW$577, DW_AT_decl_line(0x1e5)
    9510                            .dwattr $C$DW$577, DW_AT_decl_column(0x0a)
    9511                    
    9512                    $C$DW$578       .dwtag  DW_TAG_member
    9513                            .dwattr $C$DW$578, DW_AT_type(*$C$DW$T$3)
    9514                            .dwattr $C$DW$578, DW_AT_name("ptr")
    9515                            .dwattr $C$DW$578, DW_AT_TI_symbol_name("ptr")
    9516                            .dwattr $C$DW$578, DW_AT_data_member_location[DW_OP_plus_uconst 0x8]
    9517                            .dwattr $C$DW$578, DW_AT_accessibility(DW_ACCESS_public)
    9518                            .dwattr $C$DW$578, DW_AT_decl_file("C:/ti/simplelink_cc13x0_sdk_2_30_00_20/source/ti/ti154stac
    9519                            .dwattr $C$DW$578, DW_AT_decl_line(0x1e7)
    9520                            .dwattr $C$DW$578, DW_AT_decl_column(0x0a)
    9521                    
    9522                            .dwattr $C$DW$T$103, DW_AT_decl_file("C:/ti/simplelink_cc13x0_sdk_2_30_00_20/source/ti/ti154st
    9523                            .dwattr $C$DW$T$103, DW_AT_decl_line(0x1e0)
    9524                            .dwattr $C$DW$T$103, DW_AT_decl_column(0x10)
    9525                            .dwendtag $C$DW$T$103
    9526                    
    9527                    $C$DW$T$392     .dwtag  DW_TAG_typedef
    9528                            .dwattr $C$DW$T$392, DW_AT_name("ICall_AllocArgs")
    9529                            .dwattr $C$DW$T$392, DW_AT_type(*$C$DW$T$103)
    9530                            .dwattr $C$DW$T$392, DW_AT_language(DW_LANG_C)
    9531                            .dwattr $C$DW$T$392, DW_AT_decl_file("C:/ti/simplelink_cc13x0_sdk_2_30_00_20/source/ti/ti154st
    9532                            .dwattr $C$DW$T$392, DW_AT_decl_line(0x1e8)
    9533                            .dwattr $C$DW$T$392, DW_AT_decl_column(0x03)
TI ARM Assembler PC v16.9.9 Sun Nov 25 16:40:48 2018

Tools Copyright (c) 1996-2017 Texas Instruments Incorporated
C:\Users\Stryd\AppData\Local\Temp\{8719FFD6-004A-4401-8DC3-4DA83C6CF1D8} PAGE  175

    9534                    
    9535                    
    9536                    $C$DW$T$106     .dwtag  DW_TAG_structure_type
    9537                            .dwattr $C$DW$T$106, DW_AT_name("_icall_create_task_args_t")
    9538                            .dwattr $C$DW$T$106, DW_AT_byte_size(0x10)
    9539                    $C$DW$579       .dwtag  DW_TAG_member
    9540                            .dwattr $C$DW$579, DW_AT_type(*$C$DW$T$101)
    9541                            .dwattr $C$DW$579, DW_AT_name("hdr")
    9542                            .dwattr $C$DW$579, DW_AT_TI_symbol_name("hdr")
    9543                            .dwattr $C$DW$579, DW_AT_data_member_location[DW_OP_plus_uconst 0x0]
    9544                            .dwattr $C$DW$579, DW_AT_accessibility(DW_ACCESS_public)
    9545                            .dwattr $C$DW$579, DW_AT_decl_file("C:/ti/simplelink_cc13x0_sdk_2_30_00_20/source/ti/ti154stac
    9546                            .dwattr $C$DW$579, DW_AT_decl_line(0x2bc)
    9547                            .dwattr $C$DW$579, DW_AT_decl_column(0x15)
    9548                    
    9549                    $C$DW$580       .dwtag  DW_TAG_member
    9550                            .dwattr $C$DW$580, DW_AT_type(*$C$DW$T$105)
    9551                            .dwattr $C$DW$580, DW_AT_name("entryfn")
    9552                            .dwattr $C$DW$580, DW_AT_TI_symbol_name("entryfn")
    9553                            .dwattr $C$DW$580, DW_AT_data_member_location[DW_OP_plus_uconst 0x4]
    9554                            .dwattr $C$DW$580, DW_AT_accessibility(DW_ACCESS_public)
    9555                            .dwattr $C$DW$580, DW_AT_decl_file("C:/ti/simplelink_cc13x0_sdk_2_30_00_20/source/ti/ti154stac
    9556                            .dwattr $C$DW$580, DW_AT_decl_line(0x2be)
    9557                            .dwattr $C$DW$580, DW_AT_decl_column(0x0a)
    9558                    
    9559                    $C$DW$581       .dwtag  DW_TAG_member
    9560                            .dwattr $C$DW$581, DW_AT_type(*$C$DW$T$88)
    9561                            .dwattr $C$DW$581, DW_AT_name("priority")
    9562                            .dwattr $C$DW$581, DW_AT_TI_symbol_name("priority")
    9563                            .dwattr $C$DW$581, DW_AT_data_member_location[DW_OP_plus_uconst 0x8]
    9564                            .dwattr $C$DW$581, DW_AT_accessibility(DW_ACCESS_public)
    9565                            .dwattr $C$DW$581, DW_AT_decl_file("C:/ti/simplelink_cc13x0_sdk_2_30_00_20/source/ti/ti154stac
    9566                            .dwattr $C$DW$581, DW_AT_decl_line(0x2c0)
    9567                            .dwattr $C$DW$581, DW_AT_decl_column(0x11)
    9568                    
    9569                    $C$DW$582       .dwtag  DW_TAG_member
    9570                            .dwattr $C$DW$582, DW_AT_type(*$C$DW$T$90)
    9571                            .dwattr $C$DW$582, DW_AT_name("stacksize")
    9572                            .dwattr $C$DW$582, DW_AT_TI_symbol_name("stacksize")
    9573                            .dwattr $C$DW$582, DW_AT_data_member_location[DW_OP_plus_uconst 0xa]
    9574                            .dwattr $C$DW$582, DW_AT_accessibility(DW_ACCESS_public)
    9575                            .dwattr $C$DW$582, DW_AT_decl_file("C:/ti/simplelink_cc13x0_sdk_2_30_00_20/source/ti/ti154stac
    9576                            .dwattr $C$DW$582, DW_AT_decl_line(0x2c2)
    9577                            .dwattr $C$DW$582, DW_AT_decl_column(0x12)
    9578                    
    9579                    $C$DW$583       .dwtag  DW_TAG_member
    9580                            .dwattr $C$DW$583, DW_AT_type(*$C$DW$T$102)
    9581                            .dwattr $C$DW$583, DW_AT_name("arg")
    9582                            .dwattr $C$DW$583, DW_AT_TI_symbol_name("arg")
    9583                            .dwattr $C$DW$583, DW_AT_data_member_location[DW_OP_plus_uconst 0xc]
    9584                            .dwattr $C$DW$583, DW_AT_accessibility(DW_ACCESS_public)
    9585                            .dwattr $C$DW$583, DW_AT_decl_file("C:/ti/simplelink_cc13x0_sdk_2_30_00_20/source/ti/ti154stac
    9586                            .dwattr $C$DW$583, DW_AT_decl_line(0x2c4)
    9587                            .dwattr $C$DW$583, DW_AT_decl_column(0x0a)
    9588                    
TI ARM Assembler PC v16.9.9 Sun Nov 25 16:40:48 2018

Tools Copyright (c) 1996-2017 Texas Instruments Incorporated
C:\Users\Stryd\AppData\Local\Temp\{8719FFD6-004A-4401-8DC3-4DA83C6CF1D8} PAGE  176

    9589                            .dwattr $C$DW$T$106, DW_AT_decl_file("C:/ti/simplelink_cc13x0_sdk_2_30_00_20/source/ti/ti154st
    9590                            .dwattr $C$DW$T$106, DW_AT_decl_line(0x2b9)
    9591                            .dwattr $C$DW$T$106, DW_AT_decl_column(0x10)
    9592                            .dwendtag $C$DW$T$106
    9593                    
    9594                    $C$DW$T$393     .dwtag  DW_TAG_typedef
    9595                            .dwattr $C$DW$T$393, DW_AT_name("ICall_CreateTaskArgs")
    9596                            .dwattr $C$DW$T$393, DW_AT_type(*$C$DW$T$106)
    9597                            .dwattr $C$DW$T$393, DW_AT_language(DW_LANG_C)
    9598                            .dwattr $C$DW$T$393, DW_AT_decl_file("C:/ti/simplelink_cc13x0_sdk_2_30_00_20/source/ti/ti154st
    9599                            .dwattr $C$DW$T$393, DW_AT_decl_line(0x2c5)
    9600                            .dwattr $C$DW$T$393, DW_AT_decl_column(0x03)
    9601                    
    9602                    
    9603                    $C$DW$T$115     .dwtag  DW_TAG_structure_type
    9604                            .dwattr $C$DW$T$115, DW_AT_name("_icall_enroll_service_args_t")
    9605                            .dwattr $C$DW$T$115, DW_AT_byte_size(0x14)
    9606                    $C$DW$584       .dwtag  DW_TAG_member
    9607                            .dwattr $C$DW$584, DW_AT_type(*$C$DW$T$101)
    9608                            .dwattr $C$DW$584, DW_AT_name("hdr")
    9609                            .dwattr $C$DW$584, DW_AT_TI_symbol_name("hdr")
    9610                            .dwattr $C$DW$584, DW_AT_data_member_location[DW_OP_plus_uconst 0x0]
    9611                            .dwattr $C$DW$584, DW_AT_accessibility(DW_ACCESS_public)
    9612                            .dwattr $C$DW$584, DW_AT_decl_file("C:/ti/simplelink_cc13x0_sdk_2_30_00_20/source/ti/ti154stac
    9613                            .dwattr $C$DW$584, DW_AT_decl_line(0x3a9)
    9614                            .dwattr $C$DW$584, DW_AT_decl_column(0x15)
    9615                    
    9616                    $C$DW$585       .dwtag  DW_TAG_member
    9617                            .dwattr $C$DW$585, DW_AT_type(*$C$DW$T$91)
    9618                            .dwattr $C$DW$585, DW_AT_name("service")
    9619                            .dwattr $C$DW$585, DW_AT_TI_symbol_name("service")
    9620                            .dwattr $C$DW$585, DW_AT_data_member_location[DW_OP_plus_uconst 0x4]
    9621                            .dwattr $C$DW$585, DW_AT_accessibility(DW_ACCESS_public)
    9622                            .dwattr $C$DW$585, DW_AT_decl_file("C:/ti/simplelink_cc13x0_sdk_2_30_00_20/source/ti/ti154stac
    9623                            .dwattr $C$DW$585, DW_AT_decl_line(0x3ab)
    9624                            .dwattr $C$DW$585, DW_AT_decl_column(0x15)
    9625                    
    9626                    $C$DW$586       .dwtag  DW_TAG_member
    9627                            .dwattr $C$DW$586, DW_AT_type(*$C$DW$T$113)
    9628                            .dwattr $C$DW$586, DW_AT_name("fn")
    9629                            .dwattr $C$DW$586, DW_AT_TI_symbol_name("fn")
    9630                            .dwattr $C$DW$586, DW_AT_data_member_location[DW_OP_plus_uconst 0x8]
    9631                            .dwattr $C$DW$586, DW_AT_accessibility(DW_ACCESS_public)
    9632                            .dwattr $C$DW$586, DW_AT_decl_file("C:/ti/simplelink_cc13x0_sdk_2_30_00_20/source/ti/ti154stac
    9633                            .dwattr $C$DW$586, DW_AT_decl_line(0x3ad)
    9634                            .dwattr $C$DW$586, DW_AT_decl_column(0x15)
    9635                    
    9636                    $C$DW$587       .dwtag  DW_TAG_member
    9637                            .dwattr $C$DW$587, DW_AT_type(*$C$DW$T$89)
    9638                            .dwattr $C$DW$587, DW_AT_name("entity")
    9639                            .dwattr $C$DW$587, DW_AT_TI_symbol_name("entity")
    9640                            .dwattr $C$DW$587, DW_AT_data_member_location[DW_OP_plus_uconst 0xc]
    9641                            .dwattr $C$DW$587, DW_AT_accessibility(DW_ACCESS_public)
    9642                            .dwattr $C$DW$587, DW_AT_decl_file("C:/ti/simplelink_cc13x0_sdk_2_30_00_20/source/ti/ti154stac
    9643                            .dwattr $C$DW$587, DW_AT_decl_line(0x3af)
TI ARM Assembler PC v16.9.9 Sun Nov 25 16:40:48 2018

Tools Copyright (c) 1996-2017 Texas Instruments Incorporated
C:\Users\Stryd\AppData\Local\Temp\{8719FFD6-004A-4401-8DC3-4DA83C6CF1D8} PAGE  177

    9644                            .dwattr $C$DW$587, DW_AT_decl_column(0x12)
    9645                    
    9646                    $C$DW$588       .dwtag  DW_TAG_member
    9647                            .dwattr $C$DW$588, DW_AT_type(*$C$DW$T$114)
    9648                            .dwattr $C$DW$588, DW_AT_name("msgSyncHdl")
    9649                            .dwattr $C$DW$588, DW_AT_TI_symbol_name("msgSyncHdl")
    9650                            .dwattr $C$DW$588, DW_AT_data_member_location[DW_OP_plus_uconst 0x10]
    9651                            .dwattr $C$DW$588, DW_AT_accessibility(DW_ACCESS_public)
    9652                            .dwattr $C$DW$588, DW_AT_decl_file("C:/ti/simplelink_cc13x0_sdk_2_30_00_20/source/ti/ti154stac
    9653                            .dwattr $C$DW$588, DW_AT_decl_line(0x3b2)
    9654                            .dwattr $C$DW$588, DW_AT_decl_column(0x14)
    9655                    
    9656                            .dwattr $C$DW$T$115, DW_AT_decl_file("C:/ti/simplelink_cc13x0_sdk_2_30_00_20/source/ti/ti154st
    9657                            .dwattr $C$DW$T$115, DW_AT_decl_line(0x3a6)
    9658                            .dwattr $C$DW$T$115, DW_AT_decl_column(0x10)
    9659                            .dwendtag $C$DW$T$115
    9660                    
    9661                    $C$DW$T$394     .dwtag  DW_TAG_typedef
    9662                            .dwattr $C$DW$T$394, DW_AT_name("ICall_EnrollServiceArgs")
    9663                            .dwattr $C$DW$T$394, DW_AT_type(*$C$DW$T$115)
    9664                            .dwattr $C$DW$T$394, DW_AT_language(DW_LANG_C)
    9665                            .dwattr $C$DW$T$394, DW_AT_decl_file("C:/ti/simplelink_cc13x0_sdk_2_30_00_20/source/ti/ti154st
    9666                            .dwattr $C$DW$T$394, DW_AT_decl_line(0x3b3)
    9667                            .dwattr $C$DW$T$394, DW_AT_decl_column(0x03)
    9668                    
    9669                    
    9670                    $C$DW$T$116     .dwtag  DW_TAG_structure_type
    9671                            .dwattr $C$DW$T$116, DW_AT_name("_icall_entity2service_args_t")
    9672                            .dwattr $C$DW$T$116, DW_AT_byte_size(0x08)
    9673                    $C$DW$589       .dwtag  DW_TAG_member
    9674                            .dwattr $C$DW$589, DW_AT_type(*$C$DW$T$101)
    9675                            .dwattr $C$DW$589, DW_AT_name("hdr")
    9676                            .dwattr $C$DW$589, DW_AT_TI_symbol_name("hdr")
    9677                            .dwattr $C$DW$589, DW_AT_data_member_location[DW_OP_plus_uconst 0x0]
    9678                            .dwattr $C$DW$589, DW_AT_accessibility(DW_ACCESS_public)
    9679                            .dwattr $C$DW$589, DW_AT_decl_file("C:/ti/simplelink_cc13x0_sdk_2_30_00_20/source/ti/ti154stac
    9680                            .dwattr $C$DW$589, DW_AT_decl_line(0x23e)
    9681                            .dwattr $C$DW$589, DW_AT_decl_column(0x15)
    9682                    
    9683                    $C$DW$590       .dwtag  DW_TAG_member
    9684                            .dwattr $C$DW$590, DW_AT_type(*$C$DW$T$89)
    9685                            .dwattr $C$DW$590, DW_AT_name("entityId")
    9686                            .dwattr $C$DW$590, DW_AT_TI_symbol_name("entityId")
    9687                            .dwattr $C$DW$590, DW_AT_data_member_location[DW_OP_plus_uconst 0x4]
    9688                            .dwattr $C$DW$590, DW_AT_accessibility(DW_ACCESS_public)
    9689                            .dwattr $C$DW$590, DW_AT_decl_file("C:/ti/simplelink_cc13x0_sdk_2_30_00_20/source/ti/ti154stac
    9690                            .dwattr $C$DW$590, DW_AT_decl_line(0x240)
    9691                            .dwattr $C$DW$590, DW_AT_decl_column(0x12)
    9692                    
    9693                    $C$DW$591       .dwtag  DW_TAG_member
    9694                            .dwattr $C$DW$591, DW_AT_type(*$C$DW$T$91)
    9695                            .dwattr $C$DW$591, DW_AT_name("servId")
    9696                            .dwattr $C$DW$591, DW_AT_TI_symbol_name("servId")
    9697                            .dwattr $C$DW$591, DW_AT_data_member_location[DW_OP_plus_uconst 0x6]
    9698                            .dwattr $C$DW$591, DW_AT_accessibility(DW_ACCESS_public)
TI ARM Assembler PC v16.9.9 Sun Nov 25 16:40:48 2018

Tools Copyright (c) 1996-2017 Texas Instruments Incorporated
C:\Users\Stryd\AppData\Local\Temp\{8719FFD6-004A-4401-8DC3-4DA83C6CF1D8} PAGE  178

    9699                            .dwattr $C$DW$591, DW_AT_decl_file("C:/ti/simplelink_cc13x0_sdk_2_30_00_20/source/ti/ti154stac
    9700                            .dwattr $C$DW$591, DW_AT_decl_line(0x242)
    9701                            .dwattr $C$DW$591, DW_AT_decl_column(0x15)
    9702                    
    9703                            .dwattr $C$DW$T$116, DW_AT_decl_file("C:/ti/simplelink_cc13x0_sdk_2_30_00_20/source/ti/ti154st
    9704                            .dwattr $C$DW$T$116, DW_AT_decl_line(0x23b)
    9705                            .dwattr $C$DW$T$116, DW_AT_decl_column(0x10)
    9706                            .dwendtag $C$DW$T$116
    9707                    
    9708                    $C$DW$T$395     .dwtag  DW_TAG_typedef
    9709                            .dwattr $C$DW$T$395, DW_AT_name("ICall_EntityId2ServiceIdArgs")
    9710                            .dwattr $C$DW$T$395, DW_AT_type(*$C$DW$T$116)
    9711                            .dwattr $C$DW$T$395, DW_AT_language(DW_LANG_C)
    9712                            .dwattr $C$DW$T$395, DW_AT_decl_file("C:/ti/simplelink_cc13x0_sdk_2_30_00_20/source/ti/ti154st
    9713                            .dwattr $C$DW$T$395, DW_AT_decl_line(0x243)
    9714                            .dwattr $C$DW$T$395, DW_AT_decl_column(0x03)
    9715                    
    9716                    
    9717                    $C$DW$T$117     .dwtag  DW_TAG_structure_type
    9718                            .dwattr $C$DW$T$117, DW_AT_name("_icall_fetch_msg_args_t")
    9719                            .dwattr $C$DW$T$117, DW_AT_byte_size(0x0c)
    9720                    $C$DW$592       .dwtag  DW_TAG_member
    9721                            .dwattr $C$DW$592, DW_AT_type(*$C$DW$T$101)
    9722                            .dwattr $C$DW$592, DW_AT_name("hdr")
    9723                            .dwattr $C$DW$592, DW_AT_TI_symbol_name("hdr")
    9724                            .dwattr $C$DW$592, DW_AT_data_member_location[DW_OP_plus_uconst 0x0]
    9725                            .dwattr $C$DW$592, DW_AT_accessibility(DW_ACCESS_public)
    9726                            .dwattr $C$DW$592, DW_AT_decl_file("C:/ti/simplelink_cc13x0_sdk_2_30_00_20/source/ti/ti154stac
    9727                            .dwattr $C$DW$592, DW_AT_decl_line(0x20c)
    9728                            .dwattr $C$DW$592, DW_AT_decl_column(0x15)
    9729                    
    9730                    $C$DW$593       .dwtag  DW_TAG_member
    9731                            .dwattr $C$DW$593, DW_AT_type(*$C$DW$T$93)
    9732                            .dwattr $C$DW$593, DW_AT_name("src")
    9733                            .dwattr $C$DW$593, DW_AT_TI_symbol_name("src")
    9734                            .dwattr $C$DW$593, DW_AT_data_member_location[DW_OP_plus_uconst 0x4]
    9735                            .dwattr $C$DW$593, DW_AT_accessibility(DW_ACCESS_public)
    9736                            .dwattr $C$DW$593, DW_AT_decl_file("C:/ti/simplelink_cc13x0_sdk_2_30_00_20/source/ti/ti154stac
    9737                            .dwattr $C$DW$593, DW_AT_decl_line(0x214)
    9738                            .dwattr $C$DW$593, DW_AT_decl_column(0x05)
    9739                    
    9740                    $C$DW$594       .dwtag  DW_TAG_member
    9741                            .dwattr $C$DW$594, DW_AT_type(*$C$DW$T$89)
    9742                            .dwattr $C$DW$594, DW_AT_name("dest")
    9743                            .dwattr $C$DW$594, DW_AT_TI_symbol_name("dest")
    9744                            .dwattr $C$DW$594, DW_AT_data_member_location[DW_OP_plus_uconst 0x6]
    9745                            .dwattr $C$DW$594, DW_AT_accessibility(DW_ACCESS_public)
    9746                            .dwattr $C$DW$594, DW_AT_decl_file("C:/ti/simplelink_cc13x0_sdk_2_30_00_20/source/ti/ti154stac
    9747                            .dwattr $C$DW$594, DW_AT_decl_line(0x216)
    9748                            .dwattr $C$DW$594, DW_AT_decl_column(0x12)
    9749                    
    9750                    $C$DW$595       .dwtag  DW_TAG_member
    9751                            .dwattr $C$DW$595, DW_AT_type(*$C$DW$T$3)
    9752                            .dwattr $C$DW$595, DW_AT_name("msg")
    9753                            .dwattr $C$DW$595, DW_AT_TI_symbol_name("msg")
TI ARM Assembler PC v16.9.9 Sun Nov 25 16:40:48 2018

Tools Copyright (c) 1996-2017 Texas Instruments Incorporated
C:\Users\Stryd\AppData\Local\Temp\{8719FFD6-004A-4401-8DC3-4DA83C6CF1D8} PAGE  179

    9754                            .dwattr $C$DW$595, DW_AT_data_member_location[DW_OP_plus_uconst 0x8]
    9755                            .dwattr $C$DW$595, DW_AT_accessibility(DW_ACCESS_public)
    9756                            .dwattr $C$DW$595, DW_AT_decl_file("C:/ti/simplelink_cc13x0_sdk_2_30_00_20/source/ti/ti154stac
    9757                            .dwattr $C$DW$595, DW_AT_decl_line(0x218)
    9758                            .dwattr $C$DW$595, DW_AT_decl_column(0x09)
    9759                    
    9760                            .dwattr $C$DW$T$117, DW_AT_decl_file("C:/ti/simplelink_cc13x0_sdk_2_30_00_20/source/ti/ti154st
    9761                            .dwattr $C$DW$T$117, DW_AT_decl_line(0x209)
    9762                            .dwattr $C$DW$T$117, DW_AT_decl_column(0x10)
    9763                            .dwendtag $C$DW$T$117
    9764                    
    9765                    $C$DW$T$396     .dwtag  DW_TAG_typedef
    9766                            .dwattr $C$DW$T$396, DW_AT_name("ICall_FetchMsgArgs")
    9767                            .dwattr $C$DW$T$396, DW_AT_type(*$C$DW$T$117)
    9768                            .dwattr $C$DW$T$396, DW_AT_language(DW_LANG_C)
    9769                            .dwattr $C$DW$T$396, DW_AT_decl_file("C:/ti/simplelink_cc13x0_sdk_2_30_00_20/source/ti/ti154st
    9770                            .dwattr $C$DW$T$396, DW_AT_decl_line(0x219)
    9771                            .dwattr $C$DW$T$396, DW_AT_decl_column(0x03)
    9772                    
    9773                    
    9774                    $C$DW$T$118     .dwtag  DW_TAG_structure_type
    9775                            .dwattr $C$DW$T$118, DW_AT_name("_icall_free_args_t")
    9776                            .dwattr $C$DW$T$118, DW_AT_byte_size(0x08)
    9777                    $C$DW$596       .dwtag  DW_TAG_member
    9778                            .dwattr $C$DW$596, DW_AT_type(*$C$DW$T$101)
    9779                            .dwattr $C$DW$596, DW_AT_name("hdr")
    9780                            .dwattr $C$DW$596, DW_AT_TI_symbol_name("hdr")
    9781                            .dwattr $C$DW$596, DW_AT_data_member_location[DW_OP_plus_uconst 0x0]
    9782                            .dwattr $C$DW$596, DW_AT_accessibility(DW_ACCESS_public)
    9783                            .dwattr $C$DW$596, DW_AT_decl_file("C:/ti/simplelink_cc13x0_sdk_2_30_00_20/source/ti/ti154stac
    9784                            .dwattr $C$DW$596, DW_AT_decl_line(0x1ee)
    9785                            .dwattr $C$DW$596, DW_AT_decl_column(0x15)
    9786                    
    9787                    $C$DW$597       .dwtag  DW_TAG_member
    9788                            .dwattr $C$DW$597, DW_AT_type(*$C$DW$T$3)
    9789                            .dwattr $C$DW$597, DW_AT_name("ptr")
    9790                            .dwattr $C$DW$597, DW_AT_TI_symbol_name("ptr")
    9791                            .dwattr $C$DW$597, DW_AT_data_member_location[DW_OP_plus_uconst 0x4]
    9792                            .dwattr $C$DW$597, DW_AT_accessibility(DW_ACCESS_public)
    9793                            .dwattr $C$DW$597, DW_AT_decl_file("C:/ti/simplelink_cc13x0_sdk_2_30_00_20/source/ti/ti154stac
    9794                            .dwattr $C$DW$597, DW_AT_decl_line(0x1f0)
    9795                            .dwattr $C$DW$597, DW_AT_decl_column(0x0a)
    9796                    
    9797                            .dwattr $C$DW$T$118, DW_AT_decl_file("C:/ti/simplelink_cc13x0_sdk_2_30_00_20/source/ti/ti154st
    9798                            .dwattr $C$DW$T$118, DW_AT_decl_line(0x1eb)
    9799                            .dwattr $C$DW$T$118, DW_AT_decl_column(0x10)
    9800                            .dwendtag $C$DW$T$118
    9801                    
    9802                    $C$DW$T$398     .dwtag  DW_TAG_typedef
    9803                            .dwattr $C$DW$T$398, DW_AT_name("ICall_FreeArgs")
    9804                            .dwattr $C$DW$T$398, DW_AT_type(*$C$DW$T$118)
    9805                            .dwattr $C$DW$T$398, DW_AT_language(DW_LANG_C)
    9806                            .dwattr $C$DW$T$398, DW_AT_decl_file("C:/ti/simplelink_cc13x0_sdk_2_30_00_20/source/ti/ti154st
    9807                            .dwattr $C$DW$T$398, DW_AT_decl_line(0x1f1)
    9808                            .dwattr $C$DW$T$398, DW_AT_decl_column(0x03)
TI ARM Assembler PC v16.9.9 Sun Nov 25 16:40:48 2018

Tools Copyright (c) 1996-2017 Texas Instruments Incorporated
C:\Users\Stryd\AppData\Local\Temp\{8719FFD6-004A-4401-8DC3-4DA83C6CF1D8} PAGE  180

    9809                    
    9810                    
    9811                    $C$DW$T$120     .dwtag  DW_TAG_structure_type
    9812                            .dwattr $C$DW$T$120, DW_AT_name("_icall_func_args_hdr_t")
    9813                            .dwattr $C$DW$T$120, DW_AT_byte_size(0x04)
    9814                    $C$DW$598       .dwtag  DW_TAG_member
    9815                            .dwattr $C$DW$598, DW_AT_type(*$C$DW$T$91)
    9816                            .dwattr $C$DW$598, DW_AT_name("service")
    9817                            .dwattr $C$DW$598, DW_AT_TI_symbol_name("service")
    9818                            .dwattr $C$DW$598, DW_AT_data_member_location[DW_OP_plus_uconst 0x0]
    9819                            .dwattr $C$DW$598, DW_AT_accessibility(DW_ACCESS_public)
    9820                            .dwattr $C$DW$598, DW_AT_decl_file("C:/ti/simplelink_cc13x0_sdk_2_30_00_20/source/ti/ti154stac
    9821                            .dwattr $C$DW$598, DW_AT_decl_line(0x1ce)
    9822                            .dwattr $C$DW$598, DW_AT_decl_column(0x15)
    9823                    
    9824                    $C$DW$599       .dwtag  DW_TAG_member
    9825                            .dwattr $C$DW$599, DW_AT_type(*$C$DW$T$119)
    9826                            .dwattr $C$DW$599, DW_AT_name("func")
    9827                            .dwattr $C$DW$599, DW_AT_TI_symbol_name("func")
    9828                            .dwattr $C$DW$599, DW_AT_data_member_location[DW_OP_plus_uconst 0x2]
    9829                            .dwattr $C$DW$599, DW_AT_accessibility(DW_ACCESS_public)
    9830                            .dwattr $C$DW$599, DW_AT_decl_file("C:/ti/simplelink_cc13x0_sdk_2_30_00_20/source/ti/ti154stac
    9831                            .dwattr $C$DW$599, DW_AT_decl_line(0x1d0)
    9832                            .dwattr $C$DW$599, DW_AT_decl_column(0x10)
    9833                    
    9834                            .dwattr $C$DW$T$120, DW_AT_decl_file("C:/ti/simplelink_cc13x0_sdk_2_30_00_20/source/ti/ti154st
    9835                            .dwattr $C$DW$T$120, DW_AT_decl_line(0x1cb)
    9836                            .dwattr $C$DW$T$120, DW_AT_decl_column(0x10)
    9837                            .dwendtag $C$DW$T$120
    9838                    
    9839                    $C$DW$T$101     .dwtag  DW_TAG_typedef
    9840                            .dwattr $C$DW$T$101, DW_AT_name("ICall_FuncArgsHdr")
    9841                            .dwattr $C$DW$T$101, DW_AT_type(*$C$DW$T$120)
    9842                            .dwattr $C$DW$T$101, DW_AT_language(DW_LANG_C)
    9843                            .dwattr $C$DW$T$101, DW_AT_decl_file("C:/ti/simplelink_cc13x0_sdk_2_30_00_20/source/ti/ti154st
    9844                            .dwattr $C$DW$T$101, DW_AT_decl_line(0x1d1)
    9845                            .dwattr $C$DW$T$101, DW_AT_decl_column(0x03)
    9846                    
    9847                    $C$DW$T$110     .dwtag  DW_TAG_pointer_type
    9848                            .dwattr $C$DW$T$110, DW_AT_type(*$C$DW$T$101)
    9849                            .dwattr $C$DW$T$110, DW_AT_address_class(0x20)
    9850                    
    9851                    $C$DW$T$399     .dwtag  DW_TAG_const_type
    9852                            .dwattr $C$DW$T$399, DW_AT_type(*$C$DW$T$110)
    9853                    
    9854                    
    9855                    $C$DW$T$121     .dwtag  DW_TAG_structure_type
    9856                            .dwattr $C$DW$T$121, DW_AT_name("_icall_get_entity_id_args_t")
    9857                            .dwattr $C$DW$T$121, DW_AT_byte_size(0x06)
    9858                    $C$DW$600       .dwtag  DW_TAG_member
    9859                            .dwattr $C$DW$600, DW_AT_type(*$C$DW$T$101)
    9860                            .dwattr $C$DW$600, DW_AT_name("hdr")
    9861                            .dwattr $C$DW$600, DW_AT_TI_symbol_name("hdr")
    9862                            .dwattr $C$DW$600, DW_AT_data_member_location[DW_OP_plus_uconst 0x0]
    9863                            .dwattr $C$DW$600, DW_AT_accessibility(DW_ACCESS_public)
TI ARM Assembler PC v16.9.9 Sun Nov 25 16:40:48 2018

Tools Copyright (c) 1996-2017 Texas Instruments Incorporated
C:\Users\Stryd\AppData\Local\Temp\{8719FFD6-004A-4401-8DC3-4DA83C6CF1D8} PAGE  181

    9864                            .dwattr $C$DW$600, DW_AT_decl_file("C:/ti/simplelink_cc13x0_sdk_2_30_00_20/source/ti/ti154stac
    9865                            .dwattr $C$DW$600, DW_AT_decl_line(0x362)
    9866                            .dwattr $C$DW$600, DW_AT_decl_column(0x15)
    9867                    
    9868                    $C$DW$601       .dwtag  DW_TAG_member
    9869                            .dwattr $C$DW$601, DW_AT_type(*$C$DW$T$89)
    9870                            .dwattr $C$DW$601, DW_AT_name("entity")
    9871                            .dwattr $C$DW$601, DW_AT_TI_symbol_name("entity")
    9872                            .dwattr $C$DW$601, DW_AT_data_member_location[DW_OP_plus_uconst 0x4]
    9873                            .dwattr $C$DW$601, DW_AT_accessibility(DW_ACCESS_public)
    9874                            .dwattr $C$DW$601, DW_AT_decl_file("C:/ti/simplelink_cc13x0_sdk_2_30_00_20/source/ti/ti154stac
    9875                            .dwattr $C$DW$601, DW_AT_decl_line(0x364)
    9876                            .dwattr $C$DW$601, DW_AT_decl_column(0x12)
    9877                    
    9878                            .dwattr $C$DW$T$121, DW_AT_decl_file("C:/ti/simplelink_cc13x0_sdk_2_30_00_20/source/ti/ti154st
    9879                            .dwattr $C$DW$T$121, DW_AT_decl_line(0x35f)
    9880                            .dwattr $C$DW$T$121, DW_AT_decl_column(0x10)
    9881                            .dwendtag $C$DW$T$121
    9882                    
    9883                    $C$DW$T$402     .dwtag  DW_TAG_typedef
    9884                            .dwattr $C$DW$T$402, DW_AT_name("ICall_GetEntityIdArgs")
    9885                            .dwattr $C$DW$T$402, DW_AT_type(*$C$DW$T$121)
    9886                            .dwattr $C$DW$T$402, DW_AT_language(DW_LANG_C)
    9887                            .dwattr $C$DW$T$402, DW_AT_decl_file("C:/ti/simplelink_cc13x0_sdk_2_30_00_20/source/ti/ti154st
    9888                            .dwattr $C$DW$T$402, DW_AT_decl_line(0x365)
    9889                            .dwattr $C$DW$T$402, DW_AT_decl_column(0x03)
    9890                    
    9891                    
    9892                    $C$DW$T$122     .dwtag  DW_TAG_structure_type
    9893                            .dwattr $C$DW$T$122, DW_AT_name("_icall_get_local_msg_entity_id_args_t")
    9894                            .dwattr $C$DW$T$122, DW_AT_byte_size(0x08)
    9895                    $C$DW$602       .dwtag  DW_TAG_member
    9896                            .dwattr $C$DW$602, DW_AT_type(*$C$DW$T$101)
    9897                            .dwattr $C$DW$602, DW_AT_name("hdr")
    9898                            .dwattr $C$DW$602, DW_AT_TI_symbol_name("hdr")
    9899                            .dwattr $C$DW$602, DW_AT_data_member_location[DW_OP_plus_uconst 0x0]
    9900                            .dwattr $C$DW$602, DW_AT_accessibility(DW_ACCESS_public)
    9901                            .dwattr $C$DW$602, DW_AT_decl_file("C:/ti/simplelink_cc13x0_sdk_2_30_00_20/source/ti/ti154stac
    9902                            .dwattr $C$DW$602, DW_AT_decl_line(0x3d1)
    9903                            .dwattr $C$DW$602, DW_AT_decl_column(0x15)
    9904                    
    9905                    $C$DW$603       .dwtag  DW_TAG_member
    9906                            .dwattr $C$DW$603, DW_AT_type(*$C$DW$T$91)
    9907                            .dwattr $C$DW$603, DW_AT_name("service")
    9908                            .dwattr $C$DW$603, DW_AT_TI_symbol_name("service")
    9909                            .dwattr $C$DW$603, DW_AT_data_member_location[DW_OP_plus_uconst 0x4]
    9910                            .dwattr $C$DW$603, DW_AT_accessibility(DW_ACCESS_public)
    9911                            .dwattr $C$DW$603, DW_AT_decl_file("C:/ti/simplelink_cc13x0_sdk_2_30_00_20/source/ti/ti154stac
    9912                            .dwattr $C$DW$603, DW_AT_decl_line(0x3d3)
    9913                            .dwattr $C$DW$603, DW_AT_decl_column(0x15)
    9914                    
    9915                    $C$DW$604       .dwtag  DW_TAG_member
    9916                            .dwattr $C$DW$604, DW_AT_type(*$C$DW$T$89)
    9917                            .dwattr $C$DW$604, DW_AT_name("entity")
    9918                            .dwattr $C$DW$604, DW_AT_TI_symbol_name("entity")
TI ARM Assembler PC v16.9.9 Sun Nov 25 16:40:48 2018

Tools Copyright (c) 1996-2017 Texas Instruments Incorporated
C:\Users\Stryd\AppData\Local\Temp\{8719FFD6-004A-4401-8DC3-4DA83C6CF1D8} PAGE  182

    9919                            .dwattr $C$DW$604, DW_AT_data_member_location[DW_OP_plus_uconst 0x6]
    9920                            .dwattr $C$DW$604, DW_AT_accessibility(DW_ACCESS_public)
    9921                            .dwattr $C$DW$604, DW_AT_decl_file("C:/ti/simplelink_cc13x0_sdk_2_30_00_20/source/ti/ti154stac
    9922                            .dwattr $C$DW$604, DW_AT_decl_line(0x3d5)
    9923                            .dwattr $C$DW$604, DW_AT_decl_column(0x12)
    9924                    
    9925                    $C$DW$605       .dwtag  DW_TAG_member
    9926                            .dwattr $C$DW$605, DW_AT_type(*$C$DW$T$88)
    9927                            .dwattr $C$DW$605, DW_AT_name("localId")
    9928                            .dwattr $C$DW$605, DW_AT_TI_symbol_name("localId")
    9929                            .dwattr $C$DW$605, DW_AT_data_member_location[DW_OP_plus_uconst 0x7]
    9930                            .dwattr $C$DW$605, DW_AT_accessibility(DW_ACCESS_public)
    9931                            .dwattr $C$DW$605, DW_AT_decl_file("C:/ti/simplelink_cc13x0_sdk_2_30_00_20/source/ti/ti154stac
    9932                            .dwattr $C$DW$605, DW_AT_decl_line(0x3d7)
    9933                            .dwattr $C$DW$605, DW_AT_decl_column(0x11)
    9934                    
    9935                            .dwattr $C$DW$T$122, DW_AT_decl_file("C:/ti/simplelink_cc13x0_sdk_2_30_00_20/source/ti/ti154st
    9936                            .dwattr $C$DW$T$122, DW_AT_decl_line(0x3ce)
    9937                            .dwattr $C$DW$T$122, DW_AT_decl_column(0x10)
    9938                            .dwendtag $C$DW$T$122
    9939                    
    9940                    $C$DW$T$403     .dwtag  DW_TAG_typedef
    9941                            .dwattr $C$DW$T$403, DW_AT_name("ICall_GetLocalMsgEntityIdArgs")
    9942                            .dwattr $C$DW$T$403, DW_AT_type(*$C$DW$T$122)
    9943                            .dwattr $C$DW$T$403, DW_AT_language(DW_LANG_C)
    9944                            .dwattr $C$DW$T$403, DW_AT_decl_file("C:/ti/simplelink_cc13x0_sdk_2_30_00_20/source/ti/ti154st
    9945                            .dwattr $C$DW$T$403, DW_AT_decl_line(0x3d8)
    9946                            .dwattr $C$DW$T$403, DW_AT_decl_column(0x03)
    9947                    
    9948                    
    9949                    $C$DW$T$123     .dwtag  DW_TAG_structure_type
    9950                            .dwattr $C$DW$T$123, DW_AT_name("_icall_getbool_args_t")
    9951                            .dwattr $C$DW$T$123, DW_AT_byte_size(0x06)
    9952                    $C$DW$606       .dwtag  DW_TAG_member
    9953                            .dwattr $C$DW$606, DW_AT_type(*$C$DW$T$101)
    9954                            .dwattr $C$DW$606, DW_AT_name("hdr")
    9955                            .dwattr $C$DW$606, DW_AT_TI_symbol_name("hdr")
    9956                            .dwattr $C$DW$606, DW_AT_data_member_location[DW_OP_plus_uconst 0x0]
    9957                            .dwattr $C$DW$606, DW_AT_accessibility(DW_ACCESS_public)
    9958                            .dwattr $C$DW$606, DW_AT_decl_file("C:/ti/simplelink_cc13x0_sdk_2_30_00_20/source/ti/ti154stac
    9959                            .dwattr $C$DW$606, DW_AT_decl_line(0x274)
    9960                            .dwattr $C$DW$606, DW_AT_decl_column(0x15)
    9961                    
    9962                    $C$DW$607       .dwtag  DW_TAG_member
    9963                            .dwattr $C$DW$607, DW_AT_type(*$C$DW$T$79)
    9964                            .dwattr $C$DW$607, DW_AT_name("value")
    9965                            .dwattr $C$DW$607, DW_AT_TI_symbol_name("value")
    9966                            .dwattr $C$DW$607, DW_AT_data_member_location[DW_OP_plus_uconst 0x4]
    9967                            .dwattr $C$DW$607, DW_AT_accessibility(DW_ACCESS_public)
    9968                            .dwattr $C$DW$607, DW_AT_decl_file("C:/ti/simplelink_cc13x0_sdk_2_30_00_20/source/ti/ti154stac
    9969                            .dwattr $C$DW$607, DW_AT_decl_line(0x276)
    9970                            .dwattr $C$DW$607, DW_AT_decl_column(0x08)
    9971                    
    9972                            .dwattr $C$DW$T$123, DW_AT_decl_file("C:/ti/simplelink_cc13x0_sdk_2_30_00_20/source/ti/ti154st
    9973                            .dwattr $C$DW$T$123, DW_AT_decl_line(0x271)
TI ARM Assembler PC v16.9.9 Sun Nov 25 16:40:48 2018

Tools Copyright (c) 1996-2017 Texas Instruments Incorporated
C:\Users\Stryd\AppData\Local\Temp\{8719FFD6-004A-4401-8DC3-4DA83C6CF1D8} PAGE  183

    9974                            .dwattr $C$DW$T$123, DW_AT_decl_column(0x10)
    9975                            .dwendtag $C$DW$T$123
    9976                    
    9977                    $C$DW$T$404     .dwtag  DW_TAG_typedef
    9978                            .dwattr $C$DW$T$404, DW_AT_name("ICall_GetBoolArgs")
    9979                            .dwattr $C$DW$T$404, DW_AT_type(*$C$DW$T$123)
    9980                            .dwattr $C$DW$T$404, DW_AT_language(DW_LANG_C)
    9981                            .dwattr $C$DW$T$404, DW_AT_decl_file("C:/ti/simplelink_cc13x0_sdk_2_30_00_20/source/ti/ti154st
    9982                            .dwattr $C$DW$T$404, DW_AT_decl_line(0x277)
    9983                            .dwattr $C$DW$T$404, DW_AT_decl_column(0x03)
    9984                    
    9985                    
    9986                    $C$DW$T$124     .dwtag  DW_TAG_structure_type
    9987                            .dwattr $C$DW$T$124, DW_AT_name("_icall_getuint32_args_t")
    9988                            .dwattr $C$DW$T$124, DW_AT_byte_size(0x08)
    9989                    $C$DW$608       .dwtag  DW_TAG_member
    9990                            .dwattr $C$DW$608, DW_AT_type(*$C$DW$T$101)
    9991                            .dwattr $C$DW$608, DW_AT_name("hdr")
    9992                            .dwattr $C$DW$608, DW_AT_TI_symbol_name("hdr")
    9993                            .dwattr $C$DW$608, DW_AT_data_member_location[DW_OP_plus_uconst 0x0]
    9994                            .dwattr $C$DW$608, DW_AT_accessibility(DW_ACCESS_public)
    9995                            .dwattr $C$DW$608, DW_AT_decl_file("C:/ti/simplelink_cc13x0_sdk_2_30_00_20/source/ti/ti154stac
    9996                            .dwattr $C$DW$608, DW_AT_decl_line(0x269)
    9997                            .dwattr $C$DW$608, DW_AT_decl_column(0x15)
    9998                    
    9999                    $C$DW$609       .dwtag  DW_TAG_member
   10000                            .dwattr $C$DW$609, DW_AT_type(*$C$DW$T$66)
   10001                            .dwattr $C$DW$609, DW_AT_name("value")
   10002                            .dwattr $C$DW$609, DW_AT_TI_symbol_name("value")
   10003                            .dwattr $C$DW$609, DW_AT_data_member_location[DW_OP_plus_uconst 0x4]
   10004                            .dwattr $C$DW$609, DW_AT_accessibility(DW_ACCESS_public)
   10005                            .dwattr $C$DW$609, DW_AT_decl_file("C:/ti/simplelink_cc13x0_sdk_2_30_00_20/source/ti/ti154stac
   10006                            .dwattr $C$DW$609, DW_AT_decl_line(0x26b)
   10007                            .dwattr $C$DW$609, DW_AT_decl_column(0x12)
   10008                    
   10009                            .dwattr $C$DW$T$124, DW_AT_decl_file("C:/ti/simplelink_cc13x0_sdk_2_30_00_20/source/ti/ti154st
   10010                            .dwattr $C$DW$T$124, DW_AT_decl_line(0x266)
   10011                            .dwattr $C$DW$T$124, DW_AT_decl_column(0x10)
   10012                            .dwendtag $C$DW$T$124
   10013                    
   10014                    $C$DW$T$405     .dwtag  DW_TAG_typedef
   10015                            .dwattr $C$DW$T$405, DW_AT_name("ICall_GetUint32Args")
   10016                            .dwattr $C$DW$T$405, DW_AT_type(*$C$DW$T$124)
   10017                            .dwattr $C$DW$T$405, DW_AT_language(DW_LANG_C)
   10018                            .dwattr $C$DW$T$405, DW_AT_decl_file("C:/ti/simplelink_cc13x0_sdk_2_30_00_20/source/ti/ti154st
   10019                            .dwattr $C$DW$T$405, DW_AT_decl_line(0x26c)
   10020                            .dwattr $C$DW$T$405, DW_AT_decl_column(0x03)
   10021                    
   10022                    
   10023                    $C$DW$T$126     .dwtag  DW_TAG_structure_type
   10024                            .dwattr $C$DW$T$126, DW_AT_name("_icall_intnum_args_t")
   10025                            .dwattr $C$DW$T$126, DW_AT_byte_size(0x08)
   10026                    $C$DW$610       .dwtag  DW_TAG_member
   10027                            .dwattr $C$DW$610, DW_AT_type(*$C$DW$T$101)
   10028                            .dwattr $C$DW$610, DW_AT_name("hdr")
TI ARM Assembler PC v16.9.9 Sun Nov 25 16:40:48 2018

Tools Copyright (c) 1996-2017 Texas Instruments Incorporated
C:\Users\Stryd\AppData\Local\Temp\{8719FFD6-004A-4401-8DC3-4DA83C6CF1D8} PAGE  184

   10029                            .dwattr $C$DW$610, DW_AT_TI_symbol_name("hdr")
   10030                            .dwattr $C$DW$610, DW_AT_data_member_location[DW_OP_plus_uconst 0x0]
   10031                            .dwattr $C$DW$610, DW_AT_accessibility(DW_ACCESS_public)
   10032                            .dwattr $C$DW$610, DW_AT_decl_file("C:/ti/simplelink_cc13x0_sdk_2_30_00_20/source/ti/ti154stac
   10033                            .dwattr $C$DW$610, DW_AT_decl_line(0x249)
   10034                            .dwattr $C$DW$610, DW_AT_decl_column(0x15)
   10035                    
   10036                    $C$DW$611       .dwtag  DW_TAG_member
   10037                            .dwattr $C$DW$611, DW_AT_type(*$C$DW$T$125)
   10038                            .dwattr $C$DW$611, DW_AT_name("intnum")
   10039                            .dwattr $C$DW$611, DW_AT_TI_symbol_name("intnum")
   10040                            .dwattr $C$DW$611, DW_AT_data_member_location[DW_OP_plus_uconst 0x4]
   10041                            .dwattr $C$DW$611, DW_AT_accessibility(DW_ACCESS_public)
   10042                            .dwattr $C$DW$611, DW_AT_decl_file("C:/ti/simplelink_cc13x0_sdk_2_30_00_20/source/ti/ti154stac
   10043                            .dwattr $C$DW$611, DW_AT_decl_line(0x24b)
   10044                            .dwattr $C$DW$611, DW_AT_decl_column(0x11)
   10045                    
   10046                            .dwattr $C$DW$T$126, DW_AT_decl_file("C:/ti/simplelink_cc13x0_sdk_2_30_00_20/source/ti/ti154st
   10047                            .dwattr $C$DW$T$126, DW_AT_decl_line(0x246)
   10048                            .dwattr $C$DW$T$126, DW_AT_decl_column(0x10)
   10049                            .dwendtag $C$DW$T$126
   10050                    
   10051                    $C$DW$T$407     .dwtag  DW_TAG_typedef
   10052                            .dwattr $C$DW$T$407, DW_AT_name("ICall_IntNumArgs")
   10053                            .dwattr $C$DW$T$407, DW_AT_type(*$C$DW$T$126)
   10054                            .dwattr $C$DW$T$407, DW_AT_language(DW_LANG_C)
   10055                            .dwattr $C$DW$T$407, DW_AT_decl_file("C:/ti/simplelink_cc13x0_sdk_2_30_00_20/source/ti/ti154st
   10056                            .dwattr $C$DW$T$407, DW_AT_decl_line(0x24c)
   10057                            .dwattr $C$DW$T$407, DW_AT_decl_column(0x03)
   10058                    
   10059                    
   10060                    $C$DW$T$127     .dwtag  DW_TAG_structure_type
   10061                            .dwattr $C$DW$T$127, DW_AT_name("_icall_msg_hdr_t")
   10062                            .dwattr $C$DW$T$127, DW_AT_byte_size(0x0c)
   10063                    $C$DW$612       .dwtag  DW_TAG_member
   10064                            .dwattr $C$DW$612, DW_AT_type(*$C$DW$T$3)
   10065                            .dwattr $C$DW$612, DW_AT_name("next")
   10066                            .dwattr $C$DW$612, DW_AT_TI_symbol_name("next")
   10067                            .dwattr $C$DW$612, DW_AT_data_member_location[DW_OP_plus_uconst 0x0]
   10068                            .dwattr $C$DW$612, DW_AT_accessibility(DW_ACCESS_public)
   10069                            .dwattr $C$DW$612, DW_AT_decl_file("C:/ti/simplelink_cc13x0_sdk_2_30_00_20/source/ti/ti154stac
   10070                            .dwattr $C$DW$612, DW_AT_decl_line(0x317)
   10071                            .dwattr $C$DW$612, DW_AT_decl_column(0x0c)
   10072                    
   10073                    $C$DW$613       .dwtag  DW_TAG_member
   10074                            .dwattr $C$DW$613, DW_AT_type(*$C$DW$T$22)
   10075                            .dwattr $C$DW$613, DW_AT_name("srcentity")
   10076                            .dwattr $C$DW$613, DW_AT_TI_symbol_name("srcentity")
   10077                            .dwattr $C$DW$613, DW_AT_data_member_location[DW_OP_plus_uconst 0x4]
   10078                            .dwattr $C$DW$613, DW_AT_accessibility(DW_ACCESS_public)
   10079                            .dwattr $C$DW$613, DW_AT_decl_file("C:/ti/simplelink_cc13x0_sdk_2_30_00_20/source/ti/ti154stac
   10080                            .dwattr $C$DW$613, DW_AT_decl_line(0x318)
   10081                            .dwattr $C$DW$613, DW_AT_decl_column(0x0c)
   10082                    
   10083                    $C$DW$614       .dwtag  DW_TAG_member
TI ARM Assembler PC v16.9.9 Sun Nov 25 16:40:48 2018

Tools Copyright (c) 1996-2017 Texas Instruments Incorporated
C:\Users\Stryd\AppData\Local\Temp\{8719FFD6-004A-4401-8DC3-4DA83C6CF1D8} PAGE  185

   10084                            .dwattr $C$DW$614, DW_AT_type(*$C$DW$T$22)
   10085                            .dwattr $C$DW$614, DW_AT_name("dstentity")
   10086                            .dwattr $C$DW$614, DW_AT_TI_symbol_name("dstentity")
   10087                            .dwattr $C$DW$614, DW_AT_data_member_location[DW_OP_plus_uconst 0x5]
   10088                            .dwattr $C$DW$614, DW_AT_accessibility(DW_ACCESS_public)
   10089                            .dwattr $C$DW$614, DW_AT_decl_file("C:/ti/simplelink_cc13x0_sdk_2_30_00_20/source/ti/ti154stac
   10090                            .dwattr $C$DW$614, DW_AT_decl_line(0x319)
   10091                            .dwattr $C$DW$614, DW_AT_decl_column(0x0c)
   10092                    
   10093                    $C$DW$615       .dwtag  DW_TAG_member
   10094                            .dwattr $C$DW$615, DW_AT_type(*$C$DW$T$22)
   10095                            .dwattr $C$DW$615, DW_AT_name("format")
   10096                            .dwattr $C$DW$615, DW_AT_TI_symbol_name("format")
   10097                            .dwattr $C$DW$615, DW_AT_data_member_location[DW_OP_plus_uconst 0x6]
   10098                            .dwattr $C$DW$615, DW_AT_accessibility(DW_ACCESS_public)
   10099                            .dwattr $C$DW$615, DW_AT_decl_file("C:/ti/simplelink_cc13x0_sdk_2_30_00_20/source/ti/ti154stac
   10100                            .dwattr $C$DW$615, DW_AT_decl_line(0x31a)
   10101                            .dwattr $C$DW$615, DW_AT_decl_column(0x0c)
   10102                    
   10103                    $C$DW$616       .dwtag  DW_TAG_member
   10104                            .dwattr $C$DW$616, DW_AT_type(*$C$DW$T$39)
   10105                            .dwattr $C$DW$616, DW_AT_name("len")
   10106                            .dwattr $C$DW$616, DW_AT_TI_symbol_name("len")
   10107                            .dwattr $C$DW$616, DW_AT_data_member_location[DW_OP_plus_uconst 0x8]
   10108                            .dwattr $C$DW$616, DW_AT_accessibility(DW_ACCESS_public)
   10109                            .dwattr $C$DW$616, DW_AT_decl_file("C:/ti/simplelink_cc13x0_sdk_2_30_00_20/source/ti/ti154stac
   10110                            .dwattr $C$DW$616, DW_AT_decl_line(0x31b)
   10111                            .dwattr $C$DW$616, DW_AT_decl_column(0x0c)
   10112                    
   10113                    $C$DW$617       .dwtag  DW_TAG_member
   10114                            .dwattr $C$DW$617, DW_AT_type(*$C$DW$T$22)
   10115                            .dwattr $C$DW$617, DW_AT_name("dest_id")
   10116                            .dwattr $C$DW$617, DW_AT_TI_symbol_name("dest_id")
   10117                            .dwattr $C$DW$617, DW_AT_data_member_location[DW_OP_plus_uconst 0xa]
   10118                            .dwattr $C$DW$617, DW_AT_accessibility(DW_ACCESS_public)
   10119                            .dwattr $C$DW$617, DW_AT_decl_file("C:/ti/simplelink_cc13x0_sdk_2_30_00_20/source/ti/ti154stac
   10120                            .dwattr $C$DW$617, DW_AT_decl_line(0x31c)
   10121                            .dwattr $C$DW$617, DW_AT_decl_column(0x0c)
   10122                    
   10123                            .dwattr $C$DW$T$127, DW_AT_decl_file("C:/ti/simplelink_cc13x0_sdk_2_30_00_20/source/ti/ti154st
   10124                            .dwattr $C$DW$T$127, DW_AT_decl_line(0x315)
   10125                            .dwattr $C$DW$T$127, DW_AT_decl_column(0x10)
   10126                            .dwendtag $C$DW$T$127
   10127                    
   10128                    $C$DW$T$70      .dwtag  DW_TAG_typedef
   10129                            .dwattr $C$DW$T$70, DW_AT_name("ICall_MsgHdr")
   10130                            .dwattr $C$DW$T$70, DW_AT_type(*$C$DW$T$127)
   10131                            .dwattr $C$DW$T$70, DW_AT_language(DW_LANG_C)
   10132                            .dwattr $C$DW$T$70, DW_AT_decl_file("C:/ti/simplelink_cc13x0_sdk_2_30_00_20/source/ti/ti154sta
   10133                            .dwattr $C$DW$T$70, DW_AT_decl_line(0x31d)
   10134                            .dwattr $C$DW$T$70, DW_AT_decl_column(0x03)
   10135                    
   10136                    $C$DW$T$408     .dwtag  DW_TAG_typedef
   10137                            .dwattr $C$DW$T$408, DW_AT_name("osal_msg_hdr_t")
   10138                            .dwattr $C$DW$T$408, DW_AT_type(*$C$DW$T$70)
TI ARM Assembler PC v16.9.9 Sun Nov 25 16:40:48 2018

Tools Copyright (c) 1996-2017 Texas Instruments Incorporated
C:\Users\Stryd\AppData\Local\Temp\{8719FFD6-004A-4401-8DC3-4DA83C6CF1D8} PAGE  186

   10139                            .dwattr $C$DW$T$408, DW_AT_language(DW_LANG_C)
   10140                            .dwattr $C$DW$T$408, DW_AT_decl_file("..\Application\MAC\OSAL\osal.h")
   10141                            .dwattr $C$DW$T$408, DW_AT_decl_line(0x68)
   10142                            .dwattr $C$DW$T$408, DW_AT_decl_column(0x16)
   10143                    
   10144                    $C$DW$T$409     .dwtag  DW_TAG_pointer_type
   10145                            .dwattr $C$DW$T$409, DW_AT_type(*$C$DW$T$408)
   10146                            .dwattr $C$DW$T$409, DW_AT_address_class(0x20)
   10147                    
   10148                    
   10149                    $C$DW$T$130     .dwtag  DW_TAG_structure_type
   10150                            .dwattr $C$DW$T$130, DW_AT_name("_icall_pwr_bitmap_args_t")
   10151                            .dwattr $C$DW$T$130, DW_AT_byte_size(0x08)
   10152                    $C$DW$618       .dwtag  DW_TAG_member
   10153                            .dwattr $C$DW$618, DW_AT_type(*$C$DW$T$101)
   10154                            .dwattr $C$DW$618, DW_AT_name("hdr")
   10155                            .dwattr $C$DW$618, DW_AT_TI_symbol_name("hdr")
   10156                            .dwattr $C$DW$618, DW_AT_data_member_location[DW_OP_plus_uconst 0x0]
   10157                            .dwattr $C$DW$618, DW_AT_accessibility(DW_ACCESS_public)
   10158                            .dwattr $C$DW$618, DW_AT_decl_file("C:/ti/simplelink_cc13x0_sdk_2_30_00_20/source/ti/ti154stac
   10159                            .dwattr $C$DW$618, DW_AT_decl_line(0x290)
   10160                            .dwattr $C$DW$618, DW_AT_decl_column(0x15)
   10161                    
   10162                    $C$DW$619       .dwtag  DW_TAG_member
   10163                            .dwattr $C$DW$619, DW_AT_type(*$C$DW$T$129)
   10164                            .dwattr $C$DW$619, DW_AT_name("bitmap")
   10165                            .dwattr $C$DW$619, DW_AT_TI_symbol_name("bitmap")
   10166                            .dwattr $C$DW$619, DW_AT_data_member_location[DW_OP_plus_uconst 0x4]
   10167                            .dwattr $C$DW$619, DW_AT_accessibility(DW_ACCESS_public)
   10168                            .dwattr $C$DW$619, DW_AT_decl_file("C:/ti/simplelink_cc13x0_sdk_2_30_00_20/source/ti/ti154stac
   10169                            .dwattr $C$DW$619, DW_AT_decl_line(0x292)
   10170                            .dwattr $C$DW$619, DW_AT_decl_column(0x15)
   10171                    
   10172                            .dwattr $C$DW$T$130, DW_AT_decl_file("C:/ti/simplelink_cc13x0_sdk_2_30_00_20/source/ti/ti154st
   10173                            .dwattr $C$DW$T$130, DW_AT_decl_line(0x28d)
   10174                            .dwattr $C$DW$T$130, DW_AT_decl_column(0x10)
   10175                            .dwendtag $C$DW$T$130
   10176                    
   10177                    $C$DW$T$411     .dwtag  DW_TAG_typedef
   10178                            .dwattr $C$DW$T$411, DW_AT_name("ICall_PwrBitmapArgs")
   10179                            .dwattr $C$DW$T$411, DW_AT_type(*$C$DW$T$130)
   10180                            .dwattr $C$DW$T$411, DW_AT_language(DW_LANG_C)
   10181                            .dwattr $C$DW$T$411, DW_AT_decl_file("C:/ti/simplelink_cc13x0_sdk_2_30_00_20/source/ti/ti154st
   10182                            .dwattr $C$DW$T$411, DW_AT_decl_line(0x293)
   10183                            .dwattr $C$DW$T$411, DW_AT_decl_column(0x03)
   10184                    
   10185                    
   10186                    $C$DW$T$132     .dwtag  DW_TAG_structure_type
   10187                            .dwattr $C$DW$T$132, DW_AT_name("_icall_pwr_get_transition_state_args_t")
   10188                            .dwattr $C$DW$T$132, DW_AT_byte_size(0x08)
   10189                    $C$DW$620       .dwtag  DW_TAG_member
   10190                            .dwattr $C$DW$620, DW_AT_type(*$C$DW$T$101)
   10191                            .dwattr $C$DW$620, DW_AT_name("hdr")
   10192                            .dwattr $C$DW$620, DW_AT_TI_symbol_name("hdr")
   10193                            .dwattr $C$DW$620, DW_AT_data_member_location[DW_OP_plus_uconst 0x0]
TI ARM Assembler PC v16.9.9 Sun Nov 25 16:40:48 2018

Tools Copyright (c) 1996-2017 Texas Instruments Incorporated
C:\Users\Stryd\AppData\Local\Temp\{8719FFD6-004A-4401-8DC3-4DA83C6CF1D8} PAGE  187

   10194                            .dwattr $C$DW$620, DW_AT_accessibility(DW_ACCESS_public)
   10195                            .dwattr $C$DW$620, DW_AT_decl_file("C:/ti/simplelink_cc13x0_sdk_2_30_00_20/source/ti/ti154stac
   10196                            .dwattr $C$DW$620, DW_AT_decl_line(0x29b)
   10197                            .dwattr $C$DW$620, DW_AT_decl_column(0x15)
   10198                    
   10199                    $C$DW$621       .dwtag  DW_TAG_member
   10200                            .dwattr $C$DW$621, DW_AT_type(*$C$DW$T$131)
   10201                            .dwattr $C$DW$621, DW_AT_name("state")
   10202                            .dwattr $C$DW$621, DW_AT_TI_symbol_name("state")
   10203                            .dwattr $C$DW$621, DW_AT_data_member_location[DW_OP_plus_uconst 0x4]
   10204                            .dwattr $C$DW$621, DW_AT_accessibility(DW_ACCESS_public)
   10205                            .dwattr $C$DW$621, DW_AT_decl_file("C:/ti/simplelink_cc13x0_sdk_2_30_00_20/source/ti/ti154stac
   10206                            .dwattr $C$DW$621, DW_AT_decl_line(0x29d)
   10207                            .dwattr $C$DW$621, DW_AT_decl_column(0x10)
   10208                    
   10209                            .dwattr $C$DW$T$132, DW_AT_decl_file("C:/ti/simplelink_cc13x0_sdk_2_30_00_20/source/ti/ti154st
   10210                            .dwattr $C$DW$T$132, DW_AT_decl_line(0x298)
   10211                            .dwattr $C$DW$T$132, DW_AT_decl_column(0x10)
   10212                            .dwendtag $C$DW$T$132
   10213                    
   10214                    $C$DW$T$412     .dwtag  DW_TAG_typedef
   10215                            .dwattr $C$DW$T$412, DW_AT_name("ICall_PwrGetTransitionStateArgs")
   10216                            .dwattr $C$DW$T$412, DW_AT_type(*$C$DW$T$132)
   10217                            .dwattr $C$DW$T$412, DW_AT_language(DW_LANG_C)
   10218                            .dwattr $C$DW$T$412, DW_AT_decl_file("C:/ti/simplelink_cc13x0_sdk_2_30_00_20/source/ti/ti154st
   10219                            .dwattr $C$DW$T$412, DW_AT_decl_line(0x29e)
   10220                            .dwattr $C$DW$T$412, DW_AT_decl_column(0x03)
   10221                    
   10222                    
   10223                    $C$DW$T$133     .dwtag  DW_TAG_structure_type
   10224                            .dwattr $C$DW$T$133, DW_AT_name("_icall_pwr_get_xosc_startup_time_args_t")
   10225                            .dwattr $C$DW$T$133, DW_AT_byte_size(0x0c)
   10226                    $C$DW$622       .dwtag  DW_TAG_member
   10227                            .dwattr $C$DW$622, DW_AT_type(*$C$DW$T$101)
   10228                            .dwattr $C$DW$622, DW_AT_name("hdr")
   10229                            .dwattr $C$DW$622, DW_AT_TI_symbol_name("hdr")
   10230                            .dwattr $C$DW$622, DW_AT_data_member_location[DW_OP_plus_uconst 0x0]
   10231                            .dwattr $C$DW$622, DW_AT_accessibility(DW_ACCESS_public)
   10232                            .dwattr $C$DW$622, DW_AT_decl_file("C:/ti/simplelink_cc13x0_sdk_2_30_00_20/source/ti/ti154stac
   10233                            .dwattr $C$DW$622, DW_AT_decl_line(0x2a6)
   10234                            .dwattr $C$DW$622, DW_AT_decl_column(0x15)
   10235                    
   10236                    $C$DW$623       .dwtag  DW_TAG_member
   10237                            .dwattr $C$DW$623, DW_AT_type(*$C$DW$T$66)
   10238                            .dwattr $C$DW$623, DW_AT_name("timeUntilWakeupInMs")
   10239                            .dwattr $C$DW$623, DW_AT_TI_symbol_name("timeUntilWakeupInMs")
   10240                            .dwattr $C$DW$623, DW_AT_data_member_location[DW_OP_plus_uconst 0x4]
   10241                            .dwattr $C$DW$623, DW_AT_accessibility(DW_ACCESS_public)
   10242                            .dwattr $C$DW$623, DW_AT_decl_file("C:/ti/simplelink_cc13x0_sdk_2_30_00_20/source/ti/ti154stac
   10243                            .dwattr $C$DW$623, DW_AT_decl_line(0x2a8)
   10244                            .dwattr $C$DW$623, DW_AT_decl_column(0x12)
   10245                    
   10246                    $C$DW$624       .dwtag  DW_TAG_member
   10247                            .dwattr $C$DW$624, DW_AT_type(*$C$DW$T$66)
   10248                            .dwattr $C$DW$624, DW_AT_name("value")
TI ARM Assembler PC v16.9.9 Sun Nov 25 16:40:48 2018

Tools Copyright (c) 1996-2017 Texas Instruments Incorporated
C:\Users\Stryd\AppData\Local\Temp\{8719FFD6-004A-4401-8DC3-4DA83C6CF1D8} PAGE  188

   10249                            .dwattr $C$DW$624, DW_AT_TI_symbol_name("value")
   10250                            .dwattr $C$DW$624, DW_AT_data_member_location[DW_OP_plus_uconst 0x8]
   10251                            .dwattr $C$DW$624, DW_AT_accessibility(DW_ACCESS_public)
   10252                            .dwattr $C$DW$624, DW_AT_decl_file("C:/ti/simplelink_cc13x0_sdk_2_30_00_20/source/ti/ti154stac
   10253                            .dwattr $C$DW$624, DW_AT_decl_line(0x2aa)
   10254                            .dwattr $C$DW$624, DW_AT_decl_column(0x12)
   10255                    
   10256                            .dwattr $C$DW$T$133, DW_AT_decl_file("C:/ti/simplelink_cc13x0_sdk_2_30_00_20/source/ti/ti154st
   10257                            .dwattr $C$DW$T$133, DW_AT_decl_line(0x2a3)
   10258                            .dwattr $C$DW$T$133, DW_AT_decl_column(0x10)
   10259                            .dwendtag $C$DW$T$133
   10260                    
   10261                    $C$DW$T$413     .dwtag  DW_TAG_typedef
   10262                            .dwattr $C$DW$T$413, DW_AT_name("ICall_PwrGetXOSCStartupTimeArgs")
   10263                            .dwattr $C$DW$T$413, DW_AT_type(*$C$DW$T$133)
   10264                            .dwattr $C$DW$T$413, DW_AT_language(DW_LANG_C)
   10265                            .dwattr $C$DW$T$413, DW_AT_decl_file("C:/ti/simplelink_cc13x0_sdk_2_30_00_20/source/ti/ti154st
   10266                            .dwattr $C$DW$T$413, DW_AT_decl_line(0x2ab)
   10267                            .dwattr $C$DW$T$413, DW_AT_decl_column(0x03)
   10268                    
   10269                    
   10270                    $C$DW$T$139     .dwtag  DW_TAG_structure_type
   10271                            .dwattr $C$DW$T$139, DW_AT_name("_icall_pwr_notify_data_t")
   10272                            .dwattr $C$DW$T$139, DW_AT_byte_size(0x04)
   10273                    $C$DW$625       .dwtag  DW_TAG_member
   10274                            .dwattr $C$DW$625, DW_AT_type(*$C$DW$T$138)
   10275                            .dwattr $C$DW$625, DW_AT_name("_private")
   10276                            .dwattr $C$DW$625, DW_AT_TI_symbol_name("_private")
   10277                            .dwattr $C$DW$625, DW_AT_data_member_location[DW_OP_plus_uconst 0x0]
   10278                            .dwattr $C$DW$625, DW_AT_accessibility(DW_ACCESS_public)
   10279                            .dwattr $C$DW$625, DW_AT_decl_file("C:/ti/simplelink_cc13x0_sdk_2_30_00_20/source/ti/ti154stac
   10280                            .dwattr $C$DW$625, DW_AT_decl_line(0x33f)
   10281                            .dwattr $C$DW$625, DW_AT_decl_column(0x15)
   10282                    
   10283                            .dwattr $C$DW$T$139, DW_AT_decl_file("C:/ti/simplelink_cc13x0_sdk_2_30_00_20/source/ti/ti154st
   10284                            .dwattr $C$DW$T$139, DW_AT_decl_line(0x339)
   10285                            .dwattr $C$DW$T$139, DW_AT_decl_column(0x10)
   10286                            .dwendtag $C$DW$T$139
   10287                    
   10288                    $C$DW$T$140     .dwtag  DW_TAG_typedef
   10289                            .dwattr $C$DW$T$140, DW_AT_name("ICall_PwrNotifyData")
   10290                            .dwattr $C$DW$T$140, DW_AT_type(*$C$DW$T$139)
   10291                            .dwattr $C$DW$T$140, DW_AT_language(DW_LANG_C)
   10292                            .dwattr $C$DW$T$140, DW_AT_decl_file("C:/ti/simplelink_cc13x0_sdk_2_30_00_20/source/ti/ti154st
   10293                            .dwattr $C$DW$T$140, DW_AT_decl_line(0x340)
   10294                            .dwattr $C$DW$T$140, DW_AT_decl_column(0x03)
   10295                    
   10296                    $C$DW$T$141     .dwtag  DW_TAG_pointer_type
   10297                            .dwattr $C$DW$T$141, DW_AT_type(*$C$DW$T$140)
   10298                            .dwattr $C$DW$T$141, DW_AT_address_class(0x20)
   10299                    
   10300                    $C$DW$T$135     .dwtag  DW_TAG_pointer_type
   10301                            .dwattr $C$DW$T$135, DW_AT_type(*$C$DW$T$139)
   10302                            .dwattr $C$DW$T$135, DW_AT_address_class(0x20)
   10303                    
TI ARM Assembler PC v16.9.9 Sun Nov 25 16:40:48 2018

Tools Copyright (c) 1996-2017 Texas Instruments Incorporated
C:\Users\Stryd\AppData\Local\Temp\{8719FFD6-004A-4401-8DC3-4DA83C6CF1D8} PAGE  189

   10304                    
   10305                    $C$DW$T$142     .dwtag  DW_TAG_structure_type
   10306                            .dwattr $C$DW$T$142, DW_AT_name("_icall_pwr_register_notify_args_t")
   10307                            .dwattr $C$DW$T$142, DW_AT_byte_size(0x0c)
   10308                    $C$DW$626       .dwtag  DW_TAG_member
   10309                            .dwattr $C$DW$626, DW_AT_type(*$C$DW$T$101)
   10310                            .dwattr $C$DW$626, DW_AT_name("hdr")
   10311                            .dwattr $C$DW$626, DW_AT_TI_symbol_name("hdr")
   10312                            .dwattr $C$DW$626, DW_AT_data_member_location[DW_OP_plus_uconst 0x0]
   10313                            .dwattr $C$DW$626, DW_AT_accessibility(DW_ACCESS_public)
   10314                            .dwattr $C$DW$626, DW_AT_decl_file("C:/ti/simplelink_cc13x0_sdk_2_30_00_20/source/ti/ti154stac
   10315                            .dwattr $C$DW$626, DW_AT_decl_line(0x346)
   10316                            .dwattr $C$DW$626, DW_AT_decl_column(0x15)
   10317                    
   10318                    $C$DW$627       .dwtag  DW_TAG_member
   10319                            .dwattr $C$DW$627, DW_AT_type(*$C$DW$T$138)
   10320                            .dwattr $C$DW$627, DW_AT_name("fn")
   10321                            .dwattr $C$DW$627, DW_AT_TI_symbol_name("fn")
   10322                            .dwattr $C$DW$627, DW_AT_data_member_location[DW_OP_plus_uconst 0x4]
   10323                            .dwattr $C$DW$627, DW_AT_accessibility(DW_ACCESS_public)
   10324                            .dwattr $C$DW$627, DW_AT_decl_file("C:/ti/simplelink_cc13x0_sdk_2_30_00_20/source/ti/ti154stac
   10325                            .dwattr $C$DW$627, DW_AT_decl_line(0x348)
   10326                            .dwattr $C$DW$627, DW_AT_decl_column(0x15)
   10327                    
   10328                    $C$DW$628       .dwtag  DW_TAG_member
   10329                            .dwattr $C$DW$628, DW_AT_type(*$C$DW$T$141)
   10330                            .dwattr $C$DW$628, DW_AT_name("obj")
   10331                            .dwattr $C$DW$628, DW_AT_TI_symbol_name("obj")
   10332                            .dwattr $C$DW$628, DW_AT_data_member_location[DW_OP_plus_uconst 0x8]
   10333                            .dwattr $C$DW$628, DW_AT_accessibility(DW_ACCESS_public)
   10334                            .dwattr $C$DW$628, DW_AT_decl_file("C:/ti/simplelink_cc13x0_sdk_2_30_00_20/source/ti/ti154stac
   10335                            .dwattr $C$DW$628, DW_AT_decl_line(0x34a)
   10336                            .dwattr $C$DW$628, DW_AT_decl_column(0x18)
   10337                    
   10338                            .dwattr $C$DW$T$142, DW_AT_decl_file("C:/ti/simplelink_cc13x0_sdk_2_30_00_20/source/ti/ti154st
   10339                            .dwattr $C$DW$T$142, DW_AT_decl_line(0x343)
   10340                            .dwattr $C$DW$T$142, DW_AT_decl_column(0x10)
   10341                            .dwendtag $C$DW$T$142
   10342                    
   10343                    $C$DW$T$414     .dwtag  DW_TAG_typedef
   10344                            .dwattr $C$DW$T$414, DW_AT_name("ICall_PwrRegisterNotifyArgs")
   10345                            .dwattr $C$DW$T$414, DW_AT_type(*$C$DW$T$142)
   10346                            .dwattr $C$DW$T$414, DW_AT_language(DW_LANG_C)
   10347                            .dwattr $C$DW$T$414, DW_AT_decl_file("C:/ti/simplelink_cc13x0_sdk_2_30_00_20/source/ti/ti154st
   10348                            .dwattr $C$DW$T$414, DW_AT_decl_line(0x34b)
   10349                            .dwattr $C$DW$T$414, DW_AT_decl_column(0x03)
   10350                    
   10351                    
   10352                    $C$DW$T$143     .dwtag  DW_TAG_structure_type
   10353                            .dwattr $C$DW$T$143, DW_AT_name("_icall_pwr_upd_activity_counter_args_t")
   10354                            .dwattr $C$DW$T$143, DW_AT_byte_size(0x06)
   10355                    $C$DW$629       .dwtag  DW_TAG_member
   10356                            .dwattr $C$DW$629, DW_AT_type(*$C$DW$T$101)
   10357                            .dwattr $C$DW$629, DW_AT_name("hdr")
   10358                            .dwattr $C$DW$629, DW_AT_TI_symbol_name("hdr")
TI ARM Assembler PC v16.9.9 Sun Nov 25 16:40:48 2018

Tools Copyright (c) 1996-2017 Texas Instruments Incorporated
C:\Users\Stryd\AppData\Local\Temp\{8719FFD6-004A-4401-8DC3-4DA83C6CF1D8} PAGE  190

   10359                            .dwattr $C$DW$629, DW_AT_data_member_location[DW_OP_plus_uconst 0x0]
   10360                            .dwattr $C$DW$629, DW_AT_accessibility(DW_ACCESS_public)
   10361                            .dwattr $C$DW$629, DW_AT_decl_file("C:/ti/simplelink_cc13x0_sdk_2_30_00_20/source/ti/ti154stac
   10362                            .dwattr $C$DW$629, DW_AT_decl_line(0x27d)
   10363                            .dwattr $C$DW$629, DW_AT_decl_column(0x15)
   10364                    
   10365                    $C$DW$630       .dwtag  DW_TAG_member
   10366                            .dwattr $C$DW$630, DW_AT_type(*$C$DW$T$79)
   10367                            .dwattr $C$DW$630, DW_AT_name("incFlag")
   10368                            .dwattr $C$DW$630, DW_AT_TI_symbol_name("incFlag")
   10369                            .dwattr $C$DW$630, DW_AT_data_member_location[DW_OP_plus_uconst 0x4]
   10370                            .dwattr $C$DW$630, DW_AT_accessibility(DW_ACCESS_public)
   10371                            .dwattr $C$DW$630, DW_AT_decl_file("C:/ti/simplelink_cc13x0_sdk_2_30_00_20/source/ti/ti154stac
   10372                            .dwattr $C$DW$630, DW_AT_decl_line(0x27f)
   10373                            .dwattr $C$DW$630, DW_AT_decl_column(0x08)
   10374                    
   10375                    $C$DW$631       .dwtag  DW_TAG_member
   10376                            .dwattr $C$DW$631, DW_AT_type(*$C$DW$T$79)
   10377                            .dwattr $C$DW$631, DW_AT_name("pwrRequired")
   10378                            .dwattr $C$DW$631, DW_AT_TI_symbol_name("pwrRequired")
   10379                            .dwattr $C$DW$631, DW_AT_data_member_location[DW_OP_plus_uconst 0x5]
   10380                            .dwattr $C$DW$631, DW_AT_accessibility(DW_ACCESS_public)
   10381                            .dwattr $C$DW$631, DW_AT_decl_file("C:/ti/simplelink_cc13x0_sdk_2_30_00_20/source/ti/ti154stac
   10382                            .dwattr $C$DW$631, DW_AT_decl_line(0x281)
   10383                            .dwattr $C$DW$631, DW_AT_decl_column(0x08)
   10384                    
   10385                            .dwattr $C$DW$T$143, DW_AT_decl_file("C:/ti/simplelink_cc13x0_sdk_2_30_00_20/source/ti/ti154st
   10386                            .dwattr $C$DW$T$143, DW_AT_decl_line(0x27a)
   10387                            .dwattr $C$DW$T$143, DW_AT_decl_column(0x10)
   10388                            .dwendtag $C$DW$T$143
   10389                    
   10390                    $C$DW$T$415     .dwtag  DW_TAG_typedef
   10391                            .dwattr $C$DW$T$415, DW_AT_name("ICall_PwrUpdActivityCounterArgs")
   10392                            .dwattr $C$DW$T$415, DW_AT_type(*$C$DW$T$143)
   10393                            .dwattr $C$DW$T$415, DW_AT_language(DW_LANG_C)
   10394                            .dwattr $C$DW$T$415, DW_AT_decl_file("C:/ti/simplelink_cc13x0_sdk_2_30_00_20/source/ti/ti154st
   10395                            .dwattr $C$DW$T$415, DW_AT_decl_line(0x282)
   10396                            .dwattr $C$DW$T$415, DW_AT_decl_column(0x03)
   10397                    
   10398                    
   10399                    $C$DW$T$144     .dwtag  DW_TAG_structure_type
   10400                            .dwattr $C$DW$T$144, DW_AT_name("_icall_register_app_args_t")
   10401                            .dwattr $C$DW$T$144, DW_AT_byte_size(0x0c)
   10402                    $C$DW$632       .dwtag  DW_TAG_member
   10403                            .dwattr $C$DW$632, DW_AT_type(*$C$DW$T$101)
   10404                            .dwattr $C$DW$632, DW_AT_name("hdr")
   10405                            .dwattr $C$DW$632, DW_AT_TI_symbol_name("hdr")
   10406                            .dwattr $C$DW$632, DW_AT_data_member_location[DW_OP_plus_uconst 0x0]
   10407                            .dwattr $C$DW$632, DW_AT_accessibility(DW_ACCESS_public)
   10408                            .dwattr $C$DW$632, DW_AT_decl_file("C:/ti/simplelink_cc13x0_sdk_2_30_00_20/source/ti/ti154stac
   10409                            .dwattr $C$DW$632, DW_AT_decl_line(0x1d7)
   10410                            .dwattr $C$DW$632, DW_AT_decl_column(0x15)
   10411                    
   10412                    $C$DW$633       .dwtag  DW_TAG_member
   10413                            .dwattr $C$DW$633, DW_AT_type(*$C$DW$T$89)
TI ARM Assembler PC v16.9.9 Sun Nov 25 16:40:48 2018

Tools Copyright (c) 1996-2017 Texas Instruments Incorporated
C:\Users\Stryd\AppData\Local\Temp\{8719FFD6-004A-4401-8DC3-4DA83C6CF1D8} PAGE  191

   10414                            .dwattr $C$DW$633, DW_AT_name("entity")
   10415                            .dwattr $C$DW$633, DW_AT_TI_symbol_name("entity")
   10416                            .dwattr $C$DW$633, DW_AT_data_member_location[DW_OP_plus_uconst 0x4]
   10417                            .dwattr $C$DW$633, DW_AT_accessibility(DW_ACCESS_public)
   10418                            .dwattr $C$DW$633, DW_AT_decl_file("C:/ti/simplelink_cc13x0_sdk_2_30_00_20/source/ti/ti154stac
   10419                            .dwattr $C$DW$633, DW_AT_decl_line(0x1d9)
   10420                            .dwattr $C$DW$633, DW_AT_decl_column(0x15)
   10421                    
   10422                    $C$DW$634       .dwtag  DW_TAG_member
   10423                            .dwattr $C$DW$634, DW_AT_type(*$C$DW$T$114)
   10424                            .dwattr $C$DW$634, DW_AT_name("msgSyncHdl")
   10425                            .dwattr $C$DW$634, DW_AT_TI_symbol_name("msgSyncHdl")
   10426                            .dwattr $C$DW$634, DW_AT_data_member_location[DW_OP_plus_uconst 0x8]
   10427                            .dwattr $C$DW$634, DW_AT_accessibility(DW_ACCESS_public)
   10428                            .dwattr $C$DW$634, DW_AT_decl_file("C:/ti/simplelink_cc13x0_sdk_2_30_00_20/source/ti/ti154stac
   10429                            .dwattr $C$DW$634, DW_AT_decl_line(0x1dc)
   10430                            .dwattr $C$DW$634, DW_AT_decl_column(0x16)
   10431                    
   10432                            .dwattr $C$DW$T$144, DW_AT_decl_file("C:/ti/simplelink_cc13x0_sdk_2_30_00_20/source/ti/ti154st
   10433                            .dwattr $C$DW$T$144, DW_AT_decl_line(0x1d4)
   10434                            .dwattr $C$DW$T$144, DW_AT_decl_column(0x10)
   10435                            .dwendtag $C$DW$T$144
   10436                    
   10437                    $C$DW$T$416     .dwtag  DW_TAG_typedef
   10438                            .dwattr $C$DW$T$416, DW_AT_name("ICall_RegisterAppArgs")
   10439                            .dwattr $C$DW$T$416, DW_AT_type(*$C$DW$T$144)
   10440                            .dwattr $C$DW$T$416, DW_AT_language(DW_LANG_C)
   10441                            .dwattr $C$DW$T$416, DW_AT_decl_file("C:/ti/simplelink_cc13x0_sdk_2_30_00_20/source/ti/ti154st
   10442                            .dwattr $C$DW$T$416, DW_AT_decl_line(0x1dd)
   10443                            .dwattr $C$DW$T$416, DW_AT_decl_column(0x03)
   10444                    
   10445                    
   10446                    $C$DW$T$145     .dwtag  DW_TAG_structure_type
   10447                            .dwattr $C$DW$T$145, DW_AT_name("_icall_register_isr_args_ext_t")
   10448                            .dwattr $C$DW$T$145, DW_AT_byte_size(0x10)
   10449                    $C$DW$635       .dwtag  DW_TAG_member
   10450                            .dwattr $C$DW$635, DW_AT_type(*$C$DW$T$101)
   10451                            .dwattr $C$DW$635, DW_AT_name("hdr")
   10452                            .dwattr $C$DW$635, DW_AT_TI_symbol_name("hdr")
   10453                            .dwattr $C$DW$635, DW_AT_data_member_location[DW_OP_plus_uconst 0x0]
   10454                            .dwattr $C$DW$635, DW_AT_accessibility(DW_ACCESS_public)
   10455                            .dwattr $C$DW$635, DW_AT_decl_file("C:/ti/simplelink_cc13x0_sdk_2_30_00_20/source/ti/ti154stac
   10456                            .dwattr $C$DW$635, DW_AT_decl_line(0x25c)
   10457                            .dwattr $C$DW$635, DW_AT_decl_column(0x15)
   10458                    
   10459                    $C$DW$636       .dwtag  DW_TAG_member
   10460                            .dwattr $C$DW$636, DW_AT_type(*$C$DW$T$125)
   10461                            .dwattr $C$DW$636, DW_AT_name("intnum")
   10462                            .dwattr $C$DW$636, DW_AT_TI_symbol_name("intnum")
   10463                            .dwattr $C$DW$636, DW_AT_data_member_location[DW_OP_plus_uconst 0x4]
   10464                            .dwattr $C$DW$636, DW_AT_accessibility(DW_ACCESS_public)
   10465                            .dwattr $C$DW$636, DW_AT_decl_file("C:/ti/simplelink_cc13x0_sdk_2_30_00_20/source/ti/ti154stac
   10466                            .dwattr $C$DW$636, DW_AT_decl_line(0x25d)
   10467                            .dwattr $C$DW$636, DW_AT_decl_column(0x15)
   10468                    
TI ARM Assembler PC v16.9.9 Sun Nov 25 16:40:48 2018

Tools Copyright (c) 1996-2017 Texas Instruments Incorporated
C:\Users\Stryd\AppData\Local\Temp\{8719FFD6-004A-4401-8DC3-4DA83C6CF1D8} PAGE  192

   10469                    $C$DW$637       .dwtag  DW_TAG_member
   10470                            .dwattr $C$DW$637, DW_AT_type(*$C$DW$T$37)
   10471                            .dwattr $C$DW$637, DW_AT_name("isrfunc")
   10472                            .dwattr $C$DW$637, DW_AT_TI_symbol_name("isrfunc")
   10473                            .dwattr $C$DW$637, DW_AT_data_member_location[DW_OP_plus_uconst 0x8]
   10474                            .dwattr $C$DW$637, DW_AT_accessibility(DW_ACCESS_public)
   10475                            .dwattr $C$DW$637, DW_AT_decl_file("C:/ti/simplelink_cc13x0_sdk_2_30_00_20/source/ti/ti154stac
   10476                            .dwattr $C$DW$637, DW_AT_decl_line(0x25e)
   10477                            .dwattr $C$DW$637, DW_AT_decl_column(0x17)
   10478                    
   10479                    $C$DW$638       .dwtag  DW_TAG_member
   10480                            .dwattr $C$DW$638, DW_AT_type(*$C$DW$T$10)
   10481                            .dwattr $C$DW$638, DW_AT_name("intPriority")
   10482                            .dwattr $C$DW$638, DW_AT_TI_symbol_name("intPriority")
   10483                            .dwattr $C$DW$638, DW_AT_data_member_location[DW_OP_plus_uconst 0xc]
   10484                            .dwattr $C$DW$638, DW_AT_accessibility(DW_ACCESS_public)
   10485                            .dwattr $C$DW$638, DW_AT_decl_file("C:/ti/simplelink_cc13x0_sdk_2_30_00_20/source/ti/ti154stac
   10486                            .dwattr $C$DW$638, DW_AT_decl_line(0x25f)
   10487                            .dwattr $C$DW$638, DW_AT_decl_column(0x15)
   10488                    
   10489                            .dwattr $C$DW$T$145, DW_AT_decl_file("C:/ti/simplelink_cc13x0_sdk_2_30_00_20/source/ti/ti154st
   10490                            .dwattr $C$DW$T$145, DW_AT_decl_line(0x25a)
   10491                            .dwattr $C$DW$T$145, DW_AT_decl_column(0x10)
   10492                            .dwendtag $C$DW$T$145
   10493                    
   10494                    $C$DW$T$417     .dwtag  DW_TAG_typedef
   10495                            .dwattr $C$DW$T$417, DW_AT_name("ICall_RegisterISRArgs_Ext")
   10496                            .dwattr $C$DW$T$417, DW_AT_type(*$C$DW$T$145)
   10497                            .dwattr $C$DW$T$417, DW_AT_language(DW_LANG_C)
   10498                            .dwattr $C$DW$T$417, DW_AT_decl_file("C:/ti/simplelink_cc13x0_sdk_2_30_00_20/source/ti/ti154st
   10499                            .dwattr $C$DW$T$417, DW_AT_decl_line(0x260)
   10500                            .dwattr $C$DW$T$417, DW_AT_decl_column(0x03)
   10501                    
   10502                    
   10503                    $C$DW$T$146     .dwtag  DW_TAG_structure_type
   10504                            .dwattr $C$DW$T$146, DW_AT_name("_icall_register_isr_args_t")
   10505                            .dwattr $C$DW$T$146, DW_AT_byte_size(0x0c)
   10506                    $C$DW$639       .dwtag  DW_TAG_member
   10507                            .dwattr $C$DW$639, DW_AT_type(*$C$DW$T$101)
   10508                            .dwattr $C$DW$639, DW_AT_name("hdr")
   10509                            .dwattr $C$DW$639, DW_AT_TI_symbol_name("hdr")
   10510                            .dwattr $C$DW$639, DW_AT_data_member_location[DW_OP_plus_uconst 0x0]
   10511                            .dwattr $C$DW$639, DW_AT_accessibility(DW_ACCESS_public)
   10512                            .dwattr $C$DW$639, DW_AT_decl_file("C:/ti/simplelink_cc13x0_sdk_2_30_00_20/source/ti/ti154stac
   10513                            .dwattr $C$DW$639, DW_AT_decl_line(0x252)
   10514                            .dwattr $C$DW$639, DW_AT_decl_column(0x15)
   10515                    
   10516                    $C$DW$640       .dwtag  DW_TAG_member
   10517                            .dwattr $C$DW$640, DW_AT_type(*$C$DW$T$125)
   10518                            .dwattr $C$DW$640, DW_AT_name("intnum")
   10519                            .dwattr $C$DW$640, DW_AT_TI_symbol_name("intnum")
   10520                            .dwattr $C$DW$640, DW_AT_data_member_location[DW_OP_plus_uconst 0x4]
   10521                            .dwattr $C$DW$640, DW_AT_accessibility(DW_ACCESS_public)
   10522                            .dwattr $C$DW$640, DW_AT_decl_file("C:/ti/simplelink_cc13x0_sdk_2_30_00_20/source/ti/ti154stac
   10523                            .dwattr $C$DW$640, DW_AT_decl_line(0x254)
TI ARM Assembler PC v16.9.9 Sun Nov 25 16:40:48 2018

Tools Copyright (c) 1996-2017 Texas Instruments Incorporated
C:\Users\Stryd\AppData\Local\Temp\{8719FFD6-004A-4401-8DC3-4DA83C6CF1D8} PAGE  193

   10524                            .dwattr $C$DW$640, DW_AT_decl_column(0x11)
   10525                    
   10526                    $C$DW$641       .dwtag  DW_TAG_member
   10527                            .dwattr $C$DW$641, DW_AT_type(*$C$DW$T$37)
   10528                            .dwattr $C$DW$641, DW_AT_name("isrfunc")
   10529                            .dwattr $C$DW$641, DW_AT_TI_symbol_name("isrfunc")
   10530                            .dwattr $C$DW$641, DW_AT_data_member_location[DW_OP_plus_uconst 0x8]
   10531                            .dwattr $C$DW$641, DW_AT_accessibility(DW_ACCESS_public)
   10532                            .dwattr $C$DW$641, DW_AT_decl_file("C:/ti/simplelink_cc13x0_sdk_2_30_00_20/source/ti/ti154stac
   10533                            .dwattr $C$DW$641, DW_AT_decl_line(0x256)
   10534                            .dwattr $C$DW$641, DW_AT_decl_column(0x0a)
   10535                    
   10536                            .dwattr $C$DW$T$146, DW_AT_decl_file("C:/ti/simplelink_cc13x0_sdk_2_30_00_20/source/ti/ti154st
   10537                            .dwattr $C$DW$T$146, DW_AT_decl_line(0x24f)
   10538                            .dwattr $C$DW$T$146, DW_AT_decl_column(0x10)
   10539                            .dwendtag $C$DW$T$146
   10540                    
   10541                    $C$DW$T$418     .dwtag  DW_TAG_typedef
   10542                            .dwattr $C$DW$T$418, DW_AT_name("ICall_RegisterISRArgs")
   10543                            .dwattr $C$DW$T$418, DW_AT_type(*$C$DW$T$146)
   10544                            .dwattr $C$DW$T$418, DW_AT_language(DW_LANG_C)
   10545                            .dwattr $C$DW$T$418, DW_AT_decl_file("C:/ti/simplelink_cc13x0_sdk_2_30_00_20/source/ti/ti154st
   10546                            .dwattr $C$DW$T$418, DW_AT_decl_line(0x257)
   10547                            .dwattr $C$DW$T$418, DW_AT_decl_column(0x03)
   10548                    
   10549                    
   10550                    $C$DW$T$155     .dwtag  DW_TAG_structure_type
   10551                            .dwattr $C$DW$T$155, DW_AT_name("_icall_remote_task_arg_t")
   10552                            .dwattr $C$DW$T$155, DW_AT_byte_size(0x0c)
   10553                    $C$DW$642       .dwtag  DW_TAG_member
   10554                            .dwattr $C$DW$642, DW_AT_type(*$C$DW$T$147)
   10555                            .dwattr $C$DW$642, DW_AT_name("dispatch")
   10556                            .dwattr $C$DW$642, DW_AT_TI_symbol_name("dispatch")
   10557                            .dwattr $C$DW$642, DW_AT_data_member_location[DW_OP_plus_uconst 0x0]
   10558                            .dwattr $C$DW$642, DW_AT_accessibility(DW_ACCESS_public)
   10559                            .dwattr $C$DW$642, DW_AT_decl_file("C:/ti/simplelink_cc13x0_sdk_2_30_00_20/source/ti/ti154stac
   10560                            .dwattr $C$DW$642, DW_AT_decl_line(0x38d)
   10561                            .dwattr $C$DW$642, DW_AT_decl_column(0x14)
   10562                    
   10563                    $C$DW$643       .dwtag  DW_TAG_member
   10564                            .dwattr $C$DW$643, DW_AT_type(*$C$DW$T$151)
   10565                            .dwattr $C$DW$643, DW_AT_name("entercs")
   10566                            .dwattr $C$DW$643, DW_AT_TI_symbol_name("entercs")
   10567                            .dwattr $C$DW$643, DW_AT_data_member_location[DW_OP_plus_uconst 0x4]
   10568                            .dwattr $C$DW$643, DW_AT_accessibility(DW_ACCESS_public)
   10569                            .dwattr $C$DW$643, DW_AT_decl_file("C:/ti/simplelink_cc13x0_sdk_2_30_00_20/source/ti/ti154stac
   10570                            .dwattr $C$DW$643, DW_AT_decl_line(0x38e)
   10571                            .dwattr $C$DW$643, DW_AT_decl_column(0x11)
   10572                    
   10573                    $C$DW$644       .dwtag  DW_TAG_member
   10574                            .dwattr $C$DW$644, DW_AT_type(*$C$DW$T$154)
   10575                            .dwattr $C$DW$644, DW_AT_name("leavecs")
   10576                            .dwattr $C$DW$644, DW_AT_TI_symbol_name("leavecs")
   10577                            .dwattr $C$DW$644, DW_AT_data_member_location[DW_OP_plus_uconst 0x8]
   10578                            .dwattr $C$DW$644, DW_AT_accessibility(DW_ACCESS_public)
TI ARM Assembler PC v16.9.9 Sun Nov 25 16:40:48 2018

Tools Copyright (c) 1996-2017 Texas Instruments Incorporated
C:\Users\Stryd\AppData\Local\Temp\{8719FFD6-004A-4401-8DC3-4DA83C6CF1D8} PAGE  194

   10579                            .dwattr $C$DW$644, DW_AT_decl_file("C:/ti/simplelink_cc13x0_sdk_2_30_00_20/source/ti/ti154stac
   10580                            .dwattr $C$DW$644, DW_AT_decl_line(0x38f)
   10581                            .dwattr $C$DW$644, DW_AT_decl_column(0x11)
   10582                    
   10583                            .dwattr $C$DW$T$155, DW_AT_decl_file("C:/ti/simplelink_cc13x0_sdk_2_30_00_20/source/ti/ti154st
   10584                            .dwattr $C$DW$T$155, DW_AT_decl_line(0x38b)
   10585                            .dwattr $C$DW$T$155, DW_AT_decl_column(0x10)
   10586                            .dwendtag $C$DW$T$155
   10587                    
   10588                    $C$DW$T$238     .dwtag  DW_TAG_typedef
   10589                            .dwattr $C$DW$T$238, DW_AT_name("ICall_RemoteTaskArg")
   10590                            .dwattr $C$DW$T$238, DW_AT_type(*$C$DW$T$155)
   10591                            .dwattr $C$DW$T$238, DW_AT_language(DW_LANG_C)
   10592                            .dwattr $C$DW$T$238, DW_AT_decl_file("C:/ti/simplelink_cc13x0_sdk_2_30_00_20/source/ti/ti154st
   10593                            .dwattr $C$DW$T$238, DW_AT_decl_line(0x390)
   10594                            .dwattr $C$DW$T$238, DW_AT_decl_column(0x03)
   10595                    
   10596                    $C$DW$T$239     .dwtag  DW_TAG_const_type
   10597                            .dwattr $C$DW$T$239, DW_AT_type(*$C$DW$T$238)
   10598                    
   10599                    $C$DW$T$240     .dwtag  DW_TAG_pointer_type
   10600                            .dwattr $C$DW$T$240, DW_AT_type(*$C$DW$T$239)
   10601                            .dwattr $C$DW$T$240, DW_AT_address_class(0x20)
   10602                    
   10603                    
   10604                    $C$DW$T$157     .dwtag  DW_TAG_structure_type
   10605                            .dwattr $C$DW$T$157, DW_AT_name("_icall_send_args_t")
   10606                            .dwattr $C$DW$T$157, DW_AT_byte_size(0x10)
   10607                    $C$DW$645       .dwtag  DW_TAG_member
   10608                            .dwattr $C$DW$645, DW_AT_type(*$C$DW$T$101)
   10609                            .dwattr $C$DW$645, DW_AT_name("hdr")
   10610                            .dwattr $C$DW$645, DW_AT_TI_symbol_name("hdr")
   10611                            .dwattr $C$DW$645, DW_AT_data_member_location[DW_OP_plus_uconst 0x0]
   10612                            .dwattr $C$DW$645, DW_AT_accessibility(DW_ACCESS_public)
   10613                            .dwattr $C$DW$645, DW_AT_decl_file("C:/ti/simplelink_cc13x0_sdk_2_30_00_20/source/ti/ti154stac
   10614                            .dwattr $C$DW$645, DW_AT_decl_line(0x1f7)
   10615                            .dwattr $C$DW$645, DW_AT_decl_column(0x15)
   10616                    
   10617                    $C$DW$646       .dwtag  DW_TAG_member
   10618                            .dwattr $C$DW$646, DW_AT_type(*$C$DW$T$89)
   10619                            .dwattr $C$DW$646, DW_AT_name("src")
   10620                            .dwattr $C$DW$646, DW_AT_TI_symbol_name("src")
   10621                            .dwattr $C$DW$646, DW_AT_data_member_location[DW_OP_plus_uconst 0x4]
   10622                            .dwattr $C$DW$646, DW_AT_accessibility(DW_ACCESS_public)
   10623                            .dwattr $C$DW$646, DW_AT_decl_file("C:/ti/simplelink_cc13x0_sdk_2_30_00_20/source/ti/ti154stac
   10624                            .dwattr $C$DW$646, DW_AT_decl_line(0x1f9)
   10625                            .dwattr $C$DW$646, DW_AT_decl_column(0x12)
   10626                    
   10627                    $C$DW$647       .dwtag  DW_TAG_member
   10628                            .dwattr $C$DW$647, DW_AT_type(*$C$DW$T$92)
   10629                            .dwattr $C$DW$647, DW_AT_name("dest")
   10630                            .dwattr $C$DW$647, DW_AT_TI_symbol_name("dest")
   10631                            .dwattr $C$DW$647, DW_AT_data_member_location[DW_OP_plus_uconst 0x6]
   10632                            .dwattr $C$DW$647, DW_AT_accessibility(DW_ACCESS_public)
   10633                            .dwattr $C$DW$647, DW_AT_decl_file("C:/ti/simplelink_cc13x0_sdk_2_30_00_20/source/ti/ti154stac
TI ARM Assembler PC v16.9.9 Sun Nov 25 16:40:48 2018

Tools Copyright (c) 1996-2017 Texas Instruments Incorporated
C:\Users\Stryd\AppData\Local\Temp\{8719FFD6-004A-4401-8DC3-4DA83C6CF1D8} PAGE  195

   10634                            .dwattr $C$DW$647, DW_AT_decl_line(0x201)
   10635                            .dwattr $C$DW$647, DW_AT_decl_column(0x05)
   10636                    
   10637                    $C$DW$648       .dwtag  DW_TAG_member
   10638                            .dwattr $C$DW$648, DW_AT_type(*$C$DW$T$156)
   10639                            .dwattr $C$DW$648, DW_AT_name("format")
   10640                            .dwattr $C$DW$648, DW_AT_TI_symbol_name("format")
   10641                            .dwattr $C$DW$648, DW_AT_data_member_location[DW_OP_plus_uconst 0x8]
   10642                            .dwattr $C$DW$648, DW_AT_accessibility(DW_ACCESS_public)
   10643                            .dwattr $C$DW$648, DW_AT_decl_file("C:/ti/simplelink_cc13x0_sdk_2_30_00_20/source/ti/ti154stac
   10644                            .dwattr $C$DW$648, DW_AT_decl_line(0x203)
   10645                            .dwattr $C$DW$648, DW_AT_decl_column(0x13)
   10646                    
   10647                    $C$DW$649       .dwtag  DW_TAG_member
   10648                            .dwattr $C$DW$649, DW_AT_type(*$C$DW$T$3)
   10649                            .dwattr $C$DW$649, DW_AT_name("msg")
   10650                            .dwattr $C$DW$649, DW_AT_TI_symbol_name("msg")
   10651                            .dwattr $C$DW$649, DW_AT_data_member_location[DW_OP_plus_uconst 0xc]
   10652                            .dwattr $C$DW$649, DW_AT_accessibility(DW_ACCESS_public)
   10653                            .dwattr $C$DW$649, DW_AT_decl_file("C:/ti/simplelink_cc13x0_sdk_2_30_00_20/source/ti/ti154stac
   10654                            .dwattr $C$DW$649, DW_AT_decl_line(0x205)
   10655                            .dwattr $C$DW$649, DW_AT_decl_column(0x09)
   10656                    
   10657                            .dwattr $C$DW$T$157, DW_AT_decl_file("C:/ti/simplelink_cc13x0_sdk_2_30_00_20/source/ti/ti154st
   10658                            .dwattr $C$DW$T$157, DW_AT_decl_line(0x1f4)
   10659                            .dwattr $C$DW$T$157, DW_AT_decl_column(0x10)
   10660                            .dwendtag $C$DW$T$157
   10661                    
   10662                    $C$DW$T$419     .dwtag  DW_TAG_typedef
   10663                            .dwattr $C$DW$T$419, DW_AT_name("ICall_SendArgs")
   10664                            .dwattr $C$DW$T$419, DW_AT_type(*$C$DW$T$157)
   10665                            .dwattr $C$DW$T$419, DW_AT_language(DW_LANG_C)
   10666                            .dwattr $C$DW$T$419, DW_AT_decl_file("C:/ti/simplelink_cc13x0_sdk_2_30_00_20/source/ti/ti154st
   10667                            .dwattr $C$DW$T$419, DW_AT_decl_line(0x206)
   10668                            .dwattr $C$DW$T$419, DW_AT_decl_column(0x03)
   10669                    
   10670                    
   10671                    $C$DW$T$160     .dwtag  DW_TAG_structure_type
   10672                            .dwattr $C$DW$T$160, DW_AT_name("_icall_set_timer_args_t")
   10673                            .dwattr $C$DW$T$160, DW_AT_byte_size(0x14)
   10674                    $C$DW$650       .dwtag  DW_TAG_member
   10675                            .dwattr $C$DW$650, DW_AT_type(*$C$DW$T$101)
   10676                            .dwattr $C$DW$650, DW_AT_name("hdr")
   10677                            .dwattr $C$DW$650, DW_AT_TI_symbol_name("hdr")
   10678                            .dwattr $C$DW$650, DW_AT_data_member_location[DW_OP_plus_uconst 0x0]
   10679                            .dwattr $C$DW$650, DW_AT_accessibility(DW_ACCESS_public)
   10680                            .dwattr $C$DW$650, DW_AT_decl_file("C:/ti/simplelink_cc13x0_sdk_2_30_00_20/source/ti/ti154stac
   10681                            .dwattr $C$DW$650, DW_AT_decl_line(0x3b9)
   10682                            .dwattr $C$DW$650, DW_AT_decl_column(0x15)
   10683                    
   10684                    $C$DW$651       .dwtag  DW_TAG_member
   10685                            .dwattr $C$DW$651, DW_AT_type(*$C$DW$T$66)
   10686                            .dwattr $C$DW$651, DW_AT_name("timeout")
   10687                            .dwattr $C$DW$651, DW_AT_TI_symbol_name("timeout")
   10688                            .dwattr $C$DW$651, DW_AT_data_member_location[DW_OP_plus_uconst 0x4]
TI ARM Assembler PC v16.9.9 Sun Nov 25 16:40:48 2018

Tools Copyright (c) 1996-2017 Texas Instruments Incorporated
C:\Users\Stryd\AppData\Local\Temp\{8719FFD6-004A-4401-8DC3-4DA83C6CF1D8} PAGE  196

   10689                            .dwattr $C$DW$651, DW_AT_accessibility(DW_ACCESS_public)
   10690                            .dwattr $C$DW$651, DW_AT_decl_file("C:/ti/simplelink_cc13x0_sdk_2_30_00_20/source/ti/ti154stac
   10691                            .dwattr $C$DW$651, DW_AT_decl_line(0x3bb)
   10692                            .dwattr $C$DW$651, DW_AT_decl_column(0x12)
   10693                    
   10694                    $C$DW$652       .dwtag  DW_TAG_member
   10695                            .dwattr $C$DW$652, DW_AT_type(*$C$DW$T$158)
   10696                            .dwattr $C$DW$652, DW_AT_name("timerid")
   10697                            .dwattr $C$DW$652, DW_AT_TI_symbol_name("timerid")
   10698                            .dwattr $C$DW$652, DW_AT_data_member_location[DW_OP_plus_uconst 0x8]
   10699                            .dwattr $C$DW$652, DW_AT_accessibility(DW_ACCESS_public)
   10700                            .dwattr $C$DW$652, DW_AT_decl_file("C:/ti/simplelink_cc13x0_sdk_2_30_00_20/source/ti/ti154stac
   10701                            .dwattr $C$DW$652, DW_AT_decl_line(0x3bd)
   10702                            .dwattr $C$DW$652, DW_AT_decl_column(0x11)
   10703                    
   10704                    $C$DW$653       .dwtag  DW_TAG_member
   10705                            .dwattr $C$DW$653, DW_AT_type(*$C$DW$T$159)
   10706                            .dwattr $C$DW$653, DW_AT_name("cback")
   10707                            .dwattr $C$DW$653, DW_AT_TI_symbol_name("cback")
   10708                            .dwattr $C$DW$653, DW_AT_data_member_location[DW_OP_plus_uconst 0xc]
   10709                            .dwattr $C$DW$653, DW_AT_accessibility(DW_ACCESS_public)
   10710                            .dwattr $C$DW$653, DW_AT_decl_file("C:/ti/simplelink_cc13x0_sdk_2_30_00_20/source/ti/ti154stac
   10711                            .dwattr $C$DW$653, DW_AT_decl_line(0x3bf)
   10712                            .dwattr $C$DW$653, DW_AT_decl_column(0x14)
   10713                    
   10714                    $C$DW$654       .dwtag  DW_TAG_member
   10715                            .dwattr $C$DW$654, DW_AT_type(*$C$DW$T$3)
   10716                            .dwattr $C$DW$654, DW_AT_name("arg")
   10717                            .dwattr $C$DW$654, DW_AT_TI_symbol_name("arg")
   10718                            .dwattr $C$DW$654, DW_AT_data_member_location[DW_OP_plus_uconst 0x10]
   10719                            .dwattr $C$DW$654, DW_AT_accessibility(DW_ACCESS_public)
   10720                            .dwattr $C$DW$654, DW_AT_decl_file("C:/ti/simplelink_cc13x0_sdk_2_30_00_20/source/ti/ti154stac
   10721                            .dwattr $C$DW$654, DW_AT_decl_line(0x3c1)
   10722                            .dwattr $C$DW$654, DW_AT_decl_column(0x09)
   10723                    
   10724                            .dwattr $C$DW$T$160, DW_AT_decl_file("C:/ti/simplelink_cc13x0_sdk_2_30_00_20/source/ti/ti154st
   10725                            .dwattr $C$DW$T$160, DW_AT_decl_line(0x3b6)
   10726                            .dwattr $C$DW$T$160, DW_AT_decl_column(0x10)
   10727                            .dwendtag $C$DW$T$160
   10728                    
   10729                    $C$DW$T$421     .dwtag  DW_TAG_typedef
   10730                            .dwattr $C$DW$T$421, DW_AT_name("ICall_SetTimerArgs")
   10731                            .dwattr $C$DW$T$421, DW_AT_type(*$C$DW$T$160)
   10732                            .dwattr $C$DW$T$421, DW_AT_language(DW_LANG_C)
   10733                            .dwattr $C$DW$T$421, DW_AT_decl_file("C:/ti/simplelink_cc13x0_sdk_2_30_00_20/source/ti/ti154st
   10734                            .dwattr $C$DW$T$421, DW_AT_decl_line(0x3c2)
   10735                            .dwattr $C$DW$T$421, DW_AT_decl_column(0x03)
   10736                    
   10737                    
   10738                    $C$DW$T$161     .dwtag  DW_TAG_structure_type
   10739                            .dwattr $C$DW$T$161, DW_AT_name("_icall_signal_args_t")
   10740                            .dwattr $C$DW$T$161, DW_AT_byte_size(0x08)
   10741                    $C$DW$655       .dwtag  DW_TAG_member
   10742                            .dwattr $C$DW$655, DW_AT_type(*$C$DW$T$101)
   10743                            .dwattr $C$DW$655, DW_AT_name("hdr")
TI ARM Assembler PC v16.9.9 Sun Nov 25 16:40:48 2018

Tools Copyright (c) 1996-2017 Texas Instruments Incorporated
C:\Users\Stryd\AppData\Local\Temp\{8719FFD6-004A-4401-8DC3-4DA83C6CF1D8} PAGE  197

   10744                            .dwattr $C$DW$655, DW_AT_TI_symbol_name("hdr")
   10745                            .dwattr $C$DW$655, DW_AT_data_member_location[DW_OP_plus_uconst 0x0]
   10746                            .dwattr $C$DW$655, DW_AT_accessibility(DW_ACCESS_public)
   10747                            .dwattr $C$DW$655, DW_AT_decl_file("C:/ti/simplelink_cc13x0_sdk_2_30_00_20/source/ti/ti154stac
   10748                            .dwattr $C$DW$655, DW_AT_decl_line(0x228)
   10749                            .dwattr $C$DW$655, DW_AT_decl_column(0x15)
   10750                    
   10751                    $C$DW$656       .dwtag  DW_TAG_member
   10752                            .dwattr $C$DW$656, DW_AT_type(*$C$DW$T$114)
   10753                            .dwattr $C$DW$656, DW_AT_name("syncHandle")
   10754                            .dwattr $C$DW$656, DW_AT_TI_symbol_name("syncHandle")
   10755                            .dwattr $C$DW$656, DW_AT_data_member_location[DW_OP_plus_uconst 0x4]
   10756                            .dwattr $C$DW$656, DW_AT_accessibility(DW_ACCESS_public)
   10757                            .dwattr $C$DW$656, DW_AT_decl_file("C:/ti/simplelink_cc13x0_sdk_2_30_00_20/source/ti/ti154stac
   10758                            .dwattr $C$DW$656, DW_AT_decl_line(0x22a)
   10759                            .dwattr $C$DW$656, DW_AT_decl_column(0x14)
   10760                    
   10761                            .dwattr $C$DW$T$161, DW_AT_decl_file("C:/ti/simplelink_cc13x0_sdk_2_30_00_20/source/ti/ti154st
   10762                            .dwattr $C$DW$T$161, DW_AT_decl_line(0x225)
   10763                            .dwattr $C$DW$T$161, DW_AT_decl_column(0x10)
   10764                            .dwendtag $C$DW$T$161
   10765                    
   10766                    $C$DW$T$423     .dwtag  DW_TAG_typedef
   10767                            .dwattr $C$DW$T$423, DW_AT_name("ICall_SignalArgs")
   10768                            .dwattr $C$DW$T$423, DW_AT_type(*$C$DW$T$161)
   10769                            .dwattr $C$DW$T$423, DW_AT_language(DW_LANG_C)
   10770                            .dwattr $C$DW$T$423, DW_AT_decl_file("C:/ti/simplelink_cc13x0_sdk_2_30_00_20/source/ti/ti154st
   10771                            .dwattr $C$DW$T$423, DW_AT_decl_line(0x22b)
   10772                            .dwattr $C$DW$T$423, DW_AT_decl_column(0x03)
   10773                    
   10774                    
   10775                    $C$DW$T$162     .dwtag  DW_TAG_structure_type
   10776                            .dwattr $C$DW$T$162, DW_AT_name("_icall_signal_events_args_t")
   10777                            .dwattr $C$DW$T$162, DW_AT_byte_size(0x0c)
   10778                    $C$DW$657       .dwtag  DW_TAG_member
   10779                            .dwattr $C$DW$657, DW_AT_type(*$C$DW$T$101)
   10780                            .dwattr $C$DW$657, DW_AT_name("hdr")
   10781                            .dwattr $C$DW$657, DW_AT_TI_symbol_name("hdr")
   10782                            .dwattr $C$DW$657, DW_AT_data_member_location[DW_OP_plus_uconst 0x0]
   10783                            .dwattr $C$DW$657, DW_AT_accessibility(DW_ACCESS_public)
   10784                            .dwattr $C$DW$657, DW_AT_decl_file("C:/ti/simplelink_cc13x0_sdk_2_30_00_20/source/ti/ti154stac
   10785                            .dwattr $C$DW$657, DW_AT_decl_line(0x231)
   10786                            .dwattr $C$DW$657, DW_AT_decl_column(0x15)
   10787                    
   10788                    $C$DW$658       .dwtag  DW_TAG_member
   10789                            .dwattr $C$DW$658, DW_AT_type(*$C$DW$T$114)
   10790                            .dwattr $C$DW$658, DW_AT_name("syncHandle")
   10791                            .dwattr $C$DW$658, DW_AT_TI_symbol_name("syncHandle")
   10792                            .dwattr $C$DW$658, DW_AT_data_member_location[DW_OP_plus_uconst 0x4]
   10793                            .dwattr $C$DW$658, DW_AT_accessibility(DW_ACCESS_public)
   10794                            .dwattr $C$DW$658, DW_AT_decl_file("C:/ti/simplelink_cc13x0_sdk_2_30_00_20/source/ti/ti154stac
   10795                            .dwattr $C$DW$658, DW_AT_decl_line(0x233)
   10796                            .dwattr $C$DW$658, DW_AT_decl_column(0x14)
   10797                    
   10798                    $C$DW$659       .dwtag  DW_TAG_member
TI ARM Assembler PC v16.9.9 Sun Nov 25 16:40:48 2018

Tools Copyright (c) 1996-2017 Texas Instruments Incorporated
C:\Users\Stryd\AppData\Local\Temp\{8719FFD6-004A-4401-8DC3-4DA83C6CF1D8} PAGE  198

   10799                            .dwattr $C$DW$659, DW_AT_type(*$C$DW$T$21)
   10800                            .dwattr $C$DW$659, DW_AT_name("events")
   10801                            .dwattr $C$DW$659, DW_AT_TI_symbol_name("events")
   10802                            .dwattr $C$DW$659, DW_AT_data_member_location[DW_OP_plus_uconst 0x8]
   10803                            .dwattr $C$DW$659, DW_AT_accessibility(DW_ACCESS_public)
   10804                            .dwattr $C$DW$659, DW_AT_decl_file("C:/ti/simplelink_cc13x0_sdk_2_30_00_20/source/ti/ti154stac
   10805                            .dwattr $C$DW$659, DW_AT_decl_line(0x234)
   10806                            .dwattr $C$DW$659, DW_AT_decl_column(0x15)
   10807                    
   10808                            .dwattr $C$DW$T$162, DW_AT_decl_file("C:/ti/simplelink_cc13x0_sdk_2_30_00_20/source/ti/ti154st
   10809                            .dwattr $C$DW$T$162, DW_AT_decl_line(0x22e)
   10810                            .dwattr $C$DW$T$162, DW_AT_decl_column(0x10)
   10811                            .dwendtag $C$DW$T$162
   10812                    
   10813                    $C$DW$T$425     .dwtag  DW_TAG_typedef
   10814                            .dwattr $C$DW$T$425, DW_AT_name("ICall_SignalEventsArgs")
   10815                            .dwattr $C$DW$T$425, DW_AT_type(*$C$DW$T$162)
   10816                            .dwattr $C$DW$T$425, DW_AT_language(DW_LANG_C)
   10817                            .dwattr $C$DW$T$425, DW_AT_decl_file("C:/ti/simplelink_cc13x0_sdk_2_30_00_20/source/ti/ti154st
   10818                            .dwattr $C$DW$T$425, DW_AT_decl_line(0x235)
   10819                            .dwattr $C$DW$T$425, DW_AT_decl_column(0x03)
   10820                    
   10821                    
   10822                    $C$DW$T$163     .dwtag  DW_TAG_structure_type
   10823                            .dwattr $C$DW$T$163, DW_AT_name("_icall_stop_timer_args_t")
   10824                            .dwattr $C$DW$T$163, DW_AT_byte_size(0x08)
   10825                    $C$DW$660       .dwtag  DW_TAG_member
   10826                            .dwattr $C$DW$660, DW_AT_type(*$C$DW$T$101)
   10827                            .dwattr $C$DW$660, DW_AT_name("hdr")
   10828                            .dwattr $C$DW$660, DW_AT_TI_symbol_name("hdr")
   10829                            .dwattr $C$DW$660, DW_AT_data_member_location[DW_OP_plus_uconst 0x0]
   10830                            .dwattr $C$DW$660, DW_AT_accessibility(DW_ACCESS_public)
   10831                            .dwattr $C$DW$660, DW_AT_decl_file("C:/ti/simplelink_cc13x0_sdk_2_30_00_20/source/ti/ti154stac
   10832                            .dwattr $C$DW$660, DW_AT_decl_line(0x3c8)
   10833                            .dwattr $C$DW$660, DW_AT_decl_column(0x15)
   10834                    
   10835                    $C$DW$661       .dwtag  DW_TAG_member
   10836                            .dwattr $C$DW$661, DW_AT_type(*$C$DW$T$158)
   10837                            .dwattr $C$DW$661, DW_AT_name("timerid")
   10838                            .dwattr $C$DW$661, DW_AT_TI_symbol_name("timerid")
   10839                            .dwattr $C$DW$661, DW_AT_data_member_location[DW_OP_plus_uconst 0x4]
   10840                            .dwattr $C$DW$661, DW_AT_accessibility(DW_ACCESS_public)
   10841                            .dwattr $C$DW$661, DW_AT_decl_file("C:/ti/simplelink_cc13x0_sdk_2_30_00_20/source/ti/ti154stac
   10842                            .dwattr $C$DW$661, DW_AT_decl_line(0x3ca)
   10843                            .dwattr $C$DW$661, DW_AT_decl_column(0x11)
   10844                    
   10845                            .dwattr $C$DW$T$163, DW_AT_decl_file("C:/ti/simplelink_cc13x0_sdk_2_30_00_20/source/ti/ti154st
   10846                            .dwattr $C$DW$T$163, DW_AT_decl_line(0x3c5)
   10847                            .dwattr $C$DW$T$163, DW_AT_decl_column(0x10)
   10848                            .dwendtag $C$DW$T$163
   10849                    
   10850                    $C$DW$T$426     .dwtag  DW_TAG_typedef
   10851                            .dwattr $C$DW$T$426, DW_AT_name("ICall_StopTimerArgs")
   10852                            .dwattr $C$DW$T$426, DW_AT_type(*$C$DW$T$163)
   10853                            .dwattr $C$DW$T$426, DW_AT_language(DW_LANG_C)
TI ARM Assembler PC v16.9.9 Sun Nov 25 16:40:48 2018

Tools Copyright (c) 1996-2017 Texas Instruments Incorporated
C:\Users\Stryd\AppData\Local\Temp\{8719FFD6-004A-4401-8DC3-4DA83C6CF1D8} PAGE  199

   10854                            .dwattr $C$DW$T$426, DW_AT_decl_file("C:/ti/simplelink_cc13x0_sdk_2_30_00_20/source/ti/ti154st
   10855                            .dwattr $C$DW$T$426, DW_AT_decl_line(0x3cb)
   10856                            .dwattr $C$DW$T$426, DW_AT_decl_column(0x03)
   10857                    
   10858                    
   10859                    $C$DW$T$164     .dwtag  DW_TAG_structure_type
   10860                            .dwattr $C$DW$T$164, DW_AT_name("_icall_thread_serves_args_t")
   10861                            .dwattr $C$DW$T$164, DW_AT_byte_size(0x0c)
   10862                    $C$DW$662       .dwtag  DW_TAG_member
   10863                            .dwattr $C$DW$662, DW_AT_type(*$C$DW$T$101)
   10864                            .dwattr $C$DW$662, DW_AT_name("hdr")
   10865                            .dwattr $C$DW$662, DW_AT_TI_symbol_name("hdr")
   10866                            .dwattr $C$DW$662, DW_AT_data_member_location[DW_OP_plus_uconst 0x0]
   10867                            .dwattr $C$DW$662, DW_AT_accessibility(DW_ACCESS_public)
   10868                            .dwattr $C$DW$662, DW_AT_decl_file("C:/ti/simplelink_cc13x0_sdk_2_30_00_20/source/ti/ti154stac
   10869                            .dwattr $C$DW$662, DW_AT_decl_line(0x2b1)
   10870                            .dwattr $C$DW$662, DW_AT_decl_column(0x15)
   10871                    
   10872                    $C$DW$663       .dwtag  DW_TAG_member
   10873                            .dwattr $C$DW$663, DW_AT_type(*$C$DW$T$91)
   10874                            .dwattr $C$DW$663, DW_AT_name("servId")
   10875                            .dwattr $C$DW$663, DW_AT_TI_symbol_name("servId")
   10876                            .dwattr $C$DW$663, DW_AT_data_member_location[DW_OP_plus_uconst 0x4]
   10877                            .dwattr $C$DW$663, DW_AT_accessibility(DW_ACCESS_public)
   10878                            .dwattr $C$DW$663, DW_AT_decl_file("C:/ti/simplelink_cc13x0_sdk_2_30_00_20/source/ti/ti154stac
   10879                            .dwattr $C$DW$663, DW_AT_decl_line(0x2b3)
   10880                            .dwattr $C$DW$663, DW_AT_decl_column(0x15)
   10881                    
   10882                    $C$DW$664       .dwtag  DW_TAG_member
   10883                            .dwattr $C$DW$664, DW_AT_type(*$C$DW$T$131)
   10884                            .dwattr $C$DW$664, DW_AT_name("result")
   10885                            .dwattr $C$DW$664, DW_AT_TI_symbol_name("result")
   10886                            .dwattr $C$DW$664, DW_AT_data_member_location[DW_OP_plus_uconst 0x8]
   10887                            .dwattr $C$DW$664, DW_AT_accessibility(DW_ACCESS_public)
   10888                            .dwattr $C$DW$664, DW_AT_decl_file("C:/ti/simplelink_cc13x0_sdk_2_30_00_20/source/ti/ti154stac
   10889                            .dwattr $C$DW$664, DW_AT_decl_line(0x2b5)
   10890                            .dwattr $C$DW$664, DW_AT_decl_column(0x10)
   10891                    
   10892                            .dwattr $C$DW$T$164, DW_AT_decl_file("C:/ti/simplelink_cc13x0_sdk_2_30_00_20/source/ti/ti154st
   10893                            .dwattr $C$DW$T$164, DW_AT_decl_line(0x2ae)
   10894                            .dwattr $C$DW$T$164, DW_AT_decl_column(0x10)
   10895                            .dwendtag $C$DW$T$164
   10896                    
   10897                    $C$DW$T$428     .dwtag  DW_TAG_typedef
   10898                            .dwattr $C$DW$T$428, DW_AT_name("ICall_ThreadServesArgs")
   10899                            .dwattr $C$DW$T$428, DW_AT_type(*$C$DW$T$164)
   10900                            .dwattr $C$DW$T$428, DW_AT_language(DW_LANG_C)
   10901                            .dwattr $C$DW$T$428, DW_AT_decl_file("C:/ti/simplelink_cc13x0_sdk_2_30_00_20/source/ti/ti154st
   10902                            .dwattr $C$DW$T$428, DW_AT_decl_line(0x2b6)
   10903                            .dwattr $C$DW$T$428, DW_AT_decl_column(0x03)
   10904                    
   10905                    
   10906                    $C$DW$T$165     .dwtag  DW_TAG_structure_type
   10907                            .dwattr $C$DW$T$165, DW_AT_name("_icall_wait_args_t")
   10908                            .dwattr $C$DW$T$165, DW_AT_byte_size(0x08)
TI ARM Assembler PC v16.9.9 Sun Nov 25 16:40:48 2018

Tools Copyright (c) 1996-2017 Texas Instruments Incorporated
C:\Users\Stryd\AppData\Local\Temp\{8719FFD6-004A-4401-8DC3-4DA83C6CF1D8} PAGE  200

   10909                    $C$DW$665       .dwtag  DW_TAG_member
   10910                            .dwattr $C$DW$665, DW_AT_type(*$C$DW$T$101)
   10911                            .dwattr $C$DW$665, DW_AT_name("hdr")
   10912                            .dwattr $C$DW$665, DW_AT_TI_symbol_name("hdr")
   10913                            .dwattr $C$DW$665, DW_AT_data_member_location[DW_OP_plus_uconst 0x0]
   10914                            .dwattr $C$DW$665, DW_AT_accessibility(DW_ACCESS_public)
   10915                            .dwattr $C$DW$665, DW_AT_decl_file("C:/ti/simplelink_cc13x0_sdk_2_30_00_20/source/ti/ti154stac
   10916                            .dwattr $C$DW$665, DW_AT_decl_line(0x21f)
   10917                            .dwattr $C$DW$665, DW_AT_decl_column(0x15)
   10918                    
   10919                    $C$DW$666       .dwtag  DW_TAG_member
   10920                            .dwattr $C$DW$666, DW_AT_type(*$C$DW$T$66)
   10921                            .dwattr $C$DW$666, DW_AT_name("milliseconds")
   10922                            .dwattr $C$DW$666, DW_AT_TI_symbol_name("milliseconds")
   10923                            .dwattr $C$DW$666, DW_AT_data_member_location[DW_OP_plus_uconst 0x4]
   10924                            .dwattr $C$DW$666, DW_AT_accessibility(DW_ACCESS_public)
   10925                            .dwattr $C$DW$666, DW_AT_decl_file("C:/ti/simplelink_cc13x0_sdk_2_30_00_20/source/ti/ti154stac
   10926                            .dwattr $C$DW$666, DW_AT_decl_line(0x221)
   10927                            .dwattr $C$DW$666, DW_AT_decl_column(0x12)
   10928                    
   10929                            .dwattr $C$DW$T$165, DW_AT_decl_file("C:/ti/simplelink_cc13x0_sdk_2_30_00_20/source/ti/ti154st
   10930                            .dwattr $C$DW$T$165, DW_AT_decl_line(0x21c)
   10931                            .dwattr $C$DW$T$165, DW_AT_decl_column(0x10)
   10932                            .dwendtag $C$DW$T$165
   10933                    
   10934                    $C$DW$T$429     .dwtag  DW_TAG_typedef
   10935                            .dwattr $C$DW$T$429, DW_AT_name("ICall_WaitArgs")
   10936                            .dwattr $C$DW$T$429, DW_AT_type(*$C$DW$T$165)
   10937                            .dwattr $C$DW$T$429, DW_AT_language(DW_LANG_C)
   10938                            .dwattr $C$DW$T$429, DW_AT_decl_file("C:/ti/simplelink_cc13x0_sdk_2_30_00_20/source/ti/ti154st
   10939                            .dwattr $C$DW$T$429, DW_AT_decl_line(0x222)
   10940                            .dwattr $C$DW$T$429, DW_AT_decl_column(0x03)
   10941                    
   10942                    
   10943                    $C$DW$T$171     .dwtag  DW_TAG_structure_type
   10944                            .dwattr $C$DW$T$171, DW_AT_name("_icall_wait_match_args_t")
   10945                            .dwattr $C$DW$T$171, DW_AT_byte_size(0x14)
   10946                    $C$DW$667       .dwtag  DW_TAG_member
   10947                            .dwattr $C$DW$667, DW_AT_type(*$C$DW$T$101)
   10948                            .dwattr $C$DW$667, DW_AT_name("hdr")
   10949                            .dwattr $C$DW$667, DW_AT_TI_symbol_name("hdr")
   10950                            .dwattr $C$DW$667, DW_AT_data_member_location[DW_OP_plus_uconst 0x0]
   10951                            .dwattr $C$DW$667, DW_AT_accessibility(DW_ACCESS_public)
   10952                            .dwattr $C$DW$667, DW_AT_decl_file("C:/ti/simplelink_cc13x0_sdk_2_30_00_20/source/ti/ti154stac
   10953                            .dwattr $C$DW$667, DW_AT_decl_line(0x351)
   10954                            .dwattr $C$DW$667, DW_AT_decl_column(0x15)
   10955                    
   10956                    $C$DW$668       .dwtag  DW_TAG_member
   10957                            .dwattr $C$DW$668, DW_AT_type(*$C$DW$T$66)
   10958                            .dwattr $C$DW$668, DW_AT_name("milliseconds")
   10959                            .dwattr $C$DW$668, DW_AT_TI_symbol_name("milliseconds")
   10960                            .dwattr $C$DW$668, DW_AT_data_member_location[DW_OP_plus_uconst 0x4]
   10961                            .dwattr $C$DW$668, DW_AT_accessibility(DW_ACCESS_public)
   10962                            .dwattr $C$DW$668, DW_AT_decl_file("C:/ti/simplelink_cc13x0_sdk_2_30_00_20/source/ti/ti154stac
   10963                            .dwattr $C$DW$668, DW_AT_decl_line(0x353)
TI ARM Assembler PC v16.9.9 Sun Nov 25 16:40:48 2018

Tools Copyright (c) 1996-2017 Texas Instruments Incorporated
C:\Users\Stryd\AppData\Local\Temp\{8719FFD6-004A-4401-8DC3-4DA83C6CF1D8} PAGE  201

   10964                            .dwattr $C$DW$668, DW_AT_decl_column(0x12)
   10965                    
   10966                    $C$DW$669       .dwtag  DW_TAG_member
   10967                            .dwattr $C$DW$669, DW_AT_type(*$C$DW$T$170)
   10968                            .dwattr $C$DW$669, DW_AT_name("matchFn")
   10969                            .dwattr $C$DW$669, DW_AT_TI_symbol_name("matchFn")
   10970                            .dwattr $C$DW$669, DW_AT_data_member_location[DW_OP_plus_uconst 0x8]
   10971                            .dwattr $C$DW$669, DW_AT_accessibility(DW_ACCESS_public)
   10972                            .dwattr $C$DW$669, DW_AT_decl_file("C:/ti/simplelink_cc13x0_sdk_2_30_00_20/source/ti/ti154stac
   10973                            .dwattr $C$DW$669, DW_AT_decl_line(0x355)
   10974                            .dwattr $C$DW$669, DW_AT_decl_column(0x14)
   10975                    
   10976                    $C$DW$670       .dwtag  DW_TAG_member
   10977                            .dwattr $C$DW$670, DW_AT_type(*$C$DW$T$91)
   10978                            .dwattr $C$DW$670, DW_AT_name("servId")
   10979                            .dwattr $C$DW$670, DW_AT_TI_symbol_name("servId")
   10980                            .dwattr $C$DW$670, DW_AT_data_member_location[DW_OP_plus_uconst 0xc]
   10981                            .dwattr $C$DW$670, DW_AT_accessibility(DW_ACCESS_public)
   10982                            .dwattr $C$DW$670, DW_AT_decl_file("C:/ti/simplelink_cc13x0_sdk_2_30_00_20/source/ti/ti154stac
   10983                            .dwattr $C$DW$670, DW_AT_decl_line(0x357)
   10984                            .dwattr $C$DW$670, DW_AT_decl_column(0x15)
   10985                    
   10986                    $C$DW$671       .dwtag  DW_TAG_member
   10987                            .dwattr $C$DW$671, DW_AT_type(*$C$DW$T$89)
   10988                            .dwattr $C$DW$671, DW_AT_name("dest")
   10989                            .dwattr $C$DW$671, DW_AT_TI_symbol_name("dest")
   10990                            .dwattr $C$DW$671, DW_AT_data_member_location[DW_OP_plus_uconst 0xe]
   10991                            .dwattr $C$DW$671, DW_AT_accessibility(DW_ACCESS_public)
   10992                            .dwattr $C$DW$671, DW_AT_decl_file("C:/ti/simplelink_cc13x0_sdk_2_30_00_20/source/ti/ti154stac
   10993                            .dwattr $C$DW$671, DW_AT_decl_line(0x359)
   10994                            .dwattr $C$DW$671, DW_AT_decl_column(0x12)
   10995                    
   10996                    $C$DW$672       .dwtag  DW_TAG_member
   10997                            .dwattr $C$DW$672, DW_AT_type(*$C$DW$T$3)
   10998                            .dwattr $C$DW$672, DW_AT_name("msg")
   10999                            .dwattr $C$DW$672, DW_AT_TI_symbol_name("msg")
   11000                            .dwattr $C$DW$672, DW_AT_data_member_location[DW_OP_plus_uconst 0x10]
   11001                            .dwattr $C$DW$672, DW_AT_accessibility(DW_ACCESS_public)
   11002                            .dwattr $C$DW$672, DW_AT_decl_file("C:/ti/simplelink_cc13x0_sdk_2_30_00_20/source/ti/ti154stac
   11003                            .dwattr $C$DW$672, DW_AT_decl_line(0x35b)
   11004                            .dwattr $C$DW$672, DW_AT_decl_column(0x09)
   11005                    
   11006                            .dwattr $C$DW$T$171, DW_AT_decl_file("C:/ti/simplelink_cc13x0_sdk_2_30_00_20/source/ti/ti154st
   11007                            .dwattr $C$DW$T$171, DW_AT_decl_line(0x34e)
   11008                            .dwattr $C$DW$T$171, DW_AT_decl_column(0x10)
   11009                            .dwendtag $C$DW$T$171
   11010                    
   11011                    $C$DW$T$431     .dwtag  DW_TAG_typedef
   11012                            .dwattr $C$DW$T$431, DW_AT_name("ICall_WaitMatchArgs")
   11013                            .dwattr $C$DW$T$431, DW_AT_type(*$C$DW$T$171)
   11014                            .dwattr $C$DW$T$431, DW_AT_language(DW_LANG_C)
   11015                            .dwattr $C$DW$T$431, DW_AT_decl_file("C:/ti/simplelink_cc13x0_sdk_2_30_00_20/source/ti/ti154st
   11016                            .dwattr $C$DW$T$431, DW_AT_decl_line(0x35c)
   11017                            .dwattr $C$DW$T$431, DW_AT_decl_column(0x03)
   11018                    
TI ARM Assembler PC v16.9.9 Sun Nov 25 16:40:48 2018

Tools Copyright (c) 1996-2017 Texas Instruments Incorporated
C:\Users\Stryd\AppData\Local\Temp\{8719FFD6-004A-4401-8DC3-4DA83C6CF1D8} PAGE  202

   11019                    
   11020                    $C$DW$T$172     .dwtag  DW_TAG_structure_type
   11021                            .dwattr $C$DW$T$172, DW_AT_name("_osal_event_msg_t")
   11022                            .dwattr $C$DW$T$172, DW_AT_byte_size(0x04)
   11023                    $C$DW$673       .dwtag  DW_TAG_member
   11024                            .dwattr $C$DW$673, DW_AT_type(*$C$DW$T$73)
   11025                            .dwattr $C$DW$673, DW_AT_name("signature")
   11026                            .dwattr $C$DW$673, DW_AT_TI_symbol_name("signature")
   11027                            .dwattr $C$DW$673, DW_AT_data_member_location[DW_OP_plus_uconst 0x0]
   11028                            .dwattr $C$DW$673, DW_AT_accessibility(DW_ACCESS_public)
   11029                            .dwattr $C$DW$673, DW_AT_decl_file("../Application/MAC/OSAL/osal.c")
   11030                            .dwattr $C$DW$673, DW_AT_decl_line(0x48d)
   11031                            .dwattr $C$DW$673, DW_AT_decl_column(0x0e)
   11032                    
   11033                    $C$DW$674       .dwtag  DW_TAG_member
   11034                            .dwattr $C$DW$674, DW_AT_type(*$C$DW$T$73)
   11035                            .dwattr $C$DW$674, DW_AT_name("event_flag")
   11036                            .dwattr $C$DW$674, DW_AT_TI_symbol_name("event_flag")
   11037                            .dwattr $C$DW$674, DW_AT_data_member_location[DW_OP_plus_uconst 0x2]
   11038                            .dwattr $C$DW$674, DW_AT_accessibility(DW_ACCESS_public)
   11039                            .dwattr $C$DW$674, DW_AT_decl_file("../Application/MAC/OSAL/osal.c")
   11040                            .dwattr $C$DW$674, DW_AT_decl_line(0x48e)
   11041                            .dwattr $C$DW$674, DW_AT_decl_column(0x0e)
   11042                    
   11043                            .dwattr $C$DW$T$172, DW_AT_decl_file("../Application/MAC/OSAL/osal.c")
   11044                            .dwattr $C$DW$T$172, DW_AT_decl_line(0x48b)
   11045                            .dwattr $C$DW$T$172, DW_AT_decl_column(0x0c)
   11046                            .dwendtag $C$DW$T$172
   11047                    
   11048                    $C$DW$T$432     .dwtag  DW_TAG_pointer_type
   11049                            .dwattr $C$DW$T$432, DW_AT_type(*$C$DW$T$172)
   11050                            .dwattr $C$DW$T$432, DW_AT_address_class(0x20)
   11051                    
   11052                    
   11053                    $C$DW$T$174     .dwtag  DW_TAG_structure_type
   11054                            .dwattr $C$DW$T$174, DW_AT_name("appasrtintf_assrthndlerfunc_t")
   11055                            .dwattr $C$DW$T$174, DW_AT_byte_size(0x04)
   11056                    $C$DW$675       .dwtag  DW_TAG_member
   11057                            .dwattr $C$DW$675, DW_AT_type(*$C$DW$T$173)
   11058                            .dwattr $C$DW$675, DW_AT_name("callAssrtHndler")
   11059                            .dwattr $C$DW$675, DW_AT_TI_symbol_name("callAssrtHndler")
   11060                            .dwattr $C$DW$675, DW_AT_data_member_location[DW_OP_plus_uconst 0x0]
   11061                            .dwattr $C$DW$675, DW_AT_accessibility(DW_ACCESS_public)
   11062                            .dwattr $C$DW$675, DW_AT_decl_file("C:/ti/simplelink_cc13x0_sdk_2_30_00_20/source/ti/ti154stac
   11063                            .dwattr $C$DW$675, DW_AT_decl_line(0x49)
   11064                            .dwattr $C$DW$675, DW_AT_decl_column(0x21)
   11065                    
   11066                            .dwattr $C$DW$T$174, DW_AT_decl_file("C:/ti/simplelink_cc13x0_sdk_2_30_00_20/source/ti/ti154st
   11067                            .dwattr $C$DW$T$174, DW_AT_decl_line(0x46)
   11068                            .dwattr $C$DW$T$174, DW_AT_decl_column(0x10)
   11069                            .dwendtag $C$DW$T$174
   11070                    
   11071                    $C$DW$T$433     .dwtag  DW_TAG_typedef
   11072                            .dwattr $C$DW$T$433, DW_AT_name("APPASRTINTF_assrtHndlerFunc_t")
   11073                            .dwattr $C$DW$T$433, DW_AT_type(*$C$DW$T$174)
TI ARM Assembler PC v16.9.9 Sun Nov 25 16:40:48 2018

Tools Copyright (c) 1996-2017 Texas Instruments Incorporated
C:\Users\Stryd\AppData\Local\Temp\{8719FFD6-004A-4401-8DC3-4DA83C6CF1D8} PAGE  203

   11074                            .dwattr $C$DW$T$433, DW_AT_language(DW_LANG_C)
   11075                            .dwattr $C$DW$T$433, DW_AT_decl_file("C:/ti/simplelink_cc13x0_sdk_2_30_00_20/source/ti/ti154st
   11076                            .dwattr $C$DW$T$433, DW_AT_decl_line(0x4a)
   11077                            .dwattr $C$DW$T$433, DW_AT_decl_column(0x03)
   11078                    
   11079                            .dwattr $C$DW$CU, DW_AT_language(DW_LANG_C)
   11080                    
   11081                    ;***************************************************************
   11082                    ;* DWARF CIE ENTRIES                                           *
   11083                    ;***************************************************************
   11084                    
   11085                    $C$DW$CIE       .dwcie 14
   11086                            .dwcfi  cfa_register, 13
   11087                            .dwcfi  cfa_offset, 0
   11088                            .dwcfi  same_value, 4
   11089                            .dwcfi  same_value, 5
   11090                            .dwcfi  same_value, 6
   11091                            .dwcfi  same_value, 7
   11092                            .dwcfi  same_value, 8
   11093                            .dwcfi  same_value, 9
   11094                            .dwcfi  same_value, 10
   11095                            .dwcfi  same_value, 11
   11096                            .dwendentry
   11097                    
   11098                    ;***************************************************************
   11099                    ;* DWARF REGISTER MAP                                          *
   11100                    ;***************************************************************
   11101                    
   11102                    $C$DW$676       .dwtag  DW_TAG_TI_assign_register
   11103                            .dwattr $C$DW$676, DW_AT_name("A1")
   11104                            .dwattr $C$DW$676, DW_AT_location[DW_OP_reg0]
   11105                    
   11106                    $C$DW$677       .dwtag  DW_TAG_TI_assign_register
   11107                            .dwattr $C$DW$677, DW_AT_name("A2")
   11108                            .dwattr $C$DW$677, DW_AT_location[DW_OP_reg1]
   11109                    
   11110                    $C$DW$678       .dwtag  DW_TAG_TI_assign_register
   11111                            .dwattr $C$DW$678, DW_AT_name("A3")
   11112                            .dwattr $C$DW$678, DW_AT_location[DW_OP_reg2]
   11113                    
   11114                    $C$DW$679       .dwtag  DW_TAG_TI_assign_register
   11115                            .dwattr $C$DW$679, DW_AT_name("A4")
   11116                            .dwattr $C$DW$679, DW_AT_location[DW_OP_reg3]
   11117                    
   11118                    $C$DW$680       .dwtag  DW_TAG_TI_assign_register
   11119                            .dwattr $C$DW$680, DW_AT_name("V1")
   11120                            .dwattr $C$DW$680, DW_AT_location[DW_OP_reg4]
   11121                    
   11122                    $C$DW$681       .dwtag  DW_TAG_TI_assign_register
   11123                            .dwattr $C$DW$681, DW_AT_name("V2")
   11124                            .dwattr $C$DW$681, DW_AT_location[DW_OP_reg5]
   11125                    
   11126                    $C$DW$682       .dwtag  DW_TAG_TI_assign_register
   11127                            .dwattr $C$DW$682, DW_AT_name("V3")
   11128                            .dwattr $C$DW$682, DW_AT_location[DW_OP_reg6]
TI ARM Assembler PC v16.9.9 Sun Nov 25 16:40:48 2018

Tools Copyright (c) 1996-2017 Texas Instruments Incorporated
C:\Users\Stryd\AppData\Local\Temp\{8719FFD6-004A-4401-8DC3-4DA83C6CF1D8} PAGE  204

   11129                    
   11130                    $C$DW$683       .dwtag  DW_TAG_TI_assign_register
   11131                            .dwattr $C$DW$683, DW_AT_name("V4")
   11132                            .dwattr $C$DW$683, DW_AT_location[DW_OP_reg7]
   11133                    
   11134                    $C$DW$684       .dwtag  DW_TAG_TI_assign_register
   11135                            .dwattr $C$DW$684, DW_AT_name("V5")
   11136                            .dwattr $C$DW$684, DW_AT_location[DW_OP_reg8]
   11137                    
   11138                    $C$DW$685       .dwtag  DW_TAG_TI_assign_register
   11139                            .dwattr $C$DW$685, DW_AT_name("V6")
   11140                            .dwattr $C$DW$685, DW_AT_location[DW_OP_reg9]
   11141                    
   11142                    $C$DW$686       .dwtag  DW_TAG_TI_assign_register
   11143                            .dwattr $C$DW$686, DW_AT_name("V7")
   11144                            .dwattr $C$DW$686, DW_AT_location[DW_OP_reg10]
   11145                    
   11146                    $C$DW$687       .dwtag  DW_TAG_TI_assign_register
   11147                            .dwattr $C$DW$687, DW_AT_name("V8")
   11148                            .dwattr $C$DW$687, DW_AT_location[DW_OP_reg11]
   11149                    
   11150                    $C$DW$688       .dwtag  DW_TAG_TI_assign_register
   11151                            .dwattr $C$DW$688, DW_AT_name("V9")
   11152                            .dwattr $C$DW$688, DW_AT_location[DW_OP_reg12]
   11153                    
   11154                    $C$DW$689       .dwtag  DW_TAG_TI_assign_register
   11155                            .dwattr $C$DW$689, DW_AT_name("SP")
   11156                            .dwattr $C$DW$689, DW_AT_location[DW_OP_reg13]
   11157                    
   11158                    $C$DW$690       .dwtag  DW_TAG_TI_assign_register
   11159                            .dwattr $C$DW$690, DW_AT_name("LR")
   11160                            .dwattr $C$DW$690, DW_AT_location[DW_OP_reg14]
   11161                    
   11162                    $C$DW$691       .dwtag  DW_TAG_TI_assign_register
   11163                            .dwattr $C$DW$691, DW_AT_name("PC")
   11164                            .dwattr $C$DW$691, DW_AT_location[DW_OP_reg15]
   11165                    
   11166                    $C$DW$692       .dwtag  DW_TAG_TI_assign_register
   11167                            .dwattr $C$DW$692, DW_AT_name("SR")
   11168                            .dwattr $C$DW$692, DW_AT_location[DW_OP_reg17]
   11169                    
   11170                    $C$DW$693       .dwtag  DW_TAG_TI_assign_register
   11171                            .dwattr $C$DW$693, DW_AT_name("AP")
   11172                            .dwattr $C$DW$693, DW_AT_location[DW_OP_reg7]
   11173                    
   11174                            .dwendtag $C$DW$CU
   11175                    

--------------------------
Thumb2 Statistics
--------------------------
Number of Thumb2 ins converted to Thumb = 0 (0%)
Number of Thumb ins in input = 893 (82%)
Number of Thumb2 ins encoded as Thumb2 = 185 (100%)
Number of Thumb2 ins converted to 2 OPND Thumb = 15


No Assembly Errors, No Assembly Warnings
