TI ARM Assembler PC v16.9.9 Sun Nov 25 16:40:48 2018

Tools Copyright (c) 1996-2017 Texas Instruments Incorporated
C:\Users\Stryd\AppData\Local\Temp\{8719FFD6-004A-4401-8DC3-4DA83C6CF1D8} PAGE    1

       1                    ;******************************************************************************
       2                    ;* TI ARM C/C++ Codegen                                        PC v16.9.9.LTS *
       3                    ;* Date/Time created: Sun Nov 25 16:40:47 2018                                *
       4                    ;******************************************************************************
       5                            .compiler_opts --abi=eabi --arm_vmrs_si_workaround=off --code_state=16 --diag_wrap=off --embed
       6 00000000                   .thumb
       7                    
       8                    $C$DW$CU        .dwtag  DW_TAG_compile_unit
       9                            .dwattr $C$DW$CU, DW_AT_name("../Application/MAC/OSAL/osal.c")
      10                            .dwattr $C$DW$CU, DW_AT_producer("TI TI ARM C/C++ Codegen PC v16.9.9.LTS Copyright (c) 1996-20
      11                            .dwattr $C$DW$CU, DW_AT_TI_version(0x01)
      12                            .dwattr $C$DW$CU, DW_AT_comp_dir("C:\CCSWorkspace\ECG603\collector_cc1350lp\collector_cc1350lp
      13                    
      14                    ;*****************************************************************************
      15                    ;* FUNCTION SYNONYMS                                                         *
      16                    ;*****************************************************************************
      17                            .symalias osal_rand, Onboard_rand
      18                    
      19                    $C$DW$1 .dwtag  DW_TAG_subprogram
      20                            .dwattr $C$DW$1, DW_AT_name("__builtin_strlen")
      21                            .dwattr $C$DW$1, DW_AT_TI_symbol_name("__builtin_strlen")
      22                            .dwattr $C$DW$1, DW_AT_type(*$C$DW$T$11)
      23                            .dwattr $C$DW$1, DW_AT_declaration
      24                            .dwattr $C$DW$1, DW_AT_external
      25                    $C$DW$2 .dwtag  DW_TAG_formal_parameter
      26                            .dwattr $C$DW$2, DW_AT_type(*$C$DW$T$360)
      27                    
      28                            .dwendtag $C$DW$1
      29                    
      30                    
      31                    $C$DW$3 .dwtag  DW_TAG_subprogram
      32                            .dwattr $C$DW$3, DW_AT_name("strlen")
      33                            .dwattr $C$DW$3, DW_AT_TI_symbol_name("strlen")
      34                            .dwattr $C$DW$3, DW_AT_type(*$C$DW$T$102)
      35                            .dwattr $C$DW$3, DW_AT_declaration
      36                            .dwattr $C$DW$3, DW_AT_external
      37                            .dwattr $C$DW$3, DW_AT_decl_file("C:/ti/ccsv7/tools/compiler/ti-cgt-arm_16.9.9.LTS/include/str
      38                            .dwattr $C$DW$3, DW_AT_decl_line(0x51)
      39                            .dwattr $C$DW$3, DW_AT_decl_column(0x14)
      40                    $C$DW$4 .dwtag  DW_TAG_formal_parameter
      41                            .dwattr $C$DW$4, DW_AT_type(*$C$DW$T$360)
      42                    
      43                            .dwendtag $C$DW$3
      44                    
      45                    
      46                    $C$DW$5 .dwtag  DW_TAG_subprogram
      47                            .dwattr $C$DW$5, DW_AT_name("memset")
      48                            .dwattr $C$DW$5, DW_AT_TI_symbol_name("memset")
      49                            .dwattr $C$DW$5, DW_AT_type(*$C$DW$T$3)
      50                            .dwattr $C$DW$5, DW_AT_declaration
      51                            .dwattr $C$DW$5, DW_AT_external
      52                            .dwattr $C$DW$5, DW_AT_decl_file("C:/ti/ccsv7/tools/compiler/ti-cgt-arm_16.9.9.LTS/include/str
      53                            .dwattr $C$DW$5, DW_AT_decl_line(0x71)
      54                            .dwattr $C$DW$5, DW_AT_decl_column(0x16)
      55                    $C$DW$6 .dwtag  DW_TAG_formal_parameter
TI ARM Assembler PC v16.9.9 Sun Nov 25 16:40:48 2018

Tools Copyright (c) 1996-2017 Texas Instruments Incorporated
C:\Users\Stryd\AppData\Local\Temp\{8719FFD6-004A-4401-8DC3-4DA83C6CF1D8} PAGE    2

      56                            .dwattr $C$DW$6, DW_AT_type(*$C$DW$T$3)
      57                    
      58                    $C$DW$7 .dwtag  DW_TAG_formal_parameter
      59                            .dwattr $C$DW$7, DW_AT_type(*$C$DW$T$10)
      60                    
      61                    $C$DW$8 .dwtag  DW_TAG_formal_parameter
      62                            .dwattr $C$DW$8, DW_AT_type(*$C$DW$T$102)
      63                    
      64                            .dwendtag $C$DW$5
      65                    
      66                    
      67                    $C$DW$9 .dwtag  DW_TAG_subprogram
      68                            .dwattr $C$DW$9, DW_AT_name("ltoa")
      69                            .dwattr $C$DW$9, DW_AT_TI_symbol_name("ltoa")
      70                            .dwattr $C$DW$9, DW_AT_type(*$C$DW$T$10)
      71                            .dwattr $C$DW$9, DW_AT_declaration
      72                            .dwattr $C$DW$9, DW_AT_external
      73                            .dwattr $C$DW$9, DW_AT_decl_file("C:/ti/ccsv7/tools/compiler/ti-cgt-arm_16.9.9.LTS/include/std
      74                            .dwattr $C$DW$9, DW_AT_decl_line(0x98)
      75                            .dwattr $C$DW$9, DW_AT_decl_column(0x1c)
      76                    $C$DW$10        .dwtag  DW_TAG_formal_parameter
      77                            .dwattr $C$DW$10, DW_AT_type(*$C$DW$T$12)
      78                    
      79                    $C$DW$11        .dwtag  DW_TAG_formal_parameter
      80                            .dwattr $C$DW$11, DW_AT_type(*$C$DW$T$329)
      81                    
      82                            .dwendtag $C$DW$9
      83                    
      84                    
      85                    $C$DW$12        .dwtag  DW_TAG_subprogram
      86                            .dwattr $C$DW$12, DW_AT_name("HAL_APPASRT_callAssrtHanlder")
      87                            .dwattr $C$DW$12, DW_AT_TI_symbol_name("HAL_APPASRT_callAssrtHanlder")
      88                            .dwattr $C$DW$12, DW_AT_declaration
      89                            .dwattr $C$DW$12, DW_AT_external
      90                            .dwattr $C$DW$12, DW_AT_decl_file("C:\ti\simplelink_cc13x0_sdk_2_30_00_20\source\ti\ti154stack
      91                            .dwattr $C$DW$12, DW_AT_decl_line(0x51)
      92                            .dwattr $C$DW$12, DW_AT_decl_column(0x0d)
      93                            .dwendtag $C$DW$12
      94                    
      95                    
      96                    $C$DW$13        .dwtag  DW_TAG_subprogram
      97                            .dwattr $C$DW$13, DW_AT_name("osal_mem_alloc")
      98                            .dwattr $C$DW$13, DW_AT_TI_symbol_name("osal_mem_alloc")
      99                            .dwattr $C$DW$13, DW_AT_type(*$C$DW$T$3)
     100                            .dwattr $C$DW$13, DW_AT_declaration
     101                            .dwattr $C$DW$13, DW_AT_external
     102                            .dwattr $C$DW$13, DW_AT_decl_file("..\Application\MAC\OSAL\osal_memory.h")
     103                            .dwattr $C$DW$13, DW_AT_decl_line(0x67)
     104                            .dwattr $C$DW$13, DW_AT_decl_column(0x09)
     105                    $C$DW$14        .dwtag  DW_TAG_formal_parameter
     106                            .dwattr $C$DW$14, DW_AT_type(*$C$DW$T$73)
     107                    
     108                            .dwendtag $C$DW$13
     109                    
     110                    
TI ARM Assembler PC v16.9.9 Sun Nov 25 16:40:48 2018

Tools Copyright (c) 1996-2017 Texas Instruments Incorporated
C:\Users\Stryd\AppData\Local\Temp\{8719FFD6-004A-4401-8DC3-4DA83C6CF1D8} PAGE    3

     111                    $C$DW$15        .dwtag  DW_TAG_subprogram
     112                            .dwattr $C$DW$15, DW_AT_name("osal_mem_free")
     113                            .dwattr $C$DW$15, DW_AT_TI_symbol_name("osal_mem_free")
     114                            .dwattr $C$DW$15, DW_AT_declaration
     115                            .dwattr $C$DW$15, DW_AT_external
     116                            .dwattr $C$DW$15, DW_AT_decl_file("..\Application\MAC\OSAL\osal_memory.h")
     117                            .dwattr $C$DW$15, DW_AT_decl_line(0x71)
     118                            .dwattr $C$DW$15, DW_AT_decl_column(0x08)
     119                    $C$DW$16        .dwtag  DW_TAG_formal_parameter
     120                            .dwattr $C$DW$16, DW_AT_type(*$C$DW$T$3)
     121                    
     122                            .dwendtag $C$DW$15
     123                    
     124                    
     125                    $C$DW$17        .dwtag  DW_TAG_subprogram
     126                            .dwattr $C$DW$17, DW_AT_name("osalTimerInit")
     127                            .dwattr $C$DW$17, DW_AT_TI_symbol_name("osalTimerInit")
     128                            .dwattr $C$DW$17, DW_AT_declaration
     129                            .dwattr $C$DW$17, DW_AT_external
     130                            .dwattr $C$DW$17, DW_AT_decl_file("..\Application\MAC\OSAL\osal_timers.h")
     131                            .dwattr $C$DW$17, DW_AT_decl_line(0x55)
     132                            .dwattr $C$DW$17, DW_AT_decl_column(0x0f)
     133                            .dwendtag $C$DW$17
     134                    
     135                    
     136                    $C$DW$18        .dwtag  DW_TAG_subprogram
     137                            .dwattr $C$DW$18, DW_AT_name("osal_next_timeout")
     138                            .dwattr $C$DW$18, DW_AT_TI_symbol_name("osal_next_timeout")
     139                            .dwattr $C$DW$18, DW_AT_type(*$C$DW$T$81)
     140                            .dwattr $C$DW$18, DW_AT_declaration
     141                            .dwattr $C$DW$18, DW_AT_external
     142                            .dwattr $C$DW$18, DW_AT_decl_file("..\Application\MAC\OSAL\osal_timers.h")
     143                            .dwattr $C$DW$18, DW_AT_decl_line(0x90)
     144                            .dwattr $C$DW$18, DW_AT_decl_column(0x11)
     145                            .dwendtag $C$DW$18
     146                    
     147                    
     148                    $C$DW$19        .dwtag  DW_TAG_subprogram
     149                            .dwattr $C$DW$19, DW_AT_name("osalInitTasks")
     150                            .dwattr $C$DW$19, DW_AT_TI_symbol_name("osalInitTasks")
     151                            .dwattr $C$DW$19, DW_AT_declaration
     152                            .dwattr $C$DW$19, DW_AT_external
     153                            .dwattr $C$DW$19, DW_AT_decl_file("C:/ti/simplelink_cc13x0_sdk_2_30_00_20/source/ti/ti154stack
     154                            .dwattr $C$DW$19, DW_AT_decl_line(0x60)
     155                            .dwattr $C$DW$19, DW_AT_decl_column(0x0d)
     156                            .dwendtag $C$DW$19
     157                    
     158                    
     159                    $C$DW$20        .dwtag  DW_TAG_subprogram
     160                            .dwattr $C$DW$20, DW_AT_name("osal_pwrmgr_init")
     161                            .dwattr $C$DW$20, DW_AT_TI_symbol_name("osal_pwrmgr_init")
     162                            .dwattr $C$DW$20, DW_AT_declaration
     163                            .dwattr $C$DW$20, DW_AT_external
     164                            .dwattr $C$DW$20, DW_AT_decl_file("..\Application\MAC\OSAL\osal_pwrmgr.h")
     165                            .dwattr $C$DW$20, DW_AT_decl_line(0x6f)
TI ARM Assembler PC v16.9.9 Sun Nov 25 16:40:48 2018

Tools Copyright (c) 1996-2017 Texas Instruments Incorporated
C:\Users\Stryd\AppData\Local\Temp\{8719FFD6-004A-4401-8DC3-4DA83C6CF1D8} PAGE    4

     166                            .dwattr $C$DW$20, DW_AT_decl_column(0x0f)
     167                            .dwendtag $C$DW$20
     168                    
     169                    
     170                    $C$DW$21        .dwtag  DW_TAG_subprogram
     171                            .dwattr $C$DW$21, DW_AT_name("osalAdjustTimer")
     172                            .dwattr $C$DW$21, DW_AT_TI_symbol_name("osalAdjustTimer")
     173                            .dwattr $C$DW$21, DW_AT_declaration
     174                            .dwattr $C$DW$21, DW_AT_external
     175                            .dwattr $C$DW$21, DW_AT_decl_file("..\Application\MAC\OSAL\osal_clock.h")
     176                            .dwattr $C$DW$21, DW_AT_decl_line(0x89)
     177                            .dwattr $C$DW$21, DW_AT_decl_column(0x0f)
     178                    $C$DW$22        .dwtag  DW_TAG_formal_parameter
     179                            .dwattr $C$DW$22, DW_AT_type(*$C$DW$T$81)
     180                    
     181                            .dwendtag $C$DW$21
     182                    
     183                    
     184                    $C$DW$23        .dwtag  DW_TAG_subprogram
     185                            .dwattr $C$DW$23, DW_AT_name("Onboard_rand")
     186                            .dwattr $C$DW$23, DW_AT_TI_symbol_name("Onboard_rand")
     187                            .dwattr $C$DW$23, DW_AT_type(*$C$DW$T$73)
     188                            .dwattr $C$DW$23, DW_AT_declaration
     189                            .dwattr $C$DW$23, DW_AT_external
     190                            .dwattr $C$DW$23, DW_AT_decl_file("C:/ti/simplelink_cc13x0_sdk_2_30_00_20/examples/rtos/CC1350
     191                            .dwattr $C$DW$23, DW_AT_decl_line(0x107)
     192                            .dwattr $C$DW$23, DW_AT_decl_column(0x11)
     193                            .dwendtag $C$DW$23
     194                    
     195                    $C$DW$24        .dwtag  DW_TAG_variable
     196                            .dwattr $C$DW$24, DW_AT_name("ICall_dispatcher")
     197                            .dwattr $C$DW$24, DW_AT_TI_symbol_name("ICall_dispatcher")
     198                            .dwattr $C$DW$24, DW_AT_type(*$C$DW$T$147)
     199                            .dwattr $C$DW$24, DW_AT_declaration
     200                            .dwattr $C$DW$24, DW_AT_external
     201                            .dwattr $C$DW$24, DW_AT_decl_file("C:/ti/simplelink_cc13x0_sdk_2_30_00_20/source/ti/ti154stack
     202                            .dwattr $C$DW$24, DW_AT_decl_line(0x381)
     203                            .dwattr $C$DW$24, DW_AT_decl_column(0x19)
     204                    
     205                    $C$DW$25        .dwtag  DW_TAG_variable
     206                            .dwattr $C$DW$25, DW_AT_name("ICall_enterCriticalSection")
     207                            .dwattr $C$DW$25, DW_AT_TI_symbol_name("ICall_enterCriticalSection")
     208                            .dwattr $C$DW$25, DW_AT_type(*$C$DW$T$151)
     209                            .dwattr $C$DW$25, DW_AT_declaration
     210                            .dwattr $C$DW$25, DW_AT_external
     211                            .dwattr $C$DW$25, DW_AT_decl_file("C:/ti/simplelink_cc13x0_sdk_2_30_00_20/source/ti/ti154stack
     212                            .dwattr $C$DW$25, DW_AT_decl_line(0x384)
     213                            .dwattr $C$DW$25, DW_AT_decl_column(0x16)
     214                    
     215                    $C$DW$26        .dwtag  DW_TAG_variable
     216                            .dwattr $C$DW$26, DW_AT_name("ICall_leaveCriticalSection")
     217                            .dwattr $C$DW$26, DW_AT_TI_symbol_name("ICall_leaveCriticalSection")
     218                            .dwattr $C$DW$26, DW_AT_type(*$C$DW$T$154)
     219                            .dwattr $C$DW$26, DW_AT_declaration
     220                            .dwattr $C$DW$26, DW_AT_external
TI ARM Assembler PC v16.9.9 Sun Nov 25 16:40:48 2018

Tools Copyright (c) 1996-2017 Texas Instruments Incorporated
C:\Users\Stryd\AppData\Local\Temp\{8719FFD6-004A-4401-8DC3-4DA83C6CF1D8} PAGE    5

     221                            .dwattr $C$DW$26, DW_AT_decl_file("C:/ti/simplelink_cc13x0_sdk_2_30_00_20/source/ti/ti154stack
     222                            .dwattr $C$DW$26, DW_AT_decl_line(0x387)
     223                            .dwattr $C$DW$26, DW_AT_decl_column(0x16)
     224                    
     225                    $C$DW$27        .dwtag  DW_TAG_variable
     226                            .dwattr $C$DW$27, DW_AT_name("tasksArr")
     227                            .dwattr $C$DW$27, DW_AT_TI_symbol_name("tasksArr")
     228                            .dwattr $C$DW$27, DW_AT_type(*$C$DW$T$318)
     229                            .dwattr $C$DW$27, DW_AT_declaration
     230                            .dwattr $C$DW$27, DW_AT_external
     231                            .dwattr $C$DW$27, DW_AT_decl_file("C:/ti/simplelink_cc13x0_sdk_2_30_00_20/source/ti/ti154stack
     232                            .dwattr $C$DW$27, DW_AT_decl_line(0x55)
     233                            .dwattr $C$DW$27, DW_AT_decl_column(0x22)
     234                    
     235                    $C$DW$28        .dwtag  DW_TAG_variable
     236                            .dwattr $C$DW$28, DW_AT_name("tasksCnt")
     237                            .dwattr $C$DW$28, DW_AT_TI_symbol_name("tasksCnt")
     238                            .dwattr $C$DW$28, DW_AT_type(*$C$DW$T$298)
     239                            .dwattr $C$DW$28, DW_AT_declaration
     240                            .dwattr $C$DW$28, DW_AT_external
     241                            .dwattr $C$DW$28, DW_AT_decl_file("C:/ti/simplelink_cc13x0_sdk_2_30_00_20/source/ti/ti154stack
     242                            .dwattr $C$DW$28, DW_AT_decl_line(0x56)
     243                            .dwattr $C$DW$28, DW_AT_decl_column(0x14)
     244                    
     245                    $C$DW$29        .dwtag  DW_TAG_variable
     246                            .dwattr $C$DW$29, DW_AT_name("macTasksEvents")
     247                            .dwattr $C$DW$29, DW_AT_TI_symbol_name("macTasksEvents")
     248                            .dwattr $C$DW$29, DW_AT_type(*$C$DW$T$325)
     249                            .dwattr $C$DW$29, DW_AT_declaration
     250                            .dwattr $C$DW$29, DW_AT_external
     251                            .dwattr $C$DW$29, DW_AT_decl_file("../Application/MAC/OSAL/osal.c")
     252                            .dwattr $C$DW$29, DW_AT_decl_line(0x75)
     253                            .dwattr $C$DW$29, DW_AT_decl_column(0x10)
     254                    
     255                            .global osal_entity
     256                            .common osal_entity,1,1
     257                    $C$DW$30        .dwtag  DW_TAG_variable
     258                            .dwattr $C$DW$30, DW_AT_name("osal_entity")
     259                            .dwattr $C$DW$30, DW_AT_TI_symbol_name("osal_entity")
     260                            .dwattr $C$DW$30, DW_AT_location[DW_OP_addr osal_entity]
     261                            .dwattr $C$DW$30, DW_AT_type(*$C$DW$T$89)
     262                            .dwattr $C$DW$30, DW_AT_external
     263                            .dwattr $C$DW$30, DW_AT_decl_file("../Application/MAC/OSAL/osal.c")
     264                            .dwattr $C$DW$30, DW_AT_decl_line(0x93)
     265                            .dwattr $C$DW$30, DW_AT_decl_column(0x10)
     266                    
     267 00000000                   .sect   ".data:$O1$$", RW
     268                            .align  4
     269                            .elfsym ||$O1$$||,SYM_SIZE(44)
     270 00000000           ||$O1$$||:
     271 00000000 000000FF          .bits   255,8                   ; $O1$$.activeTaskID @ 0
     272 00000001                   .space  7
     273 00000008 00000000          .bits   0,32                    ; $O1$$.osal_eventloop_hook @ 64
     274 0000000c 00000000          .bits   0,32                    ; $O1$$.osal_icallMsg_hook @ 96
     275 00000010                   .space  20
TI ARM Assembler PC v16.9.9 Sun Nov 25 16:40:48 2018

Tools Copyright (c) 1996-2017 Texas Instruments Incorporated
C:\Users\Stryd\AppData\Local\Temp\{8719FFD6-004A-4401-8DC3-4DA83C6CF1D8} PAGE    6

     276 00000024 00000000          .bits   0,32                    ; $O1$$.osal_msec_timer_seq @ 288
     277 00000028 00000000          .bits   0,32
     278                    
     279                    
     280                    ;*********************************************************************
     281                    ;* GROUPED GLOBALS FOR $O1$$                                         *
     282                    ;*********************************************************************
     283          00000000! activeTaskID:   .set    ||$O1$$||+0
     284                    $C$DW$31        .dwtag  DW_TAG_variable
     285                            .dwattr $C$DW$31, DW_AT_name("activeTaskID")
     286                            .dwattr $C$DW$31, DW_AT_TI_symbol_name("activeTaskID")
     287                            .dwattr $C$DW$31, DW_AT_type(*$C$DW$T$19)
     288                            .dwattr $C$DW$31, DW_AT_location[DW_OP_addr activeTaskID]
     289                            .dwattr $C$DW$31, DW_AT_decl_file("../Application/MAC/OSAL/osal.c")
     290                            .dwattr $C$DW$31, DW_AT_decl_line(0x80)
     291                            .dwattr $C$DW$31, DW_AT_decl_column(0x0e)
     292                    
     293          00000001! osal_notask_entity:     .set    ||$O1$$||+1
     294                    $C$DW$32        .dwtag  DW_TAG_variable
     295                            .dwattr $C$DW$32, DW_AT_name("osal_notask_entity")
     296                            .dwattr $C$DW$32, DW_AT_TI_symbol_name("osal_notask_entity")
     297                            .dwattr $C$DW$32, DW_AT_type(*$C$DW$T$19)
     298                            .dwattr $C$DW$32, DW_AT_location[DW_OP_addr osal_notask_entity]
     299                            .dwattr $C$DW$32, DW_AT_decl_file("../Application/MAC/OSAL/osal.c")
     300                            .dwattr $C$DW$32, DW_AT_decl_line(0xaa)
     301                            .dwattr $C$DW$32, DW_AT_decl_column(0x0e)
     302                    
     303          00000002! osal_proxy_tasks:       .set    ||$O1$$||+2
     304                    $C$DW$33        .dwtag  DW_TAG_variable
     305                            .dwattr $C$DW$33, DW_AT_name("osal_proxy_tasks")
     306                            .dwattr $C$DW$33, DW_AT_TI_symbol_name("osal_proxy_tasks")
     307                            .dwattr $C$DW$33, DW_AT_type(*$C$DW$T$297)
     308                            .dwattr $C$DW$33, DW_AT_location[DW_OP_addr osal_proxy_tasks]
     309                            .dwattr $C$DW$33, DW_AT_decl_file("../Application/MAC/OSAL/osal.c")
     310                            .dwattr $C$DW$33, DW_AT_decl_line(0xa5)
     311                            .dwattr $C$DW$33, DW_AT_decl_column(0x0e)
     312                    
     313          00000004! osal_qHead:     .set    ||$O1$$||+4
     314                            .global osal_qHead
     315                    $C$DW$34        .dwtag  DW_TAG_variable
     316                            .dwattr $C$DW$34, DW_AT_name("osal_qHead")
     317                            .dwattr $C$DW$34, DW_AT_TI_symbol_name("osal_qHead")
     318                            .dwattr $C$DW$34, DW_AT_location[DW_OP_addr osal_qHead]
     319                            .dwattr $C$DW$34, DW_AT_type(*$C$DW$T$209)
     320                            .dwattr $C$DW$34, DW_AT_external
     321                            .dwattr $C$DW$34, DW_AT_decl_file("../Application/MAC/OSAL/osal.c")
     322                            .dwattr $C$DW$34, DW_AT_decl_line(0x67)
     323                            .dwattr $C$DW$34, DW_AT_decl_column(0x0e)
     324                    
     325          00000008! osal_eventloop_hook:    .set    ||$O1$$||+8
     326                            .global osal_eventloop_hook
     327                    $C$DW$35        .dwtag  DW_TAG_variable
     328                            .dwattr $C$DW$35, DW_AT_name("osal_eventloop_hook")
     329                            .dwattr $C$DW$35, DW_AT_TI_symbol_name("osal_eventloop_hook")
     330                            .dwattr $C$DW$35, DW_AT_location[DW_OP_addr osal_eventloop_hook]
TI ARM Assembler PC v16.9.9 Sun Nov 25 16:40:48 2018

Tools Copyright (c) 1996-2017 Texas Instruments Incorporated
C:\Users\Stryd\AppData\Local\Temp\{8719FFD6-004A-4401-8DC3-4DA83C6CF1D8} PAGE    7

     331                            .dwattr $C$DW$35, DW_AT_type(*$C$DW$T$37)
     332                            .dwattr $C$DW$35, DW_AT_external
     333                            .dwattr $C$DW$35, DW_AT_decl_file("../Application/MAC/OSAL/osal.c")
     334                            .dwattr $C$DW$35, DW_AT_decl_line(0x6b)
     335                            .dwattr $C$DW$35, DW_AT_decl_column(0x08)
     336                    
     337          0000000C! osal_icallMsg_hook:     .set    ||$O1$$||+12
     338                            .global osal_icallMsg_hook
     339                    $C$DW$36        .dwtag  DW_TAG_variable
     340                            .dwattr $C$DW$36, DW_AT_name("osal_icallMsg_hook")
     341                            .dwattr $C$DW$36, DW_AT_TI_symbol_name("osal_icallMsg_hook")
     342                            .dwattr $C$DW$36, DW_AT_location[DW_OP_addr osal_icallMsg_hook]
     343                            .dwattr $C$DW$36, DW_AT_type(*$C$DW$T$223)
     344                            .dwattr $C$DW$36, DW_AT_external
     345                            .dwattr $C$DW$36, DW_AT_decl_file("../Application/MAC/OSAL/osal.c")
     346                            .dwattr $C$DW$36, DW_AT_decl_line(0x6f)
     347                            .dwattr $C$DW$36, DW_AT_decl_column(0x16)
     348                    
     349          00000010! osal_semaphore: .set    ||$O1$$||+16
     350                            .global osal_semaphore
     351                    $C$DW$37        .dwtag  DW_TAG_variable
     352                            .dwattr $C$DW$37, DW_AT_name("osal_semaphore")
     353                            .dwattr $C$DW$37, DW_AT_TI_symbol_name("osal_semaphore")
     354                            .dwattr $C$DW$37, DW_AT_location[DW_OP_addr osal_semaphore]
     355                            .dwattr $C$DW$37, DW_AT_type(*$C$DW$T$195)
     356                            .dwattr $C$DW$37, DW_AT_external
     357                            .dwattr $C$DW$37, DW_AT_decl_file("../Application/MAC/OSAL/osal.c")
     358                            .dwattr $C$DW$37, DW_AT_decl_line(0x8f)
     359                            .dwattr $C$DW$37, DW_AT_decl_column(0x11)
     360                    
     361          00000014! osal_last_timestamp:    .set    ||$O1$$||+20
     362                            .global osal_last_timestamp
     363                    $C$DW$38        .dwtag  DW_TAG_variable
     364                            .dwattr $C$DW$38, DW_AT_name("osal_last_timestamp")
     365                            .dwattr $C$DW$38, DW_AT_TI_symbol_name("osal_last_timestamp")
     366                            .dwattr $C$DW$38, DW_AT_location[DW_OP_addr osal_last_timestamp]
     367                            .dwattr $C$DW$38, DW_AT_type(*$C$DW$T$66)
     368                            .dwattr $C$DW$38, DW_AT_external
     369                            .dwattr $C$DW$38, DW_AT_decl_file("../Application/MAC/OSAL/osal.c")
     370                            .dwattr $C$DW$38, DW_AT_decl_line(0x96)
     371                            .dwattr $C$DW$38, DW_AT_decl_column(0x10)
     372                    
     373          00000018! osal_tickperiod:        .set    ||$O1$$||+24
     374                            .global osal_tickperiod
     375                    $C$DW$39        .dwtag  DW_TAG_variable
     376                            .dwattr $C$DW$39, DW_AT_name("osal_tickperiod")
     377                            .dwattr $C$DW$39, DW_AT_TI_symbol_name("osal_tickperiod")
     378                            .dwattr $C$DW$39, DW_AT_location[DW_OP_addr osal_tickperiod]
     379                            .dwattr $C$DW$39, DW_AT_type(*$C$DW$T$66)
     380                            .dwattr $C$DW$39, DW_AT_external
     381                            .dwattr $C$DW$39, DW_AT_decl_file("../Application/MAC/OSAL/osal.c")
     382                            .dwattr $C$DW$39, DW_AT_decl_line(0x99)
     383                            .dwattr $C$DW$39, DW_AT_decl_column(0x10)
     384                    
     385          0000001C! osal_max_msecs: .set    ||$O1$$||+28
TI ARM Assembler PC v16.9.9 Sun Nov 25 16:40:48 2018

Tools Copyright (c) 1996-2017 Texas Instruments Incorporated
C:\Users\Stryd\AppData\Local\Temp\{8719FFD6-004A-4401-8DC3-4DA83C6CF1D8} PAGE    8

     386                            .global osal_max_msecs
     387                    $C$DW$40        .dwtag  DW_TAG_variable
     388                            .dwattr $C$DW$40, DW_AT_name("osal_max_msecs")
     389                            .dwattr $C$DW$40, DW_AT_TI_symbol_name("osal_max_msecs")
     390                            .dwattr $C$DW$40, DW_AT_location[DW_OP_addr osal_max_msecs]
     391                            .dwattr $C$DW$40, DW_AT_type(*$C$DW$T$66)
     392                            .dwattr $C$DW$40, DW_AT_external
     393                            .dwattr $C$DW$40, DW_AT_decl_file("../Application/MAC/OSAL/osal.c")
     394                            .dwattr $C$DW$40, DW_AT_decl_line(0x9c)
     395                            .dwattr $C$DW$40, DW_AT_decl_column(0x10)
     396                    
     397          00000020! osal_timerid_msec_timer:        .set    ||$O1$$||+32
     398                    $C$DW$41        .dwtag  DW_TAG_variable
     399                            .dwattr $C$DW$41, DW_AT_name("osal_timerid_msec_timer")
     400                            .dwattr $C$DW$41, DW_AT_TI_symbol_name("osal_timerid_msec_timer")
     401                            .dwattr $C$DW$41, DW_AT_type(*$C$DW$T$158)
     402                            .dwattr $C$DW$41, DW_AT_location[DW_OP_addr osal_timerid_msec_timer]
     403                            .dwattr $C$DW$41, DW_AT_decl_file("../Application/MAC/OSAL/osal.c")
     404                            .dwattr $C$DW$41, DW_AT_decl_line(0x9f)
     405                            .dwattr $C$DW$41, DW_AT_decl_column(0x16)
     406                    
     407          00000024! osal_msec_timer_seq:    .set    ||$O1$$||+36
     408                    $C$DW$42        .dwtag  DW_TAG_variable
     409                            .dwattr $C$DW$42, DW_AT_name("osal_msec_timer_seq")
     410                            .dwattr $C$DW$42, DW_AT_TI_symbol_name("osal_msec_timer_seq")
     411                            .dwattr $C$DW$42, DW_AT_type(*$C$DW$T$11)
     412                            .dwattr $C$DW$42, DW_AT_location[DW_OP_addr osal_msec_timer_seq]
     413                            .dwattr $C$DW$42, DW_AT_decl_file("../Application/MAC/OSAL/osal.c")
     414                            .dwattr $C$DW$42, DW_AT_decl_line(0xa2)
     415                            .dwattr $C$DW$42, DW_AT_decl_column(0x11)
     416                    
     417          00000028! osal_dispatch_entities: .set    ||$O1$$||+40
     418                    $C$DW$43        .dwtag  DW_TAG_variable
     419                            .dwattr $C$DW$43, DW_AT_name("osal_dispatch_entities")
     420                            .dwattr $C$DW$43, DW_AT_TI_symbol_name("osal_dispatch_entities")
     421                            .dwattr $C$DW$43, DW_AT_type(*$C$DW$T$77)
     422                            .dwattr $C$DW$43, DW_AT_location[DW_OP_addr osal_dispatch_entities]
     423                            .dwattr $C$DW$43, DW_AT_decl_file("../Application/MAC/OSAL/osal.c")
     424                            .dwattr $C$DW$43, DW_AT_decl_line(0xa8)
     425                            .dwattr $C$DW$43, DW_AT_decl_column(0x0f)
     426                    
     427                    ;       C:\ti\ccsv7\tools\compiler\ti-cgt-arm_16.9.9.LTS\bin\armopt.exe C:/CCSWorkspace/ECG603/collect
     428 00000000                   .sect   ".text:osal_strlen"
     429                            .clink
     430                            .thumbfunc osal_strlen
     431 00000000                   .thumb
     432                            .global osal_strlen
     433                    
     434                    $C$DW$44        .dwtag  DW_TAG_subprogram
     435                            .dwattr $C$DW$44, DW_AT_name("osal_strlen")
     436                            .dwattr $C$DW$44, DW_AT_low_pc(osal_strlen)
     437                            .dwattr $C$DW$44, DW_AT_high_pc(0x00)
     438                            .dwattr $C$DW$44, DW_AT_TI_symbol_name("osal_strlen")
     439                            .dwattr $C$DW$44, DW_AT_external
     440                            .dwattr $C$DW$44, DW_AT_type(*$C$DW$T$10)
TI ARM Assembler PC v16.9.9 Sun Nov 25 16:40:48 2018

Tools Copyright (c) 1996-2017 Texas Instruments Incorporated
C:\Users\Stryd\AppData\Local\Temp\{8719FFD6-004A-4401-8DC3-4DA83C6CF1D8} PAGE    9

     441                            .dwattr $C$DW$44, DW_AT_TI_begin_file("../Application/MAC/OSAL/osal.c")
     442                            .dwattr $C$DW$44, DW_AT_TI_begin_line(0xd6)
     443                            .dwattr $C$DW$44, DW_AT_TI_begin_column(0x05)
     444                            .dwattr $C$DW$44, DW_AT_decl_file("../Application/MAC/OSAL/osal.c")
     445                            .dwattr $C$DW$44, DW_AT_decl_line(0xd6)
     446                            .dwattr $C$DW$44, DW_AT_decl_column(0x05)
     447                            .dwattr $C$DW$44, DW_AT_TI_max_frame_size(0x00)
     448                            .dwpsn  file "../Application/MAC/OSAL/osal.c",line 215,column 1,is_stmt,address osal_strlen,is
     449                    
     450                            .dwfde $C$DW$CIE, osal_strlen
     451                    $C$DW$45        .dwtag  DW_TAG_formal_parameter
     452                            .dwattr $C$DW$45, DW_AT_name("pString")
     453                            .dwattr $C$DW$45, DW_AT_TI_symbol_name("pString")
     454                            .dwattr $C$DW$45, DW_AT_type(*$C$DW$T$329)
     455                            .dwattr $C$DW$45, DW_AT_location[DW_OP_reg0]
     456                    
     457                    
     458                    ;*****************************************************************************
     459                    ;* FUNCTION NAME: osal_strlen                                                *
     460                    ;*                                                                           *
     461                    ;*   Regs Modified     : A1,A2,A3,A4,V9,LR,SR                                *
     462                    ;*   Regs Used         : A1,A2,A3,A4,V9,SP,LR,SR                             *
     463                    ;*   Local Frame Size  : 0 Args + 0 Auto + 0 Save = 0 byte                   *
     464                    ;*****************************************************************************
     465 00000000           osal_strlen:
     466                    ;* --------------------------------------------------------------------------*
     467                            .dwcfi  cfa_offset, 0
     468                            .dwpsn  file "../Application/MAC/OSAL/osal.c",line 216,column 3,is_stmt,isa 1
     469                    $C$DW$46        .dwtag  DW_TAG_TI_branch
     470                            .dwattr $C$DW$46, DW_AT_low_pc(0x00)
     471                            .dwattr $C$DW$46, DW_AT_name("strlen")
     472                            .dwattr $C$DW$46, DW_AT_TI_call
     473                            .dwattr $C$DW$46, DW_AT_TI_return
     474                    
     475 00000000 BFFEF7FF!         CRET      strlen                ; [DPU_3_PIPE] |216|  ; [KEEP 32-BIT INS]
     476                            ; CALL OCCURS {strlen }          ; [] |216| 
     477                            .dwattr $C$DW$44, DW_AT_TI_end_file("../Application/MAC/OSAL/osal.c")
     478                            .dwattr $C$DW$44, DW_AT_TI_end_line(0xd9)
     479                            .dwattr $C$DW$44, DW_AT_TI_end_column(0x01)
     480                            .dwendentry
     481                            .dwendtag $C$DW$44
     482                    
     483 00000000                   .sect   ".text:ICall_signal"
     484                            .clink
     485                            .thumbfunc ICall_signal
     486 00000000                   .thumb
     487                    
     488                    $C$DW$47        .dwtag  DW_TAG_subprogram
     489                            .dwattr $C$DW$47, DW_AT_name("ICall_signal")
     490                            .dwattr $C$DW$47, DW_AT_low_pc(ICall_signal)
     491                            .dwattr $C$DW$47, DW_AT_high_pc(0x00)
     492                            .dwattr $C$DW$47, DW_AT_TI_symbol_name("ICall_signal")
     493                            .dwattr $C$DW$47, DW_AT_type(*$C$DW$T$109)
     494                            .dwattr $C$DW$47, DW_AT_TI_begin_file("C:/ti/simplelink_cc13x0_sdk_2_30_00_20/source/ti/ti154s
     495                            .dwattr $C$DW$47, DW_AT_TI_begin_line(0x792)
TI ARM Assembler PC v16.9.9 Sun Nov 25 16:40:48 2018

Tools Copyright (c) 1996-2017 Texas Instruments Incorporated
C:\Users\Stryd\AppData\Local\Temp\{8719FFD6-004A-4401-8DC3-4DA83C6CF1D8} PAGE   10

     496                            .dwattr $C$DW$47, DW_AT_TI_begin_column(0x14)
     497                            .dwattr $C$DW$47, DW_AT_decl_file("C:/ti/simplelink_cc13x0_sdk_2_30_00_20/source/ti/ti154stack
     498                            .dwattr $C$DW$47, DW_AT_decl_line(0x792)
     499                            .dwattr $C$DW$47, DW_AT_decl_column(0x14)
     500                            .dwattr $C$DW$47, DW_AT_TI_max_frame_size(0x10)
     501                            .dwpsn  file "C:/ti/simplelink_cc13x0_sdk_2_30_00_20/source/ti/ti154stack/icall/src/inc/icall.
     502                    
     503                            .dwfde $C$DW$CIE, ICall_signal
     504                    $C$DW$48        .dwtag  DW_TAG_formal_parameter
     505                            .dwattr $C$DW$48, DW_AT_name("msgSyncHdl")
     506                            .dwattr $C$DW$48, DW_AT_TI_symbol_name("msgSyncHdl")
     507                            .dwattr $C$DW$48, DW_AT_type(*$C$DW$T$114)
     508                            .dwattr $C$DW$48, DW_AT_location[DW_OP_reg0]
     509                    
     510                    
     511                    ;*****************************************************************************
     512                    ;* FUNCTION NAME: ICall_signal                                               *
     513                    ;*                                                                           *
     514                    ;*   Regs Modified     : A1,A2,A3,A4,V9,SP,LR,SR                             *
     515                    ;*   Regs Used         : A1,A2,A3,A4,V9,SP,LR,SR                             *
     516                    ;*   Local Frame Size  : 0 Args + 8 Auto + 4 Save = 12 byte                  *
     517                    ;*****************************************************************************
     518                    ICall_signal:
     519                    ;* --------------------------------------------------------------------------*
     520                    $C$DW$49        .dwtag  DW_TAG_variable
     521                            .dwattr $C$DW$49, DW_AT_name("args")
     522                            .dwattr $C$DW$49, DW_AT_TI_symbol_name("args")
     523                            .dwattr $C$DW$49, DW_AT_type(*$C$DW$T$423)
     524                            .dwattr $C$DW$49, DW_AT_location[DW_OP_breg13 0]
     525                    
     526                    ;* A1    assigned to msgSyncHdl
     527                    $C$DW$50        .dwtag  DW_TAG_variable
     528                            .dwattr $C$DW$50, DW_AT_name("msgSyncHdl")
     529                            .dwattr $C$DW$50, DW_AT_TI_symbol_name("msgSyncHdl")
     530                            .dwattr $C$DW$50, DW_AT_type(*$C$DW$T$196)
     531                            .dwattr $C$DW$50, DW_AT_location[DW_OP_reg0]
     532                    
     533                            .dwcfi  cfa_offset, 0
     534 00000000 B50E              PUSH      {A2, A3, A4, LR}      ; [DPU_3_PIPE]  ; [ORIG 16-BIT INS]
     535                            .dwcfi  cfa_offset, 16
     536                            .dwcfi  save_reg_to_mem, 14, -4
     537                            .dwcfi  save_reg_to_mem, 3, -8
     538                            .dwcfi  save_reg_to_mem, 2, -12
     539                            .dwcfi  save_reg_to_mem, 1, -16
     540                            .dwpsn  file "C:/ti/simplelink_cc13x0_sdk_2_30_00_20/source/ti/ti154stack/icall/src/inc/icall.
     541 00000002 2108              MOVS      A2, #8                ; [DPU_3_PIPE] |1941|  ; [ORIG 16-BIT INS]
     542                            .dwpsn  file "C:/ti/simplelink_cc13x0_sdk_2_30_00_20/source/ti/ti154stack/icall/src/inc/icall.
     543 00000004 9001              STR       A1, [SP, #4]          ; [DPU_3_PIPE] |1943|  ; [ORIG 16-BIT INS]
     544                            .dwpsn  file "C:/ti/simplelink_cc13x0_sdk_2_30_00_20/source/ti/ti154stack/icall/src/inc/icall.
     545 00000006 4805              LDR       A1, $C$CON1           ; [DPU_3_PIPE] |1945|  ; [ORIG 16-BIT INS]
     546                            .dwpsn  file "C:/ti/simplelink_cc13x0_sdk_2_30_00_20/source/ti/ti154stack/icall/src/inc/icall.
     547 00000008 1000F8AD          STRH      A2, [SP, #0]          ; [DPU_3_PIPE] |1941|  ; [KEEP 32-BIT INS]
     548                            .dwpsn  file "C:/ti/simplelink_cc13x0_sdk_2_30_00_20/source/ti/ti154stack/icall/src/inc/icall.
     549 0000000c 210B              MOVS      A2, #11               ; [DPU_3_PIPE] |1942|  ; [ORIG 16-BIT INS]
     550 0000000e 1002F8AD          STRH      A2, [SP, #2]          ; [DPU_3_PIPE] |1942|  ; [KEEP 32-BIT INS]
TI ARM Assembler PC v16.9.9 Sun Nov 25 16:40:48 2018

Tools Copyright (c) 1996-2017 Texas Instruments Incorporated
C:\Users\Stryd\AppData\Local\Temp\{8719FFD6-004A-4401-8DC3-4DA83C6CF1D8} PAGE   11

     551                            .dwpsn  file "C:/ti/simplelink_cc13x0_sdk_2_30_00_20/source/ti/ti154stack/icall/src/inc/icall.
     552 00000012 6801              LDR       A2, [A1, #0]          ; [DPU_3_PIPE] |1945|  ; [ORIG 16-BIT INS]
     553 00000014 4668              MOV       A1, SP                ; [DPU_3_PIPE] |1945|  ; [ORIG 16-BIT INS]
     554                    $C$DW$51        .dwtag  DW_TAG_TI_branch
     555                            .dwattr $C$DW$51, DW_AT_low_pc(0x00)
     556                            .dwattr $C$DW$51, DW_AT_TI_call
     557                            .dwattr $C$DW$51, DW_AT_TI_indirect
     558                    
     559 00000016 4788              BLX       A2                    ; [DPU_3_PIPE] |1945|  ; [ORIG 16-BIT INS]
     560                            ; CALL OCCURS {}                 ; [] |1945| 
     561                    $C$DW$52        .dwtag  DW_TAG_TI_branch
     562                            .dwattr $C$DW$52, DW_AT_low_pc(0x00)
     563                            .dwattr $C$DW$52, DW_AT_TI_return
     564                    
     565 00000018 BD0E              POP       {A2, A3, A4, PC}      ; [DPU_3_PIPE]  ; [ORIG 16-BIT INS]
     566                            .dwcfi  cfa_offset, 0
     567                            .dwcfi  restore_reg, 3
     568                            .dwcfi  restore_reg, 2
     569                            .dwcfi  restore_reg, 1
     570                            ; BRANCH OCCURS                  ; [] 
     571                            .dwattr $C$DW$47, DW_AT_TI_end_file("C:/ti/simplelink_cc13x0_sdk_2_30_00_20/source/ti/ti154sta
     572                            .dwattr $C$DW$47, DW_AT_TI_end_line(0x79a)
     573                            .dwattr $C$DW$47, DW_AT_TI_end_column(0x01)
     574                            .dwendentry
     575                            .dwendtag $C$DW$47
     576                    
     577 00000000                   .sect   ".text:osal_msec_timer_cback"
     578                            .clink
     579                            .thumbfunc osal_msec_timer_cback
     580 00000000                   .thumb
     581                    
     582                    $C$DW$53        .dwtag  DW_TAG_subprogram
     583                            .dwattr $C$DW$53, DW_AT_name("osal_msec_timer_cback")
     584                            .dwattr $C$DW$53, DW_AT_low_pc(osal_msec_timer_cback)
     585                            .dwattr $C$DW$53, DW_AT_high_pc(0x00)
     586                            .dwattr $C$DW$53, DW_AT_TI_symbol_name("osal_msec_timer_cback")
     587                            .dwattr $C$DW$53, DW_AT_TI_begin_file("../Application/MAC/OSAL/osal.c")
     588                            .dwattr $C$DW$53, DW_AT_TI_begin_line(0x611)
     589                            .dwattr $C$DW$53, DW_AT_TI_begin_column(0x0d)
     590                            .dwattr $C$DW$53, DW_AT_decl_file("../Application/MAC/OSAL/osal.c")
     591                            .dwattr $C$DW$53, DW_AT_decl_line(0x611)
     592                            .dwattr $C$DW$53, DW_AT_decl_column(0x0d)
     593                            .dwattr $C$DW$53, DW_AT_TI_max_frame_size(0x10)
     594                            .dwpsn  file "../Application/MAC/OSAL/osal.c",line 1554,column 1,is_stmt,address osal_msec_tim
     595                    
     596                            .dwfde $C$DW$CIE, osal_msec_timer_cback
     597                    $C$DW$54        .dwtag  DW_TAG_formal_parameter
     598                            .dwattr $C$DW$54, DW_AT_name("arg")
     599                            .dwattr $C$DW$54, DW_AT_TI_symbol_name("arg")
     600                            .dwattr $C$DW$54, DW_AT_type(*$C$DW$T$3)
     601                            .dwattr $C$DW$54, DW_AT_location[DW_OP_reg0]
     602                    
     603                    
     604                    ;*****************************************************************************
     605                    ;* FUNCTION NAME: osal_msec_timer_cback                                      *
TI ARM Assembler PC v16.9.9 Sun Nov 25 16:40:48 2018

Tools Copyright (c) 1996-2017 Texas Instruments Incorporated
C:\Users\Stryd\AppData\Local\Temp\{8719FFD6-004A-4401-8DC3-4DA83C6CF1D8} PAGE   12

     606                    ;*                                                                           *
     607                    ;*   Regs Modified     : A1,A2,A3,A4,V1,V2,V9,SP,LR,SR                       *
     608                    ;*   Regs Used         : A1,A2,A3,A4,V1,V2,V9,SP,LR,SR                       *
     609                    ;*   Local Frame Size  : 0 Args + 0 Auto + 12 Save = 12 byte                 *
     610                    ;*****************************************************************************
     611                    osal_msec_timer_cback:
     612                    ;* --------------------------------------------------------------------------*
     613                    ;* A1    assigned to $O$C1
     614                    ;* A1    assigned to $O$K8
     615                    ;* V1    assigned to arg
     616                    $C$DW$55        .dwtag  DW_TAG_variable
     617                            .dwattr $C$DW$55, DW_AT_name("arg")
     618                            .dwattr $C$DW$55, DW_AT_TI_symbol_name("arg")
     619                            .dwattr $C$DW$55, DW_AT_type(*$C$DW$T$212)
     620                            .dwattr $C$DW$55, DW_AT_location[DW_OP_reg4]
     621                    
     622                    ;* V2    assigned to intState
     623                    $C$DW$56        .dwtag  DW_TAG_variable
     624                            .dwattr $C$DW$56, DW_AT_name("intState")
     625                            .dwattr $C$DW$56, DW_AT_TI_symbol_name("intState")
     626                            .dwattr $C$DW$56, DW_AT_type(*$C$DW$T$372)
     627                            .dwattr $C$DW$56, DW_AT_location[DW_OP_reg5]
     628                    
     629                            .dwcfi  cfa_offset, 0
     630 00000000 B538              PUSH      {A4, V1, V2, LR}      ; [DPU_3_PIPE]  ; [ORIG 16-BIT INS]
     631                            .dwcfi  cfa_offset, 16
     632                            .dwcfi  save_reg_to_mem, 14, -4
     633                            .dwcfi  save_reg_to_mem, 5, -8
     634                            .dwcfi  save_reg_to_mem, 4, -12
     635                            .dwcfi  save_reg_to_mem, 3, -16
     636 00000002 4604              MOV       V1, A1                ; [DPU_3_PIPE] |1554|  ; [ORIG 16-BIT INS]
     637                            .dwpsn  file "../Application/MAC/OSAL/osal.c",line 1558,column 3,is_stmt,isa 1
     638 00000004 4807              LDR       A1, $C$CON2           ; [DPU_3_PIPE] |1558|  ; [ORIG 16-BIT INS]
     639 00000006 6800              LDR       A1, [A1, #0]          ; [DPU_3_PIPE] |1558|  ; [ORIG 16-BIT INS]
     640                    $C$DW$57        .dwtag  DW_TAG_TI_branch
     641                            .dwattr $C$DW$57, DW_AT_low_pc(0x00)
     642                            .dwattr $C$DW$57, DW_AT_TI_call
     643                            .dwattr $C$DW$57, DW_AT_TI_indirect
     644                    
     645 00000008 4780              BLX       A1                    ; [DPU_3_PIPE] |1558|  ; [ORIG 16-BIT INS]
     646                            ; CALL OCCURS {}                 ; [] |1558| 
     647 0000000a 4605              MOV       V2, A1                ; [DPU_3_PIPE] |1558|  ; [ORIG 16-BIT INS]
     648                            .dwpsn  file "../Application/MAC/OSAL/osal.c",line 1559,column 3,is_stmt,isa 1
     649 0000000c 4806              LDR       A1, $C$CON3           ; [DPU_3_PIPE] |1559|  ; [ORIG 16-BIT INS]
     650 0000000e 6A41              LDR       A2, [A1, #36]         ; [DPU_3_PIPE] |1559|  ; [ORIG 16-BIT INS]
     651 00000010 42A1              CMP       A2, V1                ; [DPU_3_PIPE] |1559|  ; [ORIG 16-BIT INS]
     652 00000012 D102              BNE       ||$C$L1||             ; [DPU_3_PIPE] |1559|  ; [ORIG 16-BIT INS]
     653                            ; BRANCHCC OCCURS {||$C$L1||}    ; [] |1559| 
     654                    ;* --------------------------------------------------------------------------*
     655                            .dwpsn  file "../Application/MAC/OSAL/osal.c",line 1564,column 5,is_stmt,isa 1
     656 00000014 6900              LDR       A1, [A1, #16]         ; [DPU_3_PIPE] |1564|  ; [ORIG 16-BIT INS]
     657                    $C$DW$58        .dwtag  DW_TAG_TI_branch
     658                            .dwattr $C$DW$58, DW_AT_low_pc(0x00)
     659                            .dwattr $C$DW$58, DW_AT_name("ICall_signal")
     660                            .dwattr $C$DW$58, DW_AT_TI_call
TI ARM Assembler PC v16.9.9 Sun Nov 25 16:40:48 2018

Tools Copyright (c) 1996-2017 Texas Instruments Incorporated
C:\Users\Stryd\AppData\Local\Temp\{8719FFD6-004A-4401-8DC3-4DA83C6CF1D8} PAGE   13

     661                    
     662 00000016 FFFEF7FF!         BL        ICall_signal          ; [DPU_3_PIPE] |1564|  ; [KEEP 32-BIT INS]
     663                            ; CALL OCCURS {ICall_signal }    ; [] |1564| 
     664                    ;* --------------------------------------------------------------------------*
     665 0000001a           ||$C$L1||:    
     666                            .dwpsn  file "../Application/MAC/OSAL/osal.c",line 1567,column 3,is_stmt,isa 1
     667 0000001a 4804              LDR       A1, $C$CON4           ; [DPU_3_PIPE] |1567|  ; [ORIG 16-BIT INS]
     668 0000001c 6801              LDR       A2, [A1, #0]          ; [DPU_3_PIPE] |1567|  ; [ORIG 16-BIT INS]
     669 0000001e 4628              MOV       A1, V2                ; [DPU_3_PIPE] |1567|  ; [ORIG 16-BIT INS]
     670                    $C$DW$59        .dwtag  DW_TAG_TI_branch
     671                            .dwattr $C$DW$59, DW_AT_low_pc(0x00)
     672                            .dwattr $C$DW$59, DW_AT_TI_call
     673                            .dwattr $C$DW$59, DW_AT_TI_indirect
     674                    
     675 00000020 4788              BLX       A2                    ; [DPU_3_PIPE] |1567|  ; [ORIG 16-BIT INS]
     676                            ; CALL OCCURS {}                 ; [] |1567| 
     677                    $C$DW$60        .dwtag  DW_TAG_TI_branch
     678                            .dwattr $C$DW$60, DW_AT_low_pc(0x00)
     679                            .dwattr $C$DW$60, DW_AT_TI_return
     680                    
     681 00000022 BD38              POP       {A4, V1, V2, PC}      ; [DPU_3_PIPE]  ; [ORIG 16-BIT INS]
     682                            .dwcfi  cfa_offset, 0
     683                            .dwcfi  restore_reg, 5
     684                            .dwcfi  restore_reg, 4
     685                            .dwcfi  restore_reg, 3
     686                            ; BRANCH OCCURS                  ; [] 
     687                            .dwattr $C$DW$53, DW_AT_TI_end_file("../Application/MAC/OSAL/osal.c")
     688                            .dwattr $C$DW$53, DW_AT_TI_end_line(0x620)
     689                            .dwattr $C$DW$53, DW_AT_TI_end_column(0x01)
     690                            .dwendentry
     691                            .dwendtag $C$DW$53
     692                    
     693                    ;**     Parameter deleted: id == &osal_timerid_msec_timer;
     694                    ;**     Parameter deleted: cback == &osal_msec_timer_cback;
     695                    ;**     Parameter deleted: ticks == 1u;
     696 00000000                   .sect   ".text:ICall_setTimer"
     697                            .clink
     698                            .thumbfunc ICall_setTimer
     699 00000000                   .thumb
     700                    
     701                    $C$DW$61        .dwtag  DW_TAG_subprogram
     702                            .dwattr $C$DW$61, DW_AT_name("ICall_setTimer")
     703                            .dwattr $C$DW$61, DW_AT_low_pc(ICall_setTimer)
     704                            .dwattr $C$DW$61, DW_AT_high_pc(0x00)
     705                            .dwattr $C$DW$61, DW_AT_TI_symbol_name("ICall_setTimer")
     706                            .dwattr $C$DW$61, DW_AT_type(*$C$DW$T$109)
     707                            .dwattr $C$DW$61, DW_AT_TI_begin_file("C:/ti/simplelink_cc13x0_sdk_2_30_00_20/source/ti/ti154s
     708                            .dwattr $C$DW$61, DW_AT_TI_begin_line(0x916)
     709                            .dwattr $C$DW$61, DW_AT_TI_begin_column(0x01)
     710                            .dwattr $C$DW$61, DW_AT_decl_file("C:/ti/simplelink_cc13x0_sdk_2_30_00_20/source/ti/ti154stack
     711                            .dwattr $C$DW$61, DW_AT_decl_line(0x916)
     712                            .dwattr $C$DW$61, DW_AT_decl_column(0x01)
     713                            .dwattr $C$DW$61, DW_AT_TI_max_frame_size(0x20)
     714                            .dwpsn  file "C:/ti/simplelink_cc13x0_sdk_2_30_00_20/source/ti/ti154stack/icall/src/inc/icall.
     715                    
TI ARM Assembler PC v16.9.9 Sun Nov 25 16:40:48 2018

Tools Copyright (c) 1996-2017 Texas Instruments Incorporated
C:\Users\Stryd\AppData\Local\Temp\{8719FFD6-004A-4401-8DC3-4DA83C6CF1D8} PAGE   14

     716                            .dwfde $C$DW$CIE, ICall_setTimer
     717                    $C$DW$62        .dwtag  DW_TAG_formal_parameter
     718                            .dwattr $C$DW$62, DW_AT_name("arg")
     719                            .dwattr $C$DW$62, DW_AT_TI_symbol_name("arg")
     720                            .dwattr $C$DW$62, DW_AT_type(*$C$DW$T$3)
     721                            .dwattr $C$DW$62, DW_AT_location[DW_OP_reg0]
     722                    
     723                    
     724                    ;*****************************************************************************
     725                    ;* FUNCTION NAME: ICall_setTimer                                             *
     726                    ;*                                                                           *
     727                    ;*   Regs Modified     : A1,A2,A3,A4,V1,V9,SP,LR,SR                          *
     728                    ;*   Regs Used         : A1,A2,A3,A4,V1,V9,SP,LR,SR                          *
     729                    ;*   Local Frame Size  : 0 Args + 20 Auto + 8 Save = 28 byte                 *
     730                    ;*****************************************************************************
     731                    ICall_setTimer:
     732                    ;* --------------------------------------------------------------------------*
     733                    $C$DW$63        .dwtag  DW_TAG_variable
     734                            .dwattr $C$DW$63, DW_AT_name("args")
     735                            .dwattr $C$DW$63, DW_AT_TI_symbol_name("args")
     736                            .dwattr $C$DW$63, DW_AT_type(*$C$DW$T$421)
     737                            .dwattr $C$DW$63, DW_AT_location[DW_OP_breg13 0]
     738                    
     739                    ;* V1    assigned to $O$C16
     740                    ;* A1    assigned to arg
     741                    $C$DW$64        .dwtag  DW_TAG_variable
     742                            .dwattr $C$DW$64, DW_AT_name("arg")
     743                            .dwattr $C$DW$64, DW_AT_TI_symbol_name("arg")
     744                            .dwattr $C$DW$64, DW_AT_type(*$C$DW$T$212)
     745                            .dwattr $C$DW$64, DW_AT_location[DW_OP_reg0]
     746                    
     747                            .dwcfi  cfa_offset, 0
     748 00000000 B510              PUSH      {V1, LR}              ; [DPU_3_PIPE]  ; [ORIG 16-BIT INS]
     749                            .dwcfi  cfa_offset, 8
     750                            .dwcfi  save_reg_to_mem, 14, -4
     751                            .dwcfi  save_reg_to_mem, 4, -8
     752                            .dwpsn  file "C:/ti/simplelink_cc13x0_sdk_2_30_00_20/source/ti/ti154stack/icall/src/inc/icall.
     753 00000002 2108              MOVS      A2, #8                ; [DPU_3_PIPE] |2333|  ; [ORIG 16-BIT INS]
     754 00000004 0D18F1AD          SUB       SP, SP, #24           ; [DPU_3_PIPE]  ; [KEEP 32-BIT INS]
     755                            .dwcfi  cfa_offset, 32
     756 00000008 1000F8AD          STRH      A2, [SP, #0]          ; [DPU_3_PIPE] |2333|  ; [KEEP 32-BIT INS]
     757                            .dwpsn  file "C:/ti/simplelink_cc13x0_sdk_2_30_00_20/source/ti/ti154stack/icall/src/inc/icall.
     758 0000000c 4C0A              LDR       V1, $C$CON8           ; [DPU_3_PIPE] |2338|  ; [ORIG 16-BIT INS]
     759                            .dwpsn  file "C:/ti/simplelink_cc13x0_sdk_2_30_00_20/source/ti/ti154stack/icall/src/inc/icall.
     760 0000000e 9004              STR       A1, [SP, #16]         ; [DPU_3_PIPE] |2337|  ; [ORIG 16-BIT INS]
     761                            .dwpsn  file "C:/ti/simplelink_cc13x0_sdk_2_30_00_20/source/ti/ti154stack/icall/src/inc/icall.
     762 00000010 211B              MOVS      A2, #27               ; [DPU_3_PIPE] |2334|  ; [ORIG 16-BIT INS]
     763 00000012 1002F8AD          STRH      A2, [SP, #2]          ; [DPU_3_PIPE] |2334|  ; [KEEP 32-BIT INS]
     764                            .dwpsn  file "C:/ti/simplelink_cc13x0_sdk_2_30_00_20/source/ti/ti154stack/icall/src/inc/icall.
     765 00000016 6A20              LDR       A1, [V1, #32]         ; [DPU_3_PIPE] |2338|  ; [ORIG 16-BIT INS]
     766 00000018 9002              STR       A1, [SP, #8]          ; [DPU_3_PIPE] |2338|  ; [ORIG 16-BIT INS]
     767                            .dwpsn  file "C:/ti/simplelink_cc13x0_sdk_2_30_00_20/source/ti/ti154stack/icall/src/inc/icall.
     768 0000001a 2101              MOVS      A2, #1                ; [DPU_3_PIPE] |2335|  ; [ORIG 16-BIT INS]
     769 0000001c 9101              STR       A2, [SP, #4]          ; [DPU_3_PIPE] |2335|  ; [ORIG 16-BIT INS]
     770                            .dwpsn  file "C:/ti/simplelink_cc13x0_sdk_2_30_00_20/source/ti/ti154stack/icall/src/inc/icall.
TI ARM Assembler PC v16.9.9 Sun Nov 25 16:40:48 2018

Tools Copyright (c) 1996-2017 Texas Instruments Incorporated
C:\Users\Stryd\AppData\Local\Temp\{8719FFD6-004A-4401-8DC3-4DA83C6CF1D8} PAGE   15

     771 0000001e 4905              LDR       A2, $C$CON5           ; [DPU_3_PIPE] |2336|  ; [ORIG 16-BIT INS]
     772                            .dwpsn  file "C:/ti/simplelink_cc13x0_sdk_2_30_00_20/source/ti/ti154stack/icall/src/inc/icall.
     773 00000020 4806              LDR       A1, $C$CON9           ; [DPU_3_PIPE] |2339|  ; [ORIG 16-BIT INS]
     774                            .dwpsn  file "C:/ti/simplelink_cc13x0_sdk_2_30_00_20/source/ti/ti154stack/icall/src/inc/icall.
     775 00000022 9103              STR       A2, [SP, #12]         ; [DPU_3_PIPE] |2336|  ; [ORIG 16-BIT INS]
     776                            .dwpsn  file "C:/ti/simplelink_cc13x0_sdk_2_30_00_20/source/ti/ti154stack/icall/src/inc/icall.
     777 00000024 6801              LDR       A2, [A1, #0]          ; [DPU_3_PIPE] |2339|  ; [ORIG 16-BIT INS]
     778 00000026 4668              MOV       A1, SP                ; [DPU_3_PIPE] |2339|  ; [ORIG 16-BIT INS]
     779                    $C$DW$65        .dwtag  DW_TAG_TI_branch
     780                            .dwattr $C$DW$65, DW_AT_low_pc(0x00)
     781                            .dwattr $C$DW$65, DW_AT_TI_call
     782                            .dwattr $C$DW$65, DW_AT_TI_indirect
     783                    
     784 00000028 4788              BLX       A2                    ; [DPU_3_PIPE] |2339|  ; [ORIG 16-BIT INS]
     785                            ; CALL OCCURS {}                 ; [] |2339| 
     786                            .dwpsn  file "C:/ti/simplelink_cc13x0_sdk_2_30_00_20/source/ti/ti154stack/icall/src/inc/icall.
     787 0000002a 9902              LDR       A2, [SP, #8]          ; [DPU_3_PIPE] |2340|  ; [ORIG 16-BIT INS]
     788 0000002c 6221              STR       A2, [V1, #32]         ; [DPU_3_PIPE] |2340|  ; [ORIG 16-BIT INS]
     789 0000002e B006              ADD       SP, SP, #24           ; [DPU_3_PIPE]  ; [ORIG 16-BIT INS]
     790                            .dwcfi  cfa_offset, 8
     791                    $C$DW$66        .dwtag  DW_TAG_TI_branch
     792                            .dwattr $C$DW$66, DW_AT_low_pc(0x00)
     793                            .dwattr $C$DW$66, DW_AT_TI_return
     794                    
     795 00000030 BD10              POP       {V1, PC}              ; [DPU_3_PIPE]  ; [ORIG 16-BIT INS]
     796                            .dwcfi  cfa_offset, 0
     797                            .dwcfi  restore_reg, 4
     798                            ; BRANCH OCCURS                  ; [] 
     799                            .dwattr $C$DW$61, DW_AT_TI_end_file("C:/ti/simplelink_cc13x0_sdk_2_30_00_20/source/ti/ti154sta
     800                            .dwattr $C$DW$61, DW_AT_TI_end_line(0x927)
     801                            .dwattr $C$DW$61, DW_AT_TI_end_column(0x01)
     802                            .dwendentry
     803                            .dwendtag $C$DW$61
     804                    
     805 00000000                   .sect   ".text:ICall_abort"
     806                            .clink
     807                            .thumbfunc ICall_abort
     808 00000000                   .thumb
     809                    
     810                    $C$DW$67        .dwtag  DW_TAG_subprogram
     811                            .dwattr $C$DW$67, DW_AT_name("ICall_abort")
     812                            .dwattr $C$DW$67, DW_AT_low_pc(ICall_abort)
     813                            .dwattr $C$DW$67, DW_AT_high_pc(0x00)
     814                            .dwattr $C$DW$67, DW_AT_TI_symbol_name("ICall_abort")
     815                            .dwattr $C$DW$67, DW_AT_type(*$C$DW$T$109)
     816                            .dwattr $C$DW$67, DW_AT_TI_begin_file("C:/ti/simplelink_cc13x0_sdk_2_30_00_20/source/ti/ti154s
     817                            .dwattr $C$DW$67, DW_AT_TI_begin_line(0x846)
     818                            .dwattr $C$DW$67, DW_AT_TI_begin_column(0x01)
     819                            .dwattr $C$DW$67, DW_AT_decl_file("C:/ti/simplelink_cc13x0_sdk_2_30_00_20/source/ti/ti154stack
     820                            .dwattr $C$DW$67, DW_AT_decl_line(0x846)
     821                            .dwattr $C$DW$67, DW_AT_decl_column(0x01)
     822                            .dwattr $C$DW$67, DW_AT_TI_max_frame_size(0x08)
     823                            .dwpsn  file "C:/ti/simplelink_cc13x0_sdk_2_30_00_20/source/ti/ti154stack/icall/src/inc/icall.
     824                    
     825                            .dwfde $C$DW$CIE, ICall_abort
TI ARM Assembler PC v16.9.9 Sun Nov 25 16:40:48 2018

Tools Copyright (c) 1996-2017 Texas Instruments Incorporated
C:\Users\Stryd\AppData\Local\Temp\{8719FFD6-004A-4401-8DC3-4DA83C6CF1D8} PAGE   16

     826                    
     827                    ;*****************************************************************************
     828                    ;* FUNCTION NAME: ICall_abort                                                *
     829                    ;*                                                                           *
     830                    ;*   Regs Modified     : A1,A2,A3,A4,V9,SP,LR,SR                             *
     831                    ;*   Regs Used         : A1,A2,A3,A4,V9,SP,LR,SR                             *
     832                    ;*   Local Frame Size  : 0 Args + 4 Auto + 4 Save = 8 byte                   *
     833                    ;*****************************************************************************
     834                    ICall_abort:
     835                    ;* --------------------------------------------------------------------------*
     836                    $C$DW$68        .dwtag  DW_TAG_variable
     837                            .dwattr $C$DW$68, DW_AT_name("args")
     838                            .dwattr $C$DW$68, DW_AT_TI_symbol_name("args")
     839                            .dwattr $C$DW$68, DW_AT_type(*$C$DW$T$101)
     840                            .dwattr $C$DW$68, DW_AT_location[DW_OP_breg13 0]
     841                    
     842                            .dwcfi  cfa_offset, 0
     843 00000000 B508              PUSH      {A4, LR}              ; [DPU_3_PIPE]  ; [ORIG 16-BIT INS]
     844                            .dwcfi  cfa_offset, 8
     845                            .dwcfi  save_reg_to_mem, 14, -4
     846                            .dwcfi  save_reg_to_mem, 3, -8
     847                            .dwpsn  file "C:/ti/simplelink_cc13x0_sdk_2_30_00_20/source/ti/ti154stack/icall/src/inc/icall.
     848 00000002 2008              MOVS      A1, #8                ; [DPU_3_PIPE] |2123|  ; [ORIG 16-BIT INS]
     849 00000004 0000F8AD          STRH      A1, [SP, #0]          ; [DPU_3_PIPE] |2123|  ; [KEEP 32-BIT INS]
     850                            .dwpsn  file "C:/ti/simplelink_cc13x0_sdk_2_30_00_20/source/ti/ti154stack/icall/src/inc/icall.
     851 00000008 200C              MOVS      A1, #12               ; [DPU_3_PIPE] |2124|  ; [ORIG 16-BIT INS]
     852 0000000a 0002F8AD          STRH      A1, [SP, #2]          ; [DPU_3_PIPE] |2124|  ; [KEEP 32-BIT INS]
     853                            .dwpsn  file "C:/ti/simplelink_cc13x0_sdk_2_30_00_20/source/ti/ti154stack/icall/src/inc/icall.
     854 0000000e 4802              LDR       A1, $C$CON11          ; [DPU_3_PIPE] |2125|  ; [ORIG 16-BIT INS]
     855 00000010 6801              LDR       A2, [A1, #0]          ; [DPU_3_PIPE] |2125|  ; [ORIG 16-BIT INS]
     856 00000012 4668              MOV       A1, SP                ; [DPU_3_PIPE] |2125|  ; [ORIG 16-BIT INS]
     857                    $C$DW$69        .dwtag  DW_TAG_TI_branch
     858                            .dwattr $C$DW$69, DW_AT_low_pc(0x00)
     859                            .dwattr $C$DW$69, DW_AT_TI_call
     860                            .dwattr $C$DW$69, DW_AT_TI_indirect
     861                    
     862 00000014 4788              BLX       A2                    ; [DPU_3_PIPE] |2125|  ; [ORIG 16-BIT INS]
     863                            ; CALL OCCURS {}                 ; [] |2125| 
     864                    $C$DW$70        .dwtag  DW_TAG_TI_branch
     865                            .dwattr $C$DW$70, DW_AT_low_pc(0x00)
     866                            .dwattr $C$DW$70, DW_AT_TI_return
     867                    
     868 00000016 BD08              POP       {A4, PC}              ; [DPU_3_PIPE]  ; [ORIG 16-BIT INS]
     869                            .dwcfi  cfa_offset, 0
     870                            .dwcfi  restore_reg, 3
     871                            ; BRANCH OCCURS                  ; [] 
     872                            .dwattr $C$DW$67, DW_AT_TI_end_file("C:/ti/simplelink_cc13x0_sdk_2_30_00_20/source/ti/ti154sta
     873                            .dwattr $C$DW$67, DW_AT_TI_end_line(0x84e)
     874                            .dwattr $C$DW$67, DW_AT_TI_end_column(0x01)
     875                            .dwendentry
     876                            .dwendtag $C$DW$67
     877                    
     878 00000000                   .sect   ".text:ICall_getTicks"
     879                            .clink
     880                            .thumbfunc ICall_getTicks
TI ARM Assembler PC v16.9.9 Sun Nov 25 16:40:48 2018

Tools Copyright (c) 1996-2017 Texas Instruments Incorporated
C:\Users\Stryd\AppData\Local\Temp\{8719FFD6-004A-4401-8DC3-4DA83C6CF1D8} PAGE   17

     881 00000000                   .thumb
     882                    
     883                    $C$DW$71        .dwtag  DW_TAG_subprogram
     884                            .dwattr $C$DW$71, DW_AT_name("ICall_getTicks")
     885                            .dwattr $C$DW$71, DW_AT_low_pc(ICall_getTicks)
     886                            .dwattr $C$DW$71, DW_AT_high_pc(0x00)
     887                            .dwattr $C$DW$71, DW_AT_TI_symbol_name("ICall_getTicks")
     888                            .dwattr $C$DW$71, DW_AT_type(*$C$DW$T$128)
     889                            .dwattr $C$DW$71, DW_AT_TI_begin_file("C:/ti/simplelink_cc13x0_sdk_2_30_00_20/source/ti/ti154s
     890                            .dwattr $C$DW$71, DW_AT_TI_begin_line(0x8ac)
     891                            .dwattr $C$DW$71, DW_AT_TI_begin_column(0x01)
     892                            .dwattr $C$DW$71, DW_AT_decl_file("C:/ti/simplelink_cc13x0_sdk_2_30_00_20/source/ti/ti154stack
     893                            .dwattr $C$DW$71, DW_AT_decl_line(0x8ac)
     894                            .dwattr $C$DW$71, DW_AT_decl_column(0x01)
     895                            .dwattr $C$DW$71, DW_AT_TI_max_frame_size(0x10)
     896                            .dwpsn  file "C:/ti/simplelink_cc13x0_sdk_2_30_00_20/source/ti/ti154stack/icall/src/inc/icall.
     897                    
     898                            .dwfde $C$DW$CIE, ICall_getTicks
     899                    
     900                    ;*****************************************************************************
     901                    ;* FUNCTION NAME: ICall_getTicks                                             *
     902                    ;*                                                                           *
     903                    ;*   Regs Modified     : A1,A2,A3,A4,V9,SP,LR,SR                             *
     904                    ;*   Regs Used         : A1,A2,A3,A4,V9,SP,LR,SR                             *
     905                    ;*   Local Frame Size  : 0 Args + 8 Auto + 4 Save = 12 byte                  *
     906                    ;*****************************************************************************
     907                    ICall_getTicks:
     908                    ;* --------------------------------------------------------------------------*
     909                    $C$DW$72        .dwtag  DW_TAG_variable
     910                            .dwattr $C$DW$72, DW_AT_name("args")
     911                            .dwattr $C$DW$72, DW_AT_TI_symbol_name("args")
     912                            .dwattr $C$DW$72, DW_AT_type(*$C$DW$T$405)
     913                            .dwattr $C$DW$72, DW_AT_location[DW_OP_breg13 0]
     914                    
     915                            .dwcfi  cfa_offset, 0
     916 00000000 B50E              PUSH      {A2, A3, A4, LR}      ; [DPU_3_PIPE]  ; [ORIG 16-BIT INS]
     917                            .dwcfi  cfa_offset, 16
     918                            .dwcfi  save_reg_to_mem, 14, -4
     919                            .dwcfi  save_reg_to_mem, 3, -8
     920                            .dwcfi  save_reg_to_mem, 2, -12
     921                            .dwcfi  save_reg_to_mem, 1, -16
     922                            .dwpsn  file "C:/ti/simplelink_cc13x0_sdk_2_30_00_20/source/ti/ti154stack/icall/src/inc/icall.
     923 00000002 2008              MOVS      A1, #8                ; [DPU_3_PIPE] |2223|  ; [ORIG 16-BIT INS]
     924 00000004 0000F8AD          STRH      A1, [SP, #0]          ; [DPU_3_PIPE] |2223|  ; [KEEP 32-BIT INS]
     925                            .dwpsn  file "C:/ti/simplelink_cc13x0_sdk_2_30_00_20/source/ti/ti154stack/icall/src/inc/icall.
     926 00000008 2012              MOVS      A1, #18               ; [DPU_3_PIPE] |2224|  ; [ORIG 16-BIT INS]
     927 0000000a 0002F8AD          STRH      A1, [SP, #2]          ; [DPU_3_PIPE] |2224|  ; [KEEP 32-BIT INS]
     928                            .dwpsn  file "C:/ti/simplelink_cc13x0_sdk_2_30_00_20/source/ti/ti154stack/icall/src/inc/icall.
     929 0000000e 4803              LDR       A1, $C$CON13          ; [DPU_3_PIPE] |2225|  ; [ORIG 16-BIT INS]
     930 00000010 6801              LDR       A2, [A1, #0]          ; [DPU_3_PIPE] |2225|  ; [ORIG 16-BIT INS]
     931 00000012 4668              MOV       A1, SP                ; [DPU_3_PIPE] |2225|  ; [ORIG 16-BIT INS]
     932                    $C$DW$73        .dwtag  DW_TAG_TI_branch
     933                            .dwattr $C$DW$73, DW_AT_low_pc(0x00)
     934                            .dwattr $C$DW$73, DW_AT_TI_call
     935                            .dwattr $C$DW$73, DW_AT_TI_indirect
TI ARM Assembler PC v16.9.9 Sun Nov 25 16:40:48 2018

Tools Copyright (c) 1996-2017 Texas Instruments Incorporated
C:\Users\Stryd\AppData\Local\Temp\{8719FFD6-004A-4401-8DC3-4DA83C6CF1D8} PAGE   18

     936                    
     937 00000014 4788              BLX       A2                    ; [DPU_3_PIPE] |2225|  ; [ORIG 16-BIT INS]
     938                            ; CALL OCCURS {}                 ; [] |2225| 
     939                            .dwpsn  file "C:/ti/simplelink_cc13x0_sdk_2_30_00_20/source/ti/ti154stack/icall/src/inc/icall.
     940 00000016 9801              LDR       A1, [SP, #4]          ; [DPU_3_PIPE] |2226|  ; [ORIG 16-BIT INS]
     941                    $C$DW$74        .dwtag  DW_TAG_TI_branch
     942                            .dwattr $C$DW$74, DW_AT_low_pc(0x00)
     943                            .dwattr $C$DW$74, DW_AT_TI_return
     944                    
     945 00000018 BD0E              POP       {A2, A3, A4, PC}      ; [DPU_3_PIPE]  ; [ORIG 16-BIT INS]
     946                            .dwcfi  cfa_offset, 0
     947                            .dwcfi  restore_reg, 3
     948                            .dwcfi  restore_reg, 2
     949                            .dwcfi  restore_reg, 1
     950                            ; BRANCH OCCURS                  ; [] 
     951                            .dwattr $C$DW$71, DW_AT_TI_end_file("C:/ti/simplelink_cc13x0_sdk_2_30_00_20/source/ti/ti154sta
     952                            .dwattr $C$DW$71, DW_AT_TI_end_line(0x8b3)
     953                            .dwattr $C$DW$71, DW_AT_TI_end_column(0x01)
     954                            .dwendentry
     955                            .dwendtag $C$DW$71
     956                    
     957 00000000                   .sect   ".text:osal_alien2proxy"
     958                            .clink
     959                            .thumbfunc osal_alien2proxy
     960 00000000                   .thumb
     961                            .global osal_alien2proxy
     962                    
     963                    $C$DW$75        .dwtag  DW_TAG_subprogram
     964                            .dwattr $C$DW$75, DW_AT_name("osal_alien2proxy")
     965                            .dwattr $C$DW$75, DW_AT_low_pc(osal_alien2proxy)
     966                            .dwattr $C$DW$75, DW_AT_high_pc(0x00)
     967                            .dwattr $C$DW$75, DW_AT_TI_symbol_name("osal_alien2proxy")
     968                            .dwattr $C$DW$75, DW_AT_external
     969                            .dwattr $C$DW$75, DW_AT_type(*$C$DW$T$19)
     970                            .dwattr $C$DW$75, DW_AT_TI_begin_file("../Application/MAC/OSAL/osal.c")
     971                            .dwattr $C$DW$75, DW_AT_TI_begin_line(0x5bd)
     972                            .dwattr $C$DW$75, DW_AT_TI_begin_column(0x07)
     973                            .dwattr $C$DW$75, DW_AT_decl_file("../Application/MAC/OSAL/osal.c")
     974                            .dwattr $C$DW$75, DW_AT_decl_line(0x5bd)
     975                            .dwattr $C$DW$75, DW_AT_decl_column(0x07)
     976                            .dwattr $C$DW$75, DW_AT_TI_max_frame_size(0x08)
     977                            .dwpsn  file "../Application/MAC/OSAL/osal.c",line 1473,column 1,is_stmt,address osal_alien2pr
     978                    
     979                            .dwfde $C$DW$CIE, osal_alien2proxy
     980                    $C$DW$76        .dwtag  DW_TAG_formal_parameter
     981                            .dwattr $C$DW$76, DW_AT_name("origid")
     982                            .dwattr $C$DW$76, DW_AT_TI_symbol_name("origid")
     983                            .dwattr $C$DW$76, DW_AT_type(*$C$DW$T$10)
     984                            .dwattr $C$DW$76, DW_AT_location[DW_OP_reg0]
     985                    
     986                    
     987                    ;*****************************************************************************
     988                    ;* FUNCTION NAME: osal_alien2proxy                                           *
     989                    ;*                                                                           *
     990                    ;*   Regs Modified     : A1,A2,A3,A4,V9,SP,LR,SR                             *
TI ARM Assembler PC v16.9.9 Sun Nov 25 16:40:48 2018

Tools Copyright (c) 1996-2017 Texas Instruments Incorporated
C:\Users\Stryd\AppData\Local\Temp\{8719FFD6-004A-4401-8DC3-4DA83C6CF1D8} PAGE   19

     991                    ;*   Regs Used         : A1,A2,A3,A4,V9,SP,LR,SR                             *
     992                    ;*   Local Frame Size  : 0 Args + 0 Auto + 4 Save = 4 byte                   *
     993                    ;*****************************************************************************
     994                    osal_alien2proxy:
     995                    ;* --------------------------------------------------------------------------*
     996                    ;* A3    assigned to $O$U9
     997                    ;* A4    assigned to $O$U10
     998                    ;* A1    assigned to origid
     999                    $C$DW$77        .dwtag  DW_TAG_variable
    1000                            .dwattr $C$DW$77, DW_AT_name("origid")
    1001                            .dwattr $C$DW$77, DW_AT_TI_symbol_name("origid")
    1002                            .dwattr $C$DW$77, DW_AT_type(*$C$DW$T$302)
    1003                            .dwattr $C$DW$77, DW_AT_location[DW_OP_reg0]
    1004                    
    1005                    ;* A2    assigned to i
    1006                    $C$DW$78        .dwtag  DW_TAG_variable
    1007                            .dwattr $C$DW$78, DW_AT_name("i")
    1008                            .dwattr $C$DW$78, DW_AT_TI_symbol_name("i")
    1009                            .dwattr $C$DW$78, DW_AT_type(*$C$DW$T$102)
    1010                            .dwattr $C$DW$78, DW_AT_location[DW_OP_reg1]
    1011                    
    1012                            .dwcfi  cfa_offset, 0
    1013 00000000 4A0A              LDR       A3, $C$CON15          ; [DPU_3_PIPE]  ; [ORIG 16-BIT INS]
    1014 00000002 B508              PUSH      {A4, LR}              ; [DPU_3_PIPE]  ; [ORIG 16-BIT INS]
    1015                            .dwcfi  cfa_offset, 8
    1016                            .dwcfi  save_reg_to_mem, 14, -4
    1017                            .dwcfi  save_reg_to_mem, 3, -8
    1018                            .dwpsn  file "../Application/MAC/OSAL/osal.c",line 1476,column 8,is_stmt,isa 1
    1019 00000004 2100              MOVS      A2, #0                ; [DPU_3_PIPE] |1476|  ; [ORIG 16-BIT INS]
    1020 00000006 1C52              ADDS      A3, A3, #1            ; [DPU_3_PIPE]  ; [ORIG 16-BIT INS]
    1021                    ;* --------------------------------------------------------------------------*
    1022                    ;*   BEGIN LOOP ||$C$L2||
    1023                    ;*
    1024                    ;*   Loop source line                : 1476
    1025                    ;*   Loop closing brace source line  : 1488
    1026                    ;*   Known Minimum Trip Count        : 1
    1027                    ;*   Known Maximum Trip Count        : 2
    1028                    ;*   Known Max Trip Count Factor     : 1
    1029                    ;* --------------------------------------------------------------------------*
    1030 00000008           ||$C$L2||:    
    1031                            .dwpsn  file "../Application/MAC/OSAL/osal.c",line 1478,column 5,is_stmt,isa 1
    1032 00000008 3F01F812          LDRB      A4, [A3, #1]!         ; [DPU_3_PIPE] |1478|  ; [KEEP 32-BIT INS]
    1033 0000000c 2BFF              CMP       A4, #255              ; [DPU_3_PIPE] |1478|  ; [ORIG 16-BIT INS]
    1034 0000000e D104              BNE       ||$C$L4||             ; [DPU_3_PIPE] |1478|  ; [ORIG 16-BIT INS]
    1035                            ; BRANCHCC OCCURS {||$C$L4||}    ; [] |1478| 
    1036                    ;* --------------------------------------------------------------------------*
    1037                            .dwcfi  remember_state
    1038                            .dwpsn  file "../Application/MAC/OSAL/osal.c",line 1481,column 7,is_stmt,isa 1
    1039 00000010 7010              STRB      A1, [A3, #0]          ; [DPU_3_PIPE] |1481|  ; [ORIG 16-BIT INS]
    1040                    ;* --------------------------------------------------------------------------*
    1041 00000012           ||$C$L3||:    
    1042                            .dwpsn  file "../Application/MAC/OSAL/osal.c",line 1482,column 7,is_stmt,isa 1
    1043 00000012 0180F041          ORR       A2, A2, #128          ; [DPU_3_PIPE] |1482|  ; [KEEP 32-BIT INS]
    1044 00000016 B2C8              UXTB      A1, A2                ; [DPU_3_PIPE] |1482|  ; [ORIG 16-BIT INS]
    1045                    $C$DW$79        .dwtag  DW_TAG_TI_branch
TI ARM Assembler PC v16.9.9 Sun Nov 25 16:40:48 2018

Tools Copyright (c) 1996-2017 Texas Instruments Incorporated
C:\Users\Stryd\AppData\Local\Temp\{8719FFD6-004A-4401-8DC3-4DA83C6CF1D8} PAGE   20

    1046                            .dwattr $C$DW$79, DW_AT_low_pc(0x00)
    1047                            .dwattr $C$DW$79, DW_AT_TI_return
    1048                    
    1049 00000018 BD08              POP       {A4, PC}              ; [DPU_3_PIPE]  ; [ORIG 16-BIT INS]
    1050                            .dwcfi  cfa_offset, 0
    1051                            .dwcfi  restore_reg, 3
    1052                            ; BRANCH OCCURS                  ; [] 
    1053                            .dwcfi  restore_state
    1054                    ;* --------------------------------------------------------------------------*
    1055 0000001a           ||$C$L4||:    
    1056                            .dwpsn  file "../Application/MAC/OSAL/osal.c",line 1484,column 10,is_stmt,isa 1
    1057 0000001a 4298              CMP       A1, A4                ; [DPU_3_PIPE] |1484|  ; [ORIG 16-BIT INS]
    1058 0000001c D0F9              BEQ       ||$C$L3||             ; [DPU_3_PIPE] |1484|  ; [ORIG 16-BIT INS]
    1059                            ; BRANCHCC OCCURS {||$C$L3||}    ; [] |1484| 
    1060                    ;* --------------------------------------------------------------------------*
    1061                            .dwpsn  file "../Application/MAC/OSAL/osal.c",line 1476,column 15,is_stmt,isa 1
    1062 0000001e 1C49              ADDS      A2, A2, #1            ; [DPU_3_PIPE] |1476|  ; [ORIG 16-BIT INS]
    1063 00000020 2902              CMP       A2, #2                ; [DPU_3_PIPE] |1476|  ; [ORIG 16-BIT INS]
    1064 00000022 D3F1              BCC       ||$C$L2||             ; [DPU_3_PIPE] |1476|  ; [ORIG 16-BIT INS]
    1065                            ; BRANCHCC OCCURS {||$C$L2||}    ; [] |1476| 
    1066                    ;* --------------------------------------------------------------------------*
    1067                            .dwpsn  file "../Application/MAC/OSAL/osal.c",line 1490,column 3,is_stmt,isa 1
    1068                    $C$DW$80        .dwtag  DW_TAG_TI_branch
    1069                            .dwattr $C$DW$80, DW_AT_low_pc(0x00)
    1070                            .dwattr $C$DW$80, DW_AT_name("ICall_abort")
    1071                            .dwattr $C$DW$80, DW_AT_TI_call
    1072                    
    1073 00000024 FFFEF7FF!         BL        ICall_abort           ; [DPU_3_PIPE] |1490|  ; [KEEP 32-BIT INS]
    1074                            ; CALL OCCURS {ICall_abort }     ; [] |1490| 
    1075                            .dwpsn  file "../Application/MAC/OSAL/osal.c",line 1491,column 3,is_stmt,isa 1
    1076 00000028 20FF              MOVS      A1, #255              ; [DPU_3_PIPE] |1491|  ; [ORIG 16-BIT INS]
    1077                    ;* --------------------------------------------------------------------------*
    1078                    $C$DW$81        .dwtag  DW_TAG_TI_branch
    1079                            .dwattr $C$DW$81, DW_AT_low_pc(0x00)
    1080                            .dwattr $C$DW$81, DW_AT_TI_return
    1081                    
    1082 0000002a BD08              POP       {A4, PC}              ; [DPU_3_PIPE]  ; [ORIG 16-BIT INS]
    1083                            .dwcfi  cfa_offset, 0
    1084                            .dwcfi  restore_reg, 3
    1085                            ; BRANCH OCCURS                  ; [] 
    1086                            .dwattr $C$DW$75, DW_AT_TI_end_file("../Application/MAC/OSAL/osal.c")
    1087                            .dwattr $C$DW$75, DW_AT_TI_end_line(0x5d4)
    1088                            .dwattr $C$DW$75, DW_AT_TI_end_column(0x01)
    1089                            .dwendentry
    1090                            .dwendtag $C$DW$75
    1091                    
    1092 00000000                   .sect   ".text:osal_msg_deallocate"
    1093                            .clink
    1094                            .thumbfunc osal_msg_deallocate
    1095 00000000                   .thumb
    1096                            .global osal_msg_deallocate
    1097                    
    1098                    $C$DW$82        .dwtag  DW_TAG_subprogram
    1099                            .dwattr $C$DW$82, DW_AT_name("osal_msg_deallocate")
    1100                            .dwattr $C$DW$82, DW_AT_low_pc(osal_msg_deallocate)
TI ARM Assembler PC v16.9.9 Sun Nov 25 16:40:48 2018

Tools Copyright (c) 1996-2017 Texas Instruments Incorporated
C:\Users\Stryd\AppData\Local\Temp\{8719FFD6-004A-4401-8DC3-4DA83C6CF1D8} PAGE   21

    1101                            .dwattr $C$DW$82, DW_AT_high_pc(0x00)
    1102                            .dwattr $C$DW$82, DW_AT_TI_symbol_name("osal_msg_deallocate")
    1103                            .dwattr $C$DW$82, DW_AT_external
    1104                            .dwattr $C$DW$82, DW_AT_type(*$C$DW$T$19)
    1105                            .dwattr $C$DW$82, DW_AT_TI_begin_file("../Application/MAC/OSAL/osal.c")
    1106                            .dwattr $C$DW$82, DW_AT_TI_begin_line(0x26b)
    1107                            .dwattr $C$DW$82, DW_AT_TI_begin_column(0x07)
    1108                            .dwattr $C$DW$82, DW_AT_decl_file("../Application/MAC/OSAL/osal.c")
    1109                            .dwattr $C$DW$82, DW_AT_decl_line(0x26b)
    1110                            .dwattr $C$DW$82, DW_AT_decl_column(0x07)
    1111                            .dwattr $C$DW$82, DW_AT_TI_max_frame_size(0x08)
    1112                            .dwpsn  file "../Application/MAC/OSAL/osal.c",line 620,column 1,is_stmt,address osal_msg_deall
    1113                    
    1114                            .dwfde $C$DW$CIE, osal_msg_deallocate
    1115                    $C$DW$83        .dwtag  DW_TAG_formal_parameter
    1116                            .dwattr $C$DW$83, DW_AT_name("msg_ptr")
    1117                            .dwattr $C$DW$83, DW_AT_TI_symbol_name("msg_ptr")
    1118                            .dwattr $C$DW$83, DW_AT_type(*$C$DW$T$77)
    1119                            .dwattr $C$DW$83, DW_AT_location[DW_OP_reg0]
    1120                    
    1121                    
    1122                    ;*****************************************************************************
    1123                    ;* FUNCTION NAME: osal_msg_deallocate                                        *
    1124                    ;*                                                                           *
    1125                    ;*   Regs Modified     : A1,A2,A3,A4,V9,SP,LR,SR                             *
    1126                    ;*   Regs Used         : A1,A2,A3,A4,V9,SP,LR,SR                             *
    1127                    ;*   Local Frame Size  : 0 Args + 0 Auto + 4 Save = 4 byte                   *
    1128                    ;*****************************************************************************
    1129                    osal_msg_deallocate:
    1130                    ;* --------------------------------------------------------------------------*
    1131                    ;* A1    assigned to msg_ptr
    1132                    $C$DW$84        .dwtag  DW_TAG_variable
    1133                            .dwattr $C$DW$84, DW_AT_name("msg_ptr")
    1134                            .dwattr $C$DW$84, DW_AT_TI_symbol_name("msg_ptr")
    1135                            .dwattr $C$DW$84, DW_AT_type(*$C$DW$T$284)
    1136                            .dwattr $C$DW$84, DW_AT_location[DW_OP_reg0]
    1137                    
    1138                            .dwcfi  cfa_offset, 0
    1139 00000000 B508              PUSH      {A4, LR}              ; [DPU_3_PIPE]  ; [ORIG 16-BIT INS]
    1140                            .dwcfi  cfa_offset, 8
    1141                            .dwcfi  save_reg_to_mem, 14, -4
    1142                            .dwcfi  save_reg_to_mem, 3, -8
    1143                            .dwpsn  file "../Application/MAC/OSAL/osal.c",line 623,column 3,is_stmt,isa 1
    1144 00000002 2800              CMP       A1, #0                ; [DPU_3_PIPE] |623|  ; [ORIG 16-BIT INS]
    1145 00000004 BF08              IT        EQ                    ; [DPU_3_PIPE]  ; [ORIG 16-BIT INS]
    1146                            .dwpsn  file "../Application/MAC/OSAL/osal.c",line 624,column 5,is_stmt,isa 1
    1147 00000006 2005              MOVEQ     A1, #5                ; [DPU_3_PIPE] |624|  ; [ORIG 16-BIT INS]
    1148 00000008 D009              BEQ       ||$C$L5||             ; [DPU_3_PIPE] |624|  ; [ORIG 16-BIT INS]
    1149                            ; BRANCHCC OCCURS {||$C$L5||}    ; [] |624| 
    1150                    ;* --------------------------------------------------------------------------*
    1151                            .dwpsn  file "../Application/MAC/OSAL/osal.c",line 627,column 3,is_stmt,isa 1
    1152 0000000a 1C02F810          LDRB      A2, [A1, #-2]         ; [DPU_3_PIPE] |627|  ; [KEEP 32-BIT INS]
    1153 0000000e 29FF              CMP       A2, #255              ; [DPU_3_PIPE] |627|  ; [ORIG 16-BIT INS]
    1154 00000010 BF18              IT        NE                    ; [DPU_3_PIPE]  ; [ORIG 16-BIT INS]
    1155                            .dwpsn  file "../Application/MAC/OSAL/osal.c",line 628,column 5,is_stmt,isa 1
TI ARM Assembler PC v16.9.9 Sun Nov 25 16:40:48 2018

Tools Copyright (c) 1996-2017 Texas Instruments Incorporated
C:\Users\Stryd\AppData\Local\Temp\{8719FFD6-004A-4401-8DC3-4DA83C6CF1D8} PAGE   22

    1156 00000012 2004              MOVNE     A1, #4                ; [DPU_3_PIPE] |628|  ; [ORIG 16-BIT INS]
    1157 00000014 D103              BNE       ||$C$L5||             ; [DPU_3_PIPE] |628|  ; [ORIG 16-BIT INS]
    1158                            ; BRANCHCC OCCURS {||$C$L5||}    ; [] |628| 
    1159                    ;* --------------------------------------------------------------------------*
    1160                            .dwpsn  file "../Application/MAC/OSAL/osal.c",line 632,column 3,is_stmt,isa 1
    1161 00000016 380C              SUBS      A1, A1, #12           ; [DPU_3_PIPE] |632|  ; [ORIG 16-BIT INS]
    1162                    $C$DW$85        .dwtag  DW_TAG_TI_branch
    1163                            .dwattr $C$DW$85, DW_AT_low_pc(0x00)
    1164                            .dwattr $C$DW$85, DW_AT_name("osal_mem_free")
    1165                            .dwattr $C$DW$85, DW_AT_TI_call
    1166                    
    1167 00000018 FFFEF7FF!         BL        osal_mem_free         ; [DPU_3_PIPE] |632|  ; [KEEP 32-BIT INS]
    1168                            ; CALL OCCURS {osal_mem_free }   ; [] |632| 
    1169                            .dwpsn  file "../Application/MAC/OSAL/osal.c",line 634,column 3,is_stmt,isa 1
    1170 0000001c 2000              MOVS      A1, #0                ; [DPU_3_PIPE] |634|  ; [ORIG 16-BIT INS]
    1171                    ;* --------------------------------------------------------------------------*
    1172                    ||$C$L5||:    
    1173                    $C$DW$86        .dwtag  DW_TAG_TI_branch
    1174                            .dwattr $C$DW$86, DW_AT_low_pc(0x00)
    1175                            .dwattr $C$DW$86, DW_AT_TI_return
    1176                    
    1177 0000001e BD08              POP       {A4, PC}              ; [DPU_3_PIPE]  ; [ORIG 16-BIT INS]
    1178                            .dwcfi  cfa_offset, 0
    1179                            .dwcfi  restore_reg, 3
    1180                            ; BRANCH OCCURS                  ; [] 
    1181                            .dwattr $C$DW$82, DW_AT_TI_end_file("../Application/MAC/OSAL/osal.c")
    1182                            .dwattr $C$DW$82, DW_AT_TI_end_line(0x27b)
    1183                            .dwattr $C$DW$82, DW_AT_TI_end_column(0x01)
    1184                            .dwendentry
    1185                            .dwendtag $C$DW$82
    1186                    
    1187 00000000                   .sect   ".text:osal_msg_enqueue"
    1188                            .clink
    1189                            .thumbfunc osal_msg_enqueue
    1190 00000000                   .thumb
    1191                            .global osal_msg_enqueue
    1192                    
    1193                    $C$DW$87        .dwtag  DW_TAG_subprogram
    1194                            .dwattr $C$DW$87, DW_AT_name("osal_msg_enqueue")
    1195                            .dwattr $C$DW$87, DW_AT_low_pc(osal_msg_enqueue)
    1196                            .dwattr $C$DW$87, DW_AT_high_pc(0x00)
    1197                            .dwattr $C$DW$87, DW_AT_TI_symbol_name("osal_msg_enqueue")
    1198                            .dwattr $C$DW$87, DW_AT_external
    1199                            .dwattr $C$DW$87, DW_AT_TI_begin_file("../Application/MAC/OSAL/osal.c")
    1200                            .dwattr $C$DW$87, DW_AT_TI_begin_line(0x3bb)
    1201                            .dwattr $C$DW$87, DW_AT_TI_begin_column(0x06)
    1202                            .dwattr $C$DW$87, DW_AT_decl_file("../Application/MAC/OSAL/osal.c")
    1203                            .dwattr $C$DW$87, DW_AT_decl_line(0x3bb)
    1204                            .dwattr $C$DW$87, DW_AT_decl_column(0x06)
    1205                            .dwattr $C$DW$87, DW_AT_TI_max_frame_size(0x10)
    1206                            .dwpsn  file "../Application/MAC/OSAL/osal.c",line 956,column 1,is_stmt,address osal_msg_enque
    1207                    
    1208                            .dwfde $C$DW$CIE, osal_msg_enqueue
    1209                    $C$DW$88        .dwtag  DW_TAG_formal_parameter
    1210                            .dwattr $C$DW$88, DW_AT_name("q_ptr")
TI ARM Assembler PC v16.9.9 Sun Nov 25 16:40:48 2018

Tools Copyright (c) 1996-2017 Texas Instruments Incorporated
C:\Users\Stryd\AppData\Local\Temp\{8719FFD6-004A-4401-8DC3-4DA83C6CF1D8} PAGE   23

    1211                            .dwattr $C$DW$88, DW_AT_TI_symbol_name("q_ptr")
    1212                            .dwattr $C$DW$88, DW_AT_type(*$C$DW$T$210)
    1213                            .dwattr $C$DW$88, DW_AT_location[DW_OP_reg0]
    1214                    
    1215                    $C$DW$89        .dwtag  DW_TAG_formal_parameter
    1216                            .dwattr $C$DW$89, DW_AT_name("msg_ptr")
    1217                            .dwattr $C$DW$89, DW_AT_TI_symbol_name("msg_ptr")
    1218                            .dwattr $C$DW$89, DW_AT_type(*$C$DW$T$3)
    1219                            .dwattr $C$DW$89, DW_AT_location[DW_OP_reg1]
    1220                    
    1221                    
    1222                    ;*****************************************************************************
    1223                    ;* FUNCTION NAME: osal_msg_enqueue                                           *
    1224                    ;*                                                                           *
    1225                    ;*   Regs Modified     : A1,A2,A3,A4,V1,V2,V9,SP,LR,SR                       *
    1226                    ;*   Regs Used         : A1,A2,A3,A4,V1,V2,V9,SP,LR,SR                       *
    1227                    ;*   Local Frame Size  : 0 Args + 0 Auto + 12 Save = 12 byte                 *
    1228                    ;*****************************************************************************
    1229                    osal_msg_enqueue:
    1230                    ;* --------------------------------------------------------------------------*
    1231                    ;* A2    assigned to $O$U12
    1232                    ;* A3    assigned to $O$U17
    1233                    ;* V2    assigned to q_ptr
    1234                    $C$DW$90        .dwtag  DW_TAG_variable
    1235                            .dwattr $C$DW$90, DW_AT_name("q_ptr")
    1236                            .dwattr $C$DW$90, DW_AT_TI_symbol_name("q_ptr")
    1237                            .dwattr $C$DW$90, DW_AT_type(*$C$DW$T$213)
    1238                            .dwattr $C$DW$90, DW_AT_location[DW_OP_reg5]
    1239                    
    1240                    ;* V1    assigned to msg_ptr
    1241                    $C$DW$91        .dwtag  DW_TAG_variable
    1242                            .dwattr $C$DW$91, DW_AT_name("msg_ptr")
    1243                            .dwattr $C$DW$91, DW_AT_TI_symbol_name("msg_ptr")
    1244                            .dwattr $C$DW$91, DW_AT_type(*$C$DW$T$212)
    1245                            .dwattr $C$DW$91, DW_AT_location[DW_OP_reg4]
    1246                    
    1247                    ;* A2    assigned to list
    1248                    $C$DW$92        .dwtag  DW_TAG_variable
    1249                            .dwattr $C$DW$92, DW_AT_name("list")
    1250                            .dwattr $C$DW$92, DW_AT_TI_symbol_name("list")
    1251                            .dwattr $C$DW$92, DW_AT_type(*$C$DW$T$3)
    1252                            .dwattr $C$DW$92, DW_AT_location[DW_OP_reg1]
    1253                    
    1254                            .dwcfi  cfa_offset, 0
    1255 00000000 B538              PUSH      {A4, V1, V2, LR}      ; [DPU_3_PIPE]  ; [ORIG 16-BIT INS]
    1256                            .dwcfi  cfa_offset, 16
    1257                            .dwcfi  save_reg_to_mem, 14, -4
    1258                            .dwcfi  save_reg_to_mem, 5, -8
    1259                            .dwcfi  save_reg_to_mem, 4, -12
    1260                            .dwcfi  save_reg_to_mem, 3, -16
    1261 00000002 4605              MOV       V2, A1                ; [DPU_3_PIPE] |956|  ; [ORIG 16-BIT INS]
    1262                            .dwpsn  file "../Application/MAC/OSAL/osal.c",line 961,column 3,is_stmt,isa 1
    1263 00000004 480A              LDR       A1, $C$CON18          ; [DPU_3_PIPE] |961|  ; [ORIG 16-BIT INS]
    1264 00000006 6800              LDR       A1, [A1, #0]          ; [DPU_3_PIPE] |961|  ; [ORIG 16-BIT INS]
    1265                            .dwpsn  file "../Application/MAC/OSAL/osal.c",line 956,column 1,is_stmt,isa 1
TI ARM Assembler PC v16.9.9 Sun Nov 25 16:40:48 2018

Tools Copyright (c) 1996-2017 Texas Instruments Incorporated
C:\Users\Stryd\AppData\Local\Temp\{8719FFD6-004A-4401-8DC3-4DA83C6CF1D8} PAGE   24

    1266 00000008 460C              MOV       V1, A2                ; [DPU_3_PIPE] |956|  ; [ORIG 16-BIT INS]
    1267                            .dwpsn  file "../Application/MAC/OSAL/osal.c",line 961,column 3,is_stmt,isa 1
    1268                    $C$DW$93        .dwtag  DW_TAG_TI_branch
    1269                            .dwattr $C$DW$93, DW_AT_low_pc(0x00)
    1270                            .dwattr $C$DW$93, DW_AT_TI_call
    1271                            .dwattr $C$DW$93, DW_AT_TI_indirect
    1272                    
    1273 0000000a 4780              BLX       A1                    ; [DPU_3_PIPE] |961|  ; [ORIG 16-BIT INS]
    1274                            ; CALL OCCURS {}                 ; [] |961| 
    1275                            .dwpsn  file "../Application/MAC/OSAL/osal.c",line 963,column 3,is_stmt,isa 1
    1276 0000000c 2100              MOVS      A2, #0                ; [DPU_3_PIPE] |963|  ; [ORIG 16-BIT INS]
    1277 0000000e 1C0CF844          STR       A2, [V1, #-12]        ; [DPU_3_PIPE] |963|  ; [KEEP 32-BIT INS]
    1278                            .dwpsn  file "../Application/MAC/OSAL/osal.c",line 965,column 3,is_stmt,isa 1
    1279 00000012 6829              LDR       A2, [V2, #0]          ; [DPU_3_PIPE] |965|  ; [ORIG 16-BIT INS]
    1280 00000014 B911              CBNZ      A2, ||$C$L7||         ; []  ; [ORIG 16-BIT INS]
    1281                            ; BRANCHCC OCCURS {||$C$L7||}    ; [] |965| 
    1282                    ;* --------------------------------------------------------------------------*
    1283                            .dwpsn  file "../Application/MAC/OSAL/osal.c",line 967,column 5,is_stmt,isa 1
    1284 00000016 602C              STR       V1, [V2, #0]          ; [DPU_3_PIPE] |967|  ; [ORIG 16-BIT INS]
    1285                            .dwpsn  file "../Application/MAC/OSAL/osal.c",line 968,column 3,is_stmt,isa 1
    1286 00000018 E006              B         ||$C$L8||             ; [DPU_3_PIPE] |968|  ; [ORIG 16-BIT INS]
    1287                            ; BRANCH OCCURS {||$C$L8||}      ; [] |968| 
    1288                    ;* --------------------------------------------------------------------------*
    1289 0000001a           ||$C$L6||:    
    1290                            .dwpsn  file "../Application/MAC/OSAL/osal.c",line 972,column 57,is_stmt,isa 1
    1291 0000001a 4611              MOV       A2, A3                ; [DPU_3_PIPE] |972|  ; [ORIG 16-BIT INS]
    1292                    ;* --------------------------------------------------------------------------*
    1293                    ;*   BEGIN LOOP ||$C$L7||
    1294                    ;* --------------------------------------------------------------------------*
    1295 0000001c           ||$C$L7||:    
    1296                            .dwpsn  file "../Application/MAC/OSAL/osal.c",line 972,column 26,is_stmt,isa 1
    1297 0000001c 2C0CF851          LDR       A3, [A2, #-12]        ; [DPU_3_PIPE] |972|  ; [KEEP 32-BIT INS]
    1298 00000020 2A00              CMP       A3, #0                ; [DPU_3_PIPE] |972|  ; [ORIG 16-BIT INS]
    1299 00000022 D1FA              BNE       ||$C$L6||             ; [DPU_3_PIPE] |972|  ; [ORIG 16-BIT INS]
    1300                            ; BRANCHCC OCCURS {||$C$L6||}    ; [] |972| 
    1301                    ;* --------------------------------------------------------------------------*
    1302                            .dwpsn  file "../Application/MAC/OSAL/osal.c",line 975,column 5,is_stmt,isa 1
    1303 00000024 4C0CF841          STR       V1, [A2, #-12]        ; [DPU_3_PIPE] |975|  ; [KEEP 32-BIT INS]
    1304                    ;* --------------------------------------------------------------------------*
    1305 00000028           ||$C$L8||:    
    1306                            .dwpsn  file "../Application/MAC/OSAL/osal.c",line 979,column 3,is_stmt,isa 1
    1307 00000028 4902              LDR       A2, $C$CON19          ; [DPU_3_PIPE] |979|  ; [ORIG 16-BIT INS]
    1308 0000002a 6809              LDR       A2, [A2, #0]          ; [DPU_3_PIPE] |979|  ; [ORIG 16-BIT INS]
    1309                    $C$DW$94        .dwtag  DW_TAG_TI_branch
    1310                            .dwattr $C$DW$94, DW_AT_low_pc(0x00)
    1311                            .dwattr $C$DW$94, DW_AT_TI_call
    1312                            .dwattr $C$DW$94, DW_AT_TI_indirect
    1313                    
    1314 0000002c 4788              BLX       A2                    ; [DPU_3_PIPE] |979|  ; [ORIG 16-BIT INS]
    1315                            ; CALL OCCURS {}                 ; [] |979| 
    1316                    $C$DW$95        .dwtag  DW_TAG_TI_branch
    1317                            .dwattr $C$DW$95, DW_AT_low_pc(0x00)
    1318                            .dwattr $C$DW$95, DW_AT_TI_return
    1319                    
    1320 0000002e BD38              POP       {A4, V1, V2, PC}      ; [DPU_3_PIPE]  ; [ORIG 16-BIT INS]
TI ARM Assembler PC v16.9.9 Sun Nov 25 16:40:48 2018

Tools Copyright (c) 1996-2017 Texas Instruments Incorporated
C:\Users\Stryd\AppData\Local\Temp\{8719FFD6-004A-4401-8DC3-4DA83C6CF1D8} PAGE   25

    1321                            .dwcfi  cfa_offset, 0
    1322                            .dwcfi  restore_reg, 5
    1323                            .dwcfi  restore_reg, 4
    1324                            .dwcfi  restore_reg, 3
    1325                            ; BRANCH OCCURS                  ; [] 
    1326                            .dwattr $C$DW$87, DW_AT_TI_end_file("../Application/MAC/OSAL/osal.c")
    1327                            .dwattr $C$DW$87, DW_AT_TI_end_line(0x3d4)
    1328                            .dwattr $C$DW$87, DW_AT_TI_end_column(0x01)
    1329                            .dwendentry
    1330                            .dwendtag $C$DW$87
    1331                    
    1332 00000000                   .sect   ".text:osal_msg_push"
    1333                            .clink
    1334                            .thumbfunc osal_msg_push
    1335 00000000                   .thumb
    1336                            .global osal_msg_push
    1337                    
    1338                    $C$DW$96        .dwtag  DW_TAG_subprogram
    1339                            .dwattr $C$DW$96, DW_AT_name("osal_msg_push")
    1340                            .dwattr $C$DW$96, DW_AT_low_pc(osal_msg_push)
    1341                            .dwattr $C$DW$96, DW_AT_high_pc(0x00)
    1342                            .dwattr $C$DW$96, DW_AT_TI_symbol_name("osal_msg_push")
    1343                            .dwattr $C$DW$96, DW_AT_external
    1344                            .dwattr $C$DW$96, DW_AT_TI_begin_file("../Application/MAC/OSAL/osal.c")
    1345                            .dwattr $C$DW$96, DW_AT_TI_begin_line(0x405)
    1346                            .dwattr $C$DW$96, DW_AT_TI_begin_column(0x06)
    1347                            .dwattr $C$DW$96, DW_AT_decl_file("../Application/MAC/OSAL/osal.c")
    1348                            .dwattr $C$DW$96, DW_AT_decl_line(0x405)
    1349                            .dwattr $C$DW$96, DW_AT_decl_column(0x06)
    1350                            .dwattr $C$DW$96, DW_AT_TI_max_frame_size(0x10)
    1351                            .dwpsn  file "../Application/MAC/OSAL/osal.c",line 1030,column 1,is_stmt,address osal_msg_push
    1352                    
    1353                            .dwfde $C$DW$CIE, osal_msg_push
    1354                    $C$DW$97        .dwtag  DW_TAG_formal_parameter
    1355                            .dwattr $C$DW$97, DW_AT_name("q_ptr")
    1356                            .dwattr $C$DW$97, DW_AT_TI_symbol_name("q_ptr")
    1357                            .dwattr $C$DW$97, DW_AT_type(*$C$DW$T$210)
    1358                            .dwattr $C$DW$97, DW_AT_location[DW_OP_reg0]
    1359                    
    1360                    $C$DW$98        .dwtag  DW_TAG_formal_parameter
    1361                            .dwattr $C$DW$98, DW_AT_name("msg_ptr")
    1362                            .dwattr $C$DW$98, DW_AT_TI_symbol_name("msg_ptr")
    1363                            .dwattr $C$DW$98, DW_AT_type(*$C$DW$T$3)
    1364                            .dwattr $C$DW$98, DW_AT_location[DW_OP_reg1]
    1365                    
    1366                    
    1367                    ;*****************************************************************************
    1368                    ;* FUNCTION NAME: osal_msg_push                                              *
    1369                    ;*                                                                           *
    1370                    ;*   Regs Modified     : A1,A2,A3,A4,V1,V2,V9,SP,LR,SR                       *
    1371                    ;*   Regs Used         : A1,A2,A3,A4,V1,V2,V9,SP,LR,SR                       *
    1372                    ;*   Local Frame Size  : 0 Args + 0 Auto + 12 Save = 12 byte                 *
    1373                    ;*****************************************************************************
    1374                    osal_msg_push:
    1375                    ;* --------------------------------------------------------------------------*
TI ARM Assembler PC v16.9.9 Sun Nov 25 16:40:48 2018

Tools Copyright (c) 1996-2017 Texas Instruments Incorporated
C:\Users\Stryd\AppData\Local\Temp\{8719FFD6-004A-4401-8DC3-4DA83C6CF1D8} PAGE   26

    1376                    ;* V2    assigned to q_ptr
    1377                    $C$DW$99        .dwtag  DW_TAG_variable
    1378                            .dwattr $C$DW$99, DW_AT_name("q_ptr")
    1379                            .dwattr $C$DW$99, DW_AT_TI_symbol_name("q_ptr")
    1380                            .dwattr $C$DW$99, DW_AT_type(*$C$DW$T$213)
    1381                            .dwattr $C$DW$99, DW_AT_location[DW_OP_reg5]
    1382                    
    1383                    ;* V1    assigned to msg_ptr
    1384                    $C$DW$100       .dwtag  DW_TAG_variable
    1385                            .dwattr $C$DW$100, DW_AT_name("msg_ptr")
    1386                            .dwattr $C$DW$100, DW_AT_TI_symbol_name("msg_ptr")
    1387                            .dwattr $C$DW$100, DW_AT_type(*$C$DW$T$212)
    1388                            .dwattr $C$DW$100, DW_AT_location[DW_OP_reg4]
    1389                    
    1390                            .dwcfi  cfa_offset, 0
    1391 00000000 B538              PUSH      {A4, V1, V2, LR}      ; [DPU_3_PIPE]  ; [ORIG 16-BIT INS]
    1392                            .dwcfi  cfa_offset, 16
    1393                            .dwcfi  save_reg_to_mem, 14, -4
    1394                            .dwcfi  save_reg_to_mem, 5, -8
    1395                            .dwcfi  save_reg_to_mem, 4, -12
    1396                            .dwcfi  save_reg_to_mem, 3, -16
    1397 00000002 4605              MOV       V2, A1                ; [DPU_3_PIPE] |1030|  ; [ORIG 16-BIT INS]
    1398                            .dwpsn  file "../Application/MAC/OSAL/osal.c",line 1034,column 3,is_stmt,isa 1
    1399 00000004 4805              LDR       A1, $C$CON22          ; [DPU_3_PIPE] |1034|  ; [ORIG 16-BIT INS]
    1400 00000006 6800              LDR       A1, [A1, #0]          ; [DPU_3_PIPE] |1034|  ; [ORIG 16-BIT INS]
    1401                            .dwpsn  file "../Application/MAC/OSAL/osal.c",line 1030,column 1,is_stmt,isa 1
    1402 00000008 460C              MOV       V1, A2                ; [DPU_3_PIPE] |1030|  ; [ORIG 16-BIT INS]
    1403                            .dwpsn  file "../Application/MAC/OSAL/osal.c",line 1034,column 3,is_stmt,isa 1
    1404                    $C$DW$101       .dwtag  DW_TAG_TI_branch
    1405                            .dwattr $C$DW$101, DW_AT_low_pc(0x00)
    1406                            .dwattr $C$DW$101, DW_AT_TI_call
    1407                            .dwattr $C$DW$101, DW_AT_TI_indirect
    1408                    
    1409 0000000a 4780              BLX       A1                    ; [DPU_3_PIPE] |1034|  ; [ORIG 16-BIT INS]
    1410                            ; CALL OCCURS {}                 ; [] |1034| 
    1411                            .dwpsn  file "../Application/MAC/OSAL/osal.c",line 1037,column 3,is_stmt,isa 1
    1412 0000000c 6829              LDR       A2, [V2, #0]          ; [DPU_3_PIPE] |1037|  ; [ORIG 16-BIT INS]
    1413 0000000e 1C0CF844          STR       A2, [V1, #-12]        ; [DPU_3_PIPE] |1037|  ; [KEEP 32-BIT INS]
    1414                            .dwpsn  file "../Application/MAC/OSAL/osal.c",line 1041,column 3,is_stmt,isa 1
    1415 00000012 4903              LDR       A2, $C$CON23          ; [DPU_3_PIPE] |1041|  ; [ORIG 16-BIT INS]
    1416                            .dwpsn  file "../Application/MAC/OSAL/osal.c",line 1038,column 3,is_stmt,isa 1
    1417 00000014 602C              STR       V1, [V2, #0]          ; [DPU_3_PIPE] |1038|  ; [ORIG 16-BIT INS]
    1418                            .dwpsn  file "../Application/MAC/OSAL/osal.c",line 1041,column 3,is_stmt,isa 1
    1419 00000016 6809              LDR       A2, [A2, #0]          ; [DPU_3_PIPE] |1041|  ; [ORIG 16-BIT INS]
    1420                    $C$DW$102       .dwtag  DW_TAG_TI_branch
    1421                            .dwattr $C$DW$102, DW_AT_low_pc(0x00)
    1422                            .dwattr $C$DW$102, DW_AT_TI_call
    1423                            .dwattr $C$DW$102, DW_AT_TI_indirect
    1424                    
    1425 00000018 4788              BLX       A2                    ; [DPU_3_PIPE] |1041|  ; [ORIG 16-BIT INS]
    1426                            ; CALL OCCURS {}                 ; [] |1041| 
    1427                    $C$DW$103       .dwtag  DW_TAG_TI_branch
    1428                            .dwattr $C$DW$103, DW_AT_low_pc(0x00)
    1429                            .dwattr $C$DW$103, DW_AT_TI_return
    1430                    
TI ARM Assembler PC v16.9.9 Sun Nov 25 16:40:48 2018

Tools Copyright (c) 1996-2017 Texas Instruments Incorporated
C:\Users\Stryd\AppData\Local\Temp\{8719FFD6-004A-4401-8DC3-4DA83C6CF1D8} PAGE   27

    1431 0000001a BD38              POP       {A4, V1, V2, PC}      ; [DPU_3_PIPE]  ; [ORIG 16-BIT INS]
    1432                            .dwcfi  cfa_offset, 0
    1433                            .dwcfi  restore_reg, 5
    1434                            .dwcfi  restore_reg, 4
    1435                            .dwcfi  restore_reg, 3
    1436                            ; BRANCH OCCURS                  ; [] 
    1437                            .dwattr $C$DW$96, DW_AT_TI_end_file("../Application/MAC/OSAL/osal.c")
    1438                            .dwattr $C$DW$96, DW_AT_TI_end_line(0x412)
    1439                            .dwattr $C$DW$96, DW_AT_TI_end_column(0x01)
    1440                            .dwendentry
    1441                            .dwendtag $C$DW$96
    1442                    
    1443 00000000                   .sect   ".text:osal_msg_allocate"
    1444                            .clink
    1445                            .thumbfunc osal_msg_allocate
    1446 00000000                   .thumb
    1447                            .global osal_msg_allocate
    1448                    
    1449                    $C$DW$104       .dwtag  DW_TAG_subprogram
    1450                            .dwattr $C$DW$104, DW_AT_name("osal_msg_allocate")
    1451                            .dwattr $C$DW$104, DW_AT_low_pc(osal_msg_allocate)
    1452                            .dwattr $C$DW$104, DW_AT_high_pc(0x00)
    1453                            .dwattr $C$DW$104, DW_AT_TI_symbol_name("osal_msg_allocate")
    1454                            .dwattr $C$DW$104, DW_AT_external
    1455                            .dwattr $C$DW$104, DW_AT_type(*$C$DW$T$77)
    1456                            .dwattr $C$DW$104, DW_AT_TI_begin_file("../Application/MAC/OSAL/osal.c")
    1457                            .dwattr $C$DW$104, DW_AT_TI_begin_line(0x24a)
    1458                            .dwattr $C$DW$104, DW_AT_TI_begin_column(0x09)
    1459                            .dwattr $C$DW$104, DW_AT_decl_file("../Application/MAC/OSAL/osal.c")
    1460                            .dwattr $C$DW$104, DW_AT_decl_line(0x24a)
    1461                            .dwattr $C$DW$104, DW_AT_decl_column(0x09)
    1462                            .dwattr $C$DW$104, DW_AT_TI_max_frame_size(0x08)
    1463                            .dwpsn  file "../Application/MAC/OSAL/osal.c",line 587,column 1,is_stmt,address osal_msg_alloc
    1464                    
    1465                            .dwfde $C$DW$CIE, osal_msg_allocate
    1466                    $C$DW$105       .dwtag  DW_TAG_formal_parameter
    1467                            .dwattr $C$DW$105, DW_AT_name("len")
    1468                            .dwattr $C$DW$105, DW_AT_TI_symbol_name("len")
    1469                            .dwattr $C$DW$105, DW_AT_type(*$C$DW$T$10)
    1470                            .dwattr $C$DW$105, DW_AT_location[DW_OP_reg0]
    1471                    
    1472                    
    1473                    ;*****************************************************************************
    1474                    ;* FUNCTION NAME: osal_msg_allocate                                          *
    1475                    ;*                                                                           *
    1476                    ;*   Regs Modified     : A1,A2,A3,A4,V1,V9,SP,LR,SR                          *
    1477                    ;*   Regs Used         : A1,A2,A3,A4,V1,V9,SP,LR,SR                          *
    1478                    ;*   Local Frame Size  : 0 Args + 0 Auto + 8 Save = 8 byte                   *
    1479                    ;*****************************************************************************
    1480                    osal_msg_allocate:
    1481                    ;* --------------------------------------------------------------------------*
    1482                    ;* V1    assigned to len
    1483                    $C$DW$106       .dwtag  DW_TAG_variable
    1484                            .dwattr $C$DW$106, DW_AT_name("len")
    1485                            .dwattr $C$DW$106, DW_AT_TI_symbol_name("len")
TI ARM Assembler PC v16.9.9 Sun Nov 25 16:40:48 2018

Tools Copyright (c) 1996-2017 Texas Instruments Incorporated
C:\Users\Stryd\AppData\Local\Temp\{8719FFD6-004A-4401-8DC3-4DA83C6CF1D8} PAGE   28

    1486                            .dwattr $C$DW$106, DW_AT_type(*$C$DW$T$326)
    1487                            .dwattr $C$DW$106, DW_AT_location[DW_OP_reg4]
    1488                    
    1489                    ;* A1    assigned to hdr
    1490                    $C$DW$107       .dwtag  DW_TAG_variable
    1491                            .dwattr $C$DW$107, DW_AT_name("hdr")
    1492                            .dwattr $C$DW$107, DW_AT_TI_symbol_name("hdr")
    1493                            .dwattr $C$DW$107, DW_AT_type(*$C$DW$T$409)
    1494                            .dwattr $C$DW$107, DW_AT_location[DW_OP_reg0]
    1495                    
    1496                            .dwcfi  cfa_offset, 0
    1497 00000000 B510              PUSH      {V1, LR}              ; [DPU_3_PIPE]  ; [ORIG 16-BIT INS]
    1498                            .dwcfi  cfa_offset, 8
    1499                            .dwcfi  save_reg_to_mem, 14, -4
    1500                            .dwcfi  save_reg_to_mem, 4, -8
    1501                            .dwpsn  file "../Application/MAC/OSAL/osal.c",line 590,column 3,is_stmt,isa 1
    1502 00000002 1C04              MOVS      V1, A1                ; [DPU_3_PIPE] |590|  ; [ORIG 16-BIT INS]
    1503 00000004 D005              BEQ       ||$C$L9||             ; [DPU_3_PIPE] |590|  ; [ORIG 16-BIT INS]
    1504                            ; BRANCHCC OCCURS {||$C$L9||}    ; [] |590| 
    1505                    ;* --------------------------------------------------------------------------*
    1506                            .dwpsn  file "../Application/MAC/OSAL/osal.c",line 593,column 3,is_stmt,isa 1
    1507 00000006 000CF104          ADD       A1, V1, #12           ; [DPU_3_PIPE] |593|  ; [KEEP 32-BIT INS]
    1508 0000000a B280              UXTH      A1, A1                ; [DPU_3_PIPE] |593|  ; [ORIG 16-BIT INS]
    1509                    $C$DW$108       .dwtag  DW_TAG_TI_branch
    1510                            .dwattr $C$DW$108, DW_AT_low_pc(0x00)
    1511                            .dwattr $C$DW$108, DW_AT_name("osal_mem_alloc")
    1512                            .dwattr $C$DW$108, DW_AT_TI_call
    1513                    
    1514 0000000c FFFEF7FF!         BL        osal_mem_alloc        ; [DPU_3_PIPE] |593|  ; [KEEP 32-BIT INS]
    1515                            ; CALL OCCURS {osal_mem_alloc }  ; [] |593| 
    1516 00000010 B908              CBNZ      A1, ||$C$L10||        ; []  ; [ORIG 16-BIT INS]
    1517                            .dwpsn  file "../Application/MAC/OSAL/osal.c",line 594,column 3,is_stmt,isa 1
    1518                            ; BRANCHCC OCCURS {||$C$L10||}   ; [] |594| 
    1519                    ;* --------------------------------------------------------------------------*
    1520 00000012           ||$C$L9||:    
    1521                            .dwcfi  remember_state
    1522                            .dwpsn  file "../Application/MAC/OSAL/osal.c",line 602,column 5,is_stmt,isa 1
    1523 00000012 2000              MOVS      A1, #0                ; [DPU_3_PIPE] |602|  ; [ORIG 16-BIT INS]
    1524                    $C$DW$109       .dwtag  DW_TAG_TI_branch
    1525                            .dwattr $C$DW$109, DW_AT_low_pc(0x00)
    1526                            .dwattr $C$DW$109, DW_AT_TI_return
    1527                    
    1528 00000014 BD10              POP       {V1, PC}              ; [DPU_3_PIPE]  ; [ORIG 16-BIT INS]
    1529                            .dwcfi  cfa_offset, 0
    1530                            .dwcfi  restore_reg, 4
    1531                            ; BRANCH OCCURS                  ; [] 
    1532                            .dwcfi  restore_state
    1533                    ;* --------------------------------------------------------------------------*
    1534 00000016           ||$C$L10||:    
    1535                            .dwpsn  file "../Application/MAC/OSAL/osal.c",line 596,column 5,is_stmt,isa 1
    1536 00000016 2100              MOVS      A2, #0                ; [DPU_3_PIPE] |596|  ; [ORIG 16-BIT INS]
    1537 00000018 6001              STR       A2, [A1, #0]          ; [DPU_3_PIPE] |596|  ; [ORIG 16-BIT INS]
    1538                            .dwpsn  file "../Application/MAC/OSAL/osal.c",line 597,column 5,is_stmt,isa 1
    1539 0000001a 8104              STRH      V1, [A1, #8]          ; [DPU_3_PIPE] |597|  ; [ORIG 16-BIT INS]
    1540                            .dwpsn  file "../Application/MAC/OSAL/osal.c",line 598,column 5,is_stmt,isa 1
TI ARM Assembler PC v16.9.9 Sun Nov 25 16:40:48 2018

Tools Copyright (c) 1996-2017 Texas Instruments Incorporated
C:\Users\Stryd\AppData\Local\Temp\{8719FFD6-004A-4401-8DC3-4DA83C6CF1D8} PAGE   29

    1541 0000001c 23FF              MOVS      A4, #255              ; [DPU_3_PIPE] |598|  ; [ORIG 16-BIT INS]
    1542 0000001e 7283              STRB      A4, [A1, #10]         ; [DPU_3_PIPE] |598|  ; [ORIG 16-BIT INS]
    1543                            .dwpsn  file "../Application/MAC/OSAL/osal.c",line 599,column 5,is_stmt,isa 1
    1544 00000020 300C              ADDS      A1, A1, #12           ; [DPU_3_PIPE] |599|  ; [ORIG 16-BIT INS]
    1545                    ;* --------------------------------------------------------------------------*
    1546                    $C$DW$110       .dwtag  DW_TAG_TI_branch
    1547                            .dwattr $C$DW$110, DW_AT_low_pc(0x00)
    1548                            .dwattr $C$DW$110, DW_AT_TI_return
    1549                    
    1550 00000022 BD10              POP       {V1, PC}              ; [DPU_3_PIPE]  ; [ORIG 16-BIT INS]
    1551                            .dwcfi  cfa_offset, 0
    1552                            .dwcfi  restore_reg, 4
    1553                            ; BRANCH OCCURS                  ; [] 
    1554                            .dwattr $C$DW$104, DW_AT_TI_end_file("../Application/MAC/OSAL/osal.c")
    1555                            .dwattr $C$DW$104, DW_AT_TI_end_line(0x25b)
    1556                            .dwattr $C$DW$104, DW_AT_TI_end_column(0x01)
    1557                            .dwendentry
    1558                            .dwendtag $C$DW$104
    1559                    
    1560 00000000                   .sect   ".text:osal_self"
    1561                            .clink
    1562                            .thumbfunc osal_self
    1563 00000000                   .thumb
    1564                            .global osal_self
    1565                    
    1566                    $C$DW$111       .dwtag  DW_TAG_subprogram
    1567                            .dwattr $C$DW$111, DW_AT_name("osal_self")
    1568                            .dwattr $C$DW$111, DW_AT_low_pc(osal_self)
    1569                            .dwattr $C$DW$111, DW_AT_high_pc(0x00)
    1570                            .dwattr $C$DW$111, DW_AT_TI_symbol_name("osal_self")
    1571                            .dwattr $C$DW$111, DW_AT_external
    1572                            .dwattr $C$DW$111, DW_AT_type(*$C$DW$T$19)
    1573                            .dwattr $C$DW$111, DW_AT_TI_begin_file("../Application/MAC/OSAL/osal.c")
    1574                            .dwattr $C$DW$111, DW_AT_TI_begin_line(0x78b)
    1575                            .dwattr $C$DW$111, DW_AT_TI_begin_column(0x07)
    1576                            .dwattr $C$DW$111, DW_AT_decl_file("../Application/MAC/OSAL/osal.c")
    1577                            .dwattr $C$DW$111, DW_AT_decl_line(0x78b)
    1578                            .dwattr $C$DW$111, DW_AT_decl_column(0x07)
    1579                            .dwattr $C$DW$111, DW_AT_TI_max_frame_size(0x00)
    1580                            .dwpsn  file "../Application/MAC/OSAL/osal.c",line 1932,column 1,is_stmt,address osal_self,isa
    1581                    
    1582                            .dwfde $C$DW$CIE, osal_self
    1583                    
    1584                    ;*****************************************************************************
    1585                    ;* FUNCTION NAME: osal_self                                                  *
    1586                    ;*                                                                           *
    1587                    ;*   Regs Modified     : A1                                                  *
    1588                    ;*   Regs Used         : A1,LR                                               *
    1589                    ;*   Local Frame Size  : 0 Args + 0 Auto + 0 Save = 0 byte                   *
    1590                    ;*****************************************************************************
    1591 00000000           osal_self:
    1592                    ;* --------------------------------------------------------------------------*
    1593                            .dwcfi  cfa_offset, 0
    1594                            .dwpsn  file "../Application/MAC/OSAL/osal.c",line 1933,column 3,is_stmt,isa 1
    1595 00000000 4801              LDR       A1, $C$CON24          ; [DPU_3_PIPE] |1933|  ; [ORIG 16-BIT INS]
TI ARM Assembler PC v16.9.9 Sun Nov 25 16:40:48 2018

Tools Copyright (c) 1996-2017 Texas Instruments Incorporated
C:\Users\Stryd\AppData\Local\Temp\{8719FFD6-004A-4401-8DC3-4DA83C6CF1D8} PAGE   30

    1596 00000002 7800              LDRB      A1, [A1, #0]          ; [DPU_3_PIPE] |1933|  ; [ORIG 16-BIT INS]
    1597                    $C$DW$112       .dwtag  DW_TAG_TI_branch
    1598                            .dwattr $C$DW$112, DW_AT_low_pc(0x00)
    1599                            .dwattr $C$DW$112, DW_AT_TI_return
    1600                    
    1601 00000004 4770              BX        LR                    ; [DPU_3_PIPE]  ; [ORIG 16-BIT INS]
    1602                            ; BRANCH OCCURS                  ; [] 
    1603                            .dwattr $C$DW$111, DW_AT_TI_end_file("../Application/MAC/OSAL/osal.c")
    1604                            .dwattr $C$DW$111, DW_AT_TI_end_line(0x78e)
    1605                            .dwattr $C$DW$111, DW_AT_TI_end_column(0x01)
    1606                            .dwendentry
    1607                            .dwendtag $C$DW$111
    1608                    
    1609 00000000                   .sect   ".text:osal_proxy2alien"
    1610                            .clink
    1611                            .thumbfunc osal_proxy2alien
    1612 00000000                   .thumb
    1613                    
    1614                    $C$DW$113       .dwtag  DW_TAG_subprogram
    1615                            .dwattr $C$DW$113, DW_AT_name("osal_proxy2alien")
    1616                            .dwattr $C$DW$113, DW_AT_low_pc(osal_proxy2alien)
    1617                            .dwattr $C$DW$113, DW_AT_high_pc(0x00)
    1618                            .dwattr $C$DW$113, DW_AT_TI_symbol_name("osal_proxy2alien")
    1619                            .dwattr $C$DW$113, DW_AT_type(*$C$DW$T$89)
    1620                            .dwattr $C$DW$113, DW_AT_TI_begin_file("../Application/MAC/OSAL/osal.c")
    1621                            .dwattr $C$DW$113, DW_AT_TI_begin_line(0x5e1)
    1622                            .dwattr $C$DW$113, DW_AT_TI_begin_column(0x17)
    1623                            .dwattr $C$DW$113, DW_AT_decl_file("../Application/MAC/OSAL/osal.c")
    1624                            .dwattr $C$DW$113, DW_AT_decl_line(0x5e1)
    1625                            .dwattr $C$DW$113, DW_AT_decl_column(0x17)
    1626                            .dwattr $C$DW$113, DW_AT_TI_max_frame_size(0x08)
    1627                            .dwpsn  file "../Application/MAC/OSAL/osal.c",line 1506,column 1,is_stmt,address osal_proxy2al
    1628                    
    1629                            .dwfde $C$DW$CIE, osal_proxy2alien
    1630                    $C$DW$114       .dwtag  DW_TAG_formal_parameter
    1631                            .dwattr $C$DW$114, DW_AT_name("proxyid")
    1632                            .dwattr $C$DW$114, DW_AT_TI_symbol_name("proxyid")
    1633                            .dwattr $C$DW$114, DW_AT_type(*$C$DW$T$10)
    1634                            .dwattr $C$DW$114, DW_AT_location[DW_OP_reg0]
    1635                    
    1636                    
    1637                    ;*****************************************************************************
    1638                    ;* FUNCTION NAME: osal_proxy2alien                                           *
    1639                    ;*                                                                           *
    1640                    ;*   Regs Modified     : A1,A2,A3,A4,V1,V9,SP,LR,SR                          *
    1641                    ;*   Regs Used         : A1,A2,A3,A4,V1,V9,SP,LR,SR                          *
    1642                    ;*   Local Frame Size  : 0 Args + 0 Auto + 8 Save = 8 byte                   *
    1643                    ;*****************************************************************************
    1644                    osal_proxy2alien:
    1645                    ;* --------------------------------------------------------------------------*
    1646                    ;* V1    assigned to proxyid
    1647                    $C$DW$115       .dwtag  DW_TAG_variable
    1648                            .dwattr $C$DW$115, DW_AT_name("proxyid")
    1649                            .dwattr $C$DW$115, DW_AT_TI_symbol_name("proxyid")
    1650                            .dwattr $C$DW$115, DW_AT_type(*$C$DW$T$10)
TI ARM Assembler PC v16.9.9 Sun Nov 25 16:40:48 2018

Tools Copyright (c) 1996-2017 Texas Instruments Incorporated
C:\Users\Stryd\AppData\Local\Temp\{8719FFD6-004A-4401-8DC3-4DA83C6CF1D8} PAGE   31

    1651                            .dwattr $C$DW$115, DW_AT_location[DW_OP_reg4]
    1652                    
    1653                            .dwcfi  cfa_offset, 0
    1654 00000000 B510              PUSH      {V1, LR}              ; [DPU_3_PIPE]  ; [ORIG 16-BIT INS]
    1655                            .dwcfi  cfa_offset, 8
    1656                            .dwcfi  save_reg_to_mem, 14, -4
    1657                            .dwcfi  save_reg_to_mem, 4, -8
    1658                            .dwpsn  file "../Application/MAC/OSAL/osal.c",line 1508,column 3,is_stmt,isa 1
    1659 00000002 0480F080          EOR       V1, A1, #128          ; [DPU_3_PIPE] |1508|  ; [KEEP 32-BIT INS]
    1660 00000006 2C02              CMP       V1, #2                ; [DPU_3_PIPE] |1508|  ; [ORIG 16-BIT INS]
    1661 00000008 DB01              BLT       ||$C$L11||            ; [DPU_3_PIPE] |1508|  ; [ORIG 16-BIT INS]
    1662                            ; BRANCHCC OCCURS {||$C$L11||}   ; [] |1508| 
    1663                    ;* --------------------------------------------------------------------------*
    1664                            .dwpsn  file "../Application/MAC/OSAL/osal.c",line 1511,column 5,is_stmt,isa 1
    1665                    $C$DW$116       .dwtag  DW_TAG_TI_branch
    1666                            .dwattr $C$DW$116, DW_AT_low_pc(0x00)
    1667                            .dwattr $C$DW$116, DW_AT_name("ICall_abort")
    1668                            .dwattr $C$DW$116, DW_AT_TI_call
    1669                    
    1670 0000000a FFFEF7FF!         BL        ICall_abort           ; [DPU_3_PIPE] |1511|  ; [KEEP 32-BIT INS]
    1671                            ; CALL OCCURS {ICall_abort }     ; [] |1511| 
    1672                    ;* --------------------------------------------------------------------------*
    1673 0000000e           ||$C$L11||:    
    1674                            .dwpsn  file "../Application/MAC/OSAL/osal.c",line 1513,column 3,is_stmt,isa 1
    1675 0000000e 4802              LDR       A1, $C$CON26          ; [DPU_3_PIPE] |1513|  ; [ORIG 16-BIT INS]
    1676 00000010 1C80              ADDS      A1, A1, #2            ; [DPU_3_PIPE]  ; [ORIG 16-BIT INS]
    1677 00000012 5D00              LDRB      A1, [A1, +V1]         ; [DPU_3_PIPE] |1513|  ; [ORIG 16-BIT INS]
    1678                    $C$DW$117       .dwtag  DW_TAG_TI_branch
    1679                            .dwattr $C$DW$117, DW_AT_low_pc(0x00)
    1680                            .dwattr $C$DW$117, DW_AT_TI_return
    1681                    
    1682 00000014 BD10              POP       {V1, PC}              ; [DPU_3_PIPE]  ; [ORIG 16-BIT INS]
    1683                            .dwcfi  cfa_offset, 0
    1684                            .dwcfi  restore_reg, 4
    1685                            ; BRANCH OCCURS                  ; [] 
    1686                            .dwattr $C$DW$113, DW_AT_TI_end_file("../Application/MAC/OSAL/osal.c")
    1687                            .dwattr $C$DW$113, DW_AT_TI_end_line(0x5ea)
    1688                            .dwattr $C$DW$113, DW_AT_TI_end_column(0x01)
    1689                            .dwendentry
    1690                            .dwendtag $C$DW$113
    1691                    
    1692                    ;**     Parameter deleted: format == 0;
    1693 00000000                   .sect   ".text:ICall_send"
    1694                            .clink
    1695                            .thumbfunc ICall_send
    1696 00000000                   .thumb
    1697                    
    1698                    $C$DW$118       .dwtag  DW_TAG_subprogram
    1699                            .dwattr $C$DW$118, DW_AT_name("ICall_send")
    1700                            .dwattr $C$DW$118, DW_AT_low_pc(ICall_send)
    1701                            .dwattr $C$DW$118, DW_AT_high_pc(0x00)
    1702                            .dwattr $C$DW$118, DW_AT_TI_symbol_name("ICall_send")
    1703                            .dwattr $C$DW$118, DW_AT_type(*$C$DW$T$109)
    1704                            .dwattr $C$DW$118, DW_AT_TI_begin_file("C:/ti/simplelink_cc13x0_sdk_2_30_00_20/source/ti/ti154
    1705                            .dwattr $C$DW$118, DW_AT_TI_begin_line(0x7ec)
TI ARM Assembler PC v16.9.9 Sun Nov 25 16:40:48 2018

Tools Copyright (c) 1996-2017 Texas Instruments Incorporated
C:\Users\Stryd\AppData\Local\Temp\{8719FFD6-004A-4401-8DC3-4DA83C6CF1D8} PAGE   32

    1706                            .dwattr $C$DW$118, DW_AT_TI_begin_column(0x14)
    1707                            .dwattr $C$DW$118, DW_AT_decl_file("C:/ti/simplelink_cc13x0_sdk_2_30_00_20/source/ti/ti154stac
    1708                            .dwattr $C$DW$118, DW_AT_decl_line(0x7ec)
    1709                            .dwattr $C$DW$118, DW_AT_decl_column(0x14)
    1710                            .dwattr $C$DW$118, DW_AT_TI_max_frame_size(0x18)
    1711                            .dwpsn  file "C:/ti/simplelink_cc13x0_sdk_2_30_00_20/source/ti/ti154stack/icall/src/inc/icall.
    1712                    
    1713                            .dwfde $C$DW$CIE, ICall_send
    1714                    $C$DW$119       .dwtag  DW_TAG_formal_parameter
    1715                            .dwattr $C$DW$119, DW_AT_name("src")
    1716                            .dwattr $C$DW$119, DW_AT_TI_symbol_name("src")
    1717                            .dwattr $C$DW$119, DW_AT_type(*$C$DW$T$10)
    1718                            .dwattr $C$DW$119, DW_AT_location[DW_OP_reg0]
    1719                    
    1720                    $C$DW$120       .dwtag  DW_TAG_formal_parameter
    1721                            .dwattr $C$DW$120, DW_AT_name("dest")
    1722                            .dwattr $C$DW$120, DW_AT_TI_symbol_name("dest")
    1723                            .dwattr $C$DW$120, DW_AT_type(*$C$DW$T$10)
    1724                            .dwattr $C$DW$120, DW_AT_location[DW_OP_reg1]
    1725                    
    1726                    $C$DW$121       .dwtag  DW_TAG_formal_parameter
    1727                            .dwattr $C$DW$121, DW_AT_name("msg")
    1728                            .dwattr $C$DW$121, DW_AT_TI_symbol_name("msg")
    1729                            .dwattr $C$DW$121, DW_AT_type(*$C$DW$T$3)
    1730                            .dwattr $C$DW$121, DW_AT_location[DW_OP_reg2]
    1731                    
    1732                    
    1733                    ;*****************************************************************************
    1734                    ;* FUNCTION NAME: ICall_send                                                 *
    1735                    ;*                                                                           *
    1736                    ;*   Regs Modified     : A1,A2,A3,A4,V9,SP,LR,SR                             *
    1737                    ;*   Regs Used         : A1,A2,A3,A4,V9,SP,LR,SR                             *
    1738                    ;*   Local Frame Size  : 0 Args + 16 Auto + 4 Save = 20 byte                 *
    1739                    ;*****************************************************************************
    1740                    ICall_send:
    1741                    ;* --------------------------------------------------------------------------*
    1742                    $C$DW$122       .dwtag  DW_TAG_variable
    1743                            .dwattr $C$DW$122, DW_AT_name("args")
    1744                            .dwattr $C$DW$122, DW_AT_TI_symbol_name("args")
    1745                            .dwattr $C$DW$122, DW_AT_type(*$C$DW$T$419)
    1746                            .dwattr $C$DW$122, DW_AT_location[DW_OP_breg13 0]
    1747                    
    1748                    ;* A1    assigned to src
    1749                    $C$DW$123       .dwtag  DW_TAG_variable
    1750                            .dwattr $C$DW$123, DW_AT_name("src")
    1751                            .dwattr $C$DW$123, DW_AT_TI_symbol_name("src")
    1752                            .dwattr $C$DW$123, DW_AT_type(*$C$DW$T$302)
    1753                            .dwattr $C$DW$123, DW_AT_location[DW_OP_reg0]
    1754                    
    1755                    ;* A2    assigned to dest
    1756                    $C$DW$124       .dwtag  DW_TAG_variable
    1757                            .dwattr $C$DW$124, DW_AT_name("dest")
    1758                            .dwattr $C$DW$124, DW_AT_TI_symbol_name("dest")
    1759                            .dwattr $C$DW$124, DW_AT_type(*$C$DW$T$302)
    1760                            .dwattr $C$DW$124, DW_AT_location[DW_OP_reg1]
TI ARM Assembler PC v16.9.9 Sun Nov 25 16:40:48 2018

Tools Copyright (c) 1996-2017 Texas Instruments Incorporated
C:\Users\Stryd\AppData\Local\Temp\{8719FFD6-004A-4401-8DC3-4DA83C6CF1D8} PAGE   33

    1761                    
    1762                    ;* A3    assigned to msg
    1763                    $C$DW$125       .dwtag  DW_TAG_variable
    1764                            .dwattr $C$DW$125, DW_AT_name("msg")
    1765                            .dwattr $C$DW$125, DW_AT_TI_symbol_name("msg")
    1766                            .dwattr $C$DW$125, DW_AT_type(*$C$DW$T$212)
    1767                            .dwattr $C$DW$125, DW_AT_location[DW_OP_reg2]
    1768                    
    1769                            .dwcfi  cfa_offset, 0
    1770 00000000 B500              PUSH      {LR}                  ; [DPU_3_PIPE]  ; [ORIG 16-BIT INS]
    1771                            .dwcfi  cfa_offset, 4
    1772                            .dwcfi  save_reg_to_mem, 14, -4
    1773 00000002 0D14F1AD          SUB       SP, SP, #20           ; [DPU_3_PIPE]  ; [KEEP 32-BIT INS]
    1774                            .dwcfi  cfa_offset, 24
    1775                            .dwpsn  file "C:/ti/simplelink_cc13x0_sdk_2_30_00_20/source/ti/ti154stack/icall/src/inc/icall.
    1776 00000006 0004F88D          STRB      A1, [SP, #4]          ; [DPU_3_PIPE] |2036|  ; [KEEP 32-BIT INS]
    1777                            .dwpsn  file "C:/ti/simplelink_cc13x0_sdk_2_30_00_20/source/ti/ti154stack/icall/src/inc/icall.
    1778 0000000a 2308              MOVS      A4, #8                ; [DPU_3_PIPE] |2034|  ; [ORIG 16-BIT INS]
    1779 0000000c 3000F8AD          STRH      A4, [SP, #0]          ; [DPU_3_PIPE] |2034|  ; [KEEP 32-BIT INS]
    1780                            .dwpsn  file "C:/ti/simplelink_cc13x0_sdk_2_30_00_20/source/ti/ti154stack/icall/src/inc/icall.
    1781 00000010 1006F88D          STRB      A2, [SP, #6]          ; [DPU_3_PIPE] |2037|  ; [KEEP 32-BIT INS]
    1782                            .dwpsn  file "C:/ti/simplelink_cc13x0_sdk_2_30_00_20/source/ti/ti154stack/icall/src/inc/icall.
    1783 00000014 2000              MOVS      A1, #0                ; [DPU_3_PIPE] |2038|  ; [ORIG 16-BIT INS]
    1784 00000016 0008F88D          STRB      A1, [SP, #8]          ; [DPU_3_PIPE] |2038|  ; [KEEP 32-BIT INS]
    1785                            .dwpsn  file "C:/ti/simplelink_cc13x0_sdk_2_30_00_20/source/ti/ti154stack/icall/src/inc/icall.
    1786 0000001a 2306              MOVS      A4, #6                ; [DPU_3_PIPE] |2035|  ; [ORIG 16-BIT INS]
    1787                            .dwpsn  file "C:/ti/simplelink_cc13x0_sdk_2_30_00_20/source/ti/ti154stack/icall/src/inc/icall.
    1788 0000001c 4804              LDR       A1, $C$CON27          ; [DPU_3_PIPE] |2040|  ; [ORIG 16-BIT INS]
    1789                            .dwpsn  file "C:/ti/simplelink_cc13x0_sdk_2_30_00_20/source/ti/ti154stack/icall/src/inc/icall.
    1790 0000001e 9203              STR       A3, [SP, #12]         ; [DPU_3_PIPE] |2039|  ; [ORIG 16-BIT INS]
    1791                            .dwpsn  file "C:/ti/simplelink_cc13x0_sdk_2_30_00_20/source/ti/ti154stack/icall/src/inc/icall.
    1792 00000020 6801              LDR       A2, [A1, #0]          ; [DPU_3_PIPE] |2040|  ; [ORIG 16-BIT INS]
    1793                            .dwpsn  file "C:/ti/simplelink_cc13x0_sdk_2_30_00_20/source/ti/ti154stack/icall/src/inc/icall.
    1794 00000022 3002F8AD          STRH      A4, [SP, #2]          ; [DPU_3_PIPE] |2035|  ; [KEEP 32-BIT INS]
    1795                            .dwpsn  file "C:/ti/simplelink_cc13x0_sdk_2_30_00_20/source/ti/ti154stack/icall/src/inc/icall.
    1796 00000026 4668              MOV       A1, SP                ; [DPU_3_PIPE] |2040|  ; [ORIG 16-BIT INS]
    1797                    $C$DW$126       .dwtag  DW_TAG_TI_branch
    1798                            .dwattr $C$DW$126, DW_AT_low_pc(0x00)
    1799                            .dwattr $C$DW$126, DW_AT_TI_call
    1800                            .dwattr $C$DW$126, DW_AT_TI_indirect
    1801                    
    1802 00000028 4788              BLX       A2                    ; [DPU_3_PIPE] |2040|  ; [ORIG 16-BIT INS]
    1803                            ; CALL OCCURS {}                 ; [] |2040| 
    1804 0000002a B005              ADD       SP, SP, #20           ; [DPU_3_PIPE]  ; [ORIG 16-BIT INS]
    1805                            .dwcfi  cfa_offset, 4
    1806                    $C$DW$127       .dwtag  DW_TAG_TI_branch
    1807                            .dwattr $C$DW$127, DW_AT_low_pc(0x00)
    1808                            .dwattr $C$DW$127, DW_AT_TI_return
    1809                    
    1810 0000002c BD00              POP       {PC}                  ; [DPU_3_PIPE]  ; [ORIG 16-BIT INS]
    1811                            .dwcfi  cfa_offset, 0
    1812                            ; BRANCH OCCURS                  ; [] 
    1813                            .dwattr $C$DW$118, DW_AT_TI_end_file("C:/ti/simplelink_cc13x0_sdk_2_30_00_20/source/ti/ti154st
    1814                            .dwattr $C$DW$118, DW_AT_TI_end_line(0x7f9)
    1815                            .dwattr $C$DW$118, DW_AT_TI_end_column(0x01)
TI ARM Assembler PC v16.9.9 Sun Nov 25 16:40:48 2018

Tools Copyright (c) 1996-2017 Texas Instruments Incorporated
C:\Users\Stryd\AppData\Local\Temp\{8719FFD6-004A-4401-8DC3-4DA83C6CF1D8} PAGE   34

    1816                            .dwendentry
    1817                            .dwendtag $C$DW$118
    1818                    
    1819 00000000                   .sect   ".text:osal_set_event"
    1820                            .clink
    1821                            .thumbfunc osal_set_event
    1822 00000000                   .thumb
    1823                            .global osal_set_event
    1824                    
    1825                    $C$DW$128       .dwtag  DW_TAG_subprogram
    1826                            .dwattr $C$DW$128, DW_AT_name("osal_set_event")
    1827                            .dwattr $C$DW$128, DW_AT_low_pc(osal_set_event)
    1828                            .dwattr $C$DW$128, DW_AT_high_pc(0x00)
    1829                            .dwattr $C$DW$128, DW_AT_TI_symbol_name("osal_set_event")
    1830                            .dwattr $C$DW$128, DW_AT_external
    1831                            .dwattr $C$DW$128, DW_AT_type(*$C$DW$T$19)
    1832                            .dwattr $C$DW$128, DW_AT_TI_begin_file("../Application/MAC/OSAL/osal.c")
    1833                            .dwattr $C$DW$128, DW_AT_TI_begin_line(0x480)
    1834                            .dwattr $C$DW$128, DW_AT_TI_begin_column(0x07)
    1835                            .dwattr $C$DW$128, DW_AT_decl_file("../Application/MAC/OSAL/osal.c")
    1836                            .dwattr $C$DW$128, DW_AT_decl_line(0x480)
    1837                            .dwattr $C$DW$128, DW_AT_decl_column(0x07)
    1838                            .dwattr $C$DW$128, DW_AT_TI_max_frame_size(0x20)
    1839                            .dwpsn  file "../Application/MAC/OSAL/osal.c",line 1154,column 1,is_stmt,address osal_set_even
    1840                    
    1841                            .dwfde $C$DW$CIE, osal_set_event
    1842                    $C$DW$129       .dwtag  DW_TAG_formal_parameter
    1843                            .dwattr $C$DW$129, DW_AT_name("task_id")
    1844                            .dwattr $C$DW$129, DW_AT_TI_symbol_name("task_id")
    1845                            .dwattr $C$DW$129, DW_AT_type(*$C$DW$T$10)
    1846                            .dwattr $C$DW$129, DW_AT_location[DW_OP_reg0]
    1847                    
    1848                    $C$DW$130       .dwtag  DW_TAG_formal_parameter
    1849                            .dwattr $C$DW$130, DW_AT_name("event_flag")
    1850                            .dwattr $C$DW$130, DW_AT_TI_symbol_name("event_flag")
    1851                            .dwattr $C$DW$130, DW_AT_type(*$C$DW$T$10)
    1852                            .dwattr $C$DW$130, DW_AT_location[DW_OP_reg1]
    1853                    
    1854                    
    1855                    ;*****************************************************************************
    1856                    ;* FUNCTION NAME: osal_set_event                                             *
    1857                    ;*                                                                           *
    1858                    ;*   Regs Modified     : A1,A2,A3,A4,V1,V2,V3,V4,V5,V6,V9,SP,LR,SR           *
    1859                    ;*   Regs Used         : A1,A2,A3,A4,V1,V2,V3,V4,V5,V6,V9,SP,LR,SR           *
    1860                    ;*   Local Frame Size  : 0 Args + 0 Auto + 28 Save = 28 byte                 *
    1861                    ;*****************************************************************************
    1862                    osal_set_event:
    1863                    ;* --------------------------------------------------------------------------*
    1864                    ;* A2    assigned to $O$C1
    1865                    ;* A2    assigned to $O$K28
    1866                    ;* V1    assigned to $O$v4
    1867                    ;* V2    assigned to task_id
    1868                    $C$DW$131       .dwtag  DW_TAG_variable
    1869                            .dwattr $C$DW$131, DW_AT_name("task_id")
    1870                            .dwattr $C$DW$131, DW_AT_TI_symbol_name("task_id")
TI ARM Assembler PC v16.9.9 Sun Nov 25 16:40:48 2018

Tools Copyright (c) 1996-2017 Texas Instruments Incorporated
C:\Users\Stryd\AppData\Local\Temp\{8719FFD6-004A-4401-8DC3-4DA83C6CF1D8} PAGE   35

    1871                            .dwattr $C$DW$131, DW_AT_type(*$C$DW$T$298)
    1872                            .dwattr $C$DW$131, DW_AT_location[DW_OP_reg5]
    1873                    
    1874                    ;* V1    assigned to event_flag
    1875                    $C$DW$132       .dwtag  DW_TAG_variable
    1876                            .dwattr $C$DW$132, DW_AT_name("event_flag")
    1877                            .dwattr $C$DW$132, DW_AT_TI_symbol_name("event_flag")
    1878                            .dwattr $C$DW$132, DW_AT_type(*$C$DW$T$326)
    1879                            .dwattr $C$DW$132, DW_AT_location[DW_OP_reg4]
    1880                    
    1881                    ;* V3    assigned to hdr
    1882                    $C$DW$133       .dwtag  DW_TAG_variable
    1883                            .dwattr $C$DW$133, DW_AT_name("hdr")
    1884                            .dwattr $C$DW$133, DW_AT_TI_symbol_name("hdr")
    1885                            .dwattr $C$DW$133, DW_AT_type(*$C$DW$T$409)
    1886                            .dwattr $C$DW$133, DW_AT_location[DW_OP_reg6]
    1887                    
    1888                    ;* V1    assigned to src
    1889                    $C$DW$134       .dwtag  DW_TAG_variable
    1890                            .dwattr $C$DW$134, DW_AT_name("src")
    1891                            .dwattr $C$DW$134, DW_AT_TI_symbol_name("src")
    1892                            .dwattr $C$DW$134, DW_AT_type(*$C$DW$T$10)
    1893                            .dwattr $C$DW$134, DW_AT_location[DW_OP_reg4]
    1894                    
    1895                    ;* A2    assigned to dst
    1896                    $C$DW$135       .dwtag  DW_TAG_variable
    1897                            .dwattr $C$DW$135, DW_AT_name("dst")
    1898                            .dwattr $C$DW$135, DW_AT_TI_symbol_name("dst")
    1899                            .dwattr $C$DW$135, DW_AT_type(*$C$DW$T$10)
    1900                            .dwattr $C$DW$135, DW_AT_location[DW_OP_reg1]
    1901                    
    1902                    ;* A1    assigned to taskid
    1903                    $C$DW$136       .dwtag  DW_TAG_variable
    1904                            .dwattr $C$DW$136, DW_AT_name("taskid")
    1905                            .dwattr $C$DW$136, DW_AT_TI_symbol_name("taskid")
    1906                            .dwattr $C$DW$136, DW_AT_type(*$C$DW$T$10)
    1907                            .dwattr $C$DW$136, DW_AT_location[DW_OP_reg0]
    1908                    
    1909                    ;* V4    assigned to msg_ptr
    1910                    $C$DW$137       .dwtag  DW_TAG_variable
    1911                            .dwattr $C$DW$137, DW_AT_name("msg_ptr")
    1912                            .dwattr $C$DW$137, DW_AT_TI_symbol_name("msg_ptr")
    1913                            .dwattr $C$DW$137, DW_AT_type(*$C$DW$T$432)
    1914                            .dwattr $C$DW$137, DW_AT_location[DW_OP_reg7]
    1915                    
    1916                            .dwcfi  cfa_offset, 0
    1917 00000000 43F8E92D          PUSH      {A4, V1, V2, V3, V4, V5, V6, LR} ; [DPU_3_PIPE]  ; [KEEP 32-BIT INS]
    1918                            .dwcfi  cfa_offset, 32
    1919                            .dwcfi  save_reg_to_mem, 14, -4
    1920                            .dwcfi  save_reg_to_mem, 9, -8
    1921                            .dwcfi  save_reg_to_mem, 8, -12
    1922                            .dwcfi  save_reg_to_mem, 7, -16
    1923                            .dwcfi  save_reg_to_mem, 6, -20
    1924                            .dwcfi  save_reg_to_mem, 5, -24
    1925                            .dwcfi  save_reg_to_mem, 4, -28
TI ARM Assembler PC v16.9.9 Sun Nov 25 16:40:48 2018

Tools Copyright (c) 1996-2017 Texas Instruments Incorporated
C:\Users\Stryd\AppData\Local\Temp\{8719FFD6-004A-4401-8DC3-4DA83C6CF1D8} PAGE   36

    1926                            .dwcfi  save_reg_to_mem, 3, -32
    1927                            .dwpsn  file "../Application/MAC/OSAL/osal.c",line 1179,column 5,is_stmt,isa 1
    1928 00000004 90BCF8DF          LDR       V6, $C$CON34          ; [DPU_3_PIPE] |1179|  ; [KEEP 32-BIT INS]
    1929                            .dwpsn  file "../Application/MAC/OSAL/osal.c",line 1186,column 7,is_stmt,isa 1
    1930 00000008 80A8F8DF          LDR       V5, $C$CON28          ; [DPU_3_PIPE] |1186|  ; [KEEP 32-BIT INS]
    1931                            .dwpsn  file "../Application/MAC/OSAL/osal.c",line 1154,column 1,is_stmt,isa 1
    1932 0000000c 4605              MOV       V2, A1                ; [DPU_3_PIPE] |1154|  ; [ORIG 16-BIT INS]
    1933 0000000e 460C              MOV       V1, A2                ; [DPU_3_PIPE] |1154|  ; [ORIG 16-BIT INS]
    1934                            .dwpsn  file "../Application/MAC/OSAL/osal.c",line 1156,column 3,is_stmt,isa 1
    1935 00000010 007FF035          BICS      A1, V2, #127          ; [DPU_3_PIPE] |1156|  ; [KEEP 32-BIT INS]
    1936 00000014 D119              BNE       ||$C$L13||            ; [DPU_3_PIPE] |1156|  ; [ORIG 16-BIT INS]
    1937                            ; BRANCHCC OCCURS {||$C$L13||}   ; [] |1156| 
    1938                    ;* --------------------------------------------------------------------------*
    1939                            .dwpsn  file "../Application/MAC/OSAL/osal.c",line 1209,column 3,is_stmt,isa 1
    1940 00000016 4642              MOV       A3, V5                ; [DPU_3_PIPE] |1209|  ; [ORIG 16-BIT INS]
    1941 00000018 7810              LDRB      A1, [A3, #0]          ; [DPU_3_PIPE] |1209|  ; [ORIG 16-BIT INS]
    1942 0000001a 42A8              CMP       A1, V2                ; [DPU_3_PIPE] |1209|  ; [ORIG 16-BIT INS]
    1943 0000001c DD12              BLE       ||$C$L12||            ; [DPU_3_PIPE] |1209|  ; [ORIG 16-BIT INS]
    1944                            ; BRANCHCC OCCURS {||$C$L12||}   ; [] |1209| 
    1945                    ;* --------------------------------------------------------------------------*
    1946                            .dwpsn  file "../Application/MAC/OSAL/osal.c",line 1212,column 5,is_stmt,isa 1
    1947 0000001e 4826              LDR       A1, $C$CON29          ; [DPU_3_PIPE] |1212|  ; [ORIG 16-BIT INS]
    1948 00000020 6800              LDR       A1, [A1, #0]          ; [DPU_3_PIPE] |1212|  ; [ORIG 16-BIT INS]
    1949                    $C$DW$138       .dwtag  DW_TAG_TI_branch
    1950                            .dwattr $C$DW$138, DW_AT_low_pc(0x00)
    1951                            .dwattr $C$DW$138, DW_AT_TI_call
    1952                            .dwattr $C$DW$138, DW_AT_TI_indirect
    1953                    
    1954 00000022 4780              BLX       A1                    ; [DPU_3_PIPE] |1212|  ; [ORIG 16-BIT INS]
    1955                            ; CALL OCCURS {}                 ; [] |1212| 
    1956                            .dwpsn  file "../Application/MAC/OSAL/osal.c",line 1213,column 5,is_stmt,isa 1
    1957 00000024 4925              LDR       A2, $C$CON30          ; [DPU_3_PIPE] |1213|  ; [ORIG 16-BIT INS]
    1958 00000026 6809              LDR       A2, [A2, #0]          ; [DPU_3_PIPE] |1213|  ; [ORIG 16-BIT INS]
    1959                            .dwpsn  file "../Application/MAC/OSAL/osal.c",line 1214,column 5,is_stmt,isa 1
    1960 00000028 4F25              LDR       V4, $C$CON31          ; [DPU_3_PIPE] |1214|  ; [ORIG 16-BIT INS]
    1961                            .dwpsn  file "../Application/MAC/OSAL/osal.c",line 1213,column 5,is_stmt,isa 1
    1962 0000002a 2015F831          LDRH      A3, [A2, +V2, LSL #1] ; [DPU_3_PIPE] |1213|  ; [KEEP 32-BIT INS]
    1963 0000002e 4314              ORRS      V1, V1, A3            ; [DPU_3_PIPE] |1213|  ; [ORIG 16-BIT INS]
    1964 00000030 4015F821          STRH      V1, [A2, +V2, LSL #1] ; [DPU_3_PIPE] |1213|  ; [KEEP 32-BIT INS]
    1965                            .dwpsn  file "../Application/MAC/OSAL/osal.c",line 1214,column 5,is_stmt,isa 1
    1966 00000034 6839              LDR       A2, [V4, #0]          ; [DPU_3_PIPE] |1214|  ; [ORIG 16-BIT INS]
    1967                    $C$DW$139       .dwtag  DW_TAG_TI_branch
    1968                            .dwattr $C$DW$139, DW_AT_low_pc(0x00)
    1969                            .dwattr $C$DW$139, DW_AT_TI_call
    1970                            .dwattr $C$DW$139, DW_AT_TI_indirect
    1971                    
    1972 00000036 4788              BLX       A2                    ; [DPU_3_PIPE] |1214|  ; [ORIG 16-BIT INS]
    1973                            ; CALL OCCURS {}                 ; [] |1214| 
    1974                            .dwpsn  file "../Application/MAC/OSAL/osal.c",line 1219,column 5,is_stmt,isa 1
    1975 00000038 4649              MOV       A2, V6                ; [DPU_3_PIPE] |1219|  ; [ORIG 16-BIT INS]
    1976 0000003a 3110              ADDS      A2, A2, #16           ; [DPU_3_PIPE]  ; [ORIG 16-BIT INS]
    1977 0000003c 6808              LDR       A1, [A2, #0]          ; [DPU_3_PIPE] |1219|  ; [ORIG 16-BIT INS]
    1978                    $C$DW$140       .dwtag  DW_TAG_TI_branch
    1979                            .dwattr $C$DW$140, DW_AT_low_pc(0x00)
    1980                            .dwattr $C$DW$140, DW_AT_name("ICall_signal")
TI ARM Assembler PC v16.9.9 Sun Nov 25 16:40:48 2018

Tools Copyright (c) 1996-2017 Texas Instruments Incorporated
C:\Users\Stryd\AppData\Local\Temp\{8719FFD6-004A-4401-8DC3-4DA83C6CF1D8} PAGE   37

    1981                            .dwattr $C$DW$140, DW_AT_TI_call
    1982                    
    1983 0000003e FFFEF7FF!         BL        ICall_signal          ; [DPU_3_PIPE] |1219|  ; [KEEP 32-BIT INS]
    1984                            ; CALL OCCURS {ICall_signal }    ; [] |1219| 
    1985                            .dwpsn  file "../Application/MAC/OSAL/osal.c",line 1222,column 5,is_stmt,isa 1
    1986 00000042 E033              B         ||$C$L17||            ; [DPU_3_PIPE] |1222|  ; [ORIG 16-BIT INS]
    1987                            ; BRANCH OCCURS {||$C$L17||}     ; [] |1222| 
    1988                    ;* --------------------------------------------------------------------------*
    1989 00000044           ||$C$L12||:    
    1990                            .dwcfi  remember_state
    1991                            .dwpsn  file "../Application/MAC/OSAL/osal.c",line 1226,column 5,is_stmt,isa 1
    1992 00000044 2003              MOVS      A1, #3                ; [DPU_3_PIPE] |1226|  ; [ORIG 16-BIT INS]
    1993                    $C$DW$141       .dwtag  DW_TAG_TI_branch
    1994                            .dwattr $C$DW$141, DW_AT_low_pc(0x00)
    1995                            .dwattr $C$DW$141, DW_AT_TI_return
    1996                    
    1997 00000046 83F8E8BD          POP       {A4, V1, V2, V3, V4, V5, V6, PC} ; [DPU_3_PIPE]  ; [KEEP 32-BIT INS]
    1998                            .dwcfi  cfa_offset, 0
    1999                            .dwcfi  restore_reg, 9
    2000                            .dwcfi  restore_reg, 8
    2001                            .dwcfi  restore_reg, 7
    2002                            .dwcfi  restore_reg, 6
    2003                            .dwcfi  restore_reg, 5
    2004                            .dwcfi  restore_reg, 4
    2005                            .dwcfi  restore_reg, 3
    2006                            ; BRANCH OCCURS                  ; [] 
    2007                            .dwcfi  restore_state
    2008                    ;* --------------------------------------------------------------------------*
    2009 0000004a           ||$C$L13||:    
    2010                            .dwpsn  file "../Application/MAC/OSAL/osal.c",line 1167,column 16,is_stmt,isa 1
    2011 0000004a 2004              MOVS      A1, #4                ; [DPU_3_PIPE] |1167|  ; [ORIG 16-BIT INS]
    2012                    $C$DW$142       .dwtag  DW_TAG_TI_branch
    2013                            .dwattr $C$DW$142, DW_AT_low_pc(0x00)
    2014                            .dwattr $C$DW$142, DW_AT_name("osal_msg_allocate")
    2015                            .dwattr $C$DW$142, DW_AT_TI_call
    2016                    
    2017 0000004c FFFEF7FF!         BL        osal_msg_allocate     ; [DPU_3_PIPE] |1167|  ; [KEEP 32-BIT INS]
    2018                            ; CALL OCCURS {osal_msg_allocate }  ; [] |1167| 
    2019                            .dwpsn  file "../Application/MAC/OSAL/osal.c",line 1170,column 5,is_stmt,isa 1
    2020 00000050 1C07              MOVS      V4, A1                ; [DPU_3_PIPE] |1170|  ; [ORIG 16-BIT INS]
    2021 00000052 BF08              IT        EQ                    ; [DPU_3_PIPE]  ; [ORIG 16-BIT INS]
    2022                            .dwpsn  file "../Application/MAC/OSAL/osal.c",line 1172,column 7,is_stmt,isa 1
    2023 00000054 2004              MOVEQ     A1, #4                ; [DPU_3_PIPE] |1172|  ; [ORIG 16-BIT INS]
    2024 00000056 D02A              BEQ       ||$C$L18||            ; [DPU_3_PIPE] |1172|  ; [ORIG 16-BIT INS]
    2025                            ; BRANCHCC OCCURS {||$C$L18||}   ; [] |1172| 
    2026                    ;* --------------------------------------------------------------------------*
    2027                            .dwpsn  file "../Application/MAC/OSAL/osal.c",line 1174,column 5,is_stmt,isa 1
    2028 00000058 70FFF64F          MOV       A1, #65535            ; [DPU_3_PIPE] |1174|  ; [KEEP 32-BIT INS]
    2029 0000005c 8038              STRH      A1, [V4, #0]          ; [DPU_3_PIPE] |1174|  ; [ORIG 16-BIT INS]
    2030                            .dwpsn  file "../Application/MAC/OSAL/osal.c",line 1175,column 5,is_stmt,isa 1
    2031 0000005e 807C              STRH      V1, [V4, #2]          ; [DPU_3_PIPE] |1175|  ; [ORIG 16-BIT INS]
    2032                            .dwpsn  file "../Application/MAC/OSAL/osal.c",line 1178,column 5,is_stmt,isa 1
    2033                    $C$DW$143       .dwtag  DW_TAG_TI_branch
    2034                            .dwattr $C$DW$143, DW_AT_low_pc(0x00)
    2035                            .dwattr $C$DW$143, DW_AT_name("osal_self")
TI ARM Assembler PC v16.9.9 Sun Nov 25 16:40:48 2018

Tools Copyright (c) 1996-2017 Texas Instruments Incorporated
C:\Users\Stryd\AppData\Local\Temp\{8719FFD6-004A-4401-8DC3-4DA83C6CF1D8} PAGE   38

    2036                            .dwattr $C$DW$143, DW_AT_TI_call
    2037                    
    2038 00000060 FFFEF7FF!         BL        osal_self             ; [DPU_3_PIPE] |1178|  ; [KEEP 32-BIT INS]
    2039                            ; CALL OCCURS {osal_self }       ; [] |1178| 
    2040                            .dwpsn  file "../Application/MAC/OSAL/osal.c",line 1179,column 5,is_stmt,isa 1
    2041 00000064 4649              MOV       A2, V6                ; [DPU_3_PIPE] |1179|  ; [ORIG 16-BIT INS]
    2042 00000066 784C              LDRB      V1, [A2, #1]          ; [DPU_3_PIPE] |1179|  ; [ORIG 16-BIT INS]
    2043                            .dwpsn  file "../Application/MAC/OSAL/osal.c",line 1176,column 5,is_stmt,isa 1
    2044 00000068 060CF1A7          SUB       V3, V4, #12           ; [DPU_3_PIPE] |1176|  ; [KEEP 32-BIT INS]
    2045                            .dwpsn  file "../Application/MAC/OSAL/osal.c",line 1179,column 5,is_stmt,isa 1
    2046 0000006c 28FF              CMP       A1, #255              ; [DPU_3_PIPE] |1179|  ; [ORIG 16-BIT INS]
    2047 0000006e D004              BEQ       ||$C$L14||            ; [DPU_3_PIPE] |1179|  ; [ORIG 16-BIT INS]
    2048                            ; BRANCHCC OCCURS {||$C$L14||}   ; [] |1179| 
    2049                    ;* --------------------------------------------------------------------------*
    2050                            .dwpsn  file "../Application/MAC/OSAL/osal.c",line 1186,column 7,is_stmt,isa 1
    2051 00000070 4642              MOV       A3, V5                ; [DPU_3_PIPE] |1186|  ; [ORIG 16-BIT INS]
    2052 00000072 6A8B              LDR       A4, [A2, #40]         ; [DPU_3_PIPE] |1186|  ; [ORIG 16-BIT INS]
    2053 00000074 7812              LDRB      A3, [A3, #0]          ; [DPU_3_PIPE] |1186|  ; [ORIG 16-BIT INS]
    2054 00000076 1812              ADDS      A3, A3, A1            ; [DPU_3_PIPE] |1186|  ; [ORIG 16-BIT INS]
    2055 00000078 5C9C              LDRB      V1, [A4, +A3]         ; [DPU_3_PIPE] |1186|  ; [ORIG 16-BIT INS]
    2056                    ;* --------------------------------------------------------------------------*
    2057 0000007a           ||$C$L14||:    
    2058                            .dwpsn  file "../Application/MAC/OSAL/osal.c",line 1189,column 5,is_stmt,isa 1
    2059 0000007a 2CFF              CMP       V1, #255              ; [DPU_3_PIPE] |1189|  ; [ORIG 16-BIT INS]
    2060 0000007c D107              BNE       ||$C$L16||            ; [DPU_3_PIPE] |1189|  ; [ORIG 16-BIT INS]
    2061                            ; BRANCHCC OCCURS {||$C$L16||}   ; [] |1189| 
    2062                    ;* --------------------------------------------------------------------------*
    2063                            .dwcfi  remember_state
    2064                            .dwpsn  file "../Application/MAC/OSAL/osal.c",line 1192,column 7,is_stmt,isa 1
    2065 0000007e 4638              MOV       A1, V4                ; [DPU_3_PIPE] |1192|  ; [ORIG 16-BIT INS]
    2066                    $C$DW$144       .dwtag  DW_TAG_TI_branch
    2067                            .dwattr $C$DW$144, DW_AT_low_pc(0x00)
    2068                            .dwattr $C$DW$144, DW_AT_name("osal_msg_deallocate")
    2069                            .dwattr $C$DW$144, DW_AT_TI_call
    2070                    
    2071 00000080 FFFEF7FF!         BL        osal_msg_deallocate   ; [DPU_3_PIPE] |1192|  ; [KEEP 32-BIT INS]
    2072                            ; CALL OCCURS {osal_msg_deallocate }  ; [] |1192| 
    2073                            .dwpsn  file "../Application/MAC/OSAL/osal.c",line 1193,column 7,is_stmt,isa 1
    2074                    $C$DW$145       .dwtag  DW_TAG_TI_branch
    2075                            .dwattr $C$DW$145, DW_AT_low_pc(0x00)
    2076                            .dwattr $C$DW$145, DW_AT_name("ICall_abort")
    2077                            .dwattr $C$DW$145, DW_AT_TI_call
    2078                    
    2079 00000084 FFFEF7FF!         BL        ICall_abort           ; [DPU_3_PIPE] |1193|  ; [KEEP 32-BIT INS]
    2080                            ; CALL OCCURS {ICall_abort }     ; [] |1193| 
    2081                    ;* --------------------------------------------------------------------------*
    2082 00000088           ||$C$L15||:    
    2083                            .dwpsn  file "../Application/MAC/OSAL/osal.c",line 1194,column 7,is_stmt,isa 1
    2084 00000088 2001              MOVS      A1, #1                ; [DPU_3_PIPE] |1194|  ; [ORIG 16-BIT INS]
    2085                    $C$DW$146       .dwtag  DW_TAG_TI_branch
    2086                            .dwattr $C$DW$146, DW_AT_low_pc(0x00)
    2087                            .dwattr $C$DW$146, DW_AT_TI_return
    2088                    
    2089 0000008a 83F8E8BD          POP       {A4, V1, V2, V3, V4, V5, V6, PC} ; [DPU_3_PIPE]  ; [KEEP 32-BIT INS]
    2090                            .dwcfi  cfa_offset, 0
TI ARM Assembler PC v16.9.9 Sun Nov 25 16:40:48 2018

Tools Copyright (c) 1996-2017 Texas Instruments Incorporated
C:\Users\Stryd\AppData\Local\Temp\{8719FFD6-004A-4401-8DC3-4DA83C6CF1D8} PAGE   39

    2091                            .dwcfi  restore_reg, 9
    2092                            .dwcfi  restore_reg, 8
    2093                            .dwcfi  restore_reg, 7
    2094                            .dwcfi  restore_reg, 6
    2095                            .dwcfi  restore_reg, 5
    2096                            .dwcfi  restore_reg, 4
    2097                            .dwcfi  restore_reg, 3
    2098                            ; BRANCH OCCURS                  ; [] 
    2099                            .dwcfi  restore_state
    2100                    ;* --------------------------------------------------------------------------*
    2101 0000008e           ||$C$L16||:    
    2102                            .dwpsn  file "../Application/MAC/OSAL/osal.c",line 1196,column 5,is_stmt,isa 1
    2103 0000008e 4628              MOV       A1, V2                ; [DPU_3_PIPE] |1196|  ; [ORIG 16-BIT INS]
    2104                    $C$DW$147       .dwtag  DW_TAG_TI_branch
    2105                            .dwattr $C$DW$147, DW_AT_low_pc(0x00)
    2106                            .dwattr $C$DW$147, DW_AT_name("osal_proxy2alien")
    2107                            .dwattr $C$DW$147, DW_AT_TI_call
    2108                    
    2109 00000090 FFFEF7FF!         BL        osal_proxy2alien      ; [DPU_3_PIPE] |1196|  ; [KEEP 32-BIT INS]
    2110                            ; CALL OCCURS {osal_proxy2alien }  ; [] |1196| 
    2111 00000094 4601              MOV       A2, A1                ; [DPU_3_PIPE] |1196|  ; [ORIG 16-BIT INS]
    2112                            .dwpsn  file "../Application/MAC/OSAL/osal.c",line 1198,column 5,is_stmt,isa 1
    2113 00000096 463A              MOV       A3, V4                ; [DPU_3_PIPE] |1198|  ; [ORIG 16-BIT INS]
    2114                            .dwpsn  file "../Application/MAC/OSAL/osal.c",line 1197,column 5,is_stmt,isa 1
    2115 00000098 20FF              MOVS      A1, #255              ; [DPU_3_PIPE] |1197|  ; [ORIG 16-BIT INS]
    2116 0000009a 72B0              STRB      A1, [V3, #10]         ; [DPU_3_PIPE] |1197|  ; [ORIG 16-BIT INS]
    2117                            .dwpsn  file "../Application/MAC/OSAL/osal.c",line 1198,column 5,is_stmt,isa 1
    2118 0000009c 4620              MOV       A1, V1                ; [DPU_3_PIPE] |1198|  ; [ORIG 16-BIT INS]
    2119                    $C$DW$148       .dwtag  DW_TAG_TI_branch
    2120                            .dwattr $C$DW$148, DW_AT_low_pc(0x00)
    2121                            .dwattr $C$DW$148, DW_AT_name("ICall_send")
    2122                            .dwattr $C$DW$148, DW_AT_TI_call
    2123                    
    2124 0000009e FFFEF7FF!         BL        ICall_send            ; [DPU_3_PIPE] |1198|  ; [KEEP 32-BIT INS]
    2125                            ; CALL OCCURS {ICall_send }      ; [] |1198| 
    2126 000000a2 B118              CBZ       A1, ||$C$L17||        ; []  ; [ORIG 16-BIT INS]
    2127                            ; BRANCHCC OCCURS {||$C$L17||}   ; [] |1198| 
    2128                    ;* --------------------------------------------------------------------------*
    2129                            .dwpsn  file "../Application/MAC/OSAL/osal.c",line 1204,column 5,is_stmt,isa 1
    2130 000000a4 4638              MOV       A1, V4                ; [DPU_3_PIPE] |1204|  ; [ORIG 16-BIT INS]
    2131                    $C$DW$149       .dwtag  DW_TAG_TI_branch
    2132                            .dwattr $C$DW$149, DW_AT_low_pc(0x00)
    2133                            .dwattr $C$DW$149, DW_AT_name("osal_msg_deallocate")
    2134                            .dwattr $C$DW$149, DW_AT_TI_call
    2135                    
    2136 000000a6 FFFEF7FF!         BL        osal_msg_deallocate   ; [DPU_3_PIPE] |1204|  ; [KEEP 32-BIT INS]
    2137                            ; CALL OCCURS {osal_msg_deallocate }  ; [] |1204| 
    2138                            .dwpsn  file "../Application/MAC/OSAL/osal.c",line 1205,column 5,is_stmt,isa 1
    2139 000000aa E7ED              B         ||$C$L15||            ; [DPU_3_PIPE] |1205|  ; [ORIG 16-BIT INS]
    2140                            ; BRANCH OCCURS {||$C$L15||}     ; [] |1205| 
    2141                    ;* --------------------------------------------------------------------------*
    2142 000000ac           ||$C$L17||:    
    2143                            .dwpsn  file "../Application/MAC/OSAL/osal.c",line 1202,column 7,is_stmt,isa 1
    2144 000000ac 2000              MOVS      A1, #0                ; [DPU_3_PIPE] |1202|  ; [ORIG 16-BIT INS]
    2145                    ;* --------------------------------------------------------------------------*
TI ARM Assembler PC v16.9.9 Sun Nov 25 16:40:48 2018

Tools Copyright (c) 1996-2017 Texas Instruments Incorporated
C:\Users\Stryd\AppData\Local\Temp\{8719FFD6-004A-4401-8DC3-4DA83C6CF1D8} PAGE   40

    2146                    ||$C$L18||:    
    2147                    $C$DW$150       .dwtag  DW_TAG_TI_branch
    2148                            .dwattr $C$DW$150, DW_AT_low_pc(0x00)
    2149                            .dwattr $C$DW$150, DW_AT_TI_return
    2150                    
    2151 000000ae 83F8E8BD          POP       {A4, V1, V2, V3, V4, V5, V6, PC} ; [DPU_3_PIPE]  ; [KEEP 32-BIT INS]
    2152                            .dwcfi  cfa_offset, 0
    2153                            .dwcfi  restore_reg, 9
    2154                            .dwcfi  restore_reg, 8
    2155                            .dwcfi  restore_reg, 7
    2156                            .dwcfi  restore_reg, 6
    2157                            .dwcfi  restore_reg, 5
    2158                            .dwcfi  restore_reg, 4
    2159                            .dwcfi  restore_reg, 3
    2160                            ; BRANCH OCCURS                  ; [] 
    2161                            .dwattr $C$DW$128, DW_AT_TI_end_file("../Application/MAC/OSAL/osal.c")
    2162                            .dwattr $C$DW$128, DW_AT_TI_end_line(0x4cc)
    2163                            .dwattr $C$DW$128, DW_AT_TI_end_column(0x01)
    2164                            .dwendentry
    2165                            .dwendtag $C$DW$128
    2166                    
    2167 00000000                   .sect   ".text:osal_msg_enqueue_push"
    2168                            .clink
    2169                            .thumbfunc osal_msg_enqueue_push
    2170 00000000                   .thumb
    2171                    
    2172                    $C$DW$151       .dwtag  DW_TAG_subprogram
    2173                            .dwattr $C$DW$151, DW_AT_name("osal_msg_enqueue_push")
    2174                            .dwattr $C$DW$151, DW_AT_low_pc(osal_msg_enqueue_push)
    2175                            .dwattr $C$DW$151, DW_AT_high_pc(0x00)
    2176                            .dwattr $C$DW$151, DW_AT_TI_symbol_name("osal_msg_enqueue_push")
    2177                            .dwattr $C$DW$151, DW_AT_type(*$C$DW$T$19)
    2178                            .dwattr $C$DW$151, DW_AT_TI_begin_file("../Application/MAC/OSAL/osal.c")
    2179                            .dwattr $C$DW$151, DW_AT_TI_begin_line(0x2dd)
    2180                            .dwattr $C$DW$151, DW_AT_TI_begin_column(0x0e)
    2181                            .dwattr $C$DW$151, DW_AT_decl_file("../Application/MAC/OSAL/osal.c")
    2182                            .dwattr $C$DW$151, DW_AT_decl_line(0x2dd)
    2183                            .dwattr $C$DW$151, DW_AT_decl_column(0x0e)
    2184                            .dwattr $C$DW$151, DW_AT_TI_max_frame_size(0x10)
    2185                            .dwpsn  file "../Application/MAC/OSAL/osal.c",line 734,column 1,is_stmt,address osal_msg_enque
    2186                    
    2187                            .dwfde $C$DW$CIE, osal_msg_enqueue_push
    2188                    $C$DW$152       .dwtag  DW_TAG_formal_parameter
    2189                            .dwattr $C$DW$152, DW_AT_name("destination_task")
    2190                            .dwattr $C$DW$152, DW_AT_TI_symbol_name("destination_task")
    2191                            .dwattr $C$DW$152, DW_AT_type(*$C$DW$T$10)
    2192                            .dwattr $C$DW$152, DW_AT_location[DW_OP_reg0]
    2193                    
    2194                    $C$DW$153       .dwtag  DW_TAG_formal_parameter
    2195                            .dwattr $C$DW$153, DW_AT_name("msg_ptr")
    2196                            .dwattr $C$DW$153, DW_AT_TI_symbol_name("msg_ptr")
    2197                            .dwattr $C$DW$153, DW_AT_type(*$C$DW$T$77)
    2198                            .dwattr $C$DW$153, DW_AT_location[DW_OP_reg1]
    2199                    
    2200                    $C$DW$154       .dwtag  DW_TAG_formal_parameter
TI ARM Assembler PC v16.9.9 Sun Nov 25 16:40:48 2018

Tools Copyright (c) 1996-2017 Texas Instruments Incorporated
C:\Users\Stryd\AppData\Local\Temp\{8719FFD6-004A-4401-8DC3-4DA83C6CF1D8} PAGE   41

    2201                            .dwattr $C$DW$154, DW_AT_name("push")
    2202                            .dwattr $C$DW$154, DW_AT_TI_symbol_name("push")
    2203                            .dwattr $C$DW$154, DW_AT_type(*$C$DW$T$10)
    2204                            .dwattr $C$DW$154, DW_AT_location[DW_OP_reg2]
    2205                    
    2206                    
    2207                    ;*****************************************************************************
    2208                    ;* FUNCTION NAME: osal_msg_enqueue_push                                      *
    2209                    ;*                                                                           *
    2210                    ;*   Regs Modified     : A1,A2,A3,A4,V1,V2,V4,V9,SP,LR,SR                    *
    2211                    ;*   Regs Used         : A1,A2,A3,A4,V1,V2,V4,V9,SP,LR,SR                    *
    2212                    ;*   Local Frame Size  : 0 Args + 0 Auto + 16 Save = 16 byte                 *
    2213                    ;*****************************************************************************
    2214                    osal_msg_enqueue_push:
    2215                    ;* --------------------------------------------------------------------------*
    2216                    ;* V1    assigned to destination_task
    2217                    $C$DW$155       .dwtag  DW_TAG_variable
    2218                            .dwattr $C$DW$155, DW_AT_name("destination_task")
    2219                            .dwattr $C$DW$155, DW_AT_TI_symbol_name("destination_task")
    2220                            .dwattr $C$DW$155, DW_AT_type(*$C$DW$T$298)
    2221                            .dwattr $C$DW$155, DW_AT_location[DW_OP_reg4]
    2222                    
    2223                    ;* V4    assigned to msg_ptr
    2224                    $C$DW$156       .dwtag  DW_TAG_variable
    2225                            .dwattr $C$DW$156, DW_AT_name("msg_ptr")
    2226                            .dwattr $C$DW$156, DW_AT_TI_symbol_name("msg_ptr")
    2227                            .dwattr $C$DW$156, DW_AT_type(*$C$DW$T$284)
    2228                            .dwattr $C$DW$156, DW_AT_location[DW_OP_reg7]
    2229                    
    2230                    ;* V2    assigned to push
    2231                    $C$DW$157       .dwtag  DW_TAG_variable
    2232                            .dwattr $C$DW$157, DW_AT_name("push")
    2233                            .dwattr $C$DW$157, DW_AT_TI_symbol_name("push")
    2234                            .dwattr $C$DW$157, DW_AT_type(*$C$DW$T$298)
    2235                            .dwattr $C$DW$157, DW_AT_location[DW_OP_reg5]
    2236                    
    2237                            .dwcfi  cfa_offset, 0
    2238 00000000 B5B0              PUSH      {V1, V2, V4, LR}      ; [DPU_3_PIPE]  ; [ORIG 16-BIT INS]
    2239                            .dwcfi  cfa_offset, 16
    2240                            .dwcfi  save_reg_to_mem, 14, -4
    2241                            .dwcfi  save_reg_to_mem, 7, -8
    2242                            .dwcfi  save_reg_to_mem, 5, -12
    2243                            .dwcfi  save_reg_to_mem, 4, -16
    2244 00000002 4615              MOV       V2, A3                ; [DPU_3_PIPE] |734|  ; [ORIG 16-BIT INS]
    2245 00000004 4604              MOV       V1, A1                ; [DPU_3_PIPE] |734|  ; [ORIG 16-BIT INS]
    2246                            .dwpsn  file "../Application/MAC/OSAL/osal.c",line 735,column 3,is_stmt,isa 1
    2247 00000006 1C0F              MOVS      V4, A2                ; [DPU_3_PIPE] |735|  ; [ORIG 16-BIT INS]
    2248 00000008 BF08              IT        EQ                    ; [DPU_3_PIPE]  ; [ORIG 16-BIT INS]
    2249                            .dwpsn  file "../Application/MAC/OSAL/osal.c",line 737,column 5,is_stmt,isa 1
    2250 0000000a 2405              MOVEQ     V1, #5                ; [DPU_3_PIPE] |737|  ; [ORIG 16-BIT INS]
    2251 0000000c D028              BEQ       ||$C$L25||            ; [DPU_3_PIPE] |737|  ; [ORIG 16-BIT INS]
    2252                            ; BRANCHCC OCCURS {||$C$L25||}   ; [] |737| 
    2253                    ;* --------------------------------------------------------------------------*
    2254                            .dwpsn  file "../Application/MAC/OSAL/osal.c",line 741,column 3,is_stmt,isa 1
    2255 0000000e 007FF034          BICS      A1, V1, #127          ; [DPU_3_PIPE] |741|  ; [KEEP 32-BIT INS]
TI ARM Assembler PC v16.9.9 Sun Nov 25 16:40:48 2018

Tools Copyright (c) 1996-2017 Texas Instruments Incorporated
C:\Users\Stryd\AppData\Local\Temp\{8719FFD6-004A-4401-8DC3-4DA83C6CF1D8} PAGE   42

    2256 00000012 D001              BEQ       ||$C$L19||            ; [DPU_3_PIPE] |741|  ; [ORIG 16-BIT INS]
    2257                            ; BRANCHCC OCCURS {||$C$L19||}   ; [] |741| 
    2258                    ;* --------------------------------------------------------------------------*
    2259                            .dwpsn  file "../Application/MAC/OSAL/osal.c",line 743,column 5,is_stmt,isa 1
    2260                    $C$DW$158       .dwtag  DW_TAG_TI_branch
    2261                            .dwattr $C$DW$158, DW_AT_low_pc(0x00)
    2262                            .dwattr $C$DW$158, DW_AT_name("ICall_abort")
    2263                            .dwattr $C$DW$158, DW_AT_TI_call
    2264                    
    2265 00000014 FFFEF7FF!         BL        ICall_abort           ; [DPU_3_PIPE] |743|  ; [KEEP 32-BIT INS]
    2266                            ; CALL OCCURS {ICall_abort }     ; [] |743| 
    2267                    ;* --------------------------------------------------------------------------*
    2268 00000018           ||$C$L19||:    
    2269                            .dwpsn  file "../Application/MAC/OSAL/osal.c",line 747,column 3,is_stmt,isa 1
    2270 00000018 4813              LDR       A1, $C$CON37          ; [DPU_3_PIPE] |747|  ; [ORIG 16-BIT INS]
    2271 0000001a 7800              LDRB      A1, [A1, #0]          ; [DPU_3_PIPE] |747|  ; [ORIG 16-BIT INS]
    2272 0000001c 42A0              CMP       A1, V1                ; [DPU_3_PIPE] |747|  ; [ORIG 16-BIT INS]
    2273 0000001e BFD8              IT        LE                    ; [DPU_3_PIPE]  ; [ORIG 16-BIT INS]
    2274                            .dwpsn  file "../Application/MAC/OSAL/osal.c",line 750,column 5,is_stmt,isa 1
    2275 00000020 2403              MOVLE     V1, #3                ; [DPU_3_PIPE] |750|  ; [ORIG 16-BIT INS]
    2276 00000022 DD07              BLE       ||$C$L21||            ; [DPU_3_PIPE] |750|  ; [ORIG 16-BIT INS]
    2277                            ; BRANCHCC OCCURS {||$C$L21||}   ; [] |750| 
    2278                    ;* --------------------------------------------------------------------------*
    2279                            .dwpsn  file "../Application/MAC/OSAL/osal.c",line 754,column 3,is_stmt,isa 1
    2280 00000024 0C0CF857          LDR       A1, [V4, #-12]        ; [DPU_3_PIPE] |754|  ; [KEEP 32-BIT INS]
    2281 00000028 B918              CBNZ      A1, ||$C$L20||        ; []  ; [ORIG 16-BIT INS]
    2282                            ; BRANCHCC OCCURS {||$C$L20||}   ; [] |754| 
    2283                    ;* --------------------------------------------------------------------------*
    2284 0000002a 0C02F817          LDRB      A1, [V4, #-2]         ; [DPU_3_PIPE] |754|  ; [KEEP 32-BIT INS]
    2285 0000002e 28FF              CMP       A1, #255              ; [DPU_3_PIPE] |754|  ; [ORIG 16-BIT INS]
    2286 00000030 D004              BEQ       ||$C$L22||            ; [DPU_3_PIPE] |754|  ; [ORIG 16-BIT INS]
    2287                            ; BRANCHCC OCCURS {||$C$L22||}   ; [] |754| 
    2288                    ;* --------------------------------------------------------------------------*
    2289 00000032           ||$C$L20||:    
    2290                            .dwpsn  file "../Application/MAC/OSAL/osal.c",line 758,column 5,is_stmt,isa 1
    2291 00000032 2405              MOVS      V1, #5                ; [DPU_3_PIPE] |758|  ; [ORIG 16-BIT INS]
    2292                    ;* --------------------------------------------------------------------------*
    2293 00000034           ||$C$L21||:    
    2294                            .dwpsn  file "../Application/MAC/OSAL/osal.c",line 757,column 5,is_stmt,isa 1
    2295 00000034 4638              MOV       A1, V4                ; [DPU_3_PIPE] |757|  ; [ORIG 16-BIT INS]
    2296                    $C$DW$159       .dwtag  DW_TAG_TI_branch
    2297                            .dwattr $C$DW$159, DW_AT_low_pc(0x00)
    2298                            .dwattr $C$DW$159, DW_AT_name("osal_msg_deallocate")
    2299                            .dwattr $C$DW$159, DW_AT_TI_call
    2300                    
    2301 00000036 FFFEF7FF!         BL        osal_msg_deallocate   ; [DPU_3_PIPE] |757|  ; [KEEP 32-BIT INS]
    2302                            ; CALL OCCURS {osal_msg_deallocate }  ; [] |757| 
    2303                            .dwpsn  file "../Application/MAC/OSAL/osal.c",line 758,column 5,is_stmt,isa 1
    2304 0000003a E011              B         ||$C$L25||            ; [DPU_3_PIPE] |758|  ; [ORIG 16-BIT INS]
    2305                            ; BRANCH OCCURS {||$C$L25||}     ; [] |758| 
    2306                    ;* --------------------------------------------------------------------------*
    2307 0000003c           ||$C$L22||:    
    2308                            .dwpsn  file "../Application/MAC/OSAL/osal.c",line 763,column 3,is_stmt,isa 1
    2309 0000003c 2D01              CMP       V2, #1                ; [DPU_3_PIPE] |763|  ; [ORIG 16-BIT INS]
    2310                            .dwpsn  file "../Application/MAC/OSAL/osal.c",line 766,column 5,is_stmt,isa 1
TI ARM Assembler PC v16.9.9 Sun Nov 25 16:40:48 2018

Tools Copyright (c) 1996-2017 Texas Instruments Incorporated
C:\Users\Stryd\AppData\Local\Temp\{8719FFD6-004A-4401-8DC3-4DA83C6CF1D8} PAGE   43

    2311 0000003e 4809              LDR       A1, $C$CON36          ; [DPU_3_PIPE] |766|  ; [ORIG 16-BIT INS]
    2312                            .dwpsn  file "../Application/MAC/OSAL/osal.c",line 761,column 3,is_stmt,isa 1
    2313 00000040 4C02F807          STRB      V1, [V4, #-2]         ; [DPU_3_PIPE] |761|  ; [KEEP 32-BIT INS]
    2314                            .dwpsn  file "../Application/MAC/OSAL/osal.c",line 763,column 3,is_stmt,isa 1
    2315 00000044 D003              BEQ       ||$C$L23||            ; [DPU_3_PIPE] |763|  ; [ORIG 16-BIT INS]
    2316                            ; BRANCHCC OCCURS {||$C$L23||}   ; [] |763| 
    2317                    ;* --------------------------------------------------------------------------*
    2318                            .dwpsn  file "../Application/MAC/OSAL/osal.c",line 771,column 5,is_stmt,isa 1
    2319 00000046 4639              MOV       A2, V4                ; [DPU_3_PIPE] |771|  ; [ORIG 16-BIT INS]
    2320                    $C$DW$160       .dwtag  DW_TAG_TI_branch
    2321                            .dwattr $C$DW$160, DW_AT_low_pc(0x00)
    2322                            .dwattr $C$DW$160, DW_AT_name("osal_msg_enqueue")
    2323                            .dwattr $C$DW$160, DW_AT_TI_call
    2324                    
    2325 00000048 FFFEF7FF!         BL        osal_msg_enqueue      ; [DPU_3_PIPE] |771|  ; [KEEP 32-BIT INS]
    2326                            ; CALL OCCURS {osal_msg_enqueue }  ; [] |771| 
    2327 0000004c E002              B         ||$C$L24||            ; [DPU_3_PIPE] |771|  ; [ORIG 16-BIT INS]
    2328                            ; BRANCH OCCURS {||$C$L24||}     ; [] |771| 
    2329                    ;* --------------------------------------------------------------------------*
    2330 0000004e           ||$C$L23||:    
    2331                            .dwpsn  file "../Application/MAC/OSAL/osal.c",line 766,column 5,is_stmt,isa 1
    2332 0000004e 4639              MOV       A2, V4                ; [DPU_3_PIPE] |766|  ; [ORIG 16-BIT INS]
    2333                    $C$DW$161       .dwtag  DW_TAG_TI_branch
    2334                            .dwattr $C$DW$161, DW_AT_low_pc(0x00)
    2335                            .dwattr $C$DW$161, DW_AT_name("osal_msg_push")
    2336                            .dwattr $C$DW$161, DW_AT_TI_call
    2337                    
    2338 00000050 FFFEF7FF!         BL        osal_msg_push         ; [DPU_3_PIPE] |766|  ; [KEEP 32-BIT INS]
    2339                            ; CALL OCCURS {osal_msg_push }   ; [] |766| 
    2340                    ;* --------------------------------------------------------------------------*
    2341 00000054           ||$C$L24||:    
    2342                            .dwpsn  file "../Application/MAC/OSAL/osal.c",line 775,column 3,is_stmt,isa 1
    2343 00000054 4620              MOV       A1, V1                ; [DPU_3_PIPE] |775|  ; [ORIG 16-BIT INS]
    2344 00000056 4100F44F          MOV       A2, #32768            ; [DPU_3_PIPE] |775|  ; [KEEP 32-BIT INS]
    2345                    $C$DW$162       .dwtag  DW_TAG_TI_branch
    2346                            .dwattr $C$DW$162, DW_AT_low_pc(0x00)
    2347                            .dwattr $C$DW$162, DW_AT_name("osal_set_event")
    2348                            .dwattr $C$DW$162, DW_AT_TI_call
    2349                    
    2350 0000005a FFFEF7FF!         BL        osal_set_event        ; [DPU_3_PIPE] |775|  ; [KEEP 32-BIT INS]
    2351                            ; CALL OCCURS {osal_set_event }  ; [] |775| 
    2352                            .dwpsn  file "../Application/MAC/OSAL/osal.c",line 777,column 3,is_stmt,isa 1
    2353 0000005e 2400              MOVS      V1, #0                ; [DPU_3_PIPE] |777|  ; [ORIG 16-BIT INS]
    2354                    ;* --------------------------------------------------------------------------*
    2355 00000060           ||$C$L25||:    
    2356 00000060 4620              MOV       A1, V1                ; [DPU_3_PIPE] |777|  ; [ORIG 16-BIT INS]
    2357                    $C$DW$163       .dwtag  DW_TAG_TI_branch
    2358                            .dwattr $C$DW$163, DW_AT_low_pc(0x00)
    2359                            .dwattr $C$DW$163, DW_AT_TI_return
    2360                    
    2361 00000062 BDB0              POP       {V1, V2, V4, PC}      ; [DPU_3_PIPE]  ; [ORIG 16-BIT INS]
    2362                            .dwcfi  cfa_offset, 0
    2363                            .dwcfi  restore_reg, 7
    2364                            .dwcfi  restore_reg, 5
    2365                            .dwcfi  restore_reg, 4
TI ARM Assembler PC v16.9.9 Sun Nov 25 16:40:48 2018

Tools Copyright (c) 1996-2017 Texas Instruments Incorporated
C:\Users\Stryd\AppData\Local\Temp\{8719FFD6-004A-4401-8DC3-4DA83C6CF1D8} PAGE   44

    2366                            ; BRANCH OCCURS                  ; [] 
    2367                            .dwattr $C$DW$151, DW_AT_TI_end_file("../Application/MAC/OSAL/osal.c")
    2368                            .dwattr $C$DW$151, DW_AT_TI_end_line(0x30a)
    2369                            .dwattr $C$DW$151, DW_AT_TI_end_column(0x01)
    2370                            .dwendentry
    2371                            .dwendtag $C$DW$151
    2372                    
    2373 00000000                   .sect   ".text:osal_msg_send"
    2374                            .clink
    2375                            .thumbfunc osal_msg_send
    2376 00000000                   .thumb
    2377                            .global osal_msg_send
    2378                    
    2379                    $C$DW$164       .dwtag  DW_TAG_subprogram
    2380                            .dwattr $C$DW$164, DW_AT_name("osal_msg_send")
    2381                            .dwattr $C$DW$164, DW_AT_low_pc(osal_msg_send)
    2382                            .dwattr $C$DW$164, DW_AT_high_pc(0x00)
    2383                            .dwattr $C$DW$164, DW_AT_TI_symbol_name("osal_msg_send")
    2384                            .dwattr $C$DW$164, DW_AT_external
    2385                            .dwattr $C$DW$164, DW_AT_type(*$C$DW$T$19)
    2386                            .dwattr $C$DW$164, DW_AT_TI_begin_file("../Application/MAC/OSAL/osal.c")
    2387                            .dwattr $C$DW$164, DW_AT_TI_begin_line(0x28e)
    2388                            .dwattr $C$DW$164, DW_AT_TI_begin_column(0x07)
    2389                            .dwattr $C$DW$164, DW_AT_decl_file("../Application/MAC/OSAL/osal.c")
    2390                            .dwattr $C$DW$164, DW_AT_decl_line(0x28e)
    2391                            .dwattr $C$DW$164, DW_AT_decl_column(0x07)
    2392                            .dwattr $C$DW$164, DW_AT_TI_max_frame_size(0x10)
    2393                            .dwpsn  file "../Application/MAC/OSAL/osal.c",line 655,column 1,is_stmt,address osal_msg_send,
    2394                    
    2395                            .dwfde $C$DW$CIE, osal_msg_send
    2396                    $C$DW$165       .dwtag  DW_TAG_formal_parameter
    2397                            .dwattr $C$DW$165, DW_AT_name("destination_task")
    2398                            .dwattr $C$DW$165, DW_AT_TI_symbol_name("destination_task")
    2399                            .dwattr $C$DW$165, DW_AT_type(*$C$DW$T$10)
    2400                            .dwattr $C$DW$165, DW_AT_location[DW_OP_reg0]
    2401                    
    2402                    $C$DW$166       .dwtag  DW_TAG_formal_parameter
    2403                            .dwattr $C$DW$166, DW_AT_name("msg_ptr")
    2404                            .dwattr $C$DW$166, DW_AT_TI_symbol_name("msg_ptr")
    2405                            .dwattr $C$DW$166, DW_AT_type(*$C$DW$T$77)
    2406                            .dwattr $C$DW$166, DW_AT_location[DW_OP_reg1]
    2407                    
    2408                    
    2409                    ;*****************************************************************************
    2410                    ;* FUNCTION NAME: osal_msg_send                                              *
    2411                    ;*                                                                           *
    2412                    ;*   Regs Modified     : A1,A2,A3,A4,V1,V2,V3,V9,SP,LR,SR                    *
    2413                    ;*   Regs Used         : A1,A2,A3,A4,V1,V2,V3,V9,SP,LR,SR                    *
    2414                    ;*   Local Frame Size  : 0 Args + 0 Auto + 16 Save = 16 byte                 *
    2415                    ;*****************************************************************************
    2416                    osal_msg_send:
    2417                    ;* --------------------------------------------------------------------------*
    2418                    ;* A2    assigned to $O$C16
    2419                    ;* A2    assigned to $O$K14
    2420                    ;* V1    assigned to $O$v3
TI ARM Assembler PC v16.9.9 Sun Nov 25 16:40:48 2018

Tools Copyright (c) 1996-2017 Texas Instruments Incorporated
C:\Users\Stryd\AppData\Local\Temp\{8719FFD6-004A-4401-8DC3-4DA83C6CF1D8} PAGE   45

    2421                    ;* A4    assigned to destination_task
    2422                    $C$DW$167       .dwtag  DW_TAG_variable
    2423                            .dwattr $C$DW$167, DW_AT_name("destination_task")
    2424                            .dwattr $C$DW$167, DW_AT_TI_symbol_name("destination_task")
    2425                            .dwattr $C$DW$167, DW_AT_type(*$C$DW$T$298)
    2426                            .dwattr $C$DW$167, DW_AT_location[DW_OP_reg3]
    2427                    
    2428                    ;* V2    assigned to msg_ptr
    2429                    $C$DW$168       .dwtag  DW_TAG_variable
    2430                            .dwattr $C$DW$168, DW_AT_name("msg_ptr")
    2431                            .dwattr $C$DW$168, DW_AT_TI_symbol_name("msg_ptr")
    2432                            .dwattr $C$DW$168, DW_AT_type(*$C$DW$T$284)
    2433                            .dwattr $C$DW$168, DW_AT_location[DW_OP_reg5]
    2434                    
    2435                    ;* V3    assigned to hdr
    2436                    $C$DW$169       .dwtag  DW_TAG_variable
    2437                            .dwattr $C$DW$169, DW_AT_name("hdr")
    2438                            .dwattr $C$DW$169, DW_AT_TI_symbol_name("hdr")
    2439                            .dwattr $C$DW$169, DW_AT_type(*$C$DW$T$409)
    2440                            .dwattr $C$DW$169, DW_AT_location[DW_OP_reg6]
    2441                    
    2442                    ;* V1    assigned to src
    2443                    $C$DW$170       .dwtag  DW_TAG_variable
    2444                            .dwattr $C$DW$170, DW_AT_name("src")
    2445                            .dwattr $C$DW$170, DW_AT_TI_symbol_name("src")
    2446                            .dwattr $C$DW$170, DW_AT_type(*$C$DW$T$10)
    2447                            .dwattr $C$DW$170, DW_AT_location[DW_OP_reg4]
    2448                    
    2449                    ;* A2    assigned to dst
    2450                    $C$DW$171       .dwtag  DW_TAG_variable
    2451                            .dwattr $C$DW$171, DW_AT_name("dst")
    2452                            .dwattr $C$DW$171, DW_AT_TI_symbol_name("dst")
    2453                            .dwattr $C$DW$171, DW_AT_type(*$C$DW$T$10)
    2454                            .dwattr $C$DW$171, DW_AT_location[DW_OP_reg1]
    2455                    
    2456                    ;* A1    assigned to taskid
    2457                    $C$DW$172       .dwtag  DW_TAG_variable
    2458                            .dwattr $C$DW$172, DW_AT_name("taskid")
    2459                            .dwattr $C$DW$172, DW_AT_TI_symbol_name("taskid")
    2460                            .dwattr $C$DW$172, DW_AT_type(*$C$DW$T$10)
    2461                            .dwattr $C$DW$172, DW_AT_location[DW_OP_reg0]
    2462                    
    2463                            .dwcfi  cfa_offset, 0
    2464 00000000 B570              PUSH      {V1, V2, V3, LR}      ; [DPU_3_PIPE]  ; [ORIG 16-BIT INS]
    2465                            .dwcfi  cfa_offset, 16
    2466                            .dwcfi  save_reg_to_mem, 14, -4
    2467                            .dwcfi  save_reg_to_mem, 6, -8
    2468                            .dwcfi  save_reg_to_mem, 5, -12
    2469                            .dwcfi  save_reg_to_mem, 4, -16
    2470 00000002 4603              MOV       A4, A1                ; [DPU_3_PIPE] |655|  ; [ORIG 16-BIT INS]
    2471 00000004 460D              MOV       V2, A2                ; [DPU_3_PIPE] |655|  ; [ORIG 16-BIT INS]
    2472                            .dwpsn  file "../Application/MAC/OSAL/osal.c",line 657,column 3,is_stmt,isa 1
    2473 00000006 007FF033          BICS      A1, A4, #127          ; [DPU_3_PIPE] |657|  ; [KEEP 32-BIT INS]
    2474 0000000a D104              BNE       ||$C$L26||            ; [DPU_3_PIPE] |657|  ; [ORIG 16-BIT INS]
    2475                            ; BRANCHCC OCCURS {||$C$L26||}   ; [] |657| 
TI ARM Assembler PC v16.9.9 Sun Nov 25 16:40:48 2018

Tools Copyright (c) 1996-2017 Texas Instruments Incorporated
C:\Users\Stryd\AppData\Local\Temp\{8719FFD6-004A-4401-8DC3-4DA83C6CF1D8} PAGE   46

    2476                    ;* --------------------------------------------------------------------------*
    2477                            .dwcfi  remember_state
    2478                            .dwpsn  file "../Application/MAC/OSAL/osal.c",line 691,column 3,is_stmt,isa 1
    2479 0000000c 4618              MOV       A1, A4                ; [DPU_3_PIPE] |691|  ; [ORIG 16-BIT INS]
    2480 0000000e 2200              MOVS      A3, #0                ; [DPU_3_PIPE] |691|  ; [ORIG 16-BIT INS]
    2481                    $C$DW$173       .dwtag  DW_TAG_TI_branch
    2482                            .dwattr $C$DW$173, DW_AT_low_pc(0x00)
    2483                            .dwattr $C$DW$173, DW_AT_name("osal_msg_enqueue_push")
    2484                            .dwattr $C$DW$173, DW_AT_TI_call
    2485                    
    2486 00000010 FFFEF7FF!         BL        osal_msg_enqueue_push ; [DPU_3_PIPE] |691|  ; [KEEP 32-BIT INS]
    2487                            ; CALL OCCURS {osal_msg_enqueue_push }  ; [] |691| 
    2488                    $C$DW$174       .dwtag  DW_TAG_TI_branch
    2489                            .dwattr $C$DW$174, DW_AT_low_pc(0x00)
    2490                            .dwattr $C$DW$174, DW_AT_TI_return
    2491                    
    2492 00000014 BD70              POP       {V1, V2, V3, PC}      ; [DPU_3_PIPE]  ; [ORIG 16-BIT INS]
    2493                            .dwcfi  cfa_offset, 0
    2494                            .dwcfi  restore_reg, 6
    2495                            .dwcfi  restore_reg, 5
    2496                            .dwcfi  restore_reg, 4
    2497                            ; BRANCH OCCURS                  ; [] 
    2498                            .dwcfi  restore_state
    2499                    ;* --------------------------------------------------------------------------*
    2500 00000016           ||$C$L26||:    
    2501                            .dwpsn  file "../Application/MAC/OSAL/osal.c",line 663,column 18,is_stmt,isa 1
    2502                    $C$DW$175       .dwtag  DW_TAG_TI_branch
    2503                            .dwattr $C$DW$175, DW_AT_low_pc(0x00)
    2504                            .dwattr $C$DW$175, DW_AT_name("osal_self")
    2505                            .dwattr $C$DW$175, DW_AT_TI_call
    2506                    
    2507 00000016 FFFEF7FF!         BL        osal_self             ; [DPU_3_PIPE] |663|  ; [KEEP 32-BIT INS]
    2508                            ; CALL OCCURS {osal_self }       ; [] |663| 
    2509                            .dwpsn  file "../Application/MAC/OSAL/osal.c",line 664,column 5,is_stmt,isa 1
    2510 0000001a 4911              LDR       A2, $C$CON40          ; [DPU_3_PIPE] |664|  ; [ORIG 16-BIT INS]
    2511 0000001c 1F09              SUBS      A2, A2, #4            ; [DPU_3_PIPE]  ; [ORIG 16-BIT INS]
    2512 0000001e 784C              LDRB      V1, [A2, #1]          ; [DPU_3_PIPE] |664|  ; [ORIG 16-BIT INS]
    2513                            .dwpsn  file "../Application/MAC/OSAL/osal.c",line 660,column 25,is_stmt,isa 1
    2514 00000020 060CF1A5          SUB       V3, V2, #12           ; [DPU_3_PIPE] |660|  ; [KEEP 32-BIT INS]
    2515                            .dwpsn  file "../Application/MAC/OSAL/osal.c",line 664,column 5,is_stmt,isa 1
    2516 00000024 28FF              CMP       A1, #255              ; [DPU_3_PIPE] |664|  ; [ORIG 16-BIT INS]
    2517 00000026 D004              BEQ       ||$C$L27||            ; [DPU_3_PIPE] |664|  ; [ORIG 16-BIT INS]
    2518                            ; BRANCHCC OCCURS {||$C$L27||}   ; [] |664| 
    2519                    ;* --------------------------------------------------------------------------*
    2520                            .dwpsn  file "../Application/MAC/OSAL/osal.c",line 671,column 7,is_stmt,isa 1
    2521 00000028 4A0E              LDR       A3, $C$CON41          ; [DPU_3_PIPE] |671|  ; [ORIG 16-BIT INS]
    2522 0000002a 7812              LDRB      A3, [A3, #0]          ; [DPU_3_PIPE] |671|  ; [ORIG 16-BIT INS]
    2523 0000002c 1812              ADDS      A3, A3, A1            ; [DPU_3_PIPE] |671|  ; [ORIG 16-BIT INS]
    2524 0000002e 6A88              LDR       A1, [A2, #40]         ; [DPU_3_PIPE] |671|  ; [ORIG 16-BIT INS]
    2525 00000030 5C84              LDRB      V1, [A1, +A3]         ; [DPU_3_PIPE] |671|  ; [ORIG 16-BIT INS]
    2526                    ;* --------------------------------------------------------------------------*
    2527 00000032           ||$C$L27||:    
    2528                            .dwpsn  file "../Application/MAC/OSAL/osal.c",line 673,column 5,is_stmt,isa 1
    2529 00000032 2CFF              CMP       V1, #255              ; [DPU_3_PIPE] |673|  ; [ORIG 16-BIT INS]
    2530 00000034 D102              BNE       ||$C$L28||            ; [DPU_3_PIPE] |673|  ; [ORIG 16-BIT INS]
TI ARM Assembler PC v16.9.9 Sun Nov 25 16:40:48 2018

Tools Copyright (c) 1996-2017 Texas Instruments Incorporated
C:\Users\Stryd\AppData\Local\Temp\{8719FFD6-004A-4401-8DC3-4DA83C6CF1D8} PAGE   47

    2531                            ; BRANCHCC OCCURS {||$C$L28||}   ; [] |673| 
    2532                    ;* --------------------------------------------------------------------------*
    2533                            .dwpsn  file "../Application/MAC/OSAL/osal.c",line 677,column 7,is_stmt,isa 1
    2534                    $C$DW$176       .dwtag  DW_TAG_TI_branch
    2535                            .dwattr $C$DW$176, DW_AT_low_pc(0x00)
    2536                            .dwattr $C$DW$176, DW_AT_name("ICall_abort")
    2537                            .dwattr $C$DW$176, DW_AT_TI_call
    2538                    
    2539 00000036 FFFEF7FF!         BL        ICall_abort           ; [DPU_3_PIPE] |677|  ; [KEEP 32-BIT INS]
    2540                            ; CALL OCCURS {ICall_abort }     ; [] |677| 
    2541                            .dwpsn  file "../Application/MAC/OSAL/osal.c",line 678,column 7,is_stmt,isa 1
    2542 0000003a E00D              B         ||$C$L29||            ; [DPU_3_PIPE] |678|  ; [ORIG 16-BIT INS]
    2543                            ; BRANCH OCCURS {||$C$L29||}     ; [] |678| 
    2544                    ;* --------------------------------------------------------------------------*
    2545 0000003c           ||$C$L28||:    
    2546                            .dwpsn  file "../Application/MAC/OSAL/osal.c",line 680,column 5,is_stmt,isa 1
    2547 0000003c 4618              MOV       A1, A4                ; [DPU_3_PIPE] |680|  ; [ORIG 16-BIT INS]
    2548                    $C$DW$177       .dwtag  DW_TAG_TI_branch
    2549                            .dwattr $C$DW$177, DW_AT_low_pc(0x00)
    2550                            .dwattr $C$DW$177, DW_AT_name("osal_proxy2alien")
    2551                            .dwattr $C$DW$177, DW_AT_TI_call
    2552                    
    2553 0000003e FFFEF7FF!         BL        osal_proxy2alien      ; [DPU_3_PIPE] |680|  ; [KEEP 32-BIT INS]
    2554                            ; CALL OCCURS {osal_proxy2alien }  ; [] |680| 
    2555 00000042 4601              MOV       A2, A1                ; [DPU_3_PIPE] |680|  ; [ORIG 16-BIT INS]
    2556                            .dwpsn  file "../Application/MAC/OSAL/osal.c",line 682,column 5,is_stmt,isa 1
    2557 00000044 462A              MOV       A3, V2                ; [DPU_3_PIPE] |682|  ; [ORIG 16-BIT INS]
    2558                            .dwpsn  file "../Application/MAC/OSAL/osal.c",line 681,column 5,is_stmt,isa 1
    2559 00000046 20FF              MOVS      A1, #255              ; [DPU_3_PIPE] |681|  ; [ORIG 16-BIT INS]
    2560 00000048 72B0              STRB      A1, [V3, #10]         ; [DPU_3_PIPE] |681|  ; [ORIG 16-BIT INS]
    2561                            .dwpsn  file "../Application/MAC/OSAL/osal.c",line 682,column 5,is_stmt,isa 1
    2562 0000004a 4620              MOV       A1, V1                ; [DPU_3_PIPE] |682|  ; [ORIG 16-BIT INS]
    2563                    $C$DW$178       .dwtag  DW_TAG_TI_branch
    2564                            .dwattr $C$DW$178, DW_AT_low_pc(0x00)
    2565                            .dwattr $C$DW$178, DW_AT_name("ICall_send")
    2566                            .dwattr $C$DW$178, DW_AT_TI_call
    2567                    
    2568 0000004c FFFEF7FF!         BL        ICall_send            ; [DPU_3_PIPE] |682|  ; [KEEP 32-BIT INS]
    2569                            ; CALL OCCURS {ICall_send }      ; [] |682| 
    2570 00000050 B120              CBZ       A1, ||$C$L30||        ; []  ; [ORIG 16-BIT INS]
    2571                            ; BRANCHCC OCCURS {||$C$L30||}   ; [] |682| 
    2572                    ;* --------------------------------------------------------------------------*
    2573                            .dwcfi  remember_state
    2574                            .dwpsn  file "../Application/MAC/OSAL/osal.c",line 687,column 5,is_stmt,isa 1
    2575 00000052 4628              MOV       A1, V2                ; [DPU_3_PIPE] |687|  ; [ORIG 16-BIT INS]
    2576                    $C$DW$179       .dwtag  DW_TAG_TI_branch
    2577                            .dwattr $C$DW$179, DW_AT_low_pc(0x00)
    2578                            .dwattr $C$DW$179, DW_AT_name("osal_msg_deallocate")
    2579                            .dwattr $C$DW$179, DW_AT_TI_call
    2580                    
    2581 00000054 FFFEF7FF!         BL        osal_msg_deallocate   ; [DPU_3_PIPE] |687|  ; [KEEP 32-BIT INS]
    2582                            ; CALL OCCURS {osal_msg_deallocate }  ; [] |687| 
    2583                    ;* --------------------------------------------------------------------------*
    2584 00000058           ||$C$L29||:    
    2585                            .dwpsn  file "../Application/MAC/OSAL/osal.c",line 688,column 5,is_stmt,isa 1
TI ARM Assembler PC v16.9.9 Sun Nov 25 16:40:48 2018

Tools Copyright (c) 1996-2017 Texas Instruments Incorporated
C:\Users\Stryd\AppData\Local\Temp\{8719FFD6-004A-4401-8DC3-4DA83C6CF1D8} PAGE   48

    2586 00000058 2001              MOVS      A1, #1                ; [DPU_3_PIPE] |688|  ; [ORIG 16-BIT INS]
    2587                    $C$DW$180       .dwtag  DW_TAG_TI_branch
    2588                            .dwattr $C$DW$180, DW_AT_low_pc(0x00)
    2589                            .dwattr $C$DW$180, DW_AT_TI_return
    2590                    
    2591 0000005a BD70              POP       {V1, V2, V3, PC}      ; [DPU_3_PIPE]  ; [ORIG 16-BIT INS]
    2592                            .dwcfi  cfa_offset, 0
    2593                            .dwcfi  restore_reg, 6
    2594                            .dwcfi  restore_reg, 5
    2595                            .dwcfi  restore_reg, 4
    2596                            ; BRANCH OCCURS                  ; [] 
    2597                            .dwcfi  restore_state
    2598                    ;* --------------------------------------------------------------------------*
    2599 0000005c           ||$C$L30||:    
    2600                            .dwpsn  file "../Application/MAC/OSAL/osal.c",line 685,column 7,is_stmt,isa 1
    2601 0000005c 2000              MOVS      A1, #0                ; [DPU_3_PIPE] |685|  ; [ORIG 16-BIT INS]
    2602                    ;* --------------------------------------------------------------------------*
    2603                    $C$DW$181       .dwtag  DW_TAG_TI_branch
    2604                            .dwattr $C$DW$181, DW_AT_low_pc(0x00)
    2605                            .dwattr $C$DW$181, DW_AT_TI_return
    2606                    
    2607 0000005e BD70              POP       {V1, V2, V3, PC}      ; [DPU_3_PIPE]  ; [ORIG 16-BIT INS]
    2608                            .dwcfi  cfa_offset, 0
    2609                            .dwcfi  restore_reg, 6
    2610                            .dwcfi  restore_reg, 5
    2611                            .dwcfi  restore_reg, 4
    2612                            ; BRANCH OCCURS                  ; [] 
    2613                            .dwattr $C$DW$164, DW_AT_TI_end_file("../Application/MAC/OSAL/osal.c")
    2614                            .dwattr $C$DW$164, DW_AT_TI_end_line(0x2b4)
    2615                            .dwattr $C$DW$164, DW_AT_TI_end_column(0x01)
    2616                            .dwendentry
    2617                            .dwendtag $C$DW$164
    2618                    
    2619                    ;**     Parameter deleted: id == &osal_timerid_msec_timer;
    2620                    ;**     Parameter deleted: cback == &osal_msec_timer_cback;
    2621 00000000                   .sect   ".text:ICall_setTimerMSecs"
    2622                            .clink
    2623                            .thumbfunc ICall_setTimerMSecs
    2624 00000000                   .thumb
    2625                    
    2626                    $C$DW$182       .dwtag  DW_TAG_subprogram
    2627                            .dwattr $C$DW$182, DW_AT_name("ICall_setTimerMSecs")
    2628                            .dwattr $C$DW$182, DW_AT_low_pc(ICall_setTimerMSecs)
    2629                            .dwattr $C$DW$182, DW_AT_high_pc(0x00)
    2630                            .dwattr $C$DW$182, DW_AT_TI_symbol_name("ICall_setTimerMSecs")
    2631                            .dwattr $C$DW$182, DW_AT_type(*$C$DW$T$109)
    2632                            .dwattr $C$DW$182, DW_AT_TI_begin_file("C:/ti/simplelink_cc13x0_sdk_2_30_00_20/source/ti/ti154
    2633                            .dwattr $C$DW$182, DW_AT_TI_begin_line(0x8ec)
    2634                            .dwattr $C$DW$182, DW_AT_TI_begin_column(0x01)
    2635                            .dwattr $C$DW$182, DW_AT_decl_file("C:/ti/simplelink_cc13x0_sdk_2_30_00_20/source/ti/ti154stac
    2636                            .dwattr $C$DW$182, DW_AT_decl_line(0x8ec)
    2637                            .dwattr $C$DW$182, DW_AT_decl_column(0x01)
    2638                            .dwattr $C$DW$182, DW_AT_TI_max_frame_size(0x20)
    2639                            .dwpsn  file "C:/ti/simplelink_cc13x0_sdk_2_30_00_20/source/ti/ti154stack/icall/src/inc/icall.
    2640                    
TI ARM Assembler PC v16.9.9 Sun Nov 25 16:40:48 2018

Tools Copyright (c) 1996-2017 Texas Instruments Incorporated
C:\Users\Stryd\AppData\Local\Temp\{8719FFD6-004A-4401-8DC3-4DA83C6CF1D8} PAGE   49

    2641                            .dwfde $C$DW$CIE, ICall_setTimerMSecs
    2642                    $C$DW$183       .dwtag  DW_TAG_formal_parameter
    2643                            .dwattr $C$DW$183, DW_AT_name("msecs")
    2644                            .dwattr $C$DW$183, DW_AT_TI_symbol_name("msecs")
    2645                            .dwattr $C$DW$183, DW_AT_type(*$C$DW$T$128)
    2646                            .dwattr $C$DW$183, DW_AT_location[DW_OP_reg0]
    2647                    
    2648                    $C$DW$184       .dwtag  DW_TAG_formal_parameter
    2649                            .dwattr $C$DW$184, DW_AT_name("arg")
    2650                            .dwattr $C$DW$184, DW_AT_TI_symbol_name("arg")
    2651                            .dwattr $C$DW$184, DW_AT_type(*$C$DW$T$3)
    2652                            .dwattr $C$DW$184, DW_AT_location[DW_OP_reg1]
    2653                    
    2654                    
    2655                    ;*****************************************************************************
    2656                    ;* FUNCTION NAME: ICall_setTimerMSecs                                        *
    2657                    ;*                                                                           *
    2658                    ;*   Regs Modified     : A1,A2,A3,A4,V1,V9,SP,LR,SR                          *
    2659                    ;*   Regs Used         : A1,A2,A3,A4,V1,V9,SP,LR,SR                          *
    2660                    ;*   Local Frame Size  : 0 Args + 20 Auto + 8 Save = 28 byte                 *
    2661                    ;*****************************************************************************
    2662                    ICall_setTimerMSecs:
    2663                    ;* --------------------------------------------------------------------------*
    2664                    $C$DW$185       .dwtag  DW_TAG_variable
    2665                            .dwattr $C$DW$185, DW_AT_name("args")
    2666                            .dwattr $C$DW$185, DW_AT_TI_symbol_name("args")
    2667                            .dwattr $C$DW$185, DW_AT_type(*$C$DW$T$421)
    2668                            .dwattr $C$DW$185, DW_AT_location[DW_OP_breg13 0]
    2669                    
    2670                    ;* V1    assigned to $O$C1
    2671                    ;* A1    assigned to msecs
    2672                    $C$DW$186       .dwtag  DW_TAG_variable
    2673                            .dwattr $C$DW$186, DW_AT_name("msecs")
    2674                            .dwattr $C$DW$186, DW_AT_TI_symbol_name("msecs")
    2675                            .dwattr $C$DW$186, DW_AT_type(*$C$DW$T$371)
    2676                            .dwattr $C$DW$186, DW_AT_location[DW_OP_reg0]
    2677                    
    2678                    ;* A2    assigned to arg
    2679                    $C$DW$187       .dwtag  DW_TAG_variable
    2680                            .dwattr $C$DW$187, DW_AT_name("arg")
    2681                            .dwattr $C$DW$187, DW_AT_TI_symbol_name("arg")
    2682                            .dwattr $C$DW$187, DW_AT_type(*$C$DW$T$212)
    2683                            .dwattr $C$DW$187, DW_AT_location[DW_OP_reg1]
    2684                    
    2685                            .dwcfi  cfa_offset, 0
    2686 00000000 B510              PUSH      {V1, LR}              ; [DPU_3_PIPE]  ; [ORIG 16-BIT INS]
    2687                            .dwcfi  cfa_offset, 8
    2688                            .dwcfi  save_reg_to_mem, 14, -4
    2689                            .dwcfi  save_reg_to_mem, 4, -8
    2690                            .dwpsn  file "C:/ti/simplelink_cc13x0_sdk_2_30_00_20/source/ti/ti154stack/icall/src/inc/icall.
    2691 00000002 4C0E              LDR       V1, $C$CON45          ; [DPU_3_PIPE] |2296|  ; [ORIG 16-BIT INS]
    2692 00000004 0D18F1AD          SUB       SP, SP, #24           ; [DPU_3_PIPE]  ; [KEEP 32-BIT INS]
    2693                            .dwcfi  cfa_offset, 32
    2694                            .dwpsn  file "C:/ti/simplelink_cc13x0_sdk_2_30_00_20/source/ti/ti154stack/icall/src/inc/icall.
    2695 00000008 9001              STR       A1, [SP, #4]          ; [DPU_3_PIPE] |2293|  ; [ORIG 16-BIT INS]
TI ARM Assembler PC v16.9.9 Sun Nov 25 16:40:48 2018

Tools Copyright (c) 1996-2017 Texas Instruments Incorporated
C:\Users\Stryd\AppData\Local\Temp\{8719FFD6-004A-4401-8DC3-4DA83C6CF1D8} PAGE   50

    2696                            .dwpsn  file "C:/ti/simplelink_cc13x0_sdk_2_30_00_20/source/ti/ti154stack/icall/src/inc/icall.
    2697 0000000a 480A              LDR       A1, $C$CON42          ; [DPU_3_PIPE] |2294|  ; [ORIG 16-BIT INS]
    2698 0000000c 1F24              SUBS      V1, V1, #4            ; [DPU_3_PIPE]  ; [ORIG 16-BIT INS]
    2699 0000000e 9003              STR       A1, [SP, #12]         ; [DPU_3_PIPE] |2294|  ; [ORIG 16-BIT INS]
    2700                            .dwpsn  file "C:/ti/simplelink_cc13x0_sdk_2_30_00_20/source/ti/ti154stack/icall/src/inc/icall.
    2701 00000010 6A20              LDR       A1, [V1, #32]         ; [DPU_3_PIPE] |2296|  ; [ORIG 16-BIT INS]
    2702                            .dwpsn  file "C:/ti/simplelink_cc13x0_sdk_2_30_00_20/source/ti/ti154stack/icall/src/inc/icall.
    2703 00000012 9104              STR       A2, [SP, #16]         ; [DPU_3_PIPE] |2295|  ; [ORIG 16-BIT INS]
    2704                            .dwpsn  file "C:/ti/simplelink_cc13x0_sdk_2_30_00_20/source/ti/ti154stack/icall/src/inc/icall.
    2705 00000014 2208              MOVS      A3, #8                ; [DPU_3_PIPE] |2291|  ; [ORIG 16-BIT INS]
    2706                            .dwpsn  file "C:/ti/simplelink_cc13x0_sdk_2_30_00_20/source/ti/ti154stack/icall/src/inc/icall.
    2707 00000016 9002              STR       A1, [SP, #8]          ; [DPU_3_PIPE] |2296|  ; [ORIG 16-BIT INS]
    2708                            .dwpsn  file "C:/ti/simplelink_cc13x0_sdk_2_30_00_20/source/ti/ti154stack/icall/src/inc/icall.
    2709 00000018 4807              LDR       A1, $C$CON44          ; [DPU_3_PIPE] |2297|  ; [ORIG 16-BIT INS]
    2710                            .dwpsn  file "C:/ti/simplelink_cc13x0_sdk_2_30_00_20/source/ti/ti154stack/icall/src/inc/icall.
    2711 0000001a 2000F8AD          STRH      A3, [SP, #0]          ; [DPU_3_PIPE] |2291|  ; [KEEP 32-BIT INS]
    2712                            .dwpsn  file "C:/ti/simplelink_cc13x0_sdk_2_30_00_20/source/ti/ti154stack/icall/src/inc/icall.
    2713 0000001e 2213              MOVS      A3, #19               ; [DPU_3_PIPE] |2292|  ; [ORIG 16-BIT INS]
    2714                            .dwpsn  file "C:/ti/simplelink_cc13x0_sdk_2_30_00_20/source/ti/ti154stack/icall/src/inc/icall.
    2715 00000020 6801              LDR       A2, [A1, #0]          ; [DPU_3_PIPE] |2297|  ; [ORIG 16-BIT INS]
    2716                            .dwpsn  file "C:/ti/simplelink_cc13x0_sdk_2_30_00_20/source/ti/ti154stack/icall/src/inc/icall.
    2717 00000022 2002F8AD          STRH      A3, [SP, #2]          ; [DPU_3_PIPE] |2292|  ; [KEEP 32-BIT INS]
    2718                            .dwpsn  file "C:/ti/simplelink_cc13x0_sdk_2_30_00_20/source/ti/ti154stack/icall/src/inc/icall.
    2719 00000026 4668              MOV       A1, SP                ; [DPU_3_PIPE] |2297|  ; [ORIG 16-BIT INS]
    2720                    $C$DW$188       .dwtag  DW_TAG_TI_branch
    2721                            .dwattr $C$DW$188, DW_AT_low_pc(0x00)
    2722                            .dwattr $C$DW$188, DW_AT_TI_call
    2723                            .dwattr $C$DW$188, DW_AT_TI_indirect
    2724                    
    2725 00000028 4788              BLX       A2                    ; [DPU_3_PIPE] |2297|  ; [ORIG 16-BIT INS]
    2726                            ; CALL OCCURS {}                 ; [] |2297| 
    2727                            .dwpsn  file "C:/ti/simplelink_cc13x0_sdk_2_30_00_20/source/ti/ti154stack/icall/src/inc/icall.
    2728 0000002a 9802              LDR       A1, [SP, #8]          ; [DPU_3_PIPE] |2298|  ; [ORIG 16-BIT INS]
    2729 0000002c 6220              STR       A1, [V1, #32]         ; [DPU_3_PIPE] |2298|  ; [ORIG 16-BIT INS]
    2730 0000002e B006              ADD       SP, SP, #24           ; [DPU_3_PIPE]  ; [ORIG 16-BIT INS]
    2731                            .dwcfi  cfa_offset, 8
    2732                    $C$DW$189       .dwtag  DW_TAG_TI_branch
    2733                            .dwattr $C$DW$189, DW_AT_low_pc(0x00)
    2734                            .dwattr $C$DW$189, DW_AT_TI_return
    2735                    
    2736 00000030 BD10              POP       {V1, PC}              ; [DPU_3_PIPE]  ; [ORIG 16-BIT INS]
    2737                            .dwcfi  cfa_offset, 0
    2738                            .dwcfi  restore_reg, 4
    2739                            ; BRANCH OCCURS                  ; [] 
    2740                            .dwattr $C$DW$182, DW_AT_TI_end_file("C:/ti/simplelink_cc13x0_sdk_2_30_00_20/source/ti/ti154st
    2741                            .dwattr $C$DW$182, DW_AT_TI_end_line(0x8fd)
    2742                            .dwattr $C$DW$182, DW_AT_TI_end_column(0x01)
    2743                            .dwendentry
    2744                            .dwendtag $C$DW$182
    2745                    
    2746 00000000                   .sect   ".text:osal_run_system"
    2747                            .clink
    2748                            .thumbfunc osal_run_system
    2749 00000000                   .thumb
    2750                            .global osal_run_system
TI ARM Assembler PC v16.9.9 Sun Nov 25 16:40:48 2018

Tools Copyright (c) 1996-2017 Texas Instruments Incorporated
C:\Users\Stryd\AppData\Local\Temp\{8719FFD6-004A-4401-8DC3-4DA83C6CF1D8} PAGE   51

    2751                    
    2752                    $C$DW$190       .dwtag  DW_TAG_subprogram
    2753                            .dwattr $C$DW$190, DW_AT_name("osal_run_system")
    2754                            .dwattr $C$DW$190, DW_AT_low_pc(osal_run_system)
    2755                            .dwattr $C$DW$190, DW_AT_high_pc(0x00)
    2756                            .dwattr $C$DW$190, DW_AT_TI_symbol_name("osal_run_system")
    2757                            .dwattr $C$DW$190, DW_AT_external
    2758                            .dwattr $C$DW$190, DW_AT_TI_begin_file("../Application/MAC/OSAL/osal.c")
    2759                            .dwattr $C$DW$190, DW_AT_TI_begin_line(0x662)
    2760                            .dwattr $C$DW$190, DW_AT_TI_begin_column(0x06)
    2761                            .dwattr $C$DW$190, DW_AT_decl_file("../Application/MAC/OSAL/osal.c")
    2762                            .dwattr $C$DW$190, DW_AT_decl_line(0x662)
    2763                            .dwattr $C$DW$190, DW_AT_decl_column(0x06)
    2764                            .dwattr $C$DW$190, DW_AT_TI_max_frame_size(0x38)
    2765                            .dwpsn  file "../Application/MAC/OSAL/osal.c",line 1635,column 1,is_stmt,address osal_run_syst
    2766                    
    2767                            .dwfde $C$DW$CIE, osal_run_system
    2768                    
    2769                    ;*****************************************************************************
    2770                    ;* FUNCTION NAME: osal_run_system                                            *
    2771                    ;*                                                                           *
    2772                    ;*   Regs Modified     : A1,A2,A3,A4,V1,V2,V3,V4,V5,V6,V7,V8,V9,SP,LR,SR     *
    2773                    ;*   Regs Used         : A1,A2,A3,A4,V1,V2,V3,V4,V5,V6,V7,V8,V9,SP,LR,SR     *
    2774                    ;*   Local Frame Size  : 0 Args + 20 Auto + 36 Save = 56 byte                *
    2775                    ;*****************************************************************************
    2776                    osal_run_system:
    2777                    ;* --------------------------------------------------------------------------*
    2778                    $C$DW$191       .dwtag  DW_TAG_variable
    2779                            .dwattr $C$DW$191, DW_AT_name("args")
    2780                            .dwattr $C$DW$191, DW_AT_TI_symbol_name("args")
    2781                            .dwattr $C$DW$191, DW_AT_type(*$C$DW$T$426)
    2782                            .dwattr $C$DW$191, DW_AT_location[DW_OP_breg13 0]
    2783                    
    2784                    $C$DW$192       .dwtag  DW_TAG_variable
    2785                            .dwattr $C$DW$192, DW_AT_name("args")
    2786                            .dwattr $C$DW$192, DW_AT_TI_symbol_name("args")
    2787                            .dwattr $C$DW$192, DW_AT_type(*$C$DW$T$396)
    2788                            .dwattr $C$DW$192, DW_AT_location[DW_OP_breg13 8]
    2789                    
    2790                    ;* A1    assigned to $O$C2
    2791                    ;* V5    assigned to $O$C3
    2792                    ;* V3    assigned to $O$C4
    2793                    ;* A2    assigned to $O$C5
    2794                    ;* A2    assigned to $O$C6
    2795                    ;* A1    assigned to $O$C7
    2796                    ;* V3    assigned to $O$C9
    2797                    ;* V1    assigned to $O$C10
    2798                    ;* A2    assigned to $O$v6
    2799                    ;* V1    assigned to $O$K3
    2800                    ;* A1    assigned to $O$K30
    2801                    ;* V6    assigned to $O$K37
    2802                    ;* A2    assigned to $O$K43
    2803                    ;* V4    assigned to $O$K57
    2804                    ;* A1    assigned to $O$U78
    2805                    ;* V6    assigned to $O$K110
TI ARM Assembler PC v16.9.9 Sun Nov 25 16:40:48 2018

Tools Copyright (c) 1996-2017 Texas Instruments Incorporated
C:\Users\Stryd\AppData\Local\Temp\{8719FFD6-004A-4401-8DC3-4DA83C6CF1D8} PAGE   52

    2806                    ;* V4    assigned to $O$U113
    2807                    ;* A2    assigned to $O$L1
    2808                    ;* V3    assigned to $O$L2
    2809                    ;* A2    assigned to $O$v8
    2810                    ;* A2    assigned to $O$v4
    2811                    ;* A1    assigned to $O$v3
    2812                    ;* V2    assigned to $O$v2
    2813                    ;* V2    assigned to idx
    2814                    $C$DW$193       .dwtag  DW_TAG_variable
    2815                            .dwattr $C$DW$193, DW_AT_name("idx")
    2816                            .dwattr $C$DW$193, DW_AT_TI_symbol_name("idx")
    2817                            .dwattr $C$DW$193, DW_AT_type(*$C$DW$T$19)
    2818                            .dwattr $C$DW$193, DW_AT_location[DW_OP_reg5]
    2819                    
    2820                    ;* A1    assigned to newtimestamp
    2821                    $C$DW$194       .dwtag  DW_TAG_variable
    2822                            .dwattr $C$DW$194, DW_AT_name("newtimestamp")
    2823                            .dwattr $C$DW$194, DW_AT_TI_symbol_name("newtimestamp")
    2824                            .dwattr $C$DW$194, DW_AT_type(*$C$DW$T$13)
    2825                            .dwattr $C$DW$194, DW_AT_location[DW_OP_reg0]
    2826                    
    2827                    ;* V4    assigned to milliseconds
    2828                    $C$DW$195       .dwtag  DW_TAG_variable
    2829                            .dwattr $C$DW$195, DW_AT_name("milliseconds")
    2830                            .dwattr $C$DW$195, DW_AT_TI_symbol_name("milliseconds")
    2831                            .dwattr $C$DW$195, DW_AT_type(*$C$DW$T$81)
    2832                            .dwattr $C$DW$195, DW_AT_location[DW_OP_reg7]
    2833                    
    2834                    ;* V3    assigned to msg
    2835                    $C$DW$196       .dwtag  DW_TAG_variable
    2836                            .dwattr $C$DW$196, DW_AT_name("msg")
    2837                            .dwattr $C$DW$196, DW_AT_TI_symbol_name("msg")
    2838                            .dwattr $C$DW$196, DW_AT_type(*$C$DW$T$3)
    2839                            .dwattr $C$DW$196, DW_AT_location[DW_OP_reg6]
    2840                    
    2841                    ;* V5    assigned to hdr
    2842                    $C$DW$197       .dwtag  DW_TAG_variable
    2843                            .dwattr $C$DW$197, DW_AT_name("hdr")
    2844                            .dwattr $C$DW$197, DW_AT_TI_symbol_name("hdr")
    2845                            .dwattr $C$DW$197, DW_AT_type(*$C$DW$T$409)
    2846                            .dwattr $C$DW$197, DW_AT_location[DW_OP_reg8]
    2847                    
    2848                    ;* V7    assigned to dest_id
    2849                    $C$DW$198       .dwtag  DW_TAG_variable
    2850                            .dwattr $C$DW$198, DW_AT_name("dest_id")
    2851                            .dwattr $C$DW$198, DW_AT_TI_symbol_name("dest_id")
    2852                            .dwattr $C$DW$198, DW_AT_type(*$C$DW$T$10)
    2853                            .dwattr $C$DW$198, DW_AT_location[DW_OP_reg10]
    2854                    
    2855                    ;* A1    assigned to proxyid
    2856                    $C$DW$199       .dwtag  DW_TAG_variable
    2857                            .dwattr $C$DW$199, DW_AT_name("proxyid")
    2858                            .dwattr $C$DW$199, DW_AT_TI_symbol_name("proxyid")
    2859                            .dwattr $C$DW$199, DW_AT_type(*$C$DW$T$10)
    2860                            .dwattr $C$DW$199, DW_AT_location[DW_OP_reg0]
TI ARM Assembler PC v16.9.9 Sun Nov 25 16:40:48 2018

Tools Copyright (c) 1996-2017 Texas Instruments Incorporated
C:\Users\Stryd\AppData\Local\Temp\{8719FFD6-004A-4401-8DC3-4DA83C6CF1D8} PAGE   53

    2861                    
    2862                    ;* V2    assigned to events
    2863                    $C$DW$200       .dwtag  DW_TAG_variable
    2864                            .dwattr $C$DW$200, DW_AT_name("events")
    2865                            .dwattr $C$DW$200, DW_AT_TI_symbol_name("events")
    2866                            .dwattr $C$DW$200, DW_AT_type(*$C$DW$T$10)
    2867                            .dwattr $C$DW$200, DW_AT_location[DW_OP_reg5]
    2868                    
    2869                    ;* V2    assigned to intState
    2870                    $C$DW$201       .dwtag  DW_TAG_variable
    2871                            .dwattr $C$DW$201, DW_AT_name("intState")
    2872                            .dwattr $C$DW$201, DW_AT_TI_symbol_name("intState")
    2873                            .dwattr $C$DW$201, DW_AT_type(*$C$DW$T$372)
    2874                            .dwattr $C$DW$201, DW_AT_location[DW_OP_reg5]
    2875                    
    2876                    ;* V4    assigned to next_timeout_post
    2877                    $C$DW$202       .dwtag  DW_TAG_variable
    2878                            .dwattr $C$DW$202, DW_AT_name("next_timeout_post")
    2879                            .dwattr $C$DW$202, DW_AT_TI_symbol_name("next_timeout_post")
    2880                            .dwattr $C$DW$202, DW_AT_type(*$C$DW$T$81)
    2881                            .dwattr $C$DW$202, DW_AT_location[DW_OP_reg7]
    2882                    
    2883                    ;* A1    assigned to errno
    2884                    $C$DW$203       .dwtag  DW_TAG_variable
    2885                            .dwattr $C$DW$203, DW_AT_name("errno")
    2886                            .dwattr $C$DW$203, DW_AT_TI_symbol_name("errno")
    2887                            .dwattr $C$DW$203, DW_AT_type(*$C$DW$T$109)
    2888                            .dwattr $C$DW$203, DW_AT_location[DW_OP_reg0]
    2889                    
    2890                    ;* V9    assigned to entity
    2891                    $C$DW$204       .dwtag  DW_TAG_variable
    2892                            .dwattr $C$DW$204, DW_AT_name("entity")
    2893                            .dwattr $C$DW$204, DW_AT_TI_symbol_name("entity")
    2894                            .dwattr $C$DW$204, DW_AT_type(*$C$DW$T$10)
    2895                            .dwattr $C$DW$204, DW_AT_location[DW_OP_reg12]
    2896                    
    2897                    ;* A3    assigned to i
    2898                    $C$DW$205       .dwtag  DW_TAG_variable
    2899                            .dwattr $C$DW$205, DW_AT_name("i")
    2900                            .dwattr $C$DW$205, DW_AT_TI_symbol_name("i")
    2901                            .dwattr $C$DW$205, DW_AT_type(*$C$DW$T$102)
    2902                            .dwattr $C$DW$205, DW_AT_location[DW_OP_reg2]
    2903                    
    2904                            .dwcfi  cfa_offset, 0
    2905 00000000 4FF0E92D          PUSH      {V1, V2, V3, V4, V5, V6, V7, V8, LR} ; [DPU_3_PIPE]  ; [KEEP 32-BIT INS]
    2906                            .dwcfi  cfa_offset, 36
    2907                            .dwcfi  save_reg_to_mem, 14, -4
    2908                            .dwcfi  save_reg_to_mem, 11, -8
    2909                            .dwcfi  save_reg_to_mem, 10, -12
    2910                            .dwcfi  save_reg_to_mem, 9, -16
    2911                            .dwcfi  save_reg_to_mem, 8, -20
    2912                            .dwcfi  save_reg_to_mem, 7, -24
    2913                            .dwcfi  save_reg_to_mem, 6, -28
    2914                            .dwcfi  save_reg_to_mem, 5, -32
    2915                            .dwcfi  save_reg_to_mem, 4, -36
TI ARM Assembler PC v16.9.9 Sun Nov 25 16:40:48 2018

Tools Copyright (c) 1996-2017 Texas Instruments Incorporated
C:\Users\Stryd\AppData\Local\Temp\{8719FFD6-004A-4401-8DC3-4DA83C6CF1D8} PAGE   54

    2916 00000004 0D14F1AD          SUB       SP, SP, #20           ; [DPU_3_PIPE]  ; [KEEP 32-BIT INS]
    2917                            .dwcfi  cfa_offset, 56
    2918                            .dwpsn  file "../Application/MAC/OSAL/osal.c",line 1639,column 29,is_stmt,isa 1
    2919                    $C$DW$206       .dwtag  DW_TAG_TI_branch
    2920                            .dwattr $C$DW$206, DW_AT_low_pc(0x00)
    2921                            .dwattr $C$DW$206, DW_AT_name("osal_next_timeout")
    2922                            .dwattr $C$DW$206, DW_AT_TI_call
    2923                    
    2924 00000008 FFFEF7FF!         BL        osal_next_timeout     ; [DPU_3_PIPE] |1639|  ; [KEEP 32-BIT INS]
    2925                            ; CALL OCCURS {osal_next_timeout }  ; [] |1639| 
    2926                            .dwpsn  file "../Application/MAC/OSAL/osal.c",line 1653,column 32,is_stmt,isa 1
    2927                    $C$DW$207       .dwtag  DW_TAG_TI_branch
    2928                            .dwattr $C$DW$207, DW_AT_low_pc(0x00)
    2929                            .dwattr $C$DW$207, DW_AT_name("ICall_getTicks")
    2930                            .dwattr $C$DW$207, DW_AT_TI_call
    2931                    
    2932 0000000c FFFEF7FF!         BL        ICall_getTicks        ; [DPU_3_PIPE] |1653|  ; [KEEP 32-BIT INS]
    2933                            ; CALL OCCURS {ICall_getTicks }  ; [] |1653| 
    2934                            .dwpsn  file "../Application/MAC/OSAL/osal.c",line 1656,column 5,is_stmt,isa 1
    2935 00000010 4C63              LDR       V1, $C$CON46          ; [DPU_3_PIPE] |1656|  ; [ORIG 16-BIT INS]
    2936 00000012 69A6              LDR       V3, [V1, #24]         ; [DPU_3_PIPE] |1656|  ; [ORIG 16-BIT INS]
    2937 00000014 6965              LDR       V2, [V1, #20]         ; [DPU_3_PIPE] |1656|  ; [ORIG 16-BIT INS]
    2938 00000016 7F7AF5B6          CMP       V3, #1000             ; [DPU_3_PIPE] |1656|  ; [KEEP 32-BIT INS]
    2939 0000001a D013              BEQ       ||$C$L31||            ; [DPU_3_PIPE] |1656|  ; [ORIG 16-BIT INS]
    2940                            ; BRANCHCC OCCURS {||$C$L31||}   ; [] |1656| 
    2941                    ;* --------------------------------------------------------------------------*
    2942                            .dwpsn  file "../Application/MAC/OSAL/osal.c",line 1667,column 7,is_stmt,isa 1
    2943 0000001c 1B40              SUBS      A1, A1, V2            ; [DPU_3_PIPE] |1667|  ; [ORIG 16-BIT INS]
    2944 0000001e 727AF44F          MOV       A3, #1000             ; [DPU_3_PIPE] |1667|  ; [KEEP 32-BIT INS]
    2945 00000022 2300              MOVS      A4, #0                ; [DPU_3_PIPE] |1667|  ; [ORIG 16-BIT INS]
    2946 00000024 0100FBA6          UMULL     A1, A2, V3, A1        ; [DPU_3_PIPE] |1667|  ; [KEEP 32-BIT INS]
    2947                    $C$DW$208       .dwtag  DW_TAG_TI_branch
    2948                            .dwattr $C$DW$208, DW_AT_low_pc(0x00)
    2949                            .dwattr $C$DW$208, DW_AT_name("ULL$DIV")
    2950                            .dwattr $C$DW$208, DW_AT_TI_call
    2951                    
    2952 00000028 FFFEF7FF!         BL        __aeabi_uldivmod      ; [DPU_3_PIPE] |1667|  ; [KEEP 32-BIT INS]
    2953                            ; CALL OCCURS {__aeabi_uldivmod }  ; [] |1667| 
    2954 0000002c 4607              MOV       V4, A1                ; [DPU_3_PIPE] |1667|  ; [ORIG 16-BIT INS]
    2955                            .dwpsn  file "../Application/MAC/OSAL/osal.c",line 1668,column 7,is_stmt,isa 1
    2956 0000002e 727AF44F          MOV       A3, #1000             ; [DPU_3_PIPE] |1668|  ; [KEEP 32-BIT INS]
    2957 00000032 2300              MOVS      A4, #0                ; [DPU_3_PIPE] |1668|  ; [ORIG 16-BIT INS]
    2958                    $C$DW$209       .dwtag  DW_TAG_TI_branch
    2959                            .dwattr $C$DW$209, DW_AT_low_pc(0x00)
    2960                            .dwattr $C$DW$209, DW_AT_name("__aeabi_lmul")
    2961                            .dwattr $C$DW$209, DW_AT_TI_call
    2962                    
    2963 00000034 FFFEF7FF!         BL        __aeabi_lmul          ; [DPU_3_PIPE] |1668|  ; [KEEP 32-BIT INS]
    2964                            ; CALL OCCURS {__aeabi_lmul }    ; [] |1668| 
    2965 00000038 4632              MOV       A3, V3                ; [DPU_3_PIPE] |1668|  ; [ORIG 16-BIT INS]
    2966 0000003a 2300              MOVS      A4, #0                ; [DPU_3_PIPE] |1668|  ; [ORIG 16-BIT INS]
    2967                    $C$DW$210       .dwtag  DW_TAG_TI_branch
    2968                            .dwattr $C$DW$210, DW_AT_low_pc(0x00)
    2969                            .dwattr $C$DW$210, DW_AT_name("ULL$DIV")
    2970                            .dwattr $C$DW$210, DW_AT_TI_call
TI ARM Assembler PC v16.9.9 Sun Nov 25 16:40:48 2018

Tools Copyright (c) 1996-2017 Texas Instruments Incorporated
C:\Users\Stryd\AppData\Local\Temp\{8719FFD6-004A-4401-8DC3-4DA83C6CF1D8} PAGE   55

    2971                    
    2972 0000003c FFFEF7FF!         BL        __aeabi_uldivmod      ; [DPU_3_PIPE] |1668|  ; [KEEP 32-BIT INS]
    2973                            ; CALL OCCURS {__aeabi_uldivmod }  ; [] |1668| 
    2974 00000040 1828              ADDS      A1, V2, A1            ; [DPU_3_PIPE] |1668|  ; [ORIG 16-BIT INS]
    2975 00000042 E000              B         ||$C$L32||            ; [DPU_3_PIPE] |1668|  ; [ORIG 16-BIT INS]
    2976                            ; BRANCH OCCURS {||$C$L32||}     ; [] |1668| 
    2977                    ;* --------------------------------------------------------------------------*
    2978 00000044           ||$C$L31||:    
    2979                            .dwpsn  file "../Application/MAC/OSAL/osal.c",line 1658,column 7,is_stmt,isa 1
    2980 00000044 1B47              SUBS      V4, A1, V2            ; [DPU_3_PIPE] |1658|  ; [ORIG 16-BIT INS]
    2981                    ;* --------------------------------------------------------------------------*
    2982 00000046           ||$C$L32||:    
    2983                            .dwpsn  file "../Application/MAC/OSAL/osal.c",line 1659,column 7,is_stmt,isa 1
    2984 00000046 6160              STR       A1, [V1, #20]         ; [DPU_3_PIPE] |1659|  ; [ORIG 16-BIT INS]
    2985                            .dwpsn  file "../Application/MAC/OSAL/osal.c",line 1670,column 5,is_stmt,isa 1
    2986 00000048 4638              MOV       A1, V4                ; [DPU_3_PIPE] |1670|  ; [ORIG 16-BIT INS]
    2987                    $C$DW$211       .dwtag  DW_TAG_TI_branch
    2988                            .dwattr $C$DW$211, DW_AT_low_pc(0x00)
    2989                            .dwattr $C$DW$211, DW_AT_name("osalAdjustTimer")
    2990                            .dwattr $C$DW$211, DW_AT_TI_call
    2991                    
    2992 0000004a FFFEF7FF!         BL        osalAdjustTimer       ; [DPU_3_PIPE] |1670|  ; [KEEP 32-BIT INS]
    2993                            ; CALL OCCURS {osalAdjustTimer }  ; [] |1670| 
    2994                            .dwpsn  file "../Application/MAC/OSAL/osal.c",line 1676,column 3,is_stmt,isa 1
