TI ARM Assembler PC v16.9.9 Sun Nov 25 19:10:01 2018

Tools Copyright (c) 1996-2017 Texas Instruments Incorporated
C:\Users\Stryd\AppData\Local\Temp\{FD2CD87D-546B-4571-BBC0-B7C5FCD47FA5} PAGE    1

       1                    ;******************************************************************************
       2                    ;* TI ARM C/C++ Codegen                                        PC v16.9.9.LTS *
       3                    ;* Date/Time created: Sun Nov 25 19:10:01 2018                                *
       4                    ;******************************************************************************
       5                            .compiler_opts --abi=eabi --arm_vmrs_si_workaround=off --code_state=16 --diag_wrap=off --embed
       6 00000000                   .thumb
       7                    
       8                    $C$DW$CU        .dwtag  DW_TAG_compile_unit
       9                            .dwattr $C$DW$CU, DW_AT_name("../Application/LaunchPad/board_lcd.c")
      10                            .dwattr $C$DW$CU, DW_AT_producer("TI TI ARM C/C++ Codegen PC v16.9.9.LTS Copyright (c) 1996-20
      11                            .dwattr $C$DW$CU, DW_AT_TI_version(0x01)
      12                            .dwattr $C$DW$CU, DW_AT_comp_dir("C:\CCSWorkspace\ECG603\sensor_cc1350lp_Lab5Part2\sensor_cc13
      13                    
      14                    $C$DW$1 .dwtag  DW_TAG_subprogram
      15                            .dwattr $C$DW$1, DW_AT_name("memcpy")
      16                            .dwattr $C$DW$1, DW_AT_TI_symbol_name("memcpy")
      17                            .dwattr $C$DW$1, DW_AT_type(*$C$DW$T$3)
      18                            .dwattr $C$DW$1, DW_AT_declaration
      19                            .dwattr $C$DW$1, DW_AT_external
      20                            .dwattr $C$DW$1, DW_AT_decl_file("C:/ti/ccsv7/tools/compiler/ti-cgt-arm_16.9.9.LTS/include/str
      21                            .dwattr $C$DW$1, DW_AT_decl_line(0x6b)
      22                            .dwattr $C$DW$1, DW_AT_decl_column(0x16)
      23                    $C$DW$2 .dwtag  DW_TAG_formal_parameter
      24                            .dwattr $C$DW$2, DW_AT_type(*$C$DW$T$3)
      25                    
      26                    $C$DW$3 .dwtag  DW_TAG_formal_parameter
      27                            .dwattr $C$DW$3, DW_AT_type(*$C$DW$T$148)
      28                    
      29                    $C$DW$4 .dwtag  DW_TAG_formal_parameter
      30                            .dwattr $C$DW$4, DW_AT_type(*$C$DW$T$289)
      31                    
      32                            .dwendtag $C$DW$1
      33                    
      34                    
      35                    $C$DW$5 .dwtag  DW_TAG_subprogram
      36                            .dwattr $C$DW$5, DW_AT_name("__builtin_strlen")
      37                            .dwattr $C$DW$5, DW_AT_TI_symbol_name("__builtin_strlen")
      38                            .dwattr $C$DW$5, DW_AT_type(*$C$DW$T$11)
      39                            .dwattr $C$DW$5, DW_AT_declaration
      40                            .dwattr $C$DW$5, DW_AT_external
      41                    $C$DW$6 .dwtag  DW_TAG_formal_parameter
      42                            .dwattr $C$DW$6, DW_AT_type(*$C$DW$T$311)
      43                    
      44                            .dwendtag $C$DW$5
      45                    
      46                    
      47                    $C$DW$7 .dwtag  DW_TAG_subprogram
      48                            .dwattr $C$DW$7, DW_AT_name("strlen")
      49                            .dwattr $C$DW$7, DW_AT_TI_symbol_name("strlen")
      50                            .dwattr $C$DW$7, DW_AT_type(*$C$DW$T$289)
      51                            .dwattr $C$DW$7, DW_AT_declaration
      52                            .dwattr $C$DW$7, DW_AT_external
      53                            .dwattr $C$DW$7, DW_AT_decl_file("C:/ti/ccsv7/tools/compiler/ti-cgt-arm_16.9.9.LTS/include/str
      54                            .dwattr $C$DW$7, DW_AT_decl_line(0x51)
      55                            .dwattr $C$DW$7, DW_AT_decl_column(0x14)
TI ARM Assembler PC v16.9.9 Sun Nov 25 19:10:01 2018

Tools Copyright (c) 1996-2017 Texas Instruments Incorporated
C:\Users\Stryd\AppData\Local\Temp\{FD2CD87D-546B-4571-BBC0-B7C5FCD47FA5} PAGE    2

      56                    $C$DW$8 .dwtag  DW_TAG_formal_parameter
      57                            .dwattr $C$DW$8, DW_AT_type(*$C$DW$T$311)
      58                    
      59                            .dwendtag $C$DW$7
      60                    
      61                    
      62                    $C$DW$9 .dwtag  DW_TAG_subprogram
      63                            .dwattr $C$DW$9, DW_AT_name("memset")
      64                            .dwattr $C$DW$9, DW_AT_TI_symbol_name("memset")
      65                            .dwattr $C$DW$9, DW_AT_type(*$C$DW$T$3)
      66                            .dwattr $C$DW$9, DW_AT_declaration
      67                            .dwattr $C$DW$9, DW_AT_external
      68                            .dwattr $C$DW$9, DW_AT_decl_file("C:/ti/ccsv7/tools/compiler/ti-cgt-arm_16.9.9.LTS/include/str
      69                            .dwattr $C$DW$9, DW_AT_decl_line(0x71)
      70                            .dwattr $C$DW$9, DW_AT_decl_column(0x16)
      71                    $C$DW$10        .dwtag  DW_TAG_formal_parameter
      72                            .dwattr $C$DW$10, DW_AT_type(*$C$DW$T$3)
      73                    
      74                    $C$DW$11        .dwtag  DW_TAG_formal_parameter
      75                            .dwattr $C$DW$11, DW_AT_type(*$C$DW$T$10)
      76                    
      77                    $C$DW$12        .dwtag  DW_TAG_formal_parameter
      78                            .dwattr $C$DW$12, DW_AT_type(*$C$DW$T$289)
      79                    
      80                            .dwendtag $C$DW$9
      81                    
      82                    
      83                    $C$DW$13        .dwtag  DW_TAG_subprogram
      84                            .dwattr $C$DW$13, DW_AT_name("xdc_runtime_System_printf__E")
      85                            .dwattr $C$DW$13, DW_AT_TI_symbol_name("xdc_runtime_System_printf__E")
      86                            .dwattr $C$DW$13, DW_AT_type(*$C$DW$T$329)
      87                            .dwattr $C$DW$13, DW_AT_declaration
      88                            .dwattr $C$DW$13, DW_AT_external
      89                            .dwattr $C$DW$13, DW_AT_decl_file("C:/ti/xdctools_3_50_08_24_core/packages/xdc/runtime/System.
      90                            .dwattr $C$DW$13, DW_AT_decl_line(0x17f)
      91                            .dwattr $C$DW$13, DW_AT_decl_column(0x12)
      92                    $C$DW$14        .dwtag  DW_TAG_formal_parameter
      93                            .dwattr $C$DW$14, DW_AT_type(*$C$DW$T$312)
      94                    
      95                    $C$DW$15        .dwtag  DW_TAG_unspecified_parameters
      96                    
      97                            .dwendtag $C$DW$13
      98                    
      99                    
     100                    $C$DW$16        .dwtag  DW_TAG_subprogram
     101                            .dwattr $C$DW$16, DW_AT_name("Util_itoa")
     102                            .dwattr $C$DW$16, DW_AT_TI_symbol_name("Util_itoa")
     103                            .dwattr $C$DW$16, DW_AT_declaration
     104                            .dwattr $C$DW$16, DW_AT_external
     105                            .dwattr $C$DW$16, DW_AT_decl_file("C:/CCSWorkspace/ECG603/sensor_cc1350lp_Lab5Part2/Applicatio
     106                            .dwattr $C$DW$16, DW_AT_decl_line(0x8c)
     107                            .dwattr $C$DW$16, DW_AT_decl_column(0x0d)
     108                    $C$DW$17        .dwtag  DW_TAG_formal_parameter
     109                            .dwattr $C$DW$17, DW_AT_type(*$C$DW$T$105)
     110                    
TI ARM Assembler PC v16.9.9 Sun Nov 25 19:10:01 2018

Tools Copyright (c) 1996-2017 Texas Instruments Incorporated
C:\Users\Stryd\AppData\Local\Temp\{FD2CD87D-546B-4571-BBC0-B7C5FCD47FA5} PAGE    3

     111                    $C$DW$18        .dwtag  DW_TAG_formal_parameter
     112                            .dwattr $C$DW$18, DW_AT_type(*$C$DW$T$89)
     113                    
     114                    $C$DW$19        .dwtag  DW_TAG_formal_parameter
     115                            .dwattr $C$DW$19, DW_AT_type(*$C$DW$T$88)
     116                    
     117                            .dwendtag $C$DW$16
     118                    
     119 00000000           lcdBuf: .usect  ".bss:lcdBuf",40,1
     120                    $C$DW$20        .dwtag  DW_TAG_variable
     121                            .dwattr $C$DW$20, DW_AT_name("lcdBuf")
     122                            .dwattr $C$DW$20, DW_AT_TI_symbol_name("lcdBuf")
     123                            .dwattr $C$DW$20, DW_AT_type(*$C$DW$T$683)
     124                            .dwattr $C$DW$20, DW_AT_location[DW_OP_addr lcdBuf]
     125                            .dwattr $C$DW$20, DW_AT_decl_file("../Application/LaunchPad/board_lcd.c")
     126                            .dwattr $C$DW$20, DW_AT_decl_line(0x4b)
     127                            .dwattr $C$DW$20, DW_AT_decl_column(0x10)
     128                    
     129                    ;       C:\ti\ccsv7\tools\compiler\ti-cgt-arm_16.9.9.LTS\bin\armopt.exe C:/CCSWorkspace/ECG603/sensor_
     130 00000000                   .sect   ".text:Board_Lcd_writeStringValue"
     131                            .clink
     132                            .thumbfunc Board_Lcd_writeStringValue
     133 00000000                   .thumb
     134                            .global Board_Lcd_writeStringValue
     135                    
     136                    $C$DW$21        .dwtag  DW_TAG_subprogram
     137                            .dwattr $C$DW$21, DW_AT_name("Board_Lcd_writeStringValue")
     138                            .dwattr $C$DW$21, DW_AT_low_pc(Board_Lcd_writeStringValue)
     139                            .dwattr $C$DW$21, DW_AT_high_pc(0x00)
     140                            .dwattr $C$DW$21, DW_AT_TI_symbol_name("Board_Lcd_writeStringValue")
     141                            .dwattr $C$DW$21, DW_AT_external
     142                            .dwattr $C$DW$21, DW_AT_TI_begin_file("../Application/LaunchPad/board_lcd.c")
     143                            .dwattr $C$DW$21, DW_AT_TI_begin_line(0x87)
     144                            .dwattr $C$DW$21, DW_AT_TI_begin_column(0x06)
     145                            .dwattr $C$DW$21, DW_AT_decl_file("../Application/LaunchPad/board_lcd.c")
     146                            .dwattr $C$DW$21, DW_AT_decl_line(0x87)
     147                            .dwattr $C$DW$21, DW_AT_decl_column(0x06)
     148                            .dwattr $C$DW$21, DW_AT_TI_max_frame_size(0x18)
     149                            .dwpsn  file "../Application/LaunchPad/board_lcd.c",line 137,column 1,is_stmt,address Board_Lc
     150                    
     151                            .dwfde $C$DW$CIE, Board_Lcd_writeStringValue
     152                    $C$DW$22        .dwtag  DW_TAG_formal_parameter
     153                            .dwattr $C$DW$22, DW_AT_name("str")
     154                            .dwattr $C$DW$22, DW_AT_TI_symbol_name("str")
     155                            .dwattr $C$DW$22, DW_AT_type(*$C$DW$T$165)
     156                            .dwattr $C$DW$22, DW_AT_location[DW_OP_reg0]
     157                    
     158                    $C$DW$23        .dwtag  DW_TAG_formal_parameter
     159                            .dwattr $C$DW$23, DW_AT_name("value")
     160                            .dwattr $C$DW$23, DW_AT_TI_symbol_name("value")
     161                            .dwattr $C$DW$23, DW_AT_type(*$C$DW$T$10)
     162                            .dwattr $C$DW$23, DW_AT_location[DW_OP_reg1]
     163                    
     164                    $C$DW$24        .dwtag  DW_TAG_formal_parameter
     165                            .dwattr $C$DW$24, DW_AT_name("format")
TI ARM Assembler PC v16.9.9 Sun Nov 25 19:10:01 2018

Tools Copyright (c) 1996-2017 Texas Instruments Incorporated
C:\Users\Stryd\AppData\Local\Temp\{FD2CD87D-546B-4571-BBC0-B7C5FCD47FA5} PAGE    4

     166                            .dwattr $C$DW$24, DW_AT_TI_symbol_name("format")
     167                            .dwattr $C$DW$24, DW_AT_type(*$C$DW$T$10)
     168                            .dwattr $C$DW$24, DW_AT_location[DW_OP_reg2]
     169                    
     170                    $C$DW$25        .dwtag  DW_TAG_formal_parameter
     171                            .dwattr $C$DW$25, DW_AT_name("line")
     172                            .dwattr $C$DW$25, DW_AT_TI_symbol_name("line")
     173                            .dwattr $C$DW$25, DW_AT_type(*$C$DW$T$10)
     174                            .dwattr $C$DW$25, DW_AT_location[DW_OP_reg3]
     175                    
     176                    
     177                    ;*****************************************************************************
     178                    ;* FUNCTION NAME: Board_Lcd_writeStringValue                                 *
     179                    ;*                                                                           *
     180                    ;*   Regs Modified     : A1,A2,A3,A4,V1,V2,V3,V4,V5,V9,SP,LR,SR              *
     181                    ;*   Regs Used         : A1,A2,A3,A4,V1,V2,V3,V4,V5,V9,SP,LR,SR              *
     182                    ;*   Local Frame Size  : 0 Args + 0 Auto + 24 Save = 24 byte                 *
     183                    ;*****************************************************************************
     184                    Board_Lcd_writeStringValue:
     185                    ;* --------------------------------------------------------------------------*
     186                    ;* V1    assigned to $O$C1
     187                    ;* V3    assigned to str
     188                    $C$DW$26        .dwtag  DW_TAG_variable
     189                            .dwattr $C$DW$26, DW_AT_name("str")
     190                            .dwattr $C$DW$26, DW_AT_TI_symbol_name("str")
     191                            .dwattr $C$DW$26, DW_AT_type(*$C$DW$T$872)
     192                            .dwattr $C$DW$26, DW_AT_location[DW_OP_reg6]
     193                    
     194                    ;* V2    assigned to len
     195                    $C$DW$27        .dwtag  DW_TAG_variable
     196                            .dwattr $C$DW$27, DW_AT_name("len")
     197                            .dwattr $C$DW$27, DW_AT_TI_symbol_name("len")
     198                            .dwattr $C$DW$27, DW_AT_type(*$C$DW$T$10)
     199                            .dwattr $C$DW$27, DW_AT_location[DW_OP_reg5]
     200                    
     201                            .dwcfi  cfa_offset, 0
     202 00000000 41F0E92D          PUSH      {V1, V2, V3, V4, V5, LR} ; [DPU_3_PIPE]  ; [KEEP 32-BIT INS]
     203                            .dwcfi  cfa_offset, 24
     204                            .dwcfi  save_reg_to_mem, 14, -4
     205                            .dwcfi  save_reg_to_mem, 8, -8
     206                            .dwcfi  save_reg_to_mem, 7, -12
     207                            .dwcfi  save_reg_to_mem, 6, -16
     208                            .dwcfi  save_reg_to_mem, 5, -20
     209                            .dwcfi  save_reg_to_mem, 4, -24
     210 00000004 4617              MOV       V4, A3                ; [DPU_3_PIPE] |137|  ; [ORIG 16-BIT INS]
     211 00000006 4688              MOV       V5, A2                ; [DPU_3_PIPE] |137|  ; [ORIG 16-BIT INS]
     212 00000008 4606              MOV       V3, A1                ; [DPU_3_PIPE] |137|  ; [ORIG 16-BIT INS]
     213                            .dwpsn  file "../Application/LaunchPad/board_lcd.c",line 138,column 13,is_stmt,isa 1
     214                    $C$DW$28        .dwtag  DW_TAG_TI_branch
     215                            .dwattr $C$DW$28, DW_AT_low_pc(0x00)
     216                            .dwattr $C$DW$28, DW_AT_name("strlen")
     217                            .dwattr $C$DW$28, DW_AT_TI_call
     218                    
     219 0000000a FFFEF7FF!         BL        strlen                ; [DPU_3_PIPE] |138|  ; [KEEP 32-BIT INS]
     220                            ; CALL OCCURS {strlen }          ; [] |138| 
TI ARM Assembler PC v16.9.9 Sun Nov 25 19:10:01 2018

Tools Copyright (c) 1996-2017 Texas Instruments Incorporated
C:\Users\Stryd\AppData\Local\Temp\{FD2CD87D-546B-4571-BBC0-B7C5FCD47FA5} PAGE    5

     221                            .dwpsn  file "../Application/LaunchPad/board_lcd.c",line 139,column 5,is_stmt,isa 1
     222 0000000e 4C0D              LDR       V1, $C$CON1           ; [DPU_3_PIPE] |139|  ; [ORIG 16-BIT INS]
     223                            .dwpsn  file "../Application/LaunchPad/board_lcd.c",line 138,column 13,is_stmt,isa 1
     224 00000010 4605              MOV       V2, A1                ; [DPU_3_PIPE] |138|  ; [ORIG 16-BIT INS]
     225                            .dwpsn  file "../Application/LaunchPad/board_lcd.c",line 139,column 5,is_stmt,isa 1
     226 00000012 2100              MOVS      A2, #0                ; [DPU_3_PIPE] |139|  ; [ORIG 16-BIT INS]
     227 00000014 2228              MOVS      A3, #40               ; [DPU_3_PIPE] |139|  ; [ORIG 16-BIT INS]
     228 00000016 4620              MOV       A1, V1                ; [DPU_3_PIPE] |139|  ; [ORIG 16-BIT INS]
     229                    $C$DW$29        .dwtag  DW_TAG_TI_branch
     230                            .dwattr $C$DW$29, DW_AT_low_pc(0x00)
     231                            .dwattr $C$DW$29, DW_AT_name("memset")
     232                            .dwattr $C$DW$29, DW_AT_TI_call
     233                    
     234 00000018 FFFEF7FF!         BL        memset                ; [DPU_3_PIPE] |139|  ; [KEEP 32-BIT INS]
     235                            ; CALL OCCURS {memset }          ; [] |139| 
     236                            .dwpsn  file "../Application/LaunchPad/board_lcd.c",line 140,column 5,is_stmt,isa 1
     237 0000001c 4631              MOV       A2, V3                ; [DPU_3_PIPE] |140|  ; [ORIG 16-BIT INS]
     238 0000001e 462A              MOV       A3, V2                ; [DPU_3_PIPE] |140|  ; [ORIG 16-BIT INS]
     239 00000020 4620              MOV       A1, V1                ; [DPU_3_PIPE] |140|  ; [ORIG 16-BIT INS]
     240                    $C$DW$30        .dwtag  DW_TAG_TI_branch
     241                            .dwattr $C$DW$30, DW_AT_low_pc(0x00)
     242                            .dwattr $C$DW$30, DW_AT_name("memcpy")
     243                            .dwattr $C$DW$30, DW_AT_TI_call
     244                    
     245 00000022 FFFEF7FF!         BL        memcpy                ; [DPU_3_PIPE] |140|  ; [KEEP 32-BIT INS]
     246                            ; CALL OCCURS {memcpy }          ; [] |140| 
     247                            .dwpsn  file "../Application/LaunchPad/board_lcd.c",line 141,column 5,is_stmt,isa 1
     248 00000026 4640              MOV       A1, V5                ; [DPU_3_PIPE] |141|  ; [ORIG 16-BIT INS]
     249 00000028 463A              MOV       A3, V4                ; [DPU_3_PIPE] |141|  ; [ORIG 16-BIT INS]
     250 0000002a 1961              ADDS      A2, V1, V2            ; [DPU_3_PIPE] |141|  ; [ORIG 16-BIT INS]
     251                    $C$DW$31        .dwtag  DW_TAG_TI_branch
     252                            .dwattr $C$DW$31, DW_AT_low_pc(0x00)
     253                            .dwattr $C$DW$31, DW_AT_name("Util_itoa")
     254                            .dwattr $C$DW$31, DW_AT_TI_call
     255                    
     256 0000002c FFFEF7FF!         BL        Util_itoa             ; [DPU_3_PIPE] |141|  ; [KEEP 32-BIT INS]
     257                            ; CALL OCCURS {Util_itoa }       ; [] |141| 
     258                            .dwpsn  file "../Application/LaunchPad/board_lcd.c",line 144,column 5,is_stmt,isa 1
     259 00000030 4620              MOV       A1, V1                ; [DPU_3_PIPE] |144|  ; [ORIG 16-BIT INS]
     260                    $C$DW$32        .dwtag  DW_TAG_TI_branch
     261                            .dwattr $C$DW$32, DW_AT_low_pc(0x00)
     262                            .dwattr $C$DW$32, DW_AT_name("xdc_runtime_System_printf__E")
     263                            .dwattr $C$DW$32, DW_AT_TI_call
     264                    
     265 00000032 FFFEF7FF!         BL        xdc_runtime_System_printf__E ; [DPU_3_PIPE] |144|  ; [KEEP 32-BIT INS]
     266                            ; CALL OCCURS {xdc_runtime_System_printf__E }  ; [] |144| 
     267                            .dwpsn  file "../Application/LaunchPad/board_lcd.c",line 145,column 5,is_stmt,isa 1
     268 00000036 A002              ADR       A1, $C$SL1            ; [DPU_3_PIPE] |145|  ; [ORIG 16-BIT INS]
     269                    $C$DW$33        .dwtag  DW_TAG_TI_branch
     270                            .dwattr $C$DW$33, DW_AT_low_pc(0x00)
     271                            .dwattr $C$DW$33, DW_AT_name("xdc_runtime_System_printf__E")
     272                            .dwattr $C$DW$33, DW_AT_TI_call
     273                    
     274 00000038 FFFEF7FF!         BL        xdc_runtime_System_printf__E ; [DPU_3_PIPE] |145|  ; [KEEP 32-BIT INS]
     275                            ; CALL OCCURS {xdc_runtime_System_printf__E }  ; [] |145| 
TI ARM Assembler PC v16.9.9 Sun Nov 25 19:10:01 2018

Tools Copyright (c) 1996-2017 Texas Instruments Incorporated
C:\Users\Stryd\AppData\Local\Temp\{FD2CD87D-546B-4571-BBC0-B7C5FCD47FA5} PAGE    6

     276                    $C$DW$34        .dwtag  DW_TAG_TI_branch
     277                            .dwattr $C$DW$34, DW_AT_low_pc(0x00)
     278                            .dwattr $C$DW$34, DW_AT_TI_return
     279                    
     280 0000003c 81F0E8BD          POP       {V1, V2, V3, V4, V5, PC} ; [DPU_3_PIPE]  ; [KEEP 32-BIT INS]
     281                            .dwcfi  cfa_offset, 0
     282                            .dwcfi  restore_reg, 8
     283                            .dwcfi  restore_reg, 7
     284                            .dwcfi  restore_reg, 6
     285                            .dwcfi  restore_reg, 5
     286                            .dwcfi  restore_reg, 4
     287                            ; BRANCH OCCURS                  ; [] 
     288                            .dwattr $C$DW$21, DW_AT_TI_end_file("../Application/LaunchPad/board_lcd.c")
     289                            .dwattr $C$DW$21, DW_AT_TI_end_line(0x9c)
     290                            .dwattr $C$DW$21, DW_AT_TI_end_column(0x01)
     291                            .dwendentry
     292                            .dwendtag $C$DW$21
     293                    
     294 00000000                   .sect   ".text:Board_Lcd_writeString"
     295                            .clink
     296                            .thumbfunc Board_Lcd_writeString
     297 00000000                   .thumb
     298                            .global Board_Lcd_writeString
     299                    
     300                    $C$DW$35        .dwtag  DW_TAG_subprogram
     301                            .dwattr $C$DW$35, DW_AT_name("Board_Lcd_writeString")
     302                            .dwattr $C$DW$35, DW_AT_low_pc(Board_Lcd_writeString)
     303                            .dwattr $C$DW$35, DW_AT_high_pc(0x00)
     304                            .dwattr $C$DW$35, DW_AT_TI_symbol_name("Board_Lcd_writeString")
     305                            .dwattr $C$DW$35, DW_AT_external
     306                            .dwattr $C$DW$35, DW_AT_TI_begin_file("../Application/LaunchPad/board_lcd.c")
     307                            .dwattr $C$DW$35, DW_AT_TI_begin_line(0x71)
     308                            .dwattr $C$DW$35, DW_AT_TI_begin_column(0x06)
     309                            .dwattr $C$DW$35, DW_AT_decl_file("../Application/LaunchPad/board_lcd.c")
     310                            .dwattr $C$DW$35, DW_AT_decl_line(0x71)
     311                            .dwattr $C$DW$35, DW_AT_decl_column(0x06)
     312                            .dwattr $C$DW$35, DW_AT_TI_max_frame_size(0x08)
     313                            .dwpsn  file "../Application/LaunchPad/board_lcd.c",line 114,column 1,is_stmt,address Board_Lc
     314                    
     315                            .dwfde $C$DW$CIE, Board_Lcd_writeString
     316                    $C$DW$36        .dwtag  DW_TAG_formal_parameter
     317                            .dwattr $C$DW$36, DW_AT_name("str")
     318                            .dwattr $C$DW$36, DW_AT_TI_symbol_name("str")
     319                            .dwattr $C$DW$36, DW_AT_type(*$C$DW$T$165)
     320                            .dwattr $C$DW$36, DW_AT_location[DW_OP_reg0]
     321                    
     322                    $C$DW$37        .dwtag  DW_TAG_formal_parameter
     323                            .dwattr $C$DW$37, DW_AT_name("line")
     324                            .dwattr $C$DW$37, DW_AT_TI_symbol_name("line")
     325                            .dwattr $C$DW$37, DW_AT_type(*$C$DW$T$10)
     326                            .dwattr $C$DW$37, DW_AT_location[DW_OP_reg1]
     327                    
     328                    
     329                    ;*****************************************************************************
     330                    ;* FUNCTION NAME: Board_Lcd_writeString                                      *
TI ARM Assembler PC v16.9.9 Sun Nov 25 19:10:01 2018

Tools Copyright (c) 1996-2017 Texas Instruments Incorporated
C:\Users\Stryd\AppData\Local\Temp\{FD2CD87D-546B-4571-BBC0-B7C5FCD47FA5} PAGE    7

     331                    ;*                                                                           *
     332                    ;*   Regs Modified     : A1,A2,A3,A4,V9,SP,LR,SR                             *
     333                    ;*   Regs Used         : A1,A2,A3,A4,V9,SP,LR,SR                             *
     334                    ;*   Local Frame Size  : 0 Args + 0 Auto + 4 Save = 4 byte                   *
     335                    ;*****************************************************************************
     336 00000000           Board_Lcd_writeString:
     337                    ;* --------------------------------------------------------------------------*
     338                            .dwcfi  cfa_offset, 0
     339 00000000 B508              PUSH      {A4, LR}              ; [DPU_3_PIPE]  ; [ORIG 16-BIT INS]
     340                            .dwcfi  cfa_offset, 8
     341                            .dwcfi  save_reg_to_mem, 14, -4
     342                            .dwcfi  save_reg_to_mem, 3, -8
     343                            .dwpsn  file "../Application/LaunchPad/board_lcd.c",line 116,column 5,is_stmt,isa 1
     344                    $C$DW$38        .dwtag  DW_TAG_TI_branch
     345                            .dwattr $C$DW$38, DW_AT_low_pc(0x00)
     346                            .dwattr $C$DW$38, DW_AT_name("xdc_runtime_System_printf__E")
     347                            .dwattr $C$DW$38, DW_AT_TI_call
     348                    
     349 00000002 FFFEF7FF!         BL        xdc_runtime_System_printf__E ; [DPU_3_PIPE] |116|  ; [KEEP 32-BIT INS]
     350                            ; CALL OCCURS {xdc_runtime_System_printf__E }  ; [] |116| 
     351                            .dwpsn  file "../Application/LaunchPad/board_lcd.c",line 117,column 5,is_stmt,isa 1
     352 00000006 A002              ADR       A1, $C$SL2            ; [DPU_3_PIPE] |117|  ; [ORIG 16-BIT INS]
     353                    $C$DW$39        .dwtag  DW_TAG_TI_branch
     354                            .dwattr $C$DW$39, DW_AT_low_pc(0x00)
     355                            .dwattr $C$DW$39, DW_AT_name("xdc_runtime_System_printf__E")
     356                            .dwattr $C$DW$39, DW_AT_TI_call
     357                    
     358 00000008 FFFEF7FF!         BL        xdc_runtime_System_printf__E ; [DPU_3_PIPE] |117|  ; [KEEP 32-BIT INS]
     359                            ; CALL OCCURS {xdc_runtime_System_printf__E }  ; [] |117| 
     360                    $C$DW$40        .dwtag  DW_TAG_TI_branch
     361                            .dwattr $C$DW$40, DW_AT_low_pc(0x00)
     362                            .dwattr $C$DW$40, DW_AT_TI_return
     363                    
     364 0000000c BD08              POP       {A4, PC}              ; [DPU_3_PIPE]  ; [ORIG 16-BIT INS]
     365                            .dwcfi  cfa_offset, 0
     366                            .dwcfi  restore_reg, 3
     367                            ; BRANCH OCCURS                  ; [] 
     368                            .dwattr $C$DW$35, DW_AT_TI_end_file("../Application/LaunchPad/board_lcd.c")
     369                            .dwattr $C$DW$35, DW_AT_TI_end_line(0x80)
     370                            .dwattr $C$DW$35, DW_AT_TI_end_column(0x01)
     371                            .dwendentry
     372                            .dwendtag $C$DW$35
     373                    
     374 00000000                   .sect   ".text:Board_LCD_open"
     375                            .clink
     376                            .thumbfunc Board_LCD_open
     377 00000000                   .thumb
     378                            .global Board_LCD_open
     379                    
     380                    $C$DW$41        .dwtag  DW_TAG_subprogram
     381                            .dwattr $C$DW$41, DW_AT_name("Board_LCD_open")
     382                            .dwattr $C$DW$41, DW_AT_low_pc(Board_LCD_open)
     383                            .dwattr $C$DW$41, DW_AT_high_pc(0x00)
     384                            .dwattr $C$DW$41, DW_AT_TI_symbol_name("Board_LCD_open")
     385                            .dwattr $C$DW$41, DW_AT_external
TI ARM Assembler PC v16.9.9 Sun Nov 25 19:10:01 2018

Tools Copyright (c) 1996-2017 Texas Instruments Incorporated
C:\Users\Stryd\AppData\Local\Temp\{FD2CD87D-546B-4571-BBC0-B7C5FCD47FA5} PAGE    8

     386                            .dwattr $C$DW$41, DW_AT_TI_begin_file("../Application/LaunchPad/board_lcd.c")
     387                            .dwattr $C$DW$41, DW_AT_TI_begin_line(0x5f)
     388                            .dwattr $C$DW$41, DW_AT_TI_begin_column(0x06)
     389                            .dwattr $C$DW$41, DW_AT_decl_file("../Application/LaunchPad/board_lcd.c")
     390                            .dwattr $C$DW$41, DW_AT_decl_line(0x5f)
     391                            .dwattr $C$DW$41, DW_AT_decl_column(0x06)
     392                            .dwattr $C$DW$41, DW_AT_TI_max_frame_size(0x00)
     393                            .dwpsn  file "../Application/LaunchPad/board_lcd.c",line 96,column 1,is_stmt,address Board_LCD
     394                    
     395                            .dwfde $C$DW$CIE, Board_LCD_open
     396                    
     397                    ;*****************************************************************************
     398                    ;* FUNCTION NAME: Board_LCD_open                                             *
     399                    ;*                                                                           *
     400                    ;*   Regs Modified     :                                                     *
     401                    ;*   Regs Used         : LR                                                  *
     402                    ;*   Local Frame Size  : 0 Args + 0 Auto + 0 Save = 0 byte                   *
     403                    ;*****************************************************************************
     404 00000000           Board_LCD_open:
     405                    ;* --------------------------------------------------------------------------*
     406                            .dwcfi  cfa_offset, 0
     407                    $C$DW$42        .dwtag  DW_TAG_TI_branch
     408                            .dwattr $C$DW$42, DW_AT_low_pc(0x00)
     409                            .dwattr $C$DW$42, DW_AT_TI_return
     410                    
     411 00000000 4770              BX        LR                    ; [DPU_3_PIPE]  ; [ORIG 16-BIT INS]
     412                            ; BRANCH OCCURS                  ; [] 
     413                            .dwattr $C$DW$41, DW_AT_TI_end_file("../Application/LaunchPad/board_lcd.c")
     414                            .dwattr $C$DW$41, DW_AT_TI_end_line(0x69)
     415                            .dwattr $C$DW$41, DW_AT_TI_end_column(0x01)
     416                            .dwendentry
     417                            .dwendtag $C$DW$41
     418                    
     419                    ;******************************************************************************
     420                    ;* STRINGS                                                                    *
     421                    ;******************************************************************************
     422 00000040                   .sect   ".text:Board_Lcd_writeStringValue"
     423                            .align  4
     424 00000040 0D        ||$C$SL1||:     .string 13,10,0
         00000041 0A       
         00000042 00       
     425                    ;******************************************************************************
     426                    ;* CONSTANT TABLE                                                             *
     427                    ;******************************************************************************
     428 00000043                   .sect   ".text:Board_Lcd_writeStringValue"
     429                            .align  4
     430 00000044 00000000! ||$C$CON1||:    .bits   lcdBuf,32
     431                    ;******************************************************************************
     432                    ;* STRINGS                                                                    *
     433                    ;******************************************************************************
     434 0000000e                   .sect   ".text:Board_Lcd_writeString"
     435                            .align  4
     436 00000010 0D        ||$C$SL2||:     .string 13,10,0
         00000011 0A       
         00000012 00       
TI ARM Assembler PC v16.9.9 Sun Nov 25 19:10:01 2018

Tools Copyright (c) 1996-2017 Texas Instruments Incorporated
C:\Users\Stryd\AppData\Local\Temp\{FD2CD87D-546B-4571-BBC0-B7C5FCD47FA5} PAGE    9

     437                    ;*****************************************************************************
     438                    ;* UNDEFINED EXTERNAL REFERENCES                                             *
     439                    ;*****************************************************************************
     440                            .global strlen
     441                            .global memset
     442                            .global xdc_runtime_System_printf__E
     443                            .global Util_itoa
     444                            .global memcpy
     445                    
     446                    ;******************************************************************************
     447                    ;* BUILD ATTRIBUTES                                                           *
     448                    ;******************************************************************************
     449                            .battr "aeabi", Tag_File, 1, Tag_ABI_PCS_wchar_t(2)
     450                            .battr "aeabi", Tag_File, 1, Tag_ABI_FP_rounding(0)
     451                            .battr "aeabi", Tag_File, 1, Tag_ABI_FP_denormal(0)
     452                            .battr "aeabi", Tag_File, 1, Tag_ABI_FP_exceptions(0)
     453                            .battr "aeabi", Tag_File, 1, Tag_ABI_FP_number_model(1)
     454                            .battr "aeabi", Tag_File, 1, Tag_ABI_enum_size(1)
     455                            .battr "aeabi", Tag_File, 1, Tag_ABI_optimization_goals(0)
     456                            .battr "aeabi", Tag_File, 1, Tag_ABI_FP_optimization_goals(0)
     457                            .battr "TI", Tag_File, 1, Tag_Bitfield_layout(2)
     458                            .battr "aeabi", Tag_File, 1, Tag_ABI_VFP_args(3)
     459                            .battr "TI", Tag_File, 1, Tag_FP_interface(1)
     460                    
     461                    ;******************************************************************************
     462                    ;* TYPE INFORMATION                                                           *
     463                    ;******************************************************************************
     464                    
     465                    $C$DW$T$458     .dwtag  DW_TAG_enumeration_type
     466                            .dwattr $C$DW$T$458, DW_AT_byte_size(0x01)
     467                    $C$DW$43        .dwtag  DW_TAG_enumerator
     468                            .dwattr $C$DW$43, DW_AT_name("PIN_SUCCESS")
     469                            .dwattr $C$DW$43, DW_AT_const_value(0x00)
     470                            .dwattr $C$DW$43, DW_AT_decl_file("C:/ti/simplelink_cc13x0_sdk_2_30_00_20/source/ti/drivers/PI
     471                            .dwattr $C$DW$43, DW_AT_decl_line(0x2cd)
     472                            .dwattr $C$DW$43, DW_AT_decl_column(0x05)
     473                    
     474                    $C$DW$44        .dwtag  DW_TAG_enumerator
     475                            .dwattr $C$DW$44, DW_AT_name("PIN_ALREADY_ALLOCATED")
     476                            .dwattr $C$DW$44, DW_AT_const_value(0x01)
     477                            .dwattr $C$DW$44, DW_AT_decl_file("C:/ti/simplelink_cc13x0_sdk_2_30_00_20/source/ti/drivers/PI
     478                            .dwattr $C$DW$44, DW_AT_decl_line(0x2ce)
     479                            .dwattr $C$DW$44, DW_AT_decl_column(0x05)
     480                    
     481                    $C$DW$45        .dwtag  DW_TAG_enumerator
     482                            .dwattr $C$DW$45, DW_AT_name("PIN_NO_ACCESS")
     483                            .dwattr $C$DW$45, DW_AT_const_value(0x02)
     484                            .dwattr $C$DW$45, DW_AT_decl_file("C:/ti/simplelink_cc13x0_sdk_2_30_00_20/source/ti/drivers/PI
     485                            .dwattr $C$DW$45, DW_AT_decl_line(0x2cf)
     486                            .dwattr $C$DW$45, DW_AT_decl_column(0x05)
     487                    
     488                    $C$DW$46        .dwtag  DW_TAG_enumerator
     489                            .dwattr $C$DW$46, DW_AT_name("PIN_UNSUPPORTED")
     490                            .dwattr $C$DW$46, DW_AT_const_value(0x03)
     491                            .dwattr $C$DW$46, DW_AT_decl_file("C:/ti/simplelink_cc13x0_sdk_2_30_00_20/source/ti/drivers/PI
TI ARM Assembler PC v16.9.9 Sun Nov 25 19:10:01 2018

Tools Copyright (c) 1996-2017 Texas Instruments Incorporated
C:\Users\Stryd\AppData\Local\Temp\{FD2CD87D-546B-4571-BBC0-B7C5FCD47FA5} PAGE   10

     492                            .dwattr $C$DW$46, DW_AT_decl_line(0x2d0)
     493                            .dwattr $C$DW$46, DW_AT_decl_column(0x05)
     494                    
     495                            .dwattr $C$DW$T$458, DW_AT_decl_file("C:/ti/simplelink_cc13x0_sdk_2_30_00_20/source/ti/drivers
     496                            .dwattr $C$DW$T$458, DW_AT_decl_line(0x2cc)
     497                            .dwattr $C$DW$T$458, DW_AT_decl_column(0x0e)
     498                            .dwendtag $C$DW$T$458
     499                    
     500                    $C$DW$T$459     .dwtag  DW_TAG_typedef
     501                            .dwattr $C$DW$T$459, DW_AT_name("PIN_Status")
     502                            .dwattr $C$DW$T$459, DW_AT_type(*$C$DW$T$458)
     503                            .dwattr $C$DW$T$459, DW_AT_language(DW_LANG_C)
     504                            .dwattr $C$DW$T$459, DW_AT_decl_file("C:/ti/simplelink_cc13x0_sdk_2_30_00_20/source/ti/drivers
     505                            .dwattr $C$DW$T$459, DW_AT_decl_line(0x2d1)
     506                            .dwattr $C$DW$T$459, DW_AT_decl_column(0x03)
     507                    
     508                    
     509                    $C$DW$T$87      .dwtag  DW_TAG_structure_type
     510                            .dwattr $C$DW$T$87, DW_AT_byte_size(0x08)
     511                    $C$DW$47        .dwtag  DW_TAG_member
     512                            .dwattr $C$DW$47, DW_AT_type(*$C$DW$T$86)
     513                            .dwattr $C$DW$47, DW_AT_name("fg")
     514                            .dwattr $C$DW$47, DW_AT_TI_symbol_name("fg")
     515                            .dwattr $C$DW$47, DW_AT_data_member_location[DW_OP_plus_uconst 0x0]
     516                            .dwattr $C$DW$47, DW_AT_accessibility(DW_ACCESS_public)
     517                            .dwattr $C$DW$47, DW_AT_decl_file("C:/ti/simplelink_cc13x0_sdk_2_30_00_20/source/ti/display/Di
     518                            .dwattr $C$DW$47, DW_AT_decl_line(0x52)
     519                            .dwattr $C$DW$47, DW_AT_decl_column(0x0e)
     520                    
     521                    $C$DW$48        .dwtag  DW_TAG_member
     522                            .dwattr $C$DW$48, DW_AT_type(*$C$DW$T$86)
     523                            .dwattr $C$DW$48, DW_AT_name("bg")
     524                            .dwattr $C$DW$48, DW_AT_TI_symbol_name("bg")
     525                            .dwattr $C$DW$48, DW_AT_data_member_location[DW_OP_plus_uconst 0x4]
     526                            .dwattr $C$DW$48, DW_AT_accessibility(DW_ACCESS_public)
     527                            .dwattr $C$DW$48, DW_AT_decl_file("C:/ti/simplelink_cc13x0_sdk_2_30_00_20/source/ti/display/Di
     528                            .dwattr $C$DW$48, DW_AT_decl_line(0x53)
     529                            .dwattr $C$DW$48, DW_AT_decl_column(0x0e)
     530                    
     531                            .dwattr $C$DW$T$87, DW_AT_decl_file("C:/ti/simplelink_cc13x0_sdk_2_30_00_20/source/ti/display/
     532                            .dwattr $C$DW$T$87, DW_AT_decl_line(0x51)
     533                            .dwattr $C$DW$T$87, DW_AT_decl_column(0x01)
     534                            .dwendtag $C$DW$T$87
     535                    
     536                    $C$DW$T$141     .dwtag  DW_TAG_typedef
     537                            .dwattr $C$DW$T$141, DW_AT_name("DisplaySharpColor_t")
     538                            .dwattr $C$DW$T$141, DW_AT_type(*$C$DW$T$87)
     539                            .dwattr $C$DW$T$141, DW_AT_language(DW_LANG_C)
     540                            .dwattr $C$DW$T$141, DW_AT_decl_file("C:/ti/simplelink_cc13x0_sdk_2_30_00_20/source/ti/display
     541                            .dwattr $C$DW$T$141, DW_AT_decl_line(0x54)
     542                            .dwattr $C$DW$T$141, DW_AT_decl_column(0x03)
     543                    
     544                    
     545                    $C$DW$T$128     .dwtag  DW_TAG_structure_type
     546                            .dwattr $C$DW$T$128, DW_AT_byte_size(0x4c)
TI ARM Assembler PC v16.9.9 Sun Nov 25 19:10:01 2018

Tools Copyright (c) 1996-2017 Texas Instruments Incorporated
C:\Users\Stryd\AppData\Local\Temp\{FD2CD87D-546B-4571-BBC0-B7C5FCD47FA5} PAGE   11

     547                    $C$DW$49        .dwtag  DW_TAG_member
     548                            .dwattr $C$DW$49, DW_AT_type(*$C$DW$T$92)
     549                            .dwattr $C$DW$49, DW_AT_name("Crc32")
     550                            .dwattr $C$DW$49, DW_AT_TI_symbol_name("Crc32")
     551                            .dwattr $C$DW$49, DW_AT_data_member_location[DW_OP_plus_uconst 0x0]
     552                            .dwattr $C$DW$49, DW_AT_accessibility(DW_ACCESS_public)
     553                            .dwattr $C$DW$49, DW_AT_decl_file("C:\ti\simplelink_cc13x0_sdk_2_30_00_20\source\ti\devices\cc
     554                            .dwattr $C$DW$49, DW_AT_decl_line(0x76)
     555                            .dwattr $C$DW$49, DW_AT_decl_column(0x25)
     556                    
     557                    $C$DW$50        .dwtag  DW_TAG_member
     558                            .dwattr $C$DW$50, DW_AT_type(*$C$DW$T$95)
     559                            .dwattr $C$DW$50, DW_AT_name("FlashGetSize")
     560                            .dwattr $C$DW$50, DW_AT_TI_symbol_name("FlashGetSize")
     561                            .dwattr $C$DW$50, DW_AT_data_member_location[DW_OP_plus_uconst 0x4]
     562                            .dwattr $C$DW$50, DW_AT_accessibility(DW_ACCESS_public)
     563                            .dwattr $C$DW$50, DW_AT_decl_file("C:\ti\simplelink_cc13x0_sdk_2_30_00_20\source\ti\devices\cc
     564                            .dwattr $C$DW$50, DW_AT_decl_line(0x77)
     565                            .dwattr $C$DW$50, DW_AT_decl_column(0x25)
     566                    
     567                    $C$DW$51        .dwtag  DW_TAG_member
     568                            .dwattr $C$DW$51, DW_AT_type(*$C$DW$T$96)
     569                            .dwattr $C$DW$51, DW_AT_name("GetChipId")
     570                            .dwattr $C$DW$51, DW_AT_TI_symbol_name("GetChipId")
     571                            .dwattr $C$DW$51, DW_AT_data_member_location[DW_OP_plus_uconst 0x8]
     572                            .dwattr $C$DW$51, DW_AT_accessibility(DW_ACCESS_public)
     573                            .dwattr $C$DW$51, DW_AT_decl_file("C:\ti\simplelink_cc13x0_sdk_2_30_00_20\source\ti\devices\cc
     574                            .dwattr $C$DW$51, DW_AT_decl_line(0x78)
     575                            .dwattr $C$DW$51, DW_AT_decl_column(0x25)
     576                    
     577                    $C$DW$52        .dwtag  DW_TAG_member
     578                            .dwattr $C$DW$52, DW_AT_type(*$C$DW$T$99)
     579                            .dwattr $C$DW$52, DW_AT_name("ReservedLocation1")
     580                            .dwattr $C$DW$52, DW_AT_TI_symbol_name("ReservedLocation1")
     581                            .dwattr $C$DW$52, DW_AT_data_member_location[DW_OP_plus_uconst 0xc]
     582                            .dwattr $C$DW$52, DW_AT_accessibility(DW_ACCESS_public)
     583                            .dwattr $C$DW$52, DW_AT_decl_file("C:\ti\simplelink_cc13x0_sdk_2_30_00_20\source\ti\devices\cc
     584                            .dwattr $C$DW$52, DW_AT_decl_line(0x79)
     585                            .dwattr $C$DW$52, DW_AT_decl_column(0x25)
     586                    
     587                    $C$DW$53        .dwtag  DW_TAG_member
     588                            .dwattr $C$DW$53, DW_AT_type(*$C$DW$T$100)
     589                            .dwattr $C$DW$53, DW_AT_name("ReservedLocation2")
     590                            .dwattr $C$DW$53, DW_AT_TI_symbol_name("ReservedLocation2")
     591                            .dwattr $C$DW$53, DW_AT_data_member_location[DW_OP_plus_uconst 0x10]
     592                            .dwattr $C$DW$53, DW_AT_accessibility(DW_ACCESS_public)
     593                            .dwattr $C$DW$53, DW_AT_decl_file("C:\ti\simplelink_cc13x0_sdk_2_30_00_20\source\ti\devices\cc
     594                            .dwattr $C$DW$53, DW_AT_decl_line(0x7a)
     595                            .dwattr $C$DW$53, DW_AT_decl_column(0x25)
     596                    
     597                    $C$DW$54        .dwtag  DW_TAG_member
     598                            .dwattr $C$DW$54, DW_AT_type(*$C$DW$T$101)
     599                            .dwattr $C$DW$54, DW_AT_name("ReservedLocation3")
     600                            .dwattr $C$DW$54, DW_AT_TI_symbol_name("ReservedLocation3")
     601                            .dwattr $C$DW$54, DW_AT_data_member_location[DW_OP_plus_uconst 0x14]
TI ARM Assembler PC v16.9.9 Sun Nov 25 19:10:01 2018

Tools Copyright (c) 1996-2017 Texas Instruments Incorporated
C:\Users\Stryd\AppData\Local\Temp\{FD2CD87D-546B-4571-BBC0-B7C5FCD47FA5} PAGE   12

     602                            .dwattr $C$DW$54, DW_AT_accessibility(DW_ACCESS_public)
     603                            .dwattr $C$DW$54, DW_AT_decl_file("C:\ti\simplelink_cc13x0_sdk_2_30_00_20\source\ti\devices\cc
     604                            .dwattr $C$DW$54, DW_AT_decl_line(0x7b)
     605                            .dwattr $C$DW$54, DW_AT_decl_column(0x25)
     606                    
     607                    $C$DW$55        .dwtag  DW_TAG_member
     608                            .dwattr $C$DW$55, DW_AT_type(*$C$DW$T$104)
     609                            .dwattr $C$DW$55, DW_AT_name("ResetDevice")
     610                            .dwattr $C$DW$55, DW_AT_TI_symbol_name("ResetDevice")
     611                            .dwattr $C$DW$55, DW_AT_data_member_location[DW_OP_plus_uconst 0x18]
     612                            .dwattr $C$DW$55, DW_AT_accessibility(DW_ACCESS_public)
     613                            .dwattr $C$DW$55, DW_AT_decl_file("C:\ti\simplelink_cc13x0_sdk_2_30_00_20\source\ti\devices\cc
     614                            .dwattr $C$DW$55, DW_AT_decl_line(0x7c)
     615                            .dwattr $C$DW$55, DW_AT_decl_column(0x25)
     616                    
     617                    $C$DW$56        .dwtag  DW_TAG_member
     618                            .dwattr $C$DW$56, DW_AT_type(*$C$DW$T$109)
     619                            .dwattr $C$DW$56, DW_AT_name("Fletcher32")
     620                            .dwattr $C$DW$56, DW_AT_TI_symbol_name("Fletcher32")
     621                            .dwattr $C$DW$56, DW_AT_data_member_location[DW_OP_plus_uconst 0x1c]
     622                            .dwattr $C$DW$56, DW_AT_accessibility(DW_ACCESS_public)
     623                            .dwattr $C$DW$56, DW_AT_decl_file("C:\ti\simplelink_cc13x0_sdk_2_30_00_20\source\ti\devices\cc
     624                            .dwattr $C$DW$56, DW_AT_decl_line(0x7d)
     625                            .dwattr $C$DW$56, DW_AT_decl_column(0x25)
     626                    
     627                    $C$DW$57        .dwtag  DW_TAG_member
     628                            .dwattr $C$DW$57, DW_AT_type(*$C$DW$T$113)
     629                            .dwattr $C$DW$57, DW_AT_name("MinValue")
     630                            .dwattr $C$DW$57, DW_AT_TI_symbol_name("MinValue")
     631                            .dwattr $C$DW$57, DW_AT_data_member_location[DW_OP_plus_uconst 0x20]
     632                            .dwattr $C$DW$57, DW_AT_accessibility(DW_ACCESS_public)
     633                            .dwattr $C$DW$57, DW_AT_decl_file("C:\ti\simplelink_cc13x0_sdk_2_30_00_20\source\ti\devices\cc
     634                            .dwattr $C$DW$57, DW_AT_decl_line(0x7e)
     635                            .dwattr $C$DW$57, DW_AT_decl_column(0x25)
     636                    
     637                    $C$DW$58        .dwtag  DW_TAG_member
     638                            .dwattr $C$DW$58, DW_AT_type(*$C$DW$T$114)
     639                            .dwattr $C$DW$58, DW_AT_name("MaxValue")
     640                            .dwattr $C$DW$58, DW_AT_TI_symbol_name("MaxValue")
     641                            .dwattr $C$DW$58, DW_AT_data_member_location[DW_OP_plus_uconst 0x24]
     642                            .dwattr $C$DW$58, DW_AT_accessibility(DW_ACCESS_public)
     643                            .dwattr $C$DW$58, DW_AT_decl_file("C:\ti\simplelink_cc13x0_sdk_2_30_00_20\source\ti\devices\cc
     644                            .dwattr $C$DW$58, DW_AT_decl_line(0x7f)
     645                            .dwattr $C$DW$58, DW_AT_decl_column(0x25)
     646                    
     647                    $C$DW$59        .dwtag  DW_TAG_member
     648                            .dwattr $C$DW$59, DW_AT_type(*$C$DW$T$115)
     649                            .dwattr $C$DW$59, DW_AT_name("MeanValue")
     650                            .dwattr $C$DW$59, DW_AT_TI_symbol_name("MeanValue")
     651                            .dwattr $C$DW$59, DW_AT_data_member_location[DW_OP_plus_uconst 0x28]
     652                            .dwattr $C$DW$59, DW_AT_accessibility(DW_ACCESS_public)
     653                            .dwattr $C$DW$59, DW_AT_decl_file("C:\ti\simplelink_cc13x0_sdk_2_30_00_20\source\ti\devices\cc
     654                            .dwattr $C$DW$59, DW_AT_decl_line(0x80)
     655                            .dwattr $C$DW$59, DW_AT_decl_column(0x25)
     656                    
TI ARM Assembler PC v16.9.9 Sun Nov 25 19:10:01 2018

Tools Copyright (c) 1996-2017 Texas Instruments Incorporated
C:\Users\Stryd\AppData\Local\Temp\{FD2CD87D-546B-4571-BBC0-B7C5FCD47FA5} PAGE   13

     657                    $C$DW$60        .dwtag  DW_TAG_member
     658                            .dwattr $C$DW$60, DW_AT_type(*$C$DW$T$116)
     659                            .dwattr $C$DW$60, DW_AT_name("StandDeviationValue")
     660                            .dwattr $C$DW$60, DW_AT_TI_symbol_name("StandDeviationValue")
     661                            .dwattr $C$DW$60, DW_AT_data_member_location[DW_OP_plus_uconst 0x2c]
     662                            .dwattr $C$DW$60, DW_AT_accessibility(DW_ACCESS_public)
     663                            .dwattr $C$DW$60, DW_AT_decl_file("C:\ti\simplelink_cc13x0_sdk_2_30_00_20\source\ti\devices\cc
     664                            .dwattr $C$DW$60, DW_AT_decl_line(0x81)
     665                            .dwattr $C$DW$60, DW_AT_decl_column(0x25)
     666                    
     667                    $C$DW$61        .dwtag  DW_TAG_member
     668                            .dwattr $C$DW$61, DW_AT_type(*$C$DW$T$119)
     669                            .dwattr $C$DW$61, DW_AT_name("ReservedLocation4")
     670                            .dwattr $C$DW$61, DW_AT_TI_symbol_name("ReservedLocation4")
     671                            .dwattr $C$DW$61, DW_AT_data_member_location[DW_OP_plus_uconst 0x30]
     672                            .dwattr $C$DW$61, DW_AT_accessibility(DW_ACCESS_public)
     673                            .dwattr $C$DW$61, DW_AT_decl_file("C:\ti\simplelink_cc13x0_sdk_2_30_00_20\source\ti\devices\cc
     674                            .dwattr $C$DW$61, DW_AT_decl_line(0x82)
     675                            .dwattr $C$DW$61, DW_AT_decl_column(0x25)
     676                    
     677                    $C$DW$62        .dwtag  DW_TAG_member
     678                            .dwattr $C$DW$62, DW_AT_type(*$C$DW$T$120)
     679                            .dwattr $C$DW$62, DW_AT_name("ReservedLocation5")
     680                            .dwattr $C$DW$62, DW_AT_TI_symbol_name("ReservedLocation5")
     681                            .dwattr $C$DW$62, DW_AT_data_member_location[DW_OP_plus_uconst 0x34]
     682                            .dwattr $C$DW$62, DW_AT_accessibility(DW_ACCESS_public)
     683                            .dwattr $C$DW$62, DW_AT_decl_file("C:\ti\simplelink_cc13x0_sdk_2_30_00_20\source\ti\devices\cc
     684                            .dwattr $C$DW$62, DW_AT_decl_line(0x83)
     685                            .dwattr $C$DW$62, DW_AT_decl_column(0x25)
     686                    
     687                    $C$DW$63        .dwtag  DW_TAG_member
     688                            .dwattr $C$DW$63, DW_AT_type(*$C$DW$T$121)
     689                            .dwattr $C$DW$63, DW_AT_name("HFSourceSafeSwitch")
     690                            .dwattr $C$DW$63, DW_AT_TI_symbol_name("HFSourceSafeSwitch")
     691                            .dwattr $C$DW$63, DW_AT_data_member_location[DW_OP_plus_uconst 0x38]
     692                            .dwattr $C$DW$63, DW_AT_accessibility(DW_ACCESS_public)
     693                            .dwattr $C$DW$63, DW_AT_decl_file("C:\ti\simplelink_cc13x0_sdk_2_30_00_20\source\ti\devices\cc
     694                            .dwattr $C$DW$63, DW_AT_decl_line(0x84)
     695                            .dwattr $C$DW$63, DW_AT_decl_column(0x25)
     696                    
     697                    $C$DW$64        .dwtag  DW_TAG_member
     698                            .dwattr $C$DW$64, DW_AT_type(*$C$DW$T$124)
     699                            .dwattr $C$DW$64, DW_AT_name("SelectCompAInput")
     700                            .dwattr $C$DW$64, DW_AT_TI_symbol_name("SelectCompAInput")
     701                            .dwattr $C$DW$64, DW_AT_data_member_location[DW_OP_plus_uconst 0x3c]
     702                            .dwattr $C$DW$64, DW_AT_accessibility(DW_ACCESS_public)
     703                            .dwattr $C$DW$64, DW_AT_decl_file("C:\ti\simplelink_cc13x0_sdk_2_30_00_20\source\ti\devices\cc
     704                            .dwattr $C$DW$64, DW_AT_decl_line(0x85)
     705                            .dwattr $C$DW$64, DW_AT_decl_column(0x25)
     706                    
     707                    $C$DW$65        .dwtag  DW_TAG_member
     708                            .dwattr $C$DW$65, DW_AT_type(*$C$DW$T$125)
     709                            .dwattr $C$DW$65, DW_AT_name("SelectCompARef")
     710                            .dwattr $C$DW$65, DW_AT_TI_symbol_name("SelectCompARef")
     711                            .dwattr $C$DW$65, DW_AT_data_member_location[DW_OP_plus_uconst 0x40]
TI ARM Assembler PC v16.9.9 Sun Nov 25 19:10:01 2018

Tools Copyright (c) 1996-2017 Texas Instruments Incorporated
C:\Users\Stryd\AppData\Local\Temp\{FD2CD87D-546B-4571-BBC0-B7C5FCD47FA5} PAGE   14

     712                            .dwattr $C$DW$65, DW_AT_accessibility(DW_ACCESS_public)
     713                            .dwattr $C$DW$65, DW_AT_decl_file("C:\ti\simplelink_cc13x0_sdk_2_30_00_20\source\ti\devices\cc
     714                            .dwattr $C$DW$65, DW_AT_decl_line(0x86)
     715                            .dwattr $C$DW$65, DW_AT_decl_column(0x25)
     716                    
     717                    $C$DW$66        .dwtag  DW_TAG_member
     718                            .dwattr $C$DW$66, DW_AT_type(*$C$DW$T$126)
     719                            .dwattr $C$DW$66, DW_AT_name("SelectADCCompBInput")
     720                            .dwattr $C$DW$66, DW_AT_TI_symbol_name("SelectADCCompBInput")
     721                            .dwattr $C$DW$66, DW_AT_data_member_location[DW_OP_plus_uconst 0x44]
     722                            .dwattr $C$DW$66, DW_AT_accessibility(DW_ACCESS_public)
     723                            .dwattr $C$DW$66, DW_AT_decl_file("C:\ti\simplelink_cc13x0_sdk_2_30_00_20\source\ti\devices\cc
     724                            .dwattr $C$DW$66, DW_AT_decl_line(0x87)
     725                            .dwattr $C$DW$66, DW_AT_decl_column(0x25)
     726                    
     727                    $C$DW$67        .dwtag  DW_TAG_member
     728                            .dwattr $C$DW$67, DW_AT_type(*$C$DW$T$127)
     729                            .dwattr $C$DW$67, DW_AT_name("SelectCompBRef")
     730                            .dwattr $C$DW$67, DW_AT_TI_symbol_name("SelectCompBRef")
     731                            .dwattr $C$DW$67, DW_AT_data_member_location[DW_OP_plus_uconst 0x48]
     732                            .dwattr $C$DW$67, DW_AT_accessibility(DW_ACCESS_public)
     733                            .dwattr $C$DW$67, DW_AT_decl_file("C:\ti\simplelink_cc13x0_sdk_2_30_00_20\source\ti\devices\cc
     734                            .dwattr $C$DW$67, DW_AT_decl_line(0x88)
     735                            .dwattr $C$DW$67, DW_AT_decl_column(0x25)
     736                    
     737                            .dwattr $C$DW$T$128, DW_AT_decl_file("C:\ti\simplelink_cc13x0_sdk_2_30_00_20\source\ti\devices
     738                            .dwattr $C$DW$T$128, DW_AT_decl_line(0x75)
     739                            .dwattr $C$DW$T$128, DW_AT_decl_column(0x01)
     740                            .dwendtag $C$DW$T$128
     741                    
     742                    $C$DW$T$460     .dwtag  DW_TAG_typedef
     743                            .dwattr $C$DW$T$460, DW_AT_name("HARD_API_T")
     744                            .dwattr $C$DW$T$460, DW_AT_type(*$C$DW$T$128)
     745                            .dwattr $C$DW$T$460, DW_AT_language(DW_LANG_C)
     746                            .dwattr $C$DW$T$460, DW_AT_decl_file("C:\ti\simplelink_cc13x0_sdk_2_30_00_20\source\ti\devices
     747                            .dwattr $C$DW$T$460, DW_AT_decl_line(0x89)
     748                            .dwattr $C$DW$T$460, DW_AT_decl_column(0x03)
     749                    
     750                    
     751                    $C$DW$T$132     .dwtag  DW_TAG_union_type
     752                            .dwattr $C$DW$T$132, DW_AT_byte_size(0x04)
     753                    $C$DW$68        .dwtag  DW_TAG_member
     754                            .dwattr $C$DW$68, DW_AT_type(*$C$DW$T$129)
     755                            .dwattr $C$DW$68, DW_AT_name("f")
     756                            .dwattr $C$DW$68, DW_AT_TI_symbol_name("f")
     757                            .dwattr $C$DW$68, DW_AT_data_member_location[DW_OP_plus_uconst 0x0]
     758                            .dwattr $C$DW$68, DW_AT_accessibility(DW_ACCESS_public)
     759                            .dwattr $C$DW$68, DW_AT_decl_file("C:/ti/xdctools_3_50_08_24_core/packages/xdc/std.h")
     760                            .dwattr $C$DW$68, DW_AT_decl_line(0xb7)
     761                            .dwattr $C$DW$68, DW_AT_decl_column(0x0f)
     762                    
     763                    $C$DW$69        .dwtag  DW_TAG_member
     764                            .dwattr $C$DW$69, DW_AT_type(*$C$DW$T$131)
     765                            .dwattr $C$DW$69, DW_AT_name("a")
     766                            .dwattr $C$DW$69, DW_AT_TI_symbol_name("a")
TI ARM Assembler PC v16.9.9 Sun Nov 25 19:10:01 2018

Tools Copyright (c) 1996-2017 Texas Instruments Incorporated
C:\Users\Stryd\AppData\Local\Temp\{FD2CD87D-546B-4571-BBC0-B7C5FCD47FA5} PAGE   15

     767                            .dwattr $C$DW$69, DW_AT_data_member_location[DW_OP_plus_uconst 0x0]
     768                            .dwattr $C$DW$69, DW_AT_accessibility(DW_ACCESS_public)
     769                            .dwattr $C$DW$69, DW_AT_decl_file("C:/ti/xdctools_3_50_08_24_core/packages/xdc/std.h")
     770                            .dwattr $C$DW$69, DW_AT_decl_line(0xb8)
     771                            .dwattr $C$DW$69, DW_AT_decl_column(0x0f)
     772                    
     773                            .dwattr $C$DW$T$132, DW_AT_decl_file("C:/ti/xdctools_3_50_08_24_core/packages/xdc/std.h")
     774                            .dwattr $C$DW$T$132, DW_AT_decl_line(0xb6)
     775                            .dwattr $C$DW$T$132, DW_AT_decl_column(0x0f)
     776                            .dwendtag $C$DW$T$132
     777                    
     778                    $C$DW$T$461     .dwtag  DW_TAG_typedef
     779                            .dwattr $C$DW$T$461, DW_AT_name("xdc_FloatData")
     780                            .dwattr $C$DW$T$461, DW_AT_type(*$C$DW$T$132)
     781                            .dwattr $C$DW$T$461, DW_AT_language(DW_LANG_C)
     782                            .dwattr $C$DW$T$461, DW_AT_decl_file("C:/ti/xdctools_3_50_08_24_core/packages/xdc/std.h")
     783                            .dwattr $C$DW$T$461, DW_AT_decl_line(0xb9)
     784                            .dwattr $C$DW$T$461, DW_AT_decl_column(0x03)
     785                    
     786                    
     787                    $C$DW$T$462     .dwtag  DW_TAG_enumeration_type
     788                            .dwattr $C$DW$T$462, DW_AT_name("CC1350_LAUNCHXL_ADCBuf0ChannelName")
     789                            .dwattr $C$DW$T$462, DW_AT_byte_size(0x01)
     790                    $C$DW$70        .dwtag  DW_TAG_enumerator
     791                            .dwattr $C$DW$70, DW_AT_name("CC1350_LAUNCHXL_ADCBUF0CHANNEL0")
     792                            .dwattr $C$DW$70, DW_AT_const_value(0x00)
     793                            .dwattr $C$DW$70, DW_AT_decl_file("C:\ti\simplelink_cc13x0_sdk_2_30_00_20\examples\rtos\CC1350
     794                            .dwattr $C$DW$70, DW_AT_decl_line(0xba)
     795                            .dwattr $C$DW$70, DW_AT_decl_column(0x05)
     796                    
     797                    $C$DW$71        .dwtag  DW_TAG_enumerator
     798                            .dwattr $C$DW$71, DW_AT_name("CC1350_LAUNCHXL_ADCBUF0CHANNEL1")
     799                            .dwattr $C$DW$71, DW_AT_const_value(0x01)
     800                            .dwattr $C$DW$71, DW_AT_decl_file("C:\ti\simplelink_cc13x0_sdk_2_30_00_20\examples\rtos\CC1350
     801                            .dwattr $C$DW$71, DW_AT_decl_line(0xbb)
     802                            .dwattr $C$DW$71, DW_AT_decl_column(0x05)
     803                    
     804                    $C$DW$72        .dwtag  DW_TAG_enumerator
     805                            .dwattr $C$DW$72, DW_AT_name("CC1350_LAUNCHXL_ADCBUF0CHANNEL2")
     806                            .dwattr $C$DW$72, DW_AT_const_value(0x02)
     807                            .dwattr $C$DW$72, DW_AT_decl_file("C:\ti\simplelink_cc13x0_sdk_2_30_00_20\examples\rtos\CC1350
     808                            .dwattr $C$DW$72, DW_AT_decl_line(0xbc)
     809                            .dwattr $C$DW$72, DW_AT_decl_column(0x05)
     810                    
     811                    $C$DW$73        .dwtag  DW_TAG_enumerator
     812                            .dwattr $C$DW$73, DW_AT_name("CC1350_LAUNCHXL_ADCBUF0CHANNEL3")
     813                            .dwattr $C$DW$73, DW_AT_const_value(0x03)
     814                            .dwattr $C$DW$73, DW_AT_decl_file("C:\ti\simplelink_cc13x0_sdk_2_30_00_20\examples\rtos\CC1350
     815                            .dwattr $C$DW$73, DW_AT_decl_line(0xbd)
     816                            .dwattr $C$DW$73, DW_AT_decl_column(0x05)
     817                    
     818                    $C$DW$74        .dwtag  DW_TAG_enumerator
     819                            .dwattr $C$DW$74, DW_AT_name("CC1350_LAUNCHXL_ADCBUF0CHANNEL4")
     820                            .dwattr $C$DW$74, DW_AT_const_value(0x04)
     821                            .dwattr $C$DW$74, DW_AT_decl_file("C:\ti\simplelink_cc13x0_sdk_2_30_00_20\examples\rtos\CC1350
TI ARM Assembler PC v16.9.9 Sun Nov 25 19:10:01 2018

Tools Copyright (c) 1996-2017 Texas Instruments Incorporated
C:\Users\Stryd\AppData\Local\Temp\{FD2CD87D-546B-4571-BBC0-B7C5FCD47FA5} PAGE   16

     822                            .dwattr $C$DW$74, DW_AT_decl_line(0xbe)
     823                            .dwattr $C$DW$74, DW_AT_decl_column(0x05)
     824                    
     825                    $C$DW$75        .dwtag  DW_TAG_enumerator
     826                            .dwattr $C$DW$75, DW_AT_name("CC1350_LAUNCHXL_ADCBUF0CHANNEL5")
     827                            .dwattr $C$DW$75, DW_AT_const_value(0x05)
     828                            .dwattr $C$DW$75, DW_AT_decl_file("C:\ti\simplelink_cc13x0_sdk_2_30_00_20\examples\rtos\CC1350
     829                            .dwattr $C$DW$75, DW_AT_decl_line(0xbf)
     830                            .dwattr $C$DW$75, DW_AT_decl_column(0x05)
     831                    
     832                    $C$DW$76        .dwtag  DW_TAG_enumerator
     833                            .dwattr $C$DW$76, DW_AT_name("CC1350_LAUNCHXL_ADCBUF0CHANNEL6")
     834                            .dwattr $C$DW$76, DW_AT_const_value(0x06)
     835                            .dwattr $C$DW$76, DW_AT_decl_file("C:\ti\simplelink_cc13x0_sdk_2_30_00_20\examples\rtos\CC1350
     836                            .dwattr $C$DW$76, DW_AT_decl_line(0xc0)
     837                            .dwattr $C$DW$76, DW_AT_decl_column(0x05)
     838                    
     839                    $C$DW$77        .dwtag  DW_TAG_enumerator
     840                            .dwattr $C$DW$77, DW_AT_name("CC1350_LAUNCHXL_ADCBUF0CHANNEL7")
     841                            .dwattr $C$DW$77, DW_AT_const_value(0x07)
     842                            .dwattr $C$DW$77, DW_AT_decl_file("C:\ti\simplelink_cc13x0_sdk_2_30_00_20\examples\rtos\CC1350
     843                            .dwattr $C$DW$77, DW_AT_decl_line(0xc1)
     844                            .dwattr $C$DW$77, DW_AT_decl_column(0x05)
     845                    
     846                    $C$DW$78        .dwtag  DW_TAG_enumerator
     847                            .dwattr $C$DW$78, DW_AT_name("CC1350_LAUNCHXL_ADCBUF0CHANNELVDDS")
     848                            .dwattr $C$DW$78, DW_AT_const_value(0x08)
     849                            .dwattr $C$DW$78, DW_AT_decl_file("C:\ti\simplelink_cc13x0_sdk_2_30_00_20\examples\rtos\CC1350
     850                            .dwattr $C$DW$78, DW_AT_decl_line(0xc2)
     851                            .dwattr $C$DW$78, DW_AT_decl_column(0x05)
     852                    
     853                    $C$DW$79        .dwtag  DW_TAG_enumerator
     854                            .dwattr $C$DW$79, DW_AT_name("CC1350_LAUNCHXL_ADCBUF0CHANNELDCOUPL")
     855                            .dwattr $C$DW$79, DW_AT_const_value(0x09)
     856                            .dwattr $C$DW$79, DW_AT_decl_file("C:\ti\simplelink_cc13x0_sdk_2_30_00_20\examples\rtos\CC1350
     857                            .dwattr $C$DW$79, DW_AT_decl_line(0xc3)
     858                            .dwattr $C$DW$79, DW_AT_decl_column(0x05)
     859                    
     860                    $C$DW$80        .dwtag  DW_TAG_enumerator
     861                            .dwattr $C$DW$80, DW_AT_name("CC1350_LAUNCHXL_ADCBUF0CHANNELVSS")
     862                            .dwattr $C$DW$80, DW_AT_const_value(0x0a)
     863                            .dwattr $C$DW$80, DW_AT_decl_file("C:\ti\simplelink_cc13x0_sdk_2_30_00_20\examples\rtos\CC1350
     864                            .dwattr $C$DW$80, DW_AT_decl_line(0xc4)
     865                            .dwattr $C$DW$80, DW_AT_decl_column(0x05)
     866                    
     867                    $C$DW$81        .dwtag  DW_TAG_enumerator
     868                            .dwattr $C$DW$81, DW_AT_name("CC1350_LAUNCHXL_ADCBUF0CHANNELCOUNT")
     869                            .dwattr $C$DW$81, DW_AT_const_value(0x0b)
     870                            .dwattr $C$DW$81, DW_AT_decl_file("C:\ti\simplelink_cc13x0_sdk_2_30_00_20\examples\rtos\CC1350
     871                            .dwattr $C$DW$81, DW_AT_decl_line(0xc6)
     872                            .dwattr $C$DW$81, DW_AT_decl_column(0x05)
     873                    
     874                            .dwattr $C$DW$T$462, DW_AT_decl_file("C:\ti\simplelink_cc13x0_sdk_2_30_00_20\examples\rtos\CC1
     875                            .dwattr $C$DW$T$462, DW_AT_decl_line(0xb9)
     876                            .dwattr $C$DW$T$462, DW_AT_decl_column(0x0e)
TI ARM Assembler PC v16.9.9 Sun Nov 25 19:10:01 2018

Tools Copyright (c) 1996-2017 Texas Instruments Incorporated
C:\Users\Stryd\AppData\Local\Temp\{FD2CD87D-546B-4571-BBC0-B7C5FCD47FA5} PAGE   17

     877                            .dwendtag $C$DW$T$462
     878                    
     879                    $C$DW$T$463     .dwtag  DW_TAG_typedef
     880                            .dwattr $C$DW$T$463, DW_AT_name("CC1350_LAUNCHXL_ADCBuf0ChannelName")
     881                            .dwattr $C$DW$T$463, DW_AT_type(*$C$DW$T$462)
     882                            .dwattr $C$DW$T$463, DW_AT_language(DW_LANG_C)
     883                            .dwattr $C$DW$T$463, DW_AT_decl_file("C:\ti\simplelink_cc13x0_sdk_2_30_00_20\examples\rtos\CC1
     884                            .dwattr $C$DW$T$463, DW_AT_decl_line(0xc7)
     885                            .dwattr $C$DW$T$463, DW_AT_decl_column(0x03)
     886                    
     887                    
     888                    $C$DW$T$464     .dwtag  DW_TAG_enumeration_type
     889                            .dwattr $C$DW$T$464, DW_AT_name("CC1350_LAUNCHXL_ADCBufName")
     890                            .dwattr $C$DW$T$464, DW_AT_byte_size(0x01)
     891                    $C$DW$82        .dwtag  DW_TAG_enumerator
     892                            .dwattr $C$DW$82, DW_AT_name("CC1350_LAUNCHXL_ADCBUF0")
     893                            .dwattr $C$DW$82, DW_AT_const_value(0x00)
     894                            .dwattr $C$DW$82, DW_AT_decl_file("C:\ti\simplelink_cc13x0_sdk_2_30_00_20\examples\rtos\CC1350
     895                            .dwattr $C$DW$82, DW_AT_decl_line(0xb0)
     896                            .dwattr $C$DW$82, DW_AT_decl_column(0x05)
     897                    
     898                    $C$DW$83        .dwtag  DW_TAG_enumerator
     899                            .dwattr $C$DW$83, DW_AT_name("CC1350_LAUNCHXL_ADCBUFCOUNT")
     900                            .dwattr $C$DW$83, DW_AT_const_value(0x01)
     901                            .dwattr $C$DW$83, DW_AT_decl_file("C:\ti\simplelink_cc13x0_sdk_2_30_00_20\examples\rtos\CC1350
     902                            .dwattr $C$DW$83, DW_AT_decl_line(0xb2)
     903                            .dwattr $C$DW$83, DW_AT_decl_column(0x05)
     904                    
     905                            .dwattr $C$DW$T$464, DW_AT_decl_file("C:\ti\simplelink_cc13x0_sdk_2_30_00_20\examples\rtos\CC1
     906                            .dwattr $C$DW$T$464, DW_AT_decl_line(0xaf)
     907                            .dwattr $C$DW$T$464, DW_AT_decl_column(0x0e)
     908                            .dwendtag $C$DW$T$464
     909                    
     910                    $C$DW$T$465     .dwtag  DW_TAG_typedef
     911                            .dwattr $C$DW$T$465, DW_AT_name("CC1350_LAUNCHXL_ADCBufName")
     912                            .dwattr $C$DW$T$465, DW_AT_type(*$C$DW$T$464)
     913                            .dwattr $C$DW$T$465, DW_AT_language(DW_LANG_C)
     914                            .dwattr $C$DW$T$465, DW_AT_decl_file("C:\ti\simplelink_cc13x0_sdk_2_30_00_20\examples\rtos\CC1
     915                            .dwattr $C$DW$T$465, DW_AT_decl_line(0xb3)
     916                            .dwattr $C$DW$T$465, DW_AT_decl_column(0x03)
     917                    
     918                    
     919                    $C$DW$T$466     .dwtag  DW_TAG_enumeration_type
     920                            .dwattr $C$DW$T$466, DW_AT_name("CC1350_LAUNCHXL_ADCName")
     921                            .dwattr $C$DW$T$466, DW_AT_byte_size(0x01)
     922                    $C$DW$84        .dwtag  DW_TAG_enumerator
     923                            .dwattr $C$DW$84, DW_AT_name("CC1350_LAUNCHXL_ADC0")
     924                            .dwattr $C$DW$84, DW_AT_const_value(0x00)
     925                            .dwattr $C$DW$84, DW_AT_decl_file("C:\ti\simplelink_cc13x0_sdk_2_30_00_20\examples\rtos\CC1350
     926                            .dwattr $C$DW$84, DW_AT_decl_line(0xce)
     927                            .dwattr $C$DW$84, DW_AT_decl_column(0x05)
     928                    
     929                    $C$DW$85        .dwtag  DW_TAG_enumerator
     930                            .dwattr $C$DW$85, DW_AT_name("CC1350_LAUNCHXL_ADC1")
     931                            .dwattr $C$DW$85, DW_AT_const_value(0x01)
TI ARM Assembler PC v16.9.9 Sun Nov 25 19:10:01 2018

Tools Copyright (c) 1996-2017 Texas Instruments Incorporated
C:\Users\Stryd\AppData\Local\Temp\{FD2CD87D-546B-4571-BBC0-B7C5FCD47FA5} PAGE   18

     932                            .dwattr $C$DW$85, DW_AT_decl_file("C:\ti\simplelink_cc13x0_sdk_2_30_00_20\examples\rtos\CC1350
     933                            .dwattr $C$DW$85, DW_AT_decl_line(0xcf)
     934                            .dwattr $C$DW$85, DW_AT_decl_column(0x05)
     935                    
     936                    $C$DW$86        .dwtag  DW_TAG_enumerator
     937                            .dwattr $C$DW$86, DW_AT_name("CC1350_LAUNCHXL_ADC2")
     938                            .dwattr $C$DW$86, DW_AT_const_value(0x02)
     939                            .dwattr $C$DW$86, DW_AT_decl_file("C:\ti\simplelink_cc13x0_sdk_2_30_00_20\examples\rtos\CC1350
     940                            .dwattr $C$DW$86, DW_AT_decl_line(0xd0)
     941                            .dwattr $C$DW$86, DW_AT_decl_column(0x05)
     942                    
     943                    $C$DW$87        .dwtag  DW_TAG_enumerator
     944                            .dwattr $C$DW$87, DW_AT_name("CC1350_LAUNCHXL_ADC3")
     945                            .dwattr $C$DW$87, DW_AT_const_value(0x03)
     946                            .dwattr $C$DW$87, DW_AT_decl_file("C:\ti\simplelink_cc13x0_sdk_2_30_00_20\examples\rtos\CC1350
     947                            .dwattr $C$DW$87, DW_AT_decl_line(0xd1)
     948                            .dwattr $C$DW$87, DW_AT_decl_column(0x05)
     949                    
     950                    $C$DW$88        .dwtag  DW_TAG_enumerator
     951                            .dwattr $C$DW$88, DW_AT_name("CC1350_LAUNCHXL_ADC4")
     952                            .dwattr $C$DW$88, DW_AT_const_value(0x04)
     953                            .dwattr $C$DW$88, DW_AT_decl_file("C:\ti\simplelink_cc13x0_sdk_2_30_00_20\examples\rtos\CC1350
     954                            .dwattr $C$DW$88, DW_AT_decl_line(0xd2)
     955                            .dwattr $C$DW$88, DW_AT_decl_column(0x05)
     956                    
     957                    $C$DW$89        .dwtag  DW_TAG_enumerator
     958                            .dwattr $C$DW$89, DW_AT_name("CC1350_LAUNCHXL_ADC5")
     959                            .dwattr $C$DW$89, DW_AT_const_value(0x05)
     960                            .dwattr $C$DW$89, DW_AT_decl_file("C:\ti\simplelink_cc13x0_sdk_2_30_00_20\examples\rtos\CC1350
     961                            .dwattr $C$DW$89, DW_AT_decl_line(0xd3)
     962                            .dwattr $C$DW$89, DW_AT_decl_column(0x05)
     963                    
     964                    $C$DW$90        .dwtag  DW_TAG_enumerator
     965                            .dwattr $C$DW$90, DW_AT_name("CC1350_LAUNCHXL_ADC6")
     966                            .dwattr $C$DW$90, DW_AT_const_value(0x06)
     967                            .dwattr $C$DW$90, DW_AT_decl_file("C:\ti\simplelink_cc13x0_sdk_2_30_00_20\examples\rtos\CC1350
     968                            .dwattr $C$DW$90, DW_AT_decl_line(0xd4)
     969                            .dwattr $C$DW$90, DW_AT_decl_column(0x05)
     970                    
     971                    $C$DW$91        .dwtag  DW_TAG_enumerator
     972                            .dwattr $C$DW$91, DW_AT_name("CC1350_LAUNCHXL_ADC7")
     973                            .dwattr $C$DW$91, DW_AT_const_value(0x07)
     974                            .dwattr $C$DW$91, DW_AT_decl_file("C:\ti\simplelink_cc13x0_sdk_2_30_00_20\examples\rtos\CC1350
     975                            .dwattr $C$DW$91, DW_AT_decl_line(0xd5)
     976                            .dwattr $C$DW$91, DW_AT_decl_column(0x05)
     977                    
     978                    $C$DW$92        .dwtag  DW_TAG_enumerator
     979                            .dwattr $C$DW$92, DW_AT_name("CC1350_LAUNCHXL_ADCDCOUPL")
     980                            .dwattr $C$DW$92, DW_AT_const_value(0x08)
     981                            .dwattr $C$DW$92, DW_AT_decl_file("C:\ti\simplelink_cc13x0_sdk_2_30_00_20\examples\rtos\CC1350
     982                            .dwattr $C$DW$92, DW_AT_decl_line(0xd6)
     983                            .dwattr $C$DW$92, DW_AT_decl_column(0x05)
     984                    
     985                    $C$DW$93        .dwtag  DW_TAG_enumerator
     986                            .dwattr $C$DW$93, DW_AT_name("CC1350_LAUNCHXL_ADCVSS")
TI ARM Assembler PC v16.9.9 Sun Nov 25 19:10:01 2018

Tools Copyright (c) 1996-2017 Texas Instruments Incorporated
C:\Users\Stryd\AppData\Local\Temp\{FD2CD87D-546B-4571-BBC0-B7C5FCD47FA5} PAGE   19

     987                            .dwattr $C$DW$93, DW_AT_const_value(0x09)
     988                            .dwattr $C$DW$93, DW_AT_decl_file("C:\ti\simplelink_cc13x0_sdk_2_30_00_20\examples\rtos\CC1350
     989                            .dwattr $C$DW$93, DW_AT_decl_line(0xd7)
     990                            .dwattr $C$DW$93, DW_AT_decl_column(0x05)
     991                    
     992                    $C$DW$94        .dwtag  DW_TAG_enumerator
     993                            .dwattr $C$DW$94, DW_AT_name("CC1350_LAUNCHXL_ADCVDDS")
     994                            .dwattr $C$DW$94, DW_AT_const_value(0x0a)
     995                            .dwattr $C$DW$94, DW_AT_decl_file("C:\ti\simplelink_cc13x0_sdk_2_30_00_20\examples\rtos\CC1350
     996                            .dwattr $C$DW$94, DW_AT_decl_line(0xd8)
     997                            .dwattr $C$DW$94, DW_AT_decl_column(0x05)
     998                    
     999                    $C$DW$95        .dwtag  DW_TAG_enumerator
    1000                            .dwattr $C$DW$95, DW_AT_name("CC1350_LAUNCHXL_ADCCOUNT")
    1001                            .dwattr $C$DW$95, DW_AT_const_value(0x0b)
    1002                            .dwattr $C$DW$95, DW_AT_decl_file("C:\ti\simplelink_cc13x0_sdk_2_30_00_20\examples\rtos\CC1350
    1003                            .dwattr $C$DW$95, DW_AT_decl_line(0xda)
    1004                            .dwattr $C$DW$95, DW_AT_decl_column(0x05)
    1005                    
    1006                            .dwattr $C$DW$T$466, DW_AT_decl_file("C:\ti\simplelink_cc13x0_sdk_2_30_00_20\examples\rtos\CC1
    1007                            .dwattr $C$DW$T$466, DW_AT_decl_line(0xcd)
    1008                            .dwattr $C$DW$T$466, DW_AT_decl_column(0x0e)
    1009                            .dwendtag $C$DW$T$466
    1010                    
    1011                    $C$DW$T$467     .dwtag  DW_TAG_typedef
    1012                            .dwattr $C$DW$T$467, DW_AT_name("CC1350_LAUNCHXL_ADCName")
    1013                            .dwattr $C$DW$T$467, DW_AT_type(*$C$DW$T$466)
    1014                            .dwattr $C$DW$T$467, DW_AT_language(DW_LANG_C)
    1015                            .dwattr $C$DW$T$467, DW_AT_decl_file("C:\ti\simplelink_cc13x0_sdk_2_30_00_20\examples\rtos\CC1
    1016                            .dwattr $C$DW$T$467, DW_AT_decl_line(0xdb)
    1017                            .dwattr $C$DW$T$467, DW_AT_decl_column(0x03)
    1018                    
    1019                    
    1020                    $C$DW$T$468     .dwtag  DW_TAG_enumeration_type
    1021                            .dwattr $C$DW$T$468, DW_AT_name("CC1350_LAUNCHXL_CryptoName")
    1022                            .dwattr $C$DW$T$468, DW_AT_byte_size(0x01)
    1023                    $C$DW$96        .dwtag  DW_TAG_enumerator
    1024                            .dwattr $C$DW$96, DW_AT_name("CC1350_LAUNCHXL_CRYPTO0")
    1025                            .dwattr $C$DW$96, DW_AT_const_value(0x00)
    1026                            .dwattr $C$DW$96, DW_AT_decl_file("C:\ti\simplelink_cc13x0_sdk_2_30_00_20\examples\rtos\CC1350
    1027                            .dwattr $C$DW$96, DW_AT_decl_line(0xe2)
    1028                            .dwattr $C$DW$96, DW_AT_decl_column(0x05)
    1029                    
    1030                    $C$DW$97        .dwtag  DW_TAG_enumerator
    1031                            .dwattr $C$DW$97, DW_AT_name("CC1350_LAUNCHXL_CRYPTOCOUNT")
    1032                            .dwattr $C$DW$97, DW_AT_const_value(0x01)
    1033                            .dwattr $C$DW$97, DW_AT_decl_file("C:\ti\simplelink_cc13x0_sdk_2_30_00_20\examples\rtos\CC1350
    1034                            .dwattr $C$DW$97, DW_AT_decl_line(0xe4)
    1035                            .dwattr $C$DW$97, DW_AT_decl_column(0x05)
    1036                    
    1037                            .dwattr $C$DW$T$468, DW_AT_decl_file("C:\ti\simplelink_cc13x0_sdk_2_30_00_20\examples\rtos\CC1
    1038                            .dwattr $C$DW$T$468, DW_AT_decl_line(0xe1)
    1039                            .dwattr $C$DW$T$468, DW_AT_decl_column(0x0e)
    1040                            .dwendtag $C$DW$T$468
    1041                    
TI ARM Assembler PC v16.9.9 Sun Nov 25 19:10:01 2018

Tools Copyright (c) 1996-2017 Texas Instruments Incorporated
C:\Users\Stryd\AppData\Local\Temp\{FD2CD87D-546B-4571-BBC0-B7C5FCD47FA5} PAGE   20

    1042                    $C$DW$T$469     .dwtag  DW_TAG_typedef
    1043                            .dwattr $C$DW$T$469, DW_AT_name("CC1350_LAUNCHXL_CryptoName")
    1044                            .dwattr $C$DW$T$469, DW_AT_type(*$C$DW$T$468)
    1045                            .dwattr $C$DW$T$469, DW_AT_language(DW_LANG_C)
    1046                            .dwattr $C$DW$T$469, DW_AT_decl_file("C:\ti\simplelink_cc13x0_sdk_2_30_00_20\examples\rtos\CC1
    1047                            .dwattr $C$DW$T$469, DW_AT_decl_line(0xe5)
    1048                            .dwattr $C$DW$T$469, DW_AT_decl_column(0x03)
    1049                    
    1050                    
    1051                    $C$DW$T$470     .dwtag  DW_TAG_enumeration_type
    1052                            .dwattr $C$DW$T$470, DW_AT_name("CC1350_LAUNCHXL_GPIOName")
    1053                            .dwattr $C$DW$T$470, DW_AT_byte_size(0x01)
    1054                    $C$DW$98        .dwtag  DW_TAG_enumerator
    1055                            .dwattr $C$DW$98, DW_AT_name("CC1350_LAUNCHXL_GPIO_S1")
    1056                            .dwattr $C$DW$98, DW_AT_const_value(0x00)
    1057                            .dwattr $C$DW$98, DW_AT_decl_file("C:\ti\simplelink_cc13x0_sdk_2_30_00_20\examples\rtos\CC1350
    1058                            .dwattr $C$DW$98, DW_AT_decl_line(0xec)
    1059                            .dwattr $C$DW$98, DW_AT_decl_column(0x05)
    1060                    
    1061                    $C$DW$99        .dwtag  DW_TAG_enumerator
    1062                            .dwattr $C$DW$99, DW_AT_name("CC1350_LAUNCHXL_GPIO_S2")
    1063                            .dwattr $C$DW$99, DW_AT_const_value(0x01)
    1064                            .dwattr $C$DW$99, DW_AT_decl_file("C:\ti\simplelink_cc13x0_sdk_2_30_00_20\examples\rtos\CC1350
    1065                            .dwattr $C$DW$99, DW_AT_decl_line(0xed)
    1066                            .dwattr $C$DW$99, DW_AT_decl_column(0x05)
    1067                    
    1068                    $C$DW$100       .dwtag  DW_TAG_enumerator
    1069                            .dwattr $C$DW$100, DW_AT_name("CC1350_LAUNCHXL_SPI_MASTER_READY")
    1070                            .dwattr $C$DW$100, DW_AT_const_value(0x02)
    1071                            .dwattr $C$DW$100, DW_AT_decl_file("C:\ti\simplelink_cc13x0_sdk_2_30_00_20\examples\rtos\CC135
    1072                            .dwattr $C$DW$100, DW_AT_decl_line(0xee)
    1073                            .dwattr $C$DW$100, DW_AT_decl_column(0x05)
    1074                    
    1075                    $C$DW$101       .dwtag  DW_TAG_enumerator
    1076                            .dwattr $C$DW$101, DW_AT_name("CC1350_LAUNCHXL_SPI_SLAVE_READY")
    1077                            .dwattr $C$DW$101, DW_AT_const_value(0x03)
    1078                            .dwattr $C$DW$101, DW_AT_decl_file("C:\ti\simplelink_cc13x0_sdk_2_30_00_20\examples\rtos\CC135
    1079                            .dwattr $C$DW$101, DW_AT_decl_line(0xef)
    1080                            .dwattr $C$DW$101, DW_AT_decl_column(0x05)
    1081                    
    1082                    $C$DW$102       .dwtag  DW_TAG_enumerator
    1083                            .dwattr $C$DW$102, DW_AT_name("CC1350_LAUNCHXL_GPIO_LED_GREEN")
    1084                            .dwattr $C$DW$102, DW_AT_const_value(0x04)
    1085                            .dwattr $C$DW$102, DW_AT_decl_file("C:\ti\simplelink_cc13x0_sdk_2_30_00_20\examples\rtos\CC135
    1086                            .dwattr $C$DW$102, DW_AT_decl_line(0xf0)
    1087                            .dwattr $C$DW$102, DW_AT_decl_column(0x05)
    1088                    
    1089                    $C$DW$103       .dwtag  DW_TAG_enumerator
    1090                            .dwattr $C$DW$103, DW_AT_name("CC1350_LAUNCHXL_GPIO_LED_RED")
    1091                            .dwattr $C$DW$103, DW_AT_const_value(0x05)
    1092                            .dwattr $C$DW$103, DW_AT_decl_file("C:\ti\simplelink_cc13x0_sdk_2_30_00_20\examples\rtos\CC135
    1093                            .dwattr $C$DW$103, DW_AT_decl_line(0xf1)
    1094                            .dwattr $C$DW$103, DW_AT_decl_column(0x05)
    1095                    
    1096                    $C$DW$104       .dwtag  DW_TAG_enumerator
TI ARM Assembler PC v16.9.9 Sun Nov 25 19:10:01 2018

Tools Copyright (c) 1996-2017 Texas Instruments Incorporated
C:\Users\Stryd\AppData\Local\Temp\{FD2CD87D-546B-4571-BBC0-B7C5FCD47FA5} PAGE   21

    1097                            .dwattr $C$DW$104, DW_AT_name("CC1350_LAUNCHXL_GPIO_SPI_FLASH_CS")
    1098                            .dwattr $C$DW$104, DW_AT_const_value(0x06)
    1099                            .dwattr $C$DW$104, DW_AT_decl_file("C:\ti\simplelink_cc13x0_sdk_2_30_00_20\examples\rtos\CC135
    1100                            .dwattr $C$DW$104, DW_AT_decl_line(0xf2)
    1101                            .dwattr $C$DW$104, DW_AT_decl_column(0x05)
    1102                    
    1103                    $C$DW$105       .dwtag  DW_TAG_enumerator
    1104                            .dwattr $C$DW$105, DW_AT_name("CC1350_LAUNCHXL_SDSPI_CS")
    1105                            .dwattr $C$DW$105, DW_AT_const_value(0x07)
    1106                            .dwattr $C$DW$105, DW_AT_decl_file("C:\ti\simplelink_cc13x0_sdk_2_30_00_20\examples\rtos\CC135
    1107                            .dwattr $C$DW$105, DW_AT_decl_line(0xf3)
    1108                            .dwattr $C$DW$105, DW_AT_decl_column(0x05)
    1109                    
    1110                    $C$DW$106       .dwtag  DW_TAG_enumerator
    1111                            .dwattr $C$DW$106, DW_AT_name("CC1350_LAUNCHXL_GPIO_LCD_CS")
    1112                            .dwattr $C$DW$106, DW_AT_const_value(0x08)
    1113                            .dwattr $C$DW$106, DW_AT_decl_file("C:\ti\simplelink_cc13x0_sdk_2_30_00_20\examples\rtos\CC135
    1114                            .dwattr $C$DW$106, DW_AT_decl_line(0xf4)
    1115                            .dwattr $C$DW$106, DW_AT_decl_column(0x05)
    1116                    
    1117                    $C$DW$107       .dwtag  DW_TAG_enumerator
    1118                            .dwattr $C$DW$107, DW_AT_name("CC1350_LAUNCHXL_GPIO_LCD_POWER")
    1119                            .dwattr $C$DW$107, DW_AT_const_value(0x09)
    1120                            .dwattr $C$DW$107, DW_AT_decl_file("C:\ti\simplelink_cc13x0_sdk_2_30_00_20\examples\rtos\CC135
    1121                            .dwattr $C$DW$107, DW_AT_decl_line(0xf5)
    1122                            .dwattr $C$DW$107, DW_AT_decl_column(0x05)
    1123                    
    1124                    $C$DW$108       .dwtag  DW_TAG_enumerator
    1125                            .dwattr $C$DW$108, DW_AT_name("CC1350_LAUNCHXL_GPIO_LCD_ENABLE")
    1126                            .dwattr $C$DW$108, DW_AT_const_value(0x0a)
    1127                            .dwattr $C$DW$108, DW_AT_decl_file("C:\ti\simplelink_cc13x0_sdk_2_30_00_20\examples\rtos\CC135
    1128                            .dwattr $C$DW$108, DW_AT_decl_line(0xf6)
    1129                            .dwattr $C$DW$108, DW_AT_decl_column(0x05)
    1130                    
    1131                    $C$DW$109       .dwtag  DW_TAG_enumerator
    1132                            .dwattr $C$DW$109, DW_AT_name("CC1350_LAUNCHXL_GPIOCOUNT")
    1133                            .dwattr $C$DW$109, DW_AT_const_value(0x0b)
    1134                            .dwattr $C$DW$109, DW_AT_decl_file("C:\ti\simplelink_cc13x0_sdk_2_30_00_20\examples\rtos\CC135
    1135                            .dwattr $C$DW$109, DW_AT_decl_line(0xf7)
    1136                            .dwattr $C$DW$109, DW_AT_decl_column(0x05)
    1137                    
    1138                            .dwattr $C$DW$T$470, DW_AT_decl_file("C:\ti\simplelink_cc13x0_sdk_2_30_00_20\examples\rtos\CC1
    1139                            .dwattr $C$DW$T$470, DW_AT_decl_line(0xeb)
    1140                            .dwattr $C$DW$T$470, DW_AT_decl_column(0x0e)
    1141                            .dwendtag $C$DW$T$470
    1142                    
    1143                    $C$DW$T$471     .dwtag  DW_TAG_typedef
    1144                            .dwattr $C$DW$T$471, DW_AT_name("CC1350_LAUNCHXL_GPIOName")
    1145                            .dwattr $C$DW$T$471, DW_AT_type(*$C$DW$T$470)
    1146                            .dwattr $C$DW$T$471, DW_AT_language(DW_LANG_C)
    1147                            .dwattr $C$DW$T$471, DW_AT_decl_file("C:\ti\simplelink_cc13x0_sdk_2_30_00_20\examples\rtos\CC1
    1148                            .dwattr $C$DW$T$471, DW_AT_decl_line(0xf8)
    1149                            .dwattr $C$DW$T$471, DW_AT_decl_column(0x03)
    1150                    
    1151                    
TI ARM Assembler PC v16.9.9 Sun Nov 25 19:10:01 2018

Tools Copyright (c) 1996-2017 Texas Instruments Incorporated
C:\Users\Stryd\AppData\Local\Temp\{FD2CD87D-546B-4571-BBC0-B7C5FCD47FA5} PAGE   22

    1152                    $C$DW$T$472     .dwtag  DW_TAG_enumeration_type
    1153                            .dwattr $C$DW$T$472, DW_AT_name("CC1350_LAUNCHXL_GPTimerName")
    1154                            .dwattr $C$DW$T$472, DW_AT_byte_size(0x01)
    1155                    $C$DW$110       .dwtag  DW_TAG_enumerator
    1156                            .dwattr $C$DW$110, DW_AT_name("CC1350_LAUNCHXL_GPTIMER0A")
    1157                            .dwattr $C$DW$110, DW_AT_const_value(0x00)
    1158                            .dwattr $C$DW$110, DW_AT_decl_file("C:\ti\simplelink_cc13x0_sdk_2_30_00_20\examples\rtos\CC135
    1159                            .dwattr $C$DW$110, DW_AT_decl_line(0xff)
    1160                            .dwattr $C$DW$110, DW_AT_decl_column(0x05)
    1161                    
    1162                    $C$DW$111       .dwtag  DW_TAG_enumerator
    1163                            .dwattr $C$DW$111, DW_AT_name("CC1350_LAUNCHXL_GPTIMER0B")
    1164                            .dwattr $C$DW$111, DW_AT_const_value(0x01)
    1165                            .dwattr $C$DW$111, DW_AT_decl_file("C:\ti\simplelink_cc13x0_sdk_2_30_00_20\examples\rtos\CC135
    1166                            .dwattr $C$DW$111, DW_AT_decl_line(0x100)
    1167                            .dwattr $C$DW$111, DW_AT_decl_column(0x05)
    1168                    
    1169                    $C$DW$112       .dwtag  DW_TAG_enumerator
    1170                            .dwattr $C$DW$112, DW_AT_name("CC1350_LAUNCHXL_GPTIMER1A")
    1171                            .dwattr $C$DW$112, DW_AT_const_value(0x02)
    1172                            .dwattr $C$DW$112, DW_AT_decl_file("C:\ti\simplelink_cc13x0_sdk_2_30_00_20\examples\rtos\CC135
    1173                            .dwattr $C$DW$112, DW_AT_decl_line(0x101)
    1174                            .dwattr $C$DW$112, DW_AT_decl_column(0x05)
    1175                    
    1176                    $C$DW$113       .dwtag  DW_TAG_enumerator
    1177                            .dwattr $C$DW$113, DW_AT_name("CC1350_LAUNCHXL_GPTIMER1B")
    1178                            .dwattr $C$DW$113, DW_AT_const_value(0x03)
    1179                            .dwattr $C$DW$113, DW_AT_decl_file("C:\ti\simplelink_cc13x0_sdk_2_30_00_20\examples\rtos\CC135
    1180                            .dwattr $C$DW$113, DW_AT_decl_line(0x102)
    1181                            .dwattr $C$DW$113, DW_AT_decl_column(0x05)
    1182                    
    1183                    $C$DW$114       .dwtag  DW_TAG_enumerator
    1184                            .dwattr $C$DW$114, DW_AT_name("CC1350_LAUNCHXL_GPTIMER2A")
    1185                            .dwattr $C$DW$114, DW_AT_const_value(0x04)
    1186                            .dwattr $C$DW$114, DW_AT_decl_file("C:\ti\simplelink_cc13x0_sdk_2_30_00_20\examples\rtos\CC135
    1187                            .dwattr $C$DW$114, DW_AT_decl_line(0x103)
    1188                            .dwattr $C$DW$114, DW_AT_decl_column(0x05)
    1189                    
    1190                    $C$DW$115       .dwtag  DW_TAG_enumerator
    1191                            .dwattr $C$DW$115, DW_AT_name("CC1350_LAUNCHXL_GPTIMER2B")
    1192                            .dwattr $C$DW$115, DW_AT_const_value(0x05)
    1193                            .dwattr $C$DW$115, DW_AT_decl_file("C:\ti\simplelink_cc13x0_sdk_2_30_00_20\examples\rtos\CC135
    1194                            .dwattr $C$DW$115, DW_AT_decl_line(0x104)
    1195                            .dwattr $C$DW$115, DW_AT_decl_column(0x05)
    1196                    
    1197                    $C$DW$116       .dwtag  DW_TAG_enumerator
    1198                            .dwattr $C$DW$116, DW_AT_name("CC1350_LAUNCHXL_GPTIMER3A")
    1199                            .dwattr $C$DW$116, DW_AT_const_value(0x06)
    1200                            .dwattr $C$DW$116, DW_AT_decl_file("C:\ti\simplelink_cc13x0_sdk_2_30_00_20\examples\rtos\CC135
    1201                            .dwattr $C$DW$116, DW_AT_decl_line(0x105)
    1202                            .dwattr $C$DW$116, DW_AT_decl_column(0x05)
    1203                    
    1204                    $C$DW$117       .dwtag  DW_TAG_enumerator
    1205                            .dwattr $C$DW$117, DW_AT_name("CC1350_LAUNCHXL_GPTIMER3B")
    1206                            .dwattr $C$DW$117, DW_AT_const_value(0x07)
TI ARM Assembler PC v16.9.9 Sun Nov 25 19:10:01 2018

Tools Copyright (c) 1996-2017 Texas Instruments Incorporated
C:\Users\Stryd\AppData\Local\Temp\{FD2CD87D-546B-4571-BBC0-B7C5FCD47FA5} PAGE   23

    1207                            .dwattr $C$DW$117, DW_AT_decl_file("C:\ti\simplelink_cc13x0_sdk_2_30_00_20\examples\rtos\CC135
    1208                            .dwattr $C$DW$117, DW_AT_decl_line(0x106)
    1209                            .dwattr $C$DW$117, DW_AT_decl_column(0x05)
    1210                    
    1211                    $C$DW$118       .dwtag  DW_TAG_enumerator
    1212                            .dwattr $C$DW$118, DW_AT_name("CC1350_LAUNCHXL_GPTIMERPARTSCOUNT")
    1213                            .dwattr $C$DW$118, DW_AT_const_value(0x08)
    1214                            .dwattr $C$DW$118, DW_AT_decl_file("C:\ti\simplelink_cc13x0_sdk_2_30_00_20\examples\rtos\CC135
    1215                            .dwattr $C$DW$118, DW_AT_decl_line(0x108)
    1216                            .dwattr $C$DW$118, DW_AT_decl_column(0x05)
    1217                    
    1218                            .dwattr $C$DW$T$472, DW_AT_decl_file("C:\ti\simplelink_cc13x0_sdk_2_30_00_20\examples\rtos\CC1
    1219                            .dwattr $C$DW$T$472, DW_AT_decl_line(0xfe)
    1220                            .dwattr $C$DW$T$472, DW_AT_decl_column(0x0e)
    1221                            .dwendtag $C$DW$T$472
    1222                    
    1223                    $C$DW$T$473     .dwtag  DW_TAG_typedef
    1224                            .dwattr $C$DW$T$473, DW_AT_name("CC1350_LAUNCHXL_GPTimerName")
    1225                            .dwattr $C$DW$T$473, DW_AT_type(*$C$DW$T$472)
    1226                            .dwattr $C$DW$T$473, DW_AT_language(DW_LANG_C)
    1227                            .dwattr $C$DW$T$473, DW_AT_decl_file("C:\ti\simplelink_cc13x0_sdk_2_30_00_20\examples\rtos\CC1
    1228                            .dwattr $C$DW$T$473, DW_AT_decl_line(0x109)
    1229                            .dwattr $C$DW$T$473, DW_AT_decl_column(0x03)
    1230                    
    1231                    
    1232                    $C$DW$T$474     .dwtag  DW_TAG_enumeration_type
    1233                            .dwattr $C$DW$T$474, DW_AT_name("CC1350_LAUNCHXL_GPTimers")
    1234                            .dwattr $C$DW$T$474, DW_AT_byte_size(0x01)
    1235                    $C$DW$119       .dwtag  DW_TAG_enumerator
    1236                            .dwattr $C$DW$119, DW_AT_name("CC1350_LAUNCHXL_GPTIMER0")
    1237                            .dwattr $C$DW$119, DW_AT_const_value(0x00)
    1238                            .dwattr $C$DW$119, DW_AT_decl_file("C:\ti\simplelink_cc13x0_sdk_2_30_00_20\examples\rtos\CC135
    1239                            .dwattr $C$DW$119, DW_AT_decl_line(0x110)
    1240                            .dwattr $C$DW$119, DW_AT_decl_column(0x05)
    1241                    
    1242                    $C$DW$120       .dwtag  DW_TAG_enumerator
    1243                            .dwattr $C$DW$120, DW_AT_name("CC1350_LAUNCHXL_GPTIMER1")
    1244                            .dwattr $C$DW$120, DW_AT_const_value(0x01)
    1245                            .dwattr $C$DW$120, DW_AT_decl_file("C:\ti\simplelink_cc13x0_sdk_2_30_00_20\examples\rtos\CC135
    1246                            .dwattr $C$DW$120, DW_AT_decl_line(0x111)
    1247                            .dwattr $C$DW$120, DW_AT_decl_column(0x05)
    1248                    
    1249                    $C$DW$121       .dwtag  DW_TAG_enumerator
    1250                            .dwattr $C$DW$121, DW_AT_name("CC1350_LAUNCHXL_GPTIMER2")
    1251                            .dwattr $C$DW$121, DW_AT_const_value(0x02)
    1252                            .dwattr $C$DW$121, DW_AT_decl_file("C:\ti\simplelink_cc13x0_sdk_2_30_00_20\examples\rtos\CC135
    1253                            .dwattr $C$DW$121, DW_AT_decl_line(0x112)
    1254                            .dwattr $C$DW$121, DW_AT_decl_column(0x05)
    1255                    
    1256                    $C$DW$122       .dwtag  DW_TAG_enumerator
    1257                            .dwattr $C$DW$122, DW_AT_name("CC1350_LAUNCHXL_GPTIMER3")
    1258                            .dwattr $C$DW$122, DW_AT_const_value(0x03)
    1259                            .dwattr $C$DW$122, DW_AT_decl_file("C:\ti\simplelink_cc13x0_sdk_2_30_00_20\examples\rtos\CC135
    1260                            .dwattr $C$DW$122, DW_AT_decl_line(0x113)
    1261                            .dwattr $C$DW$122, DW_AT_decl_column(0x05)
TI ARM Assembler PC v16.9.9 Sun Nov 25 19:10:01 2018

Tools Copyright (c) 1996-2017 Texas Instruments Incorporated
C:\Users\Stryd\AppData\Local\Temp\{FD2CD87D-546B-4571-BBC0-B7C5FCD47FA5} PAGE   24

    1262                    
    1263                    $C$DW$123       .dwtag  DW_TAG_enumerator
    1264                            .dwattr $C$DW$123, DW_AT_name("CC1350_LAUNCHXL_GPTIMERCOUNT")
    1265                            .dwattr $C$DW$123, DW_AT_const_value(0x04)
    1266                            .dwattr $C$DW$123, DW_AT_decl_file("C:\ti\simplelink_cc13x0_sdk_2_30_00_20\examples\rtos\CC135
    1267                            .dwattr $C$DW$123, DW_AT_decl_line(0x115)
    1268                            .dwattr $C$DW$123, DW_AT_decl_column(0x05)
    1269                    
    1270                            .dwattr $C$DW$T$474, DW_AT_decl_file("C:\ti\simplelink_cc13x0_sdk_2_30_00_20\examples\rtos\CC1
    1271                            .dwattr $C$DW$T$474, DW_AT_decl_line(0x10f)
    1272                            .dwattr $C$DW$T$474, DW_AT_decl_column(0x0e)
    1273                            .dwendtag $C$DW$T$474
    1274                    
    1275                    $C$DW$T$475     .dwtag  DW_TAG_typedef
    1276                            .dwattr $C$DW$T$475, DW_AT_name("CC1350_LAUNCHXL_GPTimers")
    1277                            .dwattr $C$DW$T$475, DW_AT_type(*$C$DW$T$474)
    1278                            .dwattr $C$DW$T$475, DW_AT_language(DW_LANG_C)
    1279                            .dwattr $C$DW$T$475, DW_AT_decl_file("C:\ti\simplelink_cc13x0_sdk_2_30_00_20\examples\rtos\CC1
    1280                            .dwattr $C$DW$T$475, DW_AT_decl_line(0x116)
    1281                            .dwattr $C$DW$T$475, DW_AT_decl_column(0x03)
    1282                    
    1283                    
    1284                    $C$DW$T$476     .dwtag  DW_TAG_enumeration_type
    1285                            .dwattr $C$DW$T$476, DW_AT_name("CC1350_LAUNCHXL_I2CName")
    1286                            .dwattr $C$DW$T$476, DW_AT_byte_size(0x01)
    1287                    $C$DW$124       .dwtag  DW_TAG_enumerator
    1288                            .dwattr $C$DW$124, DW_AT_name("CC1350_LAUNCHXL_I2C0")
    1289                            .dwattr $C$DW$124, DW_AT_const_value(0x00)
    1290                            .dwattr $C$DW$124, DW_AT_decl_file("C:\ti\simplelink_cc13x0_sdk_2_30_00_20\examples\rtos\CC135
    1291                            .dwattr $C$DW$124, DW_AT_decl_line(0x11d)
    1292                            .dwattr $C$DW$124, DW_AT_decl_column(0x05)
    1293                    
    1294                    $C$DW$125       .dwtag  DW_TAG_enumerator
    1295                            .dwattr $C$DW$125, DW_AT_name("CC1350_LAUNCHXL_I2CCOUNT")
    1296                            .dwattr $C$DW$125, DW_AT_const_value(0x01)
    1297                            .dwattr $C$DW$125, DW_AT_decl_file("C:\ti\simplelink_cc13x0_sdk_2_30_00_20\examples\rtos\CC135
    1298                            .dwattr $C$DW$125, DW_AT_decl_line(0x11f)
    1299                            .dwattr $C$DW$125, DW_AT_decl_column(0x05)
    1300                    
    1301                            .dwattr $C$DW$T$476, DW_AT_decl_file("C:\ti\simplelink_cc13x0_sdk_2_30_00_20\examples\rtos\CC1
    1302                            .dwattr $C$DW$T$476, DW_AT_decl_line(0x11c)
    1303                            .dwattr $C$DW$T$476, DW_AT_decl_column(0x0e)
    1304                            .dwendtag $C$DW$T$476
    1305                    
    1306                    $C$DW$T$477     .dwtag  DW_TAG_typedef
    1307                            .dwattr $C$DW$T$477, DW_AT_name("CC1350_LAUNCHXL_I2CName")
    1308                            .dwattr $C$DW$T$477, DW_AT_type(*$C$DW$T$476)
    1309                            .dwattr $C$DW$T$477, DW_AT_language(DW_LANG_C)
    1310                            .dwattr $C$DW$T$477, DW_AT_decl_file("C:\ti\simplelink_cc13x0_sdk_2_30_00_20\examples\rtos\CC1
    1311                            .dwattr $C$DW$T$477, DW_AT_decl_line(0x120)
    1312                            .dwattr $C$DW$T$477, DW_AT_decl_column(0x03)
    1313                    
    1314                    
    1315                    $C$DW$T$478     .dwtag  DW_TAG_enumeration_type
    1316                            .dwattr $C$DW$T$478, DW_AT_name("CC1350_LAUNCHXL_NVSName")
TI ARM Assembler PC v16.9.9 Sun Nov 25 19:10:01 2018

Tools Copyright (c) 1996-2017 Texas Instruments Incorporated
C:\Users\Stryd\AppData\Local\Temp\{FD2CD87D-546B-4571-BBC0-B7C5FCD47FA5} PAGE   25

    1317                            .dwattr $C$DW$T$478, DW_AT_byte_size(0x01)
    1318                    $C$DW$126       .dwtag  DW_TAG_enumerator
    1319                            .dwattr $C$DW$126, DW_AT_name("CC1350_LAUNCHXL_NVSCC26XX0")
    1320                            .dwattr $C$DW$126, DW_AT_const_value(0x00)
    1321                            .dwattr $C$DW$126, DW_AT_decl_file("C:\ti\simplelink_cc13x0_sdk_2_30_00_20\examples\rtos\CC135
    1322                            .dwattr $C$DW$126, DW_AT_decl_line(0x128)
    1323                            .dwattr $C$DW$126, DW_AT_decl_column(0x05)
    1324                    
    1325                    $C$DW$127       .dwtag  DW_TAG_enumerator
    1326                            .dwattr $C$DW$127, DW_AT_name("CC1350_LAUNCHXL_NVSCOUNT")
    1327                            .dwattr $C$DW$127, DW_AT_const_value(0x01)
    1328                            .dwattr $C$DW$127, DW_AT_decl_file("C:\ti\simplelink_cc13x0_sdk_2_30_00_20\examples\rtos\CC135
    1329                            .dwattr $C$DW$127, DW_AT_decl_line(0x12e)
    1330                            .dwattr $C$DW$127, DW_AT_decl_column(0x05)
    1331                    
    1332                            .dwattr $C$DW$T$478, DW_AT_decl_file("C:\ti\simplelink_cc13x0_sdk_2_30_00_20\examples\rtos\CC1
    1333                            .dwattr $C$DW$T$478, DW_AT_decl_line(0x126)
    1334                            .dwattr $C$DW$T$478, DW_AT_decl_column(0x0e)
    1335                            .dwendtag $C$DW$T$478
    1336                    
    1337                    $C$DW$T$479     .dwtag  DW_TAG_typedef
    1338                            .dwattr $C$DW$T$479, DW_AT_name("CC1350_LAUNCHXL_NVSName")
    1339                            .dwattr $C$DW$T$479, DW_AT_type(*$C$DW$T$478)
    1340                            .dwattr $C$DW$T$479, DW_AT_language(DW_LANG_C)
    1341                            .dwattr $C$DW$T$479, DW_AT_decl_file("C:\ti\simplelink_cc13x0_sdk_2_30_00_20\examples\rtos\CC1
    1342                            .dwattr $C$DW$T$479, DW_AT_decl_line(0x12f)
    1343                            .dwattr $C$DW$T$479, DW_AT_decl_column(0x03)
    1344                    
    1345                    
    1346                    $C$DW$T$480     .dwtag  DW_TAG_enumeration_type
    1347                            .dwattr $C$DW$T$480, DW_AT_name("CC1350_LAUNCHXL_PWMName")
    1348                            .dwattr $C$DW$T$480, DW_AT_byte_size(0x01)
    1349                    $C$DW$128       .dwtag  DW_TAG_enumerator
    1350                            .dwattr $C$DW$128, DW_AT_name("CC1350_LAUNCHXL_PWM0")
    1351                            .dwattr $C$DW$128, DW_AT_const_value(0x00)
    1352                            .dwattr $C$DW$128, DW_AT_decl_file("C:\ti\simplelink_cc13x0_sdk_2_30_00_20\examples\rtos\CC135
    1353                            .dwattr $C$DW$128, DW_AT_decl_line(0x136)
    1354                            .dwattr $C$DW$128, DW_AT_decl_column(0x05)
    1355                    
    1356                    $C$DW$129       .dwtag  DW_TAG_enumerator
    1357                            .dwattr $C$DW$129, DW_AT_name("CC1350_LAUNCHXL_PWM1")
    1358                            .dwattr $C$DW$129, DW_AT_const_value(0x01)
    1359                            .dwattr $C$DW$129, DW_AT_decl_file("C:\ti\simplelink_cc13x0_sdk_2_30_00_20\examples\rtos\CC135
    1360                            .dwattr $C$DW$129, DW_AT_decl_line(0x137)
    1361                            .dwattr $C$DW$129, DW_AT_decl_column(0x05)
    1362                    
    1363                    $C$DW$130       .dwtag  DW_TAG_enumerator
    1364                            .dwattr $C$DW$130, DW_AT_name("CC1350_LAUNCHXL_PWM2")
    1365                            .dwattr $C$DW$130, DW_AT_const_value(0x02)
    1366                            .dwattr $C$DW$130, DW_AT_decl_file("C:\ti\simplelink_cc13x0_sdk_2_30_00_20\examples\rtos\CC135
    1367                            .dwattr $C$DW$130, DW_AT_decl_line(0x138)
    1368                            .dwattr $C$DW$130, DW_AT_decl_column(0x05)
    1369                    
    1370                    $C$DW$131       .dwtag  DW_TAG_enumerator
    1371                            .dwattr $C$DW$131, DW_AT_name("CC1350_LAUNCHXL_PWM3")
TI ARM Assembler PC v16.9.9 Sun Nov 25 19:10:01 2018

Tools Copyright (c) 1996-2017 Texas Instruments Incorporated
C:\Users\Stryd\AppData\Local\Temp\{FD2CD87D-546B-4571-BBC0-B7C5FCD47FA5} PAGE   26

    1372                            .dwattr $C$DW$131, DW_AT_const_value(0x03)
    1373                            .dwattr $C$DW$131, DW_AT_decl_file("C:\ti\simplelink_cc13x0_sdk_2_30_00_20\examples\rtos\CC135
    1374                            .dwattr $C$DW$131, DW_AT_decl_line(0x139)
    1375                            .dwattr $C$DW$131, DW_AT_decl_column(0x05)
    1376                    
    1377                    $C$DW$132       .dwtag  DW_TAG_enumerator
    1378                            .dwattr $C$DW$132, DW_AT_name("CC1350_LAUNCHXL_PWM4")
    1379                            .dwattr $C$DW$132, DW_AT_const_value(0x04)
    1380                            .dwattr $C$DW$132, DW_AT_decl_file("C:\ti\simplelink_cc13x0_sdk_2_30_00_20\examples\rtos\CC135
    1381                            .dwattr $C$DW$132, DW_AT_decl_line(0x13a)
    1382                            .dwattr $C$DW$132, DW_AT_decl_column(0x05)
    1383                    
    1384                    $C$DW$133       .dwtag  DW_TAG_enumerator
    1385                            .dwattr $C$DW$133, DW_AT_name("CC1350_LAUNCHXL_PWM5")
    1386                            .dwattr $C$DW$133, DW_AT_const_value(0x05)
    1387                            .dwattr $C$DW$133, DW_AT_decl_file("C:\ti\simplelink_cc13x0_sdk_2_30_00_20\examples\rtos\CC135
    1388                            .dwattr $C$DW$133, DW_AT_decl_line(0x13b)
    1389                            .dwattr $C$DW$133, DW_AT_decl_column(0x05)
    1390                    
    1391                    $C$DW$134       .dwtag  DW_TAG_enumerator
    1392                            .dwattr $C$DW$134, DW_AT_name("CC1350_LAUNCHXL_PWM6")
    1393                            .dwattr $C$DW$134, DW_AT_const_value(0x06)
    1394                            .dwattr $C$DW$134, DW_AT_decl_file("C:\ti\simplelink_cc13x0_sdk_2_30_00_20\examples\rtos\CC135
    1395                            .dwattr $C$DW$134, DW_AT_decl_line(0x13c)
    1396                            .dwattr $C$DW$134, DW_AT_decl_column(0x05)
    1397                    
    1398                    $C$DW$135       .dwtag  DW_TAG_enumerator
    1399                            .dwattr $C$DW$135, DW_AT_name("CC1350_LAUNCHXL_PWM7")
    1400                            .dwattr $C$DW$135, DW_AT_const_value(0x07)
    1401                            .dwattr $C$DW$135, DW_AT_decl_file("C:\ti\simplelink_cc13x0_sdk_2_30_00_20\examples\rtos\CC135
    1402                            .dwattr $C$DW$135, DW_AT_decl_line(0x13d)
    1403                            .dwattr $C$DW$135, DW_AT_decl_column(0x05)
    1404                    
    1405                    $C$DW$136       .dwtag  DW_TAG_enumerator
    1406                            .dwattr $C$DW$136, DW_AT_name("CC1350_LAUNCHXL_PWMCOUNT")
    1407                            .dwattr $C$DW$136, DW_AT_const_value(0x08)
    1408                            .dwattr $C$DW$136, DW_AT_decl_file("C:\ti\simplelink_cc13x0_sdk_2_30_00_20\examples\rtos\CC135
    1409                            .dwattr $C$DW$136, DW_AT_decl_line(0x13f)
    1410                            .dwattr $C$DW$136, DW_AT_decl_column(0x05)
    1411                    
    1412                            .dwattr $C$DW$T$480, DW_AT_decl_file("C:\ti\simplelink_cc13x0_sdk_2_30_00_20\examples\rtos\CC1
    1413                            .dwattr $C$DW$T$480, DW_AT_decl_line(0x135)
    1414                            .dwattr $C$DW$T$480, DW_AT_decl_column(0x0e)
    1415                            .dwendtag $C$DW$T$480
    1416                    
    1417                    $C$DW$T$481     .dwtag  DW_TAG_typedef
    1418                            .dwattr $C$DW$T$481, DW_AT_name("CC1350_LAUNCHXL_PWMName")
    1419                            .dwattr $C$DW$T$481, DW_AT_type(*$C$DW$T$480)
    1420                            .dwattr $C$DW$T$481, DW_AT_language(DW_LANG_C)
    1421                            .dwattr $C$DW$T$481, DW_AT_decl_file("C:\ti\simplelink_cc13x0_sdk_2_30_00_20\examples\rtos\CC1
    1422                            .dwattr $C$DW$T$481, DW_AT_decl_line(0x140)
    1423                            .dwattr $C$DW$T$481, DW_AT_decl_column(0x03)
    1424                    
    1425                    
    1426                    $C$DW$T$482     .dwtag  DW_TAG_enumeration_type
TI ARM Assembler PC v16.9.9 Sun Nov 25 19:10:01 2018

Tools Copyright (c) 1996-2017 Texas Instruments Incorporated
C:\Users\Stryd\AppData\Local\Temp\{FD2CD87D-546B-4571-BBC0-B7C5FCD47FA5} PAGE   27

    1427                            .dwattr $C$DW$T$482, DW_AT_name("CC1350_LAUNCHXL_SDName")
    1428                            .dwattr $C$DW$T$482, DW_AT_byte_size(0x01)
    1429                    $C$DW$137       .dwtag  DW_TAG_enumerator
    1430                            .dwattr $C$DW$137, DW_AT_name("CC1350_LAUNCHXL_SDSPI0")
    1431                            .dwattr $C$DW$137, DW_AT_const_value(0x00)
    1432                            .dwattr $C$DW$137, DW_AT_decl_file("C:\ti\simplelink_cc13x0_sdk_2_30_00_20\examples\rtos\CC135
    1433                            .dwattr $C$DW$137, DW_AT_decl_line(0x147)
    1434                            .dwattr $C$DW$137, DW_AT_decl_column(0x05)
    1435                    
    1436                    $C$DW$138       .dwtag  DW_TAG_enumerator
    1437                            .dwattr $C$DW$138, DW_AT_name("CC1350_LAUNCHXL_SDCOUNT")
    1438                            .dwattr $C$DW$138, DW_AT_const_value(0x01)
    1439                            .dwattr $C$DW$138, DW_AT_decl_file("C:\ti\simplelink_cc13x0_sdk_2_30_00_20\examples\rtos\CC135
    1440                            .dwattr $C$DW$138, DW_AT_decl_line(0x149)
    1441                            .dwattr $C$DW$138, DW_AT_decl_column(0x05)
    1442                    
    1443                            .dwattr $C$DW$T$482, DW_AT_decl_file("C:\ti\simplelink_cc13x0_sdk_2_30_00_20\examples\rtos\CC1
    1444                            .dwattr $C$DW$T$482, DW_AT_decl_line(0x146)
    1445                            .dwattr $C$DW$T$482, DW_AT_decl_column(0x0e)
    1446                            .dwendtag $C$DW$T$482
    1447                    
    1448                    $C$DW$T$483     .dwtag  DW_TAG_typedef
    1449                            .dwattr $C$DW$T$483, DW_AT_name("CC1350_LAUNCHXL_SDName")
    1450                            .dwattr $C$DW$T$483, DW_AT_type(*$C$DW$T$482)
    1451                            .dwattr $C$DW$T$483, DW_AT_language(DW_LANG_C)
    1452                            .dwattr $C$DW$T$483, DW_AT_decl_file("C:\ti\simplelink_cc13x0_sdk_2_30_00_20\examples\rtos\CC1
    1453                            .dwattr $C$DW$T$483, DW_AT_decl_line(0x14a)
    1454                            .dwattr $C$DW$T$483, DW_AT_decl_column(0x03)
    1455                    
    1456                    
    1457                    $C$DW$T$484     .dwtag  DW_TAG_enumeration_type
    1458                            .dwattr $C$DW$T$484, DW_AT_name("CC1350_LAUNCHXL_SPIName")
    1459                            .dwattr $C$DW$T$484, DW_AT_byte_size(0x01)
    1460                    $C$DW$139       .dwtag  DW_TAG_enumerator
    1461                            .dwattr $C$DW$139, DW_AT_name("CC1350_LAUNCHXL_SPI0")
    1462                            .dwattr $C$DW$139, DW_AT_const_value(0x00)
    1463                            .dwattr $C$DW$139, DW_AT_decl_file("C:\ti\simplelink_cc13x0_sdk_2_30_00_20\examples\rtos\CC135
    1464                            .dwattr $C$DW$139, DW_AT_decl_line(0x151)
    1465                            .dwattr $C$DW$139, DW_AT_decl_column(0x05)
    1466                    
    1467                    $C$DW$140       .dwtag  DW_TAG_enumerator
    1468                            .dwattr $C$DW$140, DW_AT_name("CC1350_LAUNCHXL_SPI1")
    1469                            .dwattr $C$DW$140, DW_AT_const_value(0x01)
    1470                            .dwattr $C$DW$140, DW_AT_decl_file("C:\ti\simplelink_cc13x0_sdk_2_30_00_20\examples\rtos\CC135
    1471                            .dwattr $C$DW$140, DW_AT_decl_line(0x152)
    1472                            .dwattr $C$DW$140, DW_AT_decl_column(0x05)
    1473                    
    1474                    $C$DW$141       .dwtag  DW_TAG_enumerator
    1475                            .dwattr $C$DW$141, DW_AT_name("CC1350_LAUNCHXL_SPICOUNT")
    1476                            .dwattr $C$DW$141, DW_AT_const_value(0x02)
    1477                            .dwattr $C$DW$141, DW_AT_decl_file("C:\ti\simplelink_cc13x0_sdk_2_30_00_20\examples\rtos\CC135
    1478                            .dwattr $C$DW$141, DW_AT_decl_line(0x154)
    1479                            .dwattr $C$DW$141, DW_AT_decl_column(0x05)
    1480                    
    1481                            .dwattr $C$DW$T$484, DW_AT_decl_file("C:\ti\simplelink_cc13x0_sdk_2_30_00_20\examples\rtos\CC1
TI ARM Assembler PC v16.9.9 Sun Nov 25 19:10:01 2018

Tools Copyright (c) 1996-2017 Texas Instruments Incorporated
C:\Users\Stryd\AppData\Local\Temp\{FD2CD87D-546B-4571-BBC0-B7C5FCD47FA5} PAGE   28

    1482                            .dwattr $C$DW$T$484, DW_AT_decl_line(0x150)
    1483                            .dwattr $C$DW$T$484, DW_AT_decl_column(0x0e)
    1484                            .dwendtag $C$DW$T$484
    1485                    
    1486                    $C$DW$T$485     .dwtag  DW_TAG_typedef
    1487                            .dwattr $C$DW$T$485, DW_AT_name("CC1350_LAUNCHXL_SPIName")
    1488                            .dwattr $C$DW$T$485, DW_AT_type(*$C$DW$T$484)
    1489                            .dwattr $C$DW$T$485, DW_AT_language(DW_LANG_C)
    1490                            .dwattr $C$DW$T$485, DW_AT_decl_file("C:\ti\simplelink_cc13x0_sdk_2_30_00_20\examples\rtos\CC1
    1491                            .dwattr $C$DW$T$485, DW_AT_decl_line(0x155)
    1492                            .dwattr $C$DW$T$485, DW_AT_decl_column(0x03)
    1493                    
    1494                    
    1495                    $C$DW$T$486     .dwtag  DW_TAG_enumeration_type
    1496                            .dwattr $C$DW$T$486, DW_AT_name("CC1350_LAUNCHXL_UARTName")
    1497                            .dwattr $C$DW$T$486, DW_AT_byte_size(0x01)
    1498                    $C$DW$142       .dwtag  DW_TAG_enumerator
    1499                            .dwattr $C$DW$142, DW_AT_name("CC1350_LAUNCHXL_UART0")
    1500                            .dwattr $C$DW$142, DW_AT_const_value(0x00)
    1501                            .dwattr $C$DW$142, DW_AT_decl_file("C:\ti\simplelink_cc13x0_sdk_2_30_00_20\examples\rtos\CC135
    1502                            .dwattr $C$DW$142, DW_AT_decl_line(0x15c)
    1503                            .dwattr $C$DW$142, DW_AT_decl_column(0x05)
    1504                    
    1505                    $C$DW$143       .dwtag  DW_TAG_enumerator
    1506                            .dwattr $C$DW$143, DW_AT_name("CC1350_LAUNCHXL_UARTCOUNT")
    1507                            .dwattr $C$DW$143, DW_AT_const_value(0x01)
    1508                            .dwattr $C$DW$143, DW_AT_decl_file("C:\ti\simplelink_cc13x0_sdk_2_30_00_20\examples\rtos\CC135
    1509                            .dwattr $C$DW$143, DW_AT_decl_line(0x15e)
    1510                            .dwattr $C$DW$143, DW_AT_decl_column(0x05)
    1511                    
    1512                            .dwattr $C$DW$T$486, DW_AT_decl_file("C:\ti\simplelink_cc13x0_sdk_2_30_00_20\examples\rtos\CC1
    1513                            .dwattr $C$DW$T$486, DW_AT_decl_line(0x15b)
    1514                            .dwattr $C$DW$T$486, DW_AT_decl_column(0x0e)
    1515                            .dwendtag $C$DW$T$486
    1516                    
    1517                    $C$DW$T$487     .dwtag  DW_TAG_typedef
    1518                            .dwattr $C$DW$T$487, DW_AT_name("CC1350_LAUNCHXL_UARTName")
    1519                            .dwattr $C$DW$T$487, DW_AT_type(*$C$DW$T$486)
    1520                            .dwattr $C$DW$T$487, DW_AT_language(DW_LANG_C)
    1521                            .dwattr $C$DW$T$487, DW_AT_decl_file("C:\ti\simplelink_cc13x0_sdk_2_30_00_20\examples\rtos\CC1
    1522                            .dwattr $C$DW$T$487, DW_AT_decl_line(0x15f)
    1523                            .dwattr $C$DW$T$487, DW_AT_decl_column(0x03)
    1524                    
    1525                    
    1526                    $C$DW$T$488     .dwtag  DW_TAG_enumeration_type
    1527                            .dwattr $C$DW$T$488, DW_AT_name("CC1350_LAUNCHXL_UDMAName")
    1528                            .dwattr $C$DW$T$488, DW_AT_byte_size(0x01)
    1529                    $C$DW$144       .dwtag  DW_TAG_enumerator
    1530                            .dwattr $C$DW$144, DW_AT_name("CC1350_LAUNCHXL_UDMA0")
    1531                            .dwattr $C$DW$144, DW_AT_const_value(0x00)
    1532                            .dwattr $C$DW$144, DW_AT_decl_file("C:\ti\simplelink_cc13x0_sdk_2_30_00_20\examples\rtos\CC135
    1533                            .dwattr $C$DW$144, DW_AT_decl_line(0x166)
    1534                            .dwattr $C$DW$144, DW_AT_decl_column(0x05)
    1535                    
    1536                    $C$DW$145       .dwtag  DW_TAG_enumerator
TI ARM Assembler PC v16.9.9 Sun Nov 25 19:10:01 2018

Tools Copyright (c) 1996-2017 Texas Instruments Incorporated
C:\Users\Stryd\AppData\Local\Temp\{FD2CD87D-546B-4571-BBC0-B7C5FCD47FA5} PAGE   29

    1537                            .dwattr $C$DW$145, DW_AT_name("CC1350_LAUNCHXL_UDMACOUNT")
    1538                            .dwattr $C$DW$145, DW_AT_const_value(0x01)
    1539                            .dwattr $C$DW$145, DW_AT_decl_file("C:\ti\simplelink_cc13x0_sdk_2_30_00_20\examples\rtos\CC135
    1540                            .dwattr $C$DW$145, DW_AT_decl_line(0x168)
    1541                            .dwattr $C$DW$145, DW_AT_decl_column(0x05)
    1542                    
    1543                            .dwattr $C$DW$T$488, DW_AT_decl_file("C:\ti\simplelink_cc13x0_sdk_2_30_00_20\examples\rtos\CC1
    1544                            .dwattr $C$DW$T$488, DW_AT_decl_line(0x165)
    1545                            .dwattr $C$DW$T$488, DW_AT_decl_column(0x0e)
    1546                            .dwendtag $C$DW$T$488
    1547                    
    1548                    $C$DW$T$489     .dwtag  DW_TAG_typedef
    1549                            .dwattr $C$DW$T$489, DW_AT_name("CC1350_LAUNCHXL_UDMAName")
    1550                            .dwattr $C$DW$T$489, DW_AT_type(*$C$DW$T$488)
    1551                            .dwattr $C$DW$T$489, DW_AT_language(DW_LANG_C)
    1552                            .dwattr $C$DW$T$489, DW_AT_decl_file("C:\ti\simplelink_cc13x0_sdk_2_30_00_20\examples\rtos\CC1
    1553                            .dwattr $C$DW$T$489, DW_AT_decl_line(0x169)
    1554                            .dwattr $C$DW$T$489, DW_AT_decl_column(0x03)
    1555                    
    1556                    
    1557                    $C$DW$T$490     .dwtag  DW_TAG_enumeration_type
    1558                            .dwattr $C$DW$T$490, DW_AT_name("CC1350_LAUNCHXL_WatchdogName")
    1559                            .dwattr $C$DW$T$490, DW_AT_byte_size(0x01)
    1560                    $C$DW$146       .dwtag  DW_TAG_enumerator
    1561                            .dwattr $C$DW$146, DW_AT_name("CC1350_LAUNCHXL_WATCHDOG0")
    1562                            .dwattr $C$DW$146, DW_AT_const_value(0x00)
    1563                            .dwattr $C$DW$146, DW_AT_decl_file("C:\ti\simplelink_cc13x0_sdk_2_30_00_20\examples\rtos\CC135
    1564                            .dwattr $C$DW$146, DW_AT_decl_line(0x170)
    1565                            .dwattr $C$DW$146, DW_AT_decl_column(0x05)
    1566                    
    1567                    $C$DW$147       .dwtag  DW_TAG_enumerator
    1568                            .dwattr $C$DW$147, DW_AT_name("CC1350_LAUNCHXL_WATCHDOGCOUNT")
    1569                            .dwattr $C$DW$147, DW_AT_const_value(0x01)
    1570                            .dwattr $C$DW$147, DW_AT_decl_file("C:\ti\simplelink_cc13x0_sdk_2_30_00_20\examples\rtos\CC135
    1571                            .dwattr $C$DW$147, DW_AT_decl_line(0x172)
    1572                            .dwattr $C$DW$147, DW_AT_decl_column(0x05)
    1573                    
    1574                            .dwattr $C$DW$T$490, DW_AT_decl_file("C:\ti\simplelink_cc13x0_sdk_2_30_00_20\examples\rtos\CC1
    1575                            .dwattr $C$DW$T$490, DW_AT_decl_line(0x16f)
    1576                            .dwattr $C$DW$T$490, DW_AT_decl_column(0x0e)
    1577                            .dwendtag $C$DW$T$490
    1578                    
    1579                    $C$DW$T$491     .dwtag  DW_TAG_typedef
    1580                            .dwattr $C$DW$T$491, DW_AT_name("CC1350_LAUNCHXL_WatchdogName")
    1581                            .dwattr $C$DW$T$491, DW_AT_type(*$C$DW$T$490)
    1582                            .dwattr $C$DW$T$491, DW_AT_language(DW_LANG_C)
    1583                            .dwattr $C$DW$T$491, DW_AT_decl_file("C:\ti\simplelink_cc13x0_sdk_2_30_00_20\examples\rtos\CC1
    1584                            .dwattr $C$DW$T$491, DW_AT_decl_line(0x173)
    1585                            .dwattr $C$DW$T$491, DW_AT_decl_column(0x03)
    1586                    
    1587                    
    1588                    $C$DW$T$134     .dwtag  DW_TAG_structure_type
    1589                            .dwattr $C$DW$T$134, DW_AT_name("DisplayGrLib_Object")
    1590                            .dwattr $C$DW$T$134, DW_AT_byte_size(0x1c)
    1591                    $C$DW$148       .dwtag  DW_TAG_member
TI ARM Assembler PC v16.9.9 Sun Nov 25 19:10:01 2018

Tools Copyright (c) 1996-2017 Texas Instruments Incorporated
C:\Users\Stryd\AppData\Local\Temp\{FD2CD87D-546B-4571-BBC0-B7C5FCD47FA5} PAGE   30

    1592                            .dwattr $C$DW$148, DW_AT_type(*$C$DW$T$133)
    1593                            .dwattr $C$DW$148, DW_AT_name("g_sContext")
    1594                            .dwattr $C$DW$148, DW_AT_TI_symbol_name("g_sContext")
    1595                            .dwattr $C$DW$148, DW_AT_data_member_location[DW_OP_plus_uconst 0x0]
    1596                            .dwattr $C$DW$148, DW_AT_accessibility(DW_ACCESS_public)
    1597                            .dwattr $C$DW$148, DW_AT_decl_file("C:/ti/simplelink_cc13x0_sdk_2_30_00_20/source/ti/display/D
    1598                            .dwattr $C$DW$148, DW_AT_decl_line(0x94)
    1599                            .dwattr $C$DW$148, DW_AT_decl_column(0x16)
    1600                    
    1601                            .dwattr $C$DW$T$134, DW_AT_decl_file("C:/ti/simplelink_cc13x0_sdk_2_30_00_20/source/ti/display
    1602                            .dwattr $C$DW$T$134, DW_AT_decl_line(0x92)
    1603                            .dwattr $C$DW$T$134, DW_AT_decl_column(0x10)
    1604                            .dwendtag $C$DW$T$134
    1605                    
    1606                    $C$DW$T$492     .dwtag  DW_TAG_typedef
    1607                            .dwattr $C$DW$T$492, DW_AT_name("DisplayGrLib_Object")
    1608                            .dwattr $C$DW$T$492, DW_AT_type(*$C$DW$T$134)
    1609                            .dwattr $C$DW$T$492, DW_AT_language(DW_LANG_C)
    1610                            .dwattr $C$DW$T$492, DW_AT_decl_file("C:/ti/simplelink_cc13x0_sdk_2_30_00_20/source/ti/display
    1611                            .dwattr $C$DW$T$492, DW_AT_decl_line(0x95)
    1612                            .dwattr $C$DW$T$492, DW_AT_decl_column(0x03)
    1613                    
    1614                    $C$DW$T$493     .dwtag  DW_TAG_pointer_type
    1615                            .dwattr $C$DW$T$493, DW_AT_type(*$C$DW$T$134)
    1616                            .dwattr $C$DW$T$493, DW_AT_address_class(0x20)
    1617                    
    1618                    $C$DW$T$494     .dwtag  DW_TAG_typedef
    1619                            .dwattr $C$DW$T$494, DW_AT_name("DisplayGrLib_Handle")
    1620                            .dwattr $C$DW$T$494, DW_AT_type(*$C$DW$T$493)
    1621                            .dwattr $C$DW$T$494, DW_AT_language(DW_LANG_C)
    1622                            .dwattr $C$DW$T$494, DW_AT_decl_file("C:/ti/simplelink_cc13x0_sdk_2_30_00_20/source/ti/display
    1623                            .dwattr $C$DW$T$494, DW_AT_decl_line(0x95)
    1624                            .dwattr $C$DW$T$494, DW_AT_decl_column(0x19)
    1625                    
    1626                    
    1627                    $C$DW$T$135     .dwtag  DW_TAG_structure_type
    1628                            .dwattr $C$DW$T$135, DW_AT_name("DisplaySharp_HWAttrsV1")
    1629                            .dwattr $C$DW$T$135, DW_AT_byte_size(0x18)
    1630                    $C$DW$149       .dwtag  DW_TAG_member
    1631                            .dwattr $C$DW$149, DW_AT_type(*$C$DW$T$86)
    1632                            .dwattr $C$DW$149, DW_AT_name("spiIndex")
    1633                            .dwattr $C$DW$149, DW_AT_TI_symbol_name("spiIndex")
    1634                            .dwattr $C$DW$149, DW_AT_data_member_location[DW_OP_plus_uconst 0x0]
    1635                            .dwattr $C$DW$149, DW_AT_accessibility(DW_ACCESS_public)
    1636                            .dwattr $C$DW$149, DW_AT_decl_file("C:/ti/simplelink_cc13x0_sdk_2_30_00_20/source/ti/display/D
    1637                            .dwattr $C$DW$149, DW_AT_decl_line(0x58)
    1638                            .dwattr $C$DW$149, DW_AT_decl_column(0x0e)
    1639                    
    1640                    $C$DW$150       .dwtag  DW_TAG_member
    1641                            .dwattr $C$DW$150, DW_AT_type(*$C$DW$T$86)
    1642                            .dwattr $C$DW$150, DW_AT_name("csPin")
    1643                            .dwattr $C$DW$150, DW_AT_TI_symbol_name("csPin")
    1644                            .dwattr $C$DW$150, DW_AT_data_member_location[DW_OP_plus_uconst 0x4]
    1645                            .dwattr $C$DW$150, DW_AT_accessibility(DW_ACCESS_public)
    1646                            .dwattr $C$DW$150, DW_AT_decl_file("C:/ti/simplelink_cc13x0_sdk_2_30_00_20/source/ti/display/D
TI ARM Assembler PC v16.9.9 Sun Nov 25 19:10:01 2018

Tools Copyright (c) 1996-2017 Texas Instruments Incorporated
C:\Users\Stryd\AppData\Local\Temp\{FD2CD87D-546B-4571-BBC0-B7C5FCD47FA5} PAGE   31

    1647                            .dwattr $C$DW$150, DW_AT_decl_line(0x59)
    1648                            .dwattr $C$DW$150, DW_AT_decl_column(0x0e)
    1649                    
    1650                    $C$DW$151       .dwtag  DW_TAG_member
    1651                            .dwattr $C$DW$151, DW_AT_type(*$C$DW$T$86)
    1652                            .dwattr $C$DW$151, DW_AT_name("powerPin")
    1653                            .dwattr $C$DW$151, DW_AT_TI_symbol_name("powerPin")
    1654                            .dwattr $C$DW$151, DW_AT_data_member_location[DW_OP_plus_uconst 0x8]
    1655                            .dwattr $C$DW$151, DW_AT_accessibility(DW_ACCESS_public)
    1656                            .dwattr $C$DW$151, DW_AT_decl_file("C:/ti/simplelink_cc13x0_sdk_2_30_00_20/source/ti/display/D
    1657                            .dwattr $C$DW$151, DW_AT_decl_line(0x5a)
    1658                            .dwattr $C$DW$151, DW_AT_decl_column(0x0e)
    1659                    
    1660                    $C$DW$152       .dwtag  DW_TAG_member
    1661                            .dwattr $C$DW$152, DW_AT_type(*$C$DW$T$86)
    1662                            .dwattr $C$DW$152, DW_AT_name("enablePin")
    1663                            .dwattr $C$DW$152, DW_AT_TI_symbol_name("enablePin")
    1664                            .dwattr $C$DW$152, DW_AT_data_member_location[DW_OP_plus_uconst 0xc]
    1665                            .dwattr $C$DW$152, DW_AT_accessibility(DW_ACCESS_public)
    1666                            .dwattr $C$DW$152, DW_AT_decl_file("C:/ti/simplelink_cc13x0_sdk_2_30_00_20/source/ti/display/D
    1667                            .dwattr $C$DW$152, DW_AT_decl_line(0x5b)
    1668                            .dwattr $C$DW$152, DW_AT_decl_column(0x0e)
    1669                    
    1670                    $C$DW$153       .dwtag  DW_TAG_member
    1671                            .dwattr $C$DW$153, DW_AT_type(*$C$DW$T$105)
    1672                            .dwattr $C$DW$153, DW_AT_name("pixelHeight")
    1673                            .dwattr $C$DW$153, DW_AT_TI_symbol_name("pixelHeight")
    1674                            .dwattr $C$DW$153, DW_AT_data_member_location[DW_OP_plus_uconst 0x10]
    1675                            .dwattr $C$DW$153, DW_AT_accessibility(DW_ACCESS_public)
    1676                            .dwattr $C$DW$153, DW_AT_decl_file("C:/ti/simplelink_cc13x0_sdk_2_30_00_20/source/ti/display/D
    1677                            .dwattr $C$DW$153, DW_AT_decl_line(0x5c)
    1678                            .dwattr $C$DW$153, DW_AT_decl_column(0x0e)
    1679                    
    1680                    $C$DW$154       .dwtag  DW_TAG_member
    1681                            .dwattr $C$DW$154, DW_AT_type(*$C$DW$T$105)
    1682                            .dwattr $C$DW$154, DW_AT_name("pixelWidth")
    1683                            .dwattr $C$DW$154, DW_AT_TI_symbol_name("pixelWidth")
    1684                            .dwattr $C$DW$154, DW_AT_data_member_location[DW_OP_plus_uconst 0x12]
    1685                            .dwattr $C$DW$154, DW_AT_accessibility(DW_ACCESS_public)
    1686                            .dwattr $C$DW$154, DW_AT_decl_file("C:/ti/simplelink_cc13x0_sdk_2_30_00_20/source/ti/display/D
    1687                            .dwattr $C$DW$154, DW_AT_decl_line(0x5d)
    1688                            .dwattr $C$DW$154, DW_AT_decl_column(0x0e)
    1689                    
    1690                    $C$DW$155       .dwtag  DW_TAG_member
    1691                            .dwattr $C$DW$155, DW_AT_type(*$C$DW$T$3)
    1692                            .dwattr $C$DW$155, DW_AT_name("displayBuf")
    1693                            .dwattr $C$DW$155, DW_AT_TI_symbol_name("displayBuf")
    1694                            .dwattr $C$DW$155, DW_AT_data_member_location[DW_OP_plus_uconst 0x14]
    1695                            .dwattr $C$DW$155, DW_AT_accessibility(DW_ACCESS_public)
    1696                            .dwattr $C$DW$155, DW_AT_decl_file("C:/ti/simplelink_cc13x0_sdk_2_30_00_20/source/ti/display/D
    1697                            .dwattr $C$DW$155, DW_AT_decl_line(0x5e)
    1698                            .dwattr $C$DW$155, DW_AT_decl_column(0x0e)
    1699                    
    1700                            .dwattr $C$DW$T$135, DW_AT_decl_file("C:/ti/simplelink_cc13x0_sdk_2_30_00_20/source/ti/display
    1701                            .dwattr $C$DW$T$135, DW_AT_decl_line(0x56)
TI ARM Assembler PC v16.9.9 Sun Nov 25 19:10:01 2018

Tools Copyright (c) 1996-2017 Texas Instruments Incorporated
C:\Users\Stryd\AppData\Local\Temp\{FD2CD87D-546B-4571-BBC0-B7C5FCD47FA5} PAGE   32

    1702                            .dwattr $C$DW$T$135, DW_AT_decl_column(0x10)
    1703                            .dwendtag $C$DW$T$135
    1704                    
    1705                    $C$DW$T$495     .dwtag  DW_TAG_typedef
    1706                            .dwattr $C$DW$T$495, DW_AT_name("DisplaySharp_HWAttrsV1")
    1707                            .dwattr $C$DW$T$495, DW_AT_type(*$C$DW$T$135)
    1708                            .dwattr $C$DW$T$495, DW_AT_language(DW_LANG_C)
    1709                            .dwattr $C$DW$T$495, DW_AT_decl_file("C:/ti/simplelink_cc13x0_sdk_2_30_00_20/source/ti/display
    1710                            .dwattr $C$DW$T$495, DW_AT_decl_line(0x5f)
    1711                            .dwattr $C$DW$T$495, DW_AT_decl_column(0x03)
    1712                    
    1713                    
    1714                    $C$DW$T$143     .dwtag  DW_TAG_structure_type
    1715                            .dwattr $C$DW$T$143, DW_AT_name("DisplaySharp_Object")
    1716                            .dwattr $C$DW$T$143, DW_AT_byte_size(0x44)
    1717                    $C$DW$156       .dwtag  DW_TAG_member
    1718                            .dwattr $C$DW$156, DW_AT_type(*$C$DW$T$133)
    1719                            .dwattr $C$DW$156, DW_AT_name("g_sContext")
    1720                            .dwattr $C$DW$156, DW_AT_TI_symbol_name("g_sContext")
    1721                            .dwattr $C$DW$156, DW_AT_data_member_location[DW_OP_plus_uconst 0x0]
    1722                            .dwattr $C$DW$156, DW_AT_accessibility(DW_ACCESS_public)
    1723                            .dwattr $C$DW$156, DW_AT_decl_file("C:/ti/simplelink_cc13x0_sdk_2_30_00_20/source/ti/display/D
    1724                            .dwattr $C$DW$156, DW_AT_decl_line(0x66)
    1725                            .dwattr $C$DW$156, DW_AT_decl_column(0x1b)
    1726                    
    1727                    $C$DW$157       .dwtag  DW_TAG_member
    1728                            .dwattr $C$DW$157, DW_AT_type(*$C$DW$T$137)
    1729                            .dwattr $C$DW$157, DW_AT_name("hSpi")
    1730                            .dwattr $C$DW$157, DW_AT_TI_symbol_name("hSpi")
    1731                            .dwattr $C$DW$157, DW_AT_data_member_location[DW_OP_plus_uconst 0x1c]
    1732                            .dwattr $C$DW$157, DW_AT_accessibility(DW_ACCESS_public)
    1733                            .dwattr $C$DW$157, DW_AT_decl_file("C:/ti/simplelink_cc13x0_sdk_2_30_00_20/source/ti/display/D
    1734                            .dwattr $C$DW$157, DW_AT_decl_line(0x67)
    1735                            .dwattr $C$DW$157, DW_AT_decl_column(0x1b)
    1736                    
    1737                    $C$DW$158       .dwtag  DW_TAG_member
    1738                            .dwattr $C$DW$158, DW_AT_type(*$C$DW$T$139)
    1739                            .dwattr $C$DW$158, DW_AT_name("lineClearMode")
    1740                            .dwattr $C$DW$158, DW_AT_TI_symbol_name("lineClearMode")
    1741                            .dwattr $C$DW$158, DW_AT_data_member_location[DW_OP_plus_uconst 0x20]
    1742                            .dwattr $C$DW$158, DW_AT_accessibility(DW_ACCESS_public)
    1743                            .dwattr $C$DW$158, DW_AT_decl_file("C:/ti/simplelink_cc13x0_sdk_2_30_00_20/source/ti/display/D
    1744                            .dwattr $C$DW$158, DW_AT_decl_line(0x68)
    1745                            .dwattr $C$DW$158, DW_AT_decl_column(0x1b)
    1746                    
    1747                    $C$DW$159       .dwtag  DW_TAG_member
    1748                            .dwattr $C$DW$159, DW_AT_type(*$C$DW$T$140)
    1749                            .dwattr $C$DW$159, DW_AT_name("g_sDisplay")
    1750                            .dwattr $C$DW$159, DW_AT_TI_symbol_name("g_sDisplay")
    1751                            .dwattr $C$DW$159, DW_AT_data_member_location[DW_OP_plus_uconst 0x24]
    1752                            .dwattr $C$DW$159, DW_AT_accessibility(DW_ACCESS_public)
    1753                            .dwattr $C$DW$159, DW_AT_decl_file("C:/ti/simplelink_cc13x0_sdk_2_30_00_20/source/ti/display/D
    1754                            .dwattr $C$DW$159, DW_AT_decl_line(0x69)
    1755                            .dwattr $C$DW$159, DW_AT_decl_column(0x1b)
    1756                    
TI ARM Assembler PC v16.9.9 Sun Nov 25 19:10:01 2018

Tools Copyright (c) 1996-2017 Texas Instruments Incorporated
C:\Users\Stryd\AppData\Local\Temp\{FD2CD87D-546B-4571-BBC0-B7C5FCD47FA5} PAGE   33

    1757                    $C$DW$160       .dwtag  DW_TAG_member
    1758                            .dwattr $C$DW$160, DW_AT_type(*$C$DW$T$141)
    1759                            .dwattr $C$DW$160, DW_AT_name("displayColor")
    1760                            .dwattr $C$DW$160, DW_AT_TI_symbol_name("displayColor")
    1761                            .dwattr $C$DW$160, DW_AT_data_member_location[DW_OP_plus_uconst 0x34]
    1762                            .dwattr $C$DW$160, DW_AT_accessibility(DW_ACCESS_public)
    1763                            .dwattr $C$DW$160, DW_AT_decl_file("C:/ti/simplelink_cc13x0_sdk_2_30_00_20/source/ti/display/D
    1764                            .dwattr $C$DW$160, DW_AT_decl_line(0x6a)
    1765                            .dwattr $C$DW$160, DW_AT_decl_column(0x1b)
    1766                    
    1767                    $C$DW$161       .dwtag  DW_TAG_member
    1768                            .dwattr $C$DW$161, DW_AT_type(*$C$DW$T$142)
    1769                            .dwattr $C$DW$161, DW_AT_name("semLCD")
    1770                            .dwattr $C$DW$161, DW_AT_TI_symbol_name("semLCD")
    1771                            .dwattr $C$DW$161, DW_AT_data_member_location[DW_OP_plus_uconst 0x3c]
    1772                            .dwattr $C$DW$161, DW_AT_accessibility(DW_ACCESS_public)
    1773                            .dwattr $C$DW$161, DW_AT_decl_file("C:/ti/simplelink_cc13x0_sdk_2_30_00_20/source/ti/display/D
    1774                            .dwattr $C$DW$161, DW_AT_decl_line(0x6b)
    1775                            .dwattr $C$DW$161, DW_AT_decl_column(0x1b)
    1776                    
    1777                    $C$DW$162       .dwtag  DW_TAG_member
    1778                            .dwattr $C$DW$162, DW_AT_type(*$C$DW$T$89)
    1779                            .dwattr $C$DW$162, DW_AT_name("displayBuffer")
    1780                            .dwattr $C$DW$162, DW_AT_TI_symbol_name("displayBuffer")
    1781                            .dwattr $C$DW$162, DW_AT_data_member_location[DW_OP_plus_uconst 0x40]
    1782                            .dwattr $C$DW$162, DW_AT_accessibility(DW_ACCESS_public)
    1783                            .dwattr $C$DW$162, DW_AT_decl_file("C:/ti/simplelink_cc13x0_sdk_2_30_00_20/source/ti/display/D
    1784                            .dwattr $C$DW$162, DW_AT_decl_line(0x6c)
    1785                            .dwattr $C$DW$162, DW_AT_decl_column(0x1b)
    1786                    
    1787                            .dwattr $C$DW$T$143, DW_AT_decl_file("C:/ti/simplelink_cc13x0_sdk_2_30_00_20/source/ti/display
    1788                            .dwattr $C$DW$T$143, DW_AT_decl_line(0x64)
    1789                            .dwattr $C$DW$T$143, DW_AT_decl_column(0x10)
    1790                            .dwendtag $C$DW$T$143
    1791                    
    1792                    $C$DW$T$496     .dwtag  DW_TAG_typedef
    1793                            .dwattr $C$DW$T$496, DW_AT_name("DisplaySharp_Object")
    1794                            .dwattr $C$DW$T$496, DW_AT_type(*$C$DW$T$143)
    1795                            .dwattr $C$DW$T$496, DW_AT_language(DW_LANG_C)
    1796                            .dwattr $C$DW$T$496, DW_AT_decl_file("C:/ti/simplelink_cc13x0_sdk_2_30_00_20/source/ti/display
    1797                            .dwattr $C$DW$T$496, DW_AT_decl_line(0x6d)
    1798                            .dwattr $C$DW$T$496, DW_AT_decl_column(0x03)
    1799                    
    1800                    $C$DW$T$497     .dwtag  DW_TAG_pointer_type
    1801                            .dwattr $C$DW$T$497, DW_AT_type(*$C$DW$T$143)
    1802                            .dwattr $C$DW$T$497, DW_AT_address_class(0x20)
    1803                    
    1804                    $C$DW$T$498     .dwtag  DW_TAG_typedef
    1805                            .dwattr $C$DW$T$498, DW_AT_name("DisplaySharp_Handle")
    1806                            .dwattr $C$DW$T$498, DW_AT_type(*$C$DW$T$497)
    1807                            .dwattr $C$DW$T$498, DW_AT_language(DW_LANG_C)
    1808                            .dwattr $C$DW$T$498, DW_AT_decl_file("C:/ti/simplelink_cc13x0_sdk_2_30_00_20/source/ti/display
    1809                            .dwattr $C$DW$T$498, DW_AT_decl_line(0x6d)
    1810                            .dwattr $C$DW$T$498, DW_AT_decl_column(0x19)
    1811                    
TI ARM Assembler PC v16.9.9 Sun Nov 25 19:10:01 2018

Tools Copyright (c) 1996-2017 Texas Instruments Incorporated
C:\Users\Stryd\AppData\Local\Temp\{FD2CD87D-546B-4571-BBC0-B7C5FCD47FA5} PAGE   34

    1812                    
    1813                    $C$DW$T$149     .dwtag  DW_TAG_structure_type
    1814                            .dwattr $C$DW$T$149, DW_AT_name("Display_Config")
    1815                            .dwattr $C$DW$T$149, DW_AT_byte_size(0x0c)
    1816                    $C$DW$163       .dwtag  DW_TAG_member
    1817                            .dwattr $C$DW$163, DW_AT_type(*$C$DW$T$146)
    1818                            .dwattr $C$DW$163, DW_AT_name("fxnTablePtr")
    1819                            .dwattr $C$DW$163, DW_AT_TI_symbol_name("fxnTablePtr")
    1820                            .dwattr $C$DW$163, DW_AT_data_member_location[DW_OP_plus_uconst 0x0]
    1821                            .dwattr $C$DW$163, DW_AT_accessibility(DW_ACCESS_public)
    1822                            .dwattr $C$DW$163, DW_AT_decl_file("C:/ti/simplelink_cc13x0_sdk_2_30_00_20/source/ti/display/D
    1823                            .dwattr $C$DW$163, DW_AT_decl_line(0x210)
    1824                            .dwattr $C$DW$163, DW_AT_decl_column(0x1d)
    1825                    
    1826                    $C$DW$164       .dwtag  DW_TAG_member
    1827                            .dwattr $C$DW$164, DW_AT_type(*$C$DW$T$3)
    1828                            .dwattr $C$DW$164, DW_AT_name("object")
    1829                            .dwattr $C$DW$164, DW_AT_TI_symbol_name("object")
    1830                            .dwattr $C$DW$164, DW_AT_data_member_location[DW_OP_plus_uconst 0x4]
    1831                            .dwattr $C$DW$164, DW_AT_accessibility(DW_ACCESS_public)
    1832                            .dwattr $C$DW$164, DW_AT_decl_file("C:/ti/simplelink_cc13x0_sdk_2_30_00_20/source/ti/display/D
    1833                            .dwattr $C$DW$164, DW_AT_decl_line(0x213)
    1834                            .dwattr $C$DW$164, DW_AT_decl_column(0x1d)
    1835                    
    1836                    $C$DW$165       .dwtag  DW_TAG_member
    1837                            .dwattr $C$DW$165, DW_AT_type(*$C$DW$T$148)
    1838                            .dwattr $C$DW$165, DW_AT_name("hwAttrs")
    1839                            .dwattr $C$DW$165, DW_AT_TI_symbol_name("hwAttrs")
    1840                            .dwattr $C$DW$165, DW_AT_data_member_location[DW_OP_plus_uconst 0x8]
    1841                            .dwattr $C$DW$165, DW_AT_accessibility(DW_ACCESS_public)
    1842                            .dwattr $C$DW$165, DW_AT_decl_file("C:/ti/simplelink_cc13x0_sdk_2_30_00_20/source/ti/display/D
    1843                            .dwattr $C$DW$165, DW_AT_decl_line(0x216)
    1844                            .dwattr $C$DW$165, DW_AT_decl_column(0x1d)
    1845                    
    1846                            .dwattr $C$DW$T$149, DW_AT_decl_file("C:/ti/simplelink_cc13x0_sdk_2_30_00_20/source/ti/display
    1847                            .dwattr $C$DW$T$149, DW_AT_decl_line(0x20d)
    1848                            .dwattr $C$DW$T$149, DW_AT_decl_column(0x10)
    1849                            .dwendtag $C$DW$T$149
    1850                    
    1851                    $C$DW$T$499     .dwtag  DW_TAG_typedef
    1852                            .dwattr $C$DW$T$499, DW_AT_name("Display_Config")
    1853                            .dwattr $C$DW$T$499, DW_AT_type(*$C$DW$T$149)
    1854                            .dwattr $C$DW$T$499, DW_AT_language(DW_LANG_C)
    1855                            .dwattr $C$DW$T$499, DW_AT_decl_file("C:/ti/simplelink_cc13x0_sdk_2_30_00_20/source/ti/display
    1856                            .dwattr $C$DW$T$499, DW_AT_decl_line(0x217)
    1857                            .dwattr $C$DW$T$499, DW_AT_decl_column(0x03)
    1858                    
    1859                    $C$DW$T$150     .dwtag  DW_TAG_pointer_type
    1860                            .dwattr $C$DW$T$150, DW_AT_type(*$C$DW$T$149)
    1861                            .dwattr $C$DW$T$150, DW_AT_address_class(0x20)
    1862                    
    1863                    $C$DW$T$151     .dwtag  DW_TAG_typedef
    1864                            .dwattr $C$DW$T$151, DW_AT_name("Display_Handle")
    1865                            .dwattr $C$DW$T$151, DW_AT_type(*$C$DW$T$150)
    1866                            .dwattr $C$DW$T$151, DW_AT_language(DW_LANG_C)
TI ARM Assembler PC v16.9.9 Sun Nov 25 19:10:01 2018

Tools Copyright (c) 1996-2017 Texas Instruments Incorporated
C:\Users\Stryd\AppData\Local\Temp\{FD2CD87D-546B-4571-BBC0-B7C5FCD47FA5} PAGE   35

    1867                            .dwattr $C$DW$T$151, DW_AT_decl_file("C:/ti/simplelink_cc13x0_sdk_2_30_00_20/source/ti/display
    1868                            .dwattr $C$DW$T$151, DW_AT_decl_line(0x1a0)
    1869                            .dwattr $C$DW$T$151, DW_AT_decl_column(0x21)
    1870                    
    1871                    
    1872                    $C$DW$T$157     .dwtag  DW_TAG_subroutine_type
    1873                            .dwattr $C$DW$T$157, DW_AT_type(*$C$DW$T$151)
    1874                            .dwattr $C$DW$T$157, DW_AT_language(DW_LANG_C)
    1875                    $C$DW$166       .dwtag  DW_TAG_formal_parameter
    1876                            .dwattr $C$DW$166, DW_AT_type(*$C$DW$T$151)
    1877                    
    1878                    $C$DW$167       .dwtag  DW_TAG_formal_parameter
    1879                            .dwattr $C$DW$167, DW_AT_type(*$C$DW$T$156)
    1880                    
    1881                            .dwendtag $C$DW$T$157
    1882                    
    1883                    $C$DW$T$158     .dwtag  DW_TAG_pointer_type
    1884                            .dwattr $C$DW$T$158, DW_AT_type(*$C$DW$T$157)
    1885                            .dwattr $C$DW$T$158, DW_AT_address_class(0x20)
    1886                    
    1887                    $C$DW$T$159     .dwtag  DW_TAG_typedef
    1888                            .dwattr $C$DW$T$159, DW_AT_name("Display_openFxn")
    1889                            .dwattr $C$DW$T$159, DW_AT_type(*$C$DW$T$158)
    1890                            .dwattr $C$DW$T$159, DW_AT_language(DW_LANG_C)
    1891                            .dwattr $C$DW$T$159, DW_AT_decl_file("C:/ti/simplelink_cc13x0_sdk_2_30_00_20/source/ti/display
    1892                            .dwattr $C$DW$T$159, DW_AT_decl_line(0x1c4)
    1893                            .dwattr $C$DW$T$159, DW_AT_decl_column(0x1a)
    1894                    
    1895                    
    1896                    $C$DW$T$177     .dwtag  DW_TAG_structure_type
    1897                            .dwattr $C$DW$T$177, DW_AT_name("Display_FxnTable")
    1898                            .dwattr $C$DW$T$177, DW_AT_byte_size(0x20)
    1899                    $C$DW$168       .dwtag  DW_TAG_member
    1900                            .dwattr $C$DW$168, DW_AT_type(*$C$DW$T$154)
    1901                            .dwattr $C$DW$168, DW_AT_name("initFxn")
    1902                            .dwattr $C$DW$168, DW_AT_TI_symbol_name("initFxn")
    1903                            .dwattr $C$DW$168, DW_AT_data_member_location[DW_OP_plus_uconst 0x0]
    1904                            .dwattr $C$DW$168, DW_AT_accessibility(DW_ACCESS_public)
    1905                            .dwattr $C$DW$168, DW_AT_decl_file("C:/ti/simplelink_cc13x0_sdk_2_30_00_20/source/ti/display/D
    1906                            .dwattr $C$DW$168, DW_AT_decl_line(0x1f8)
    1907                            .dwattr $C$DW$168, DW_AT_decl_column(0x1b)
    1908                    
    1909                    $C$DW$169       .dwtag  DW_TAG_member
    1910                            .dwattr $C$DW$169, DW_AT_type(*$C$DW$T$159)
    1911                            .dwattr $C$DW$169, DW_AT_name("openFxn")
    1912                            .dwattr $C$DW$169, DW_AT_TI_symbol_name("openFxn")
    1913                            .dwattr $C$DW$169, DW_AT_data_member_location[DW_OP_plus_uconst 0x4]
    1914                            .dwattr $C$DW$169, DW_AT_accessibility(DW_ACCESS_public)
    1915                            .dwattr $C$DW$169, DW_AT_decl_file("C:/ti/simplelink_cc13x0_sdk_2_30_00_20/source/ti/display/D
    1916                            .dwattr $C$DW$169, DW_AT_decl_line(0x1f9)
    1917                            .dwattr $C$DW$169, DW_AT_decl_column(0x1b)
    1918                    
    1919                    $C$DW$170       .dwtag  DW_TAG_member
    1920                            .dwattr $C$DW$170, DW_AT_type(*$C$DW$T$160)
    1921                            .dwattr $C$DW$170, DW_AT_name("clearFxn")
TI ARM Assembler PC v16.9.9 Sun Nov 25 19:10:01 2018

Tools Copyright (c) 1996-2017 Texas Instruments Incorporated
C:\Users\Stryd\AppData\Local\Temp\{FD2CD87D-546B-4571-BBC0-B7C5FCD47FA5} PAGE   36

    1922                            .dwattr $C$DW$170, DW_AT_TI_symbol_name("clearFxn")
    1923                            .dwattr $C$DW$170, DW_AT_data_member_location[DW_OP_plus_uconst 0x8]
    1924                            .dwattr $C$DW$170, DW_AT_accessibility(DW_ACCESS_public)
    1925                            .dwattr $C$DW$170, DW_AT_decl_file("C:/ti/simplelink_cc13x0_sdk_2_30_00_20/source/ti/display/D
    1926                            .dwattr $C$DW$170, DW_AT_decl_line(0x1fa)
    1927                            .dwattr $C$DW$170, DW_AT_decl_column(0x1b)
    1928                    
    1929                    $C$DW$171       .dwtag  DW_TAG_member
    1930                            .dwattr $C$DW$171, DW_AT_type(*$C$DW$T$163)
    1931                            .dwattr $C$DW$171, DW_AT_name("clearLinesFxn")
    1932                            .dwattr $C$DW$171, DW_AT_TI_symbol_name("clearLinesFxn")
    1933                            .dwattr $C$DW$171, DW_AT_data_member_location[DW_OP_plus_uconst 0xc]
    1934                            .dwattr $C$DW$171, DW_AT_accessibility(DW_ACCESS_public)
    1935                            .dwattr $C$DW$171, DW_AT_decl_file("C:/ti/simplelink_cc13x0_sdk_2_30_00_20/source/ti/display/D
    1936                            .dwattr $C$DW$171, DW_AT_decl_line(0x1fb)
    1937                            .dwattr $C$DW$171, DW_AT_decl_column(0x1b)
    1938                    
    1939                    $C$DW$172       .dwtag  DW_TAG_member
    1940                            .dwattr $C$DW$172, DW_AT_type(*$C$DW$T$169)
    1941                            .dwattr $C$DW$172, DW_AT_name("vprintfFxn")
    1942                            .dwattr $C$DW$172, DW_AT_TI_symbol_name("vprintfFxn")
    1943                            .dwattr $C$DW$172, DW_AT_data_member_location[DW_OP_plus_uconst 0x10]
    1944                            .dwattr $C$DW$172, DW_AT_accessibility(DW_ACCESS_public)
    1945                            .dwattr $C$DW$172, DW_AT_decl_file("C:/ti/simplelink_cc13x0_sdk_2_30_00_20/source/ti/display/D
    1946                            .dwattr $C$DW$172, DW_AT_decl_line(0x1fc)
    1947                            .dwattr $C$DW$172, DW_AT_decl_column(0x1b)
    1948                    
    1949                    $C$DW$173       .dwtag  DW_TAG_member
    1950                            .dwattr $C$DW$173, DW_AT_type(*$C$DW$T$170)
    1951                            .dwattr $C$DW$173, DW_AT_name("closeFxn")
    1952                            .dwattr $C$DW$173, DW_AT_TI_symbol_name("closeFxn")
    1953                            .dwattr $C$DW$173, DW_AT_data_member_location[DW_OP_plus_uconst 0x14]
    1954                            .dwattr $C$DW$173, DW_AT_accessibility(DW_ACCESS_public)
    1955                            .dwattr $C$DW$173, DW_AT_decl_file("C:/ti/simplelink_cc13x0_sdk_2_30_00_20/source/ti/display/D
    1956                            .dwattr $C$DW$173, DW_AT_decl_line(0x1fd)
    1957                            .dwattr $C$DW$173, DW_AT_decl_column(0x1b)
    1958                    
    1959                    $C$DW$174       .dwtag  DW_TAG_member
    1960                            .dwattr $C$DW$174, DW_AT_type(*$C$DW$T$173)
    1961                            .dwattr $C$DW$174, DW_AT_name("controlFxn")
    1962                            .dwattr $C$DW$174, DW_AT_TI_symbol_name("controlFxn")
    1963                            .dwattr $C$DW$174, DW_AT_data_member_location[DW_OP_plus_uconst 0x18]
    1964                            .dwattr $C$DW$174, DW_AT_accessibility(DW_ACCESS_public)
    1965                            .dwattr $C$DW$174, DW_AT_decl_file("C:/ti/simplelink_cc13x0_sdk_2_30_00_20/source/ti/display/D
    1966                            .dwattr $C$DW$174, DW_AT_decl_line(0x1fe)
    1967                            .dwattr $C$DW$174, DW_AT_decl_column(0x1b)
    1968                    
    1969                    $C$DW$175       .dwtag  DW_TAG_member
    1970                            .dwattr $C$DW$175, DW_AT_type(*$C$DW$T$176)
    1971                            .dwattr $C$DW$175, DW_AT_name("getTypeFxn")
    1972                            .dwattr $C$DW$175, DW_AT_TI_symbol_name("getTypeFxn")
    1973                            .dwattr $C$DW$175, DW_AT_data_member_location[DW_OP_plus_uconst 0x1c]
    1974                            .dwattr $C$DW$175, DW_AT_accessibility(DW_ACCESS_public)
    1975                            .dwattr $C$DW$175, DW_AT_decl_file("C:/ti/simplelink_cc13x0_sdk_2_30_00_20/source/ti/display/D
    1976                            .dwattr $C$DW$175, DW_AT_decl_line(0x1ff)
TI ARM Assembler PC v16.9.9 Sun Nov 25 19:10:01 2018

Tools Copyright (c) 1996-2017 Texas Instruments Incorporated
C:\Users\Stryd\AppData\Local\Temp\{FD2CD87D-546B-4571-BBC0-B7C5FCD47FA5} PAGE   37

    1977                            .dwattr $C$DW$175, DW_AT_decl_column(0x1b)
    1978                    
    1979                            .dwattr $C$DW$T$177, DW_AT_decl_file("C:/ti/simplelink_cc13x0_sdk_2_30_00_20/source/ti/display
    1980                            .dwattr $C$DW$T$177, DW_AT_decl_line(0x1f6)
    1981                            .dwattr $C$DW$T$177, DW_AT_decl_column(0x10)
    1982                            .dwendtag $C$DW$T$177
    1983                    
    1984                    $C$DW$T$144     .dwtag  DW_TAG_typedef
    1985                            .dwattr $C$DW$T$144, DW_AT_name("Display_FxnTable")
    1986                            .dwattr $C$DW$T$144, DW_AT_type(*$C$DW$T$177)
    1987                            .dwattr $C$DW$T$144, DW_AT_language(DW_LANG_C)
    1988                            .dwattr $C$DW$T$144, DW_AT_decl_file("C:/ti/simplelink_cc13x0_sdk_2_30_00_20/source/ti/display
    1989                            .dwattr $C$DW$T$144, DW_AT_decl_line(0x200)
    1990                            .dwattr $C$DW$T$144, DW_AT_decl_column(0x03)
    1991                    
    1992                    $C$DW$T$145     .dwtag  DW_TAG_const_type
    1993                            .dwattr $C$DW$T$145, DW_AT_type(*$C$DW$T$144)
    1994                    
    1995                    $C$DW$T$146     .dwtag  DW_TAG_pointer_type
    1996                            .dwattr $C$DW$T$146, DW_AT_type(*$C$DW$T$145)
    1997                            .dwattr $C$DW$T$146, DW_AT_address_class(0x20)
    1998                    
    1999                    
    2000                    $C$DW$T$138     .dwtag  DW_TAG_enumeration_type
    2001                            .dwattr $C$DW$T$138, DW_AT_name("Display_LineClearMode")
    2002                            .dwattr $C$DW$T$138, DW_AT_byte_size(0x01)
    2003                    $C$DW$176       .dwtag  DW_TAG_enumerator
    2004                            .dwattr $C$DW$176, DW_AT_name("DISPLAY_CLEAR_NONE")
    2005                            .dwattr $C$DW$176, DW_AT_const_value(0x00)
    2006                            .dwattr $C$DW$176, DW_AT_decl_file("C:/ti/simplelink_cc13x0_sdk_2_30_00_20/source/ti/display/D
    2007                            .dwattr $C$DW$176, DW_AT_decl_line(0x1ad)
    2008                            .dwattr $C$DW$176, DW_AT_decl_column(0x05)
    2009                    
    2010                    $C$DW$177       .dwtag  DW_TAG_enumerator
    2011                            .dwattr $C$DW$177, DW_AT_name("DISPLAY_CLEAR_LEFT")
    2012                            .dwattr $C$DW$177, DW_AT_const_value(0x01)
    2013                            .dwattr $C$DW$177, DW_AT_decl_file("C:/ti/simplelink_cc13x0_sdk_2_30_00_20/source/ti/display/D
    2014                            .dwattr $C$DW$177, DW_AT_decl_line(0x1ae)
    2015                            .dwattr $C$DW$177, DW_AT_decl_column(0x05)
    2016                    
    2017                    $C$DW$178       .dwtag  DW_TAG_enumerator
    2018                            .dwattr $C$DW$178, DW_AT_name("DISPLAY_CLEAR_RIGHT")
    2019                            .dwattr $C$DW$178, DW_AT_const_value(0x02)
    2020                            .dwattr $C$DW$178, DW_AT_decl_file("C:/ti/simplelink_cc13x0_sdk_2_30_00_20/source/ti/display/D
    2021                            .dwattr $C$DW$178, DW_AT_decl_line(0x1af)
    2022                            .dwattr $C$DW$178, DW_AT_decl_column(0x05)
    2023                    
    2024                    $C$DW$179       .dwtag  DW_TAG_enumerator
    2025                            .dwattr $C$DW$179, DW_AT_name("DISPLAY_CLEAR_BOTH")
    2026                            .dwattr $C$DW$179, DW_AT_const_value(0x03)
    2027                            .dwattr $C$DW$179, DW_AT_decl_file("C:/ti/simplelink_cc13x0_sdk_2_30_00_20/source/ti/display/D
    2028                            .dwattr $C$DW$179, DW_AT_decl_line(0x1b0)
    2029                            .dwattr $C$DW$179, DW_AT_decl_column(0x05)
    2030                    
    2031                            .dwattr $C$DW$T$138, DW_AT_decl_file("C:/ti/simplelink_cc13x0_sdk_2_30_00_20/source/ti/display
TI ARM Assembler PC v16.9.9 Sun Nov 25 19:10:01 2018

Tools Copyright (c) 1996-2017 Texas Instruments Incorporated
C:\Users\Stryd\AppData\Local\Temp\{FD2CD87D-546B-4571-BBC0-B7C5FCD47FA5} PAGE   38

    2032                            .dwattr $C$DW$T$138, DW_AT_decl_line(0x1ab)
    2033                            .dwattr $C$DW$T$138, DW_AT_decl_column(0x0e)
    2034                            .dwendtag $C$DW$T$138
    2035                    
    2036                    $C$DW$T$139     .dwtag  DW_TAG_typedef
    2037                            .dwattr $C$DW$T$139, DW_AT_name("Display_LineClearMode")
    2038                            .dwattr $C$DW$T$139, DW_AT_type(*$C$DW$T$138)
    2039                            .dwattr $C$DW$T$139, DW_AT_language(DW_LANG_C)
    2040                            .dwattr $C$DW$T$139, DW_AT_decl_file("C:/ti/simplelink_cc13x0_sdk_2_30_00_20/source/ti/display
    2041                            .dwattr $C$DW$T$139, DW_AT_decl_line(0x1b1)
    2042                            .dwattr $C$DW$T$139, DW_AT_decl_column(0x03)
    2043                    
    2044                    
    2045                    $C$DW$T$178     .dwtag  DW_TAG_structure_type
    2046                            .dwattr $C$DW$T$178, DW_AT_name("Display_Params")
    2047                            .dwattr $C$DW$T$178, DW_AT_byte_size(0x01)
    2048                    $C$DW$180       .dwtag  DW_TAG_member
    2049                            .dwattr $C$DW$180, DW_AT_type(*$C$DW$T$139)
    2050                            .dwattr $C$DW$180, DW_AT_name("lineClearMode")
    2051                            .dwattr $C$DW$180, DW_AT_TI_symbol_name("lineClearMode")
    2052                            .dwattr $C$DW$180, DW_AT_data_member_location[DW_OP_plus_uconst 0x0]
    2053                            .dwattr $C$DW$180, DW_AT_accessibility(DW_ACCESS_public)
    2054                            .dwattr $C$DW$180, DW_AT_decl_file("C:/ti/simplelink_cc13x0_sdk_2_30_00_20/source/ti/display/D
    2055                            .dwattr $C$DW$180, DW_AT_decl_line(0x1bd)
    2056                            .dwattr $C$DW$180, DW_AT_decl_column(0x1b)
    2057                    
    2058                            .dwattr $C$DW$T$178, DW_AT_decl_file("C:/ti/simplelink_cc13x0_sdk_2_30_00_20/source/ti/display
    2059                            .dwattr $C$DW$T$178, DW_AT_decl_line(0x1bb)
    2060                            .dwattr $C$DW$T$178, DW_AT_decl_column(0x10)
    2061                            .dwendtag $C$DW$T$178
    2062                    
    2063                    $C$DW$T$155     .dwtag  DW_TAG_typedef
    2064                            .dwattr $C$DW$T$155, DW_AT_name("Display_Params")
    2065                            .dwattr $C$DW$T$155, DW_AT_type(*$C$DW$T$178)
    2066                            .dwattr $C$DW$T$155, DW_AT_language(DW_LANG_C)
    2067                            .dwattr $C$DW$T$155, DW_AT_decl_file("C:/ti/simplelink_cc13x0_sdk_2_30_00_20/source/ti/display
    2068                            .dwattr $C$DW$T$155, DW_AT_decl_line(0x1be)
    2069                            .dwattr $C$DW$T$155, DW_AT_decl_column(0x03)
    2070                    
    2071                    $C$DW$T$156     .dwtag  DW_TAG_pointer_type
    2072                            .dwattr $C$DW$T$156, DW_AT_type(*$C$DW$T$155)
    2073                            .dwattr $C$DW$T$156, DW_AT_address_class(0x20)
    2074                    
    2075                    
    2076                    $C$DW$T$186     .dwtag  DW_TAG_structure_type
    2077                            .dwattr $C$DW$T$186, DW_AT_name("Graphics_Context")
    2078                            .dwattr $C$DW$T$186, DW_AT_byte_size(0x1c)
    2079                    $C$DW$181       .dwtag  DW_TAG_member
    2080                            .dwattr $C$DW$181, DW_AT_type(*$C$DW$T$179)
    2081                            .dwattr $C$DW$181, DW_AT_name("size")
    2082                            .dwattr $C$DW$181, DW_AT_TI_symbol_name("size")
    2083                            .dwattr $C$DW$181, DW_AT_data_member_location[DW_OP_plus_uconst 0x0]
    2084                            .dwattr $C$DW$181, DW_AT_accessibility(DW_ACCESS_public)
    2085                            .dwattr $C$DW$181, DW_AT_decl_file("C:/ti/simplelink_cc13x0_sdk_2_30_00_20/source/ti/grlib/grl
    2086                            .dwattr $C$DW$181, DW_AT_decl_line(0xe8)
TI ARM Assembler PC v16.9.9 Sun Nov 25 19:10:01 2018

Tools Copyright (c) 1996-2017 Texas Instruments Incorporated
C:\Users\Stryd\AppData\Local\Temp\{FD2CD87D-546B-4571-BBC0-B7C5FCD47FA5} PAGE   39

    2087                            .dwattr $C$DW$181, DW_AT_decl_column(0x0d)
    2088                    
    2089                    $C$DW$182       .dwtag  DW_TAG_member
    2090                            .dwattr $C$DW$182, DW_AT_type(*$C$DW$T$181)
    2091                            .dwattr $C$DW$182, DW_AT_name("display")
    2092                            .dwattr $C$DW$182, DW_AT_TI_symbol_name("display")
    2093                            .dwattr $C$DW$182, DW_AT_data_member_location[DW_OP_plus_uconst 0x4]
    2094                            .dwattr $C$DW$182, DW_AT_accessibility(DW_ACCESS_public)
    2095                            .dwattr $C$DW$182, DW_AT_decl_file("C:/ti/simplelink_cc13x0_sdk_2_30_00_20/source/ti/grlib/grl
    2096                            .dwattr $C$DW$182, DW_AT_decl_line(0xe9)
    2097                            .dwattr $C$DW$182, DW_AT_decl_column(0x1d)
    2098                    
    2099                    $C$DW$183       .dwtag  DW_TAG_member
    2100                            .dwattr $C$DW$183, DW_AT_type(*$C$DW$T$182)
    2101                            .dwattr $C$DW$183, DW_AT_name("clipRegion")
    2102                            .dwattr $C$DW$183, DW_AT_TI_symbol_name("clipRegion")
    2103                            .dwattr $C$DW$183, DW_AT_data_member_location[DW_OP_plus_uconst 0x8]
    2104                            .dwattr $C$DW$183, DW_AT_accessibility(DW_ACCESS_public)
    2105                            .dwattr $C$DW$183, DW_AT_decl_file("C:/ti/simplelink_cc13x0_sdk_2_30_00_20/source/ti/grlib/grl
    2106                            .dwattr $C$DW$183, DW_AT_decl_line(0xea)
    2107                            .dwattr $C$DW$183, DW_AT_decl_column(0x18)
    2108                    
    2109                    $C$DW$184       .dwtag  DW_TAG_member
    2110                            .dwattr $C$DW$184, DW_AT_type(*$C$DW$T$86)
    2111                            .dwattr $C$DW$184, DW_AT_name("foreground")
    2112                            .dwattr $C$DW$184, DW_AT_TI_symbol_name("foreground")
    2113                            .dwattr $C$DW$184, DW_AT_data_member_location[DW_OP_plus_uconst 0x10]
    2114                            .dwattr $C$DW$184, DW_AT_accessibility(DW_ACCESS_public)
    2115                            .dwattr $C$DW$184, DW_AT_decl_file("C:/ti/simplelink_cc13x0_sdk_2_30_00_20/source/ti/grlib/grl
    2116                            .dwattr $C$DW$184, DW_AT_decl_line(0xeb)
    2117                            .dwattr $C$DW$184, DW_AT_decl_column(0x0e)
    2118                    
    2119                    $C$DW$185       .dwtag  DW_TAG_member
    2120                            .dwattr $C$DW$185, DW_AT_type(*$C$DW$T$86)
    2121                            .dwattr $C$DW$185, DW_AT_name("background")
    2122                            .dwattr $C$DW$185, DW_AT_TI_symbol_name("background")
    2123                            .dwattr $C$DW$185, DW_AT_data_member_location[DW_OP_plus_uconst 0x14]
    2124                            .dwattr $C$DW$185, DW_AT_accessibility(DW_ACCESS_public)
    2125                            .dwattr $C$DW$185, DW_AT_decl_file("C:/ti/simplelink_cc13x0_sdk_2_30_00_20/source/ti/grlib/grl
    2126                            .dwattr $C$DW$185, DW_AT_decl_line(0xec)
    2127                            .dwattr $C$DW$185, DW_AT_decl_column(0x0e)
    2128                    
    2129                    $C$DW$186       .dwtag  DW_TAG_member
    2130                            .dwattr $C$DW$186, DW_AT_type(*$C$DW$T$185)
    2131                            .dwattr $C$DW$186, DW_AT_name("font")
    2132                            .dwattr $C$DW$186, DW_AT_TI_symbol_name("font")
    2133                            .dwattr $C$DW$186, DW_AT_data_member_location[DW_OP_plus_uconst 0x18]
    2134                            .dwattr $C$DW$186, DW_AT_accessibility(DW_ACCESS_public)
    2135                            .dwattr $C$DW$186, DW_AT_decl_file("C:/ti/simplelink_cc13x0_sdk_2_30_00_20/source/ti/grlib/grl
    2136                            .dwattr $C$DW$186, DW_AT_decl_line(0xed)
    2137                            .dwattr $C$DW$186, DW_AT_decl_column(0x1a)
    2138                    
    2139                            .dwattr $C$DW$T$186, DW_AT_decl_file("C:/ti/simplelink_cc13x0_sdk_2_30_00_20/source/ti/grlib/g
    2140                            .dwattr $C$DW$T$186, DW_AT_decl_line(0xe6)
    2141                            .dwattr $C$DW$T$186, DW_AT_decl_column(0x10)
TI ARM Assembler PC v16.9.9 Sun Nov 25 19:10:01 2018

Tools Copyright (c) 1996-2017 Texas Instruments Incorporated
C:\Users\Stryd\AppData\Local\Temp\{FD2CD87D-546B-4571-BBC0-B7C5FCD47FA5} PAGE   40

    2142                            .dwendtag $C$DW$T$186
    2143                    
    2144                    $C$DW$T$133     .dwtag  DW_TAG_typedef
    2145                            .dwattr $C$DW$T$133, DW_AT_name("Graphics_Context")
    2146                            .dwattr $C$DW$T$133, DW_AT_type(*$C$DW$T$186)
    2147                            .dwattr $C$DW$T$133, DW_AT_language(DW_LANG_C)
    2148                            .dwattr $C$DW$T$133, DW_AT_decl_file("C:/ti/simplelink_cc13x0_sdk_2_30_00_20/source/ti/grlib/g
    2149                            .dwattr $C$DW$T$133, DW_AT_decl_line(0xee)
    2150                            .dwattr $C$DW$T$133, DW_AT_decl_column(0x03)
    2151                    
    2152                    
    2153                    $C$DW$T$190     .dwtag  DW_TAG_structure_type
    2154                            .dwattr $C$DW$T$190, DW_AT_name("Graphics_Display")
    2155                            .dwattr $C$DW$T$190, DW_AT_byte_size(0x10)
    2156                    $C$DW$187       .dwtag  DW_TAG_member
    2157                            .dwattr $C$DW$187, DW_AT_type(*$C$DW$T$179)
    2158                            .dwattr $C$DW$187, DW_AT_name("size")
    2159                            .dwattr $C$DW$187, DW_AT_TI_symbol_name("size")
    2160                            .dwattr $C$DW$187, DW_AT_data_member_location[DW_OP_plus_uconst 0x0]
    2161                            .dwattr $C$DW$187, DW_AT_accessibility(DW_ACCESS_public)
    2162                            .dwattr $C$DW$187, DW_AT_decl_file("C:/ti/simplelink_cc13x0_sdk_2_30_00_20/source/ti/grlib/grl
    2163                            .dwattr $C$DW$187, DW_AT_decl_line(0xb2)
    2164                            .dwattr $C$DW$187, DW_AT_decl_column(0x0d)
    2165                    
    2166                    $C$DW$188       .dwtag  DW_TAG_member
    2167                            .dwattr $C$DW$188, DW_AT_type(*$C$DW$T$3)
    2168                            .dwattr $C$DW$188, DW_AT_name("displayData")
    2169                            .dwattr $C$DW$188, DW_AT_TI_symbol_name("displayData")
    2170                            .dwattr $C$DW$188, DW_AT_data_member_location[DW_OP_plus_uconst 0x4]
    2171                            .dwattr $C$DW$188, DW_AT_accessibility(DW_ACCESS_public)
    2172                            .dwattr $C$DW$188, DW_AT_decl_file("C:/ti/simplelink_cc13x0_sdk_2_30_00_20/source/ti/grlib/grl
    2173                            .dwattr $C$DW$188, DW_AT_decl_line(0xb3)
    2174                            .dwattr $C$DW$188, DW_AT_decl_column(0x0b)
    2175                    
    2176                    $C$DW$189       .dwtag  DW_TAG_member
    2177                            .dwattr $C$DW$189, DW_AT_type(*$C$DW$T$105)
    2178                            .dwattr $C$DW$189, DW_AT_name("width")
    2179                            .dwattr $C$DW$189, DW_AT_TI_symbol_name("width")
    2180                            .dwattr $C$DW$189, DW_AT_data_member_location[DW_OP_plus_uconst 0x8]
    2181                            .dwattr $C$DW$189, DW_AT_accessibility(DW_ACCESS_public)
    2182                            .dwattr $C$DW$189, DW_AT_decl_file("C:/ti/simplelink_cc13x0_sdk_2_30_00_20/source/ti/grlib/grl
    2183                            .dwattr $C$DW$189, DW_AT_decl_line(0xb4)
    2184                            .dwattr $C$DW$189, DW_AT_decl_column(0x0e)
    2185                    
    2186                    $C$DW$190       .dwtag  DW_TAG_member
    2187                            .dwattr $C$DW$190, DW_AT_type(*$C$DW$T$105)
    2188                            .dwattr $C$DW$190, DW_AT_name("heigth")
    2189                            .dwattr $C$DW$190, DW_AT_TI_symbol_name("heigth")
    2190                            .dwattr $C$DW$190, DW_AT_data_member_location[DW_OP_plus_uconst 0xa]
    2191                            .dwattr $C$DW$190, DW_AT_accessibility(DW_ACCESS_public)
    2192                            .dwattr $C$DW$190, DW_AT_decl_file("C:/ti/simplelink_cc13x0_sdk_2_30_00_20/source/ti/grlib/grl
    2193                            .dwattr $C$DW$190, DW_AT_decl_line(0xb5)
    2194                            .dwattr $C$DW$190, DW_AT_decl_column(0x0e)
    2195                    
    2196                    $C$DW$191       .dwtag  DW_TAG_member
TI ARM Assembler PC v16.9.9 Sun Nov 25 19:10:01 2018

Tools Copyright (c) 1996-2017 Texas Instruments Incorporated
C:\Users\Stryd\AppData\Local\Temp\{FD2CD87D-546B-4571-BBC0-B7C5FCD47FA5} PAGE   41

    2197                            .dwattr $C$DW$191, DW_AT_type(*$C$DW$T$189)
    2198                            .dwattr $C$DW$191, DW_AT_name("pFxns")
    2199                            .dwattr $C$DW$191, DW_AT_TI_symbol_name("pFxns")
    2200                            .dwattr $C$DW$191, DW_AT_data_member_location[DW_OP_plus_uconst 0xc]
    2201                            .dwattr $C$DW$191, DW_AT_accessibility(DW_ACCESS_public)
    2202                            .dwattr $C$DW$191, DW_AT_decl_file("C:/ti/simplelink_cc13x0_sdk_2_30_00_20/source/ti/grlib/grl
    2203                            .dwattr $C$DW$191, DW_AT_decl_line(0xb6)
    2204                            .dwattr $C$DW$191, DW_AT_decl_column(0x27)
    2205                    
    2206                            .dwattr $C$DW$T$190, DW_AT_decl_file("C:/ti/simplelink_cc13x0_sdk_2_30_00_20/source/ti/grlib/g
    2207                            .dwattr $C$DW$T$190, DW_AT_decl_line(0xb0)
    2208                            .dwattr $C$DW$T$190, DW_AT_decl_column(0x08)
    2209                            .dwendtag $C$DW$T$190
    2210                    
    2211                    $C$DW$T$140     .dwtag  DW_TAG_typedef
    2212                            .dwattr $C$DW$T$140, DW_AT_name("Graphics_Display")
    2213                            .dwattr $C$DW$T$140, DW_AT_type(*$C$DW$T$190)
    2214                            .dwattr $C$DW$T$140, DW_AT_language(DW_LANG_C)
    2215                            .dwattr $C$DW$T$140, DW_AT_decl_file("C:/ti/simplelink_cc13x0_sdk_2_30_00_20/source/ti/grlib/g
    2216                            .dwattr $C$DW$T$140, DW_AT_decl_line(0x66)
    2217                            .dwattr $C$DW$T$140, DW_AT_decl_column(0x21)
    2218                    
    2219                    $C$DW$T$180     .dwtag  DW_TAG_const_type
    2220                            .dwattr $C$DW$T$180, DW_AT_type(*$C$DW$T$140)
    2221                    
    2222                    $C$DW$T$181     .dwtag  DW_TAG_pointer_type
    2223                            .dwattr $C$DW$T$181, DW_AT_type(*$C$DW$T$180)
    2224                            .dwattr $C$DW$T$181, DW_AT_address_class(0x20)
    2225                    
    2226                    
    2227                    $C$DW$T$219     .dwtag  DW_TAG_structure_type
    2228                            .dwattr $C$DW$T$219, DW_AT_name("Graphics_Display_Functions")
    2229                            .dwattr $C$DW$T$219, DW_AT_byte_size(0x20)
    2230                    $C$DW$192       .dwtag  DW_TAG_member
    2231                            .dwattr $C$DW$192, DW_AT_type(*$C$DW$T$194)
    2232                            .dwattr $C$DW$192, DW_AT_name("pfnPixelDraw")
    2233                            .dwattr $C$DW$192, DW_AT_TI_symbol_name("pfnPixelDraw")
    2234                            .dwattr $C$DW$192, DW_AT_data_member_location[DW_OP_plus_uconst 0x0]
    2235                            .dwattr $C$DW$192, DW_AT_accessibility(DW_ACCESS_public)
    2236                            .dwattr $C$DW$192, DW_AT_decl_file("C:/ti/simplelink_cc13x0_sdk_2_30_00_20/source/ti/grlib/grl
    2237                            .dwattr $C$DW$192, DW_AT_decl_line(0x72)
    2238                            .dwattr $C$DW$192, DW_AT_decl_column(0x12)
    2239                    
    2240                    $C$DW$193       .dwtag  DW_TAG_member
    2241                            .dwattr $C$DW$193, DW_AT_type(*$C$DW$T$201)
    2242                            .dwattr $C$DW$193, DW_AT_name("pfnPixelDrawMultiple")
    2243                            .dwattr $C$DW$193, DW_AT_TI_symbol_name("pfnPixelDrawMultiple")
    2244                            .dwattr $C$DW$193, DW_AT_data_member_location[DW_OP_plus_uconst 0x4]
    2245                            .dwattr $C$DW$193, DW_AT_accessibility(DW_ACCESS_public)
    2246                            .dwattr $C$DW$193, DW_AT_decl_file("C:/ti/simplelink_cc13x0_sdk_2_30_00_20/source/ti/grlib/grl
    2247                            .dwattr $C$DW$193, DW_AT_decl_line(0x79)
    2248                            .dwattr $C$DW$193, DW_AT_decl_column(0x12)
    2249                    
    2250                    $C$DW$194       .dwtag  DW_TAG_member
    2251                            .dwattr $C$DW$194, DW_AT_type(*$C$DW$T$204)
TI ARM Assembler PC v16.9.9 Sun Nov 25 19:10:01 2018

Tools Copyright (c) 1996-2017 Texas Instruments Incorporated
C:\Users\Stryd\AppData\Local\Temp\{FD2CD87D-546B-4571-BBC0-B7C5FCD47FA5} PAGE   42

    2252                            .dwattr $C$DW$194, DW_AT_name("pfnLineDrawH")
    2253                            .dwattr $C$DW$194, DW_AT_TI_symbol_name("pfnLineDrawH")
    2254                            .dwattr $C$DW$194, DW_AT_data_member_location[DW_OP_plus_uconst 0x8]
    2255                            .dwattr $C$DW$194, DW_AT_accessibility(DW_ACCESS_public)
    2256                            .dwattr $C$DW$194, DW_AT_decl_file("C:/ti/simplelink_cc13x0_sdk_2_30_00_20/source/ti/grlib/grl
    2257                            .dwattr $C$DW$194, DW_AT_decl_line(0x83)
    2258                            .dwattr $C$DW$194, DW_AT_decl_column(0x12)
    2259                    
    2260                    $C$DW$195       .dwtag  DW_TAG_member
    2261                            .dwattr $C$DW$195, DW_AT_type(*$C$DW$T$204)
    2262                            .dwattr $C$DW$195, DW_AT_name("pfnLineDrawV")
    2263                            .dwattr $C$DW$195, DW_AT_TI_symbol_name("pfnLineDrawV")
    2264                            .dwattr $C$DW$195, DW_AT_data_member_location[DW_OP_plus_uconst 0xc]
    2265                            .dwattr $C$DW$195, DW_AT_accessibility(DW_ACCESS_public)
    2266                            .dwattr $C$DW$195, DW_AT_decl_file("C:/ti/simplelink_cc13x0_sdk_2_30_00_20/source/ti/grlib/grl
    2267                            .dwattr $C$DW$195, DW_AT_decl_line(0x8a)
    2268                            .dwattr $C$DW$195, DW_AT_decl_column(0x12)
    2269                    
    2270                    $C$DW$196       .dwtag  DW_TAG_member
    2271                            .dwattr $C$DW$196, DW_AT_type(*$C$DW$T$209)
    2272                            .dwattr $C$DW$196, DW_AT_name("pfnRectFill")
    2273                            .dwattr $C$DW$196, DW_AT_TI_symbol_name("pfnRectFill")
    2274                            .dwattr $C$DW$196, DW_AT_data_member_location[DW_OP_plus_uconst 0x10]
    2275                            .dwattr $C$DW$196, DW_AT_accessibility(DW_ACCESS_public)
    2276                            .dwattr $C$DW$196, DW_AT_decl_file("C:/ti/simplelink_cc13x0_sdk_2_30_00_20/source/ti/grlib/grl
    2277                            .dwattr $C$DW$196, DW_AT_decl_line(0x91)
    2278                            .dwattr $C$DW$196, DW_AT_decl_column(0x12)
    2279                    
    2280                    $C$DW$197       .dwtag  DW_TAG_member
    2281                            .dwattr $C$DW$197, DW_AT_type(*$C$DW$T$212)
    2282                            .dwattr $C$DW$197, DW_AT_name("pfnColorTranslate")
    2283                            .dwattr $C$DW$197, DW_AT_TI_symbol_name("pfnColorTranslate")
    2284                            .dwattr $C$DW$197, DW_AT_data_member_location[DW_OP_plus_uconst 0x14]
    2285                            .dwattr $C$DW$197, DW_AT_accessibility(DW_ACCESS_public)
    2286                            .dwattr $C$DW$197, DW_AT_decl_file("C:/ti/simplelink_cc13x0_sdk_2_30_00_20/source/ti/grlib/grl
    2287                            .dwattr $C$DW$197, DW_AT_decl_line(0x99)
    2288                            .dwattr $C$DW$197, DW_AT_decl_column(0x16)
    2289                    
    2290                    $C$DW$198       .dwtag  DW_TAG_member
    2291                            .dwattr $C$DW$198, DW_AT_type(*$C$DW$T$215)
    2292                            .dwattr $C$DW$198, DW_AT_name("pfnFlush")
    2293                            .dwattr $C$DW$198, DW_AT_TI_symbol_name("pfnFlush")
    2294                            .dwattr $C$DW$198, DW_AT_data_member_location[DW_OP_plus_uconst 0x18]
    2295                            .dwattr $C$DW$198, DW_AT_accessibility(DW_ACCESS_public)
    2296                            .dwattr $C$DW$198, DW_AT_decl_file("C:/ti/simplelink_cc13x0_sdk_2_30_00_20/source/ti/grlib/grl
    2297                            .dwattr $C$DW$198, DW_AT_decl_line(0xa0)
    2298                            .dwattr $C$DW$198, DW_AT_decl_column(0x12)
    2299                    
    2300                    $C$DW$199       .dwtag  DW_TAG_member
    2301                            .dwattr $C$DW$199, DW_AT_type(*$C$DW$T$218)
    2302                            .dwattr $C$DW$199, DW_AT_name("pfnClearDisplay")
    2303                            .dwattr $C$DW$199, DW_AT_TI_symbol_name("pfnClearDisplay")
    2304                            .dwattr $C$DW$199, DW_AT_data_member_location[DW_OP_plus_uconst 0x1c]
    2305                            .dwattr $C$DW$199, DW_AT_accessibility(DW_ACCESS_public)
    2306                            .dwattr $C$DW$199, DW_AT_decl_file("C:/ti/simplelink_cc13x0_sdk_2_30_00_20/source/ti/grlib/grl
TI ARM Assembler PC v16.9.9 Sun Nov 25 19:10:01 2018

Tools Copyright (c) 1996-2017 Texas Instruments Incorporated
C:\Users\Stryd\AppData\Local\Temp\{FD2CD87D-546B-4571-BBC0-B7C5FCD47FA5} PAGE   43

    2307                            .dwattr $C$DW$199, DW_AT_decl_line(0xa6)
    2308                            .dwattr $C$DW$199, DW_AT_decl_column(0x12)
    2309                    
    2310                            .dwattr $C$DW$T$219, DW_AT_decl_file("C:/ti/simplelink_cc13x0_sdk_2_30_00_20/source/ti/grlib/g
    2311                            .dwattr $C$DW$T$219, DW_AT_decl_line(0x6d)
    2312                            .dwattr $C$DW$T$219, DW_AT_decl_column(0x10)
    2313                            .dwendtag $C$DW$T$219
    2314                    
    2315                    $C$DW$T$187     .dwtag  DW_TAG_typedef
    2316                            .dwattr $C$DW$T$187, DW_AT_name("Graphics_Display_Functions")
    2317                            .dwattr $C$DW$T$187, DW_AT_type(*$C$DW$T$219)
    2318                            .dwattr $C$DW$T$187, DW_AT_language(DW_LANG_C)
    2319                            .dwattr $C$DW$T$187, DW_AT_decl_file("C:/ti/simplelink_cc13x0_sdk_2_30_00_20/source/ti/grlib/g
    2320                            .dwattr $C$DW$T$187, DW_AT_decl_line(0xa9)
    2321                            .dwattr $C$DW$T$187, DW_AT_decl_column(0x01)
    2322                    
    2323                    $C$DW$T$188     .dwtag  DW_TAG_const_type
    2324                            .dwattr $C$DW$T$188, DW_AT_type(*$C$DW$T$187)
    2325                    
    2326                    $C$DW$T$189     .dwtag  DW_TAG_pointer_type
    2327                            .dwattr $C$DW$T$189, DW_AT_type(*$C$DW$T$188)
    2328                            .dwattr $C$DW$T$189, DW_AT_address_class(0x20)
    2329                    
    2330                    
    2331                    $C$DW$T$221     .dwtag  DW_TAG_structure_type
    2332                            .dwattr $C$DW$T$221, DW_AT_name("Graphics_Font")
    2333                            .dwattr $C$DW$T$221, DW_AT_byte_size(0xc8)
    2334                    $C$DW$200       .dwtag  DW_TAG_member
    2335                            .dwattr $C$DW$200, DW_AT_type(*$C$DW$T$88)
    2336                            .dwattr $C$DW$200, DW_AT_name("format")
    2337                            .dwattr $C$DW$200, DW_AT_TI_symbol_name("format")
    2338                            .dwattr $C$DW$200, DW_AT_data_member_location[DW_OP_plus_uconst 0x0]
    2339                            .dwattr $C$DW$200, DW_AT_accessibility(DW_ACCESS_public)
    2340                            .dwattr $C$DW$200, DW_AT_decl_file("C:/ti/simplelink_cc13x0_sdk_2_30_00_20/source/ti/grlib/grl
    2341                            .dwattr $C$DW$200, DW_AT_decl_line(0xc0)
    2342                            .dwattr $C$DW$200, DW_AT_decl_column(0x0d)
    2343                    
    2344                    $C$DW$201       .dwtag  DW_TAG_member
    2345                            .dwattr $C$DW$201, DW_AT_type(*$C$DW$T$88)
    2346                            .dwattr $C$DW$201, DW_AT_name("maxWidth")
    2347                            .dwattr $C$DW$201, DW_AT_TI_symbol_name("maxWidth")
    2348                            .dwattr $C$DW$201, DW_AT_data_member_location[DW_OP_plus_uconst 0x1]
    2349                            .dwattr $C$DW$201, DW_AT_accessibility(DW_ACCESS_public)
    2350                            .dwattr $C$DW$201, DW_AT_decl_file("C:/ti/simplelink_cc13x0_sdk_2_30_00_20/source/ti/grlib/grl
    2351                            .dwattr $C$DW$201, DW_AT_decl_line(0xc1)
    2352                            .dwattr $C$DW$201, DW_AT_decl_column(0x0d)
    2353                    
    2354                    $C$DW$202       .dwtag  DW_TAG_member
    2355                            .dwattr $C$DW$202, DW_AT_type(*$C$DW$T$88)
    2356                            .dwattr $C$DW$202, DW_AT_name("height")
    2357                            .dwattr $C$DW$202, DW_AT_TI_symbol_name("height")
    2358                            .dwattr $C$DW$202, DW_AT_data_member_location[DW_OP_plus_uconst 0x2]
    2359                            .dwattr $C$DW$202, DW_AT_accessibility(DW_ACCESS_public)
    2360                            .dwattr $C$DW$202, DW_AT_decl_file("C:/ti/simplelink_cc13x0_sdk_2_30_00_20/source/ti/grlib/grl
    2361                            .dwattr $C$DW$202, DW_AT_decl_line(0xc2)
TI ARM Assembler PC v16.9.9 Sun Nov 25 19:10:01 2018

Tools Copyright (c) 1996-2017 Texas Instruments Incorporated
C:\Users\Stryd\AppData\Local\Temp\{FD2CD87D-546B-4571-BBC0-B7C5FCD47FA5} PAGE   44

    2362                            .dwattr $C$DW$202, DW_AT_decl_column(0x0d)
    2363                    
    2364                    $C$DW$203       .dwtag  DW_TAG_member
    2365                            .dwattr $C$DW$203, DW_AT_type(*$C$DW$T$88)
    2366                            .dwattr $C$DW$203, DW_AT_name("baseline")
    2367                            .dwattr $C$DW$203, DW_AT_TI_symbol_name("baseline")
    2368                            .dwattr $C$DW$203, DW_AT_data_member_location[DW_OP_plus_uconst 0x3]
    2369                            .dwattr $C$DW$203, DW_AT_accessibility(DW_ACCESS_public)
    2370                            .dwattr $C$DW$203, DW_AT_decl_file("C:/ti/simplelink_cc13x0_sdk_2_30_00_20/source/ti/grlib/grl
    2371                            .dwattr $C$DW$203, DW_AT_decl_line(0xc3)
    2372                            .dwattr $C$DW$203, DW_AT_decl_column(0x0d)
    2373                    
    2374                    $C$DW$204       .dwtag  DW_TAG_member
    2375                            .dwattr $C$DW$204, DW_AT_type(*$C$DW$T$220)
    2376                            .dwattr $C$DW$204, DW_AT_name("offset")
    2377                            .dwattr $C$DW$204, DW_AT_TI_symbol_name("offset")
    2378                            .dwattr $C$DW$204, DW_AT_data_member_location[DW_OP_plus_uconst 0x4]
    2379                            .dwattr $C$DW$204, DW_AT_accessibility(DW_ACCESS_public)
    2380                            .dwattr $C$DW$204, DW_AT_decl_file("C:/ti/simplelink_cc13x0_sdk_2_30_00_20/source/ti/grlib/grl
    2381                            .dwattr $C$DW$204, DW_AT_decl_line(0xc4)
    2382                            .dwattr $C$DW$204, DW_AT_decl_column(0x0e)
    2383                    
    2384                    $C$DW$205       .dwtag  DW_TAG_member
    2385                            .dwattr $C$DW$205, DW_AT_type(*$C$DW$T$196)
    2386                            .dwattr $C$DW$205, DW_AT_name("data")
    2387                            .dwattr $C$DW$205, DW_AT_TI_symbol_name("data")
    2388                            .dwattr $C$DW$205, DW_AT_data_member_location[DW_OP_plus_uconst 0xc4]
    2389                            .dwattr $C$DW$205, DW_AT_accessibility(DW_ACCESS_public)
    2390                            .dwattr $C$DW$205, DW_AT_decl_file("C:/ti/simplelink_cc13x0_sdk_2_30_00_20/source/ti/grlib/grl
    2391                            .dwattr $C$DW$205, DW_AT_decl_line(0xc5)
    2392                            .dwattr $C$DW$205, DW_AT_decl_column(0x14)
    2393                    
    2394                            .dwattr $C$DW$T$221, DW_AT_decl_file("C:/ti/simplelink_cc13x0_sdk_2_30_00_20/source/ti/grlib/g
    2395                            .dwattr $C$DW$T$221, DW_AT_decl_line(0xbe)
    2396                            .dwattr $C$DW$T$221, DW_AT_decl_column(0x10)
    2397                            .dwendtag $C$DW$T$221
    2398                    
    2399                    $C$DW$T$183     .dwtag  DW_TAG_typedef
    2400                            .dwattr $C$DW$T$183, DW_AT_name("Graphics_Font")
    2401                            .dwattr $C$DW$T$183, DW_AT_type(*$C$DW$T$221)
    2402                            .dwattr $C$DW$T$183, DW_AT_language(DW_LANG_C)
    2403                            .dwattr $C$DW$T$183, DW_AT_decl_file("C:/ti/simplelink_cc13x0_sdk_2_30_00_20/source/ti/grlib/g
    2404                            .dwattr $C$DW$T$183, DW_AT_decl_line(0xc6)
    2405                            .dwattr $C$DW$T$183, DW_AT_decl_column(0x03)
    2406                    
    2407                    $C$DW$T$184     .dwtag  DW_TAG_const_type
    2408                            .dwattr $C$DW$T$184, DW_AT_type(*$C$DW$T$183)
    2409                    
    2410                    $C$DW$T$185     .dwtag  DW_TAG_pointer_type
    2411                            .dwattr $C$DW$T$185, DW_AT_type(*$C$DW$T$184)
    2412                            .dwattr $C$DW$T$185, DW_AT_address_class(0x20)
    2413                    
    2414                    
    2415                    $C$DW$T$224     .dwtag  DW_TAG_structure_type
    2416                            .dwattr $C$DW$T$224, DW_AT_name("Graphics_FontEx")
TI ARM Assembler PC v16.9.9 Sun Nov 25 19:10:01 2018

Tools Copyright (c) 1996-2017 Texas Instruments Incorporated
C:\Users\Stryd\AppData\Local\Temp\{FD2CD87D-546B-4571-BBC0-B7C5FCD47FA5} PAGE   45

    2417                            .dwattr $C$DW$T$224, DW_AT_byte_size(0x10)
    2418                    $C$DW$206       .dwtag  DW_TAG_member
    2419                            .dwattr $C$DW$206, DW_AT_type(*$C$DW$T$88)
    2420                            .dwattr $C$DW$206, DW_AT_name("format")
    2421                            .dwattr $C$DW$206, DW_AT_TI_symbol_name("format")
    2422                            .dwattr $C$DW$206, DW_AT_data_member_location[DW_OP_plus_uconst 0x0]
    2423                            .dwattr $C$DW$206, DW_AT_accessibility(DW_ACCESS_public)
    2424                            .dwattr $C$DW$206, DW_AT_decl_file("C:/ti/simplelink_cc13x0_sdk_2_30_00_20/source/ti/grlib/grl
    2425                            .dwattr $C$DW$206, DW_AT_decl_line(0xd6)
    2426                            .dwattr $C$DW$206, DW_AT_decl_column(0x0d)
    2427                    
    2428                    $C$DW$207       .dwtag  DW_TAG_member
    2429                            .dwattr $C$DW$207, DW_AT_type(*$C$DW$T$88)
    2430                            .dwattr $C$DW$207, DW_AT_name("maxWidth")
    2431                            .dwattr $C$DW$207, DW_AT_TI_symbol_name("maxWidth")
    2432                            .dwattr $C$DW$207, DW_AT_data_member_location[DW_OP_plus_uconst 0x1]
    2433                            .dwattr $C$DW$207, DW_AT_accessibility(DW_ACCESS_public)
    2434                            .dwattr $C$DW$207, DW_AT_decl_file("C:/ti/simplelink_cc13x0_sdk_2_30_00_20/source/ti/grlib/grl
    2435                            .dwattr $C$DW$207, DW_AT_decl_line(0xd7)
    2436                            .dwattr $C$DW$207, DW_AT_decl_column(0x0d)
    2437                    
    2438                    $C$DW$208       .dwtag  DW_TAG_member
    2439                            .dwattr $C$DW$208, DW_AT_type(*$C$DW$T$88)
    2440                            .dwattr $C$DW$208, DW_AT_name("height")
    2441                            .dwattr $C$DW$208, DW_AT_TI_symbol_name("height")
    2442                            .dwattr $C$DW$208, DW_AT_data_member_location[DW_OP_plus_uconst 0x2]
    2443                            .dwattr $C$DW$208, DW_AT_accessibility(DW_ACCESS_public)
    2444                            .dwattr $C$DW$208, DW_AT_decl_file("C:/ti/simplelink_cc13x0_sdk_2_30_00_20/source/ti/grlib/grl
    2445                            .dwattr $C$DW$208, DW_AT_decl_line(0xd8)
    2446                            .dwattr $C$DW$208, DW_AT_decl_column(0x0d)
    2447                    
    2448                    $C$DW$209       .dwtag  DW_TAG_member
    2449                            .dwattr $C$DW$209, DW_AT_type(*$C$DW$T$88)
    2450                            .dwattr $C$DW$209, DW_AT_name("baseline")
    2451                            .dwattr $C$DW$209, DW_AT_TI_symbol_name("baseline")
    2452                            .dwattr $C$DW$209, DW_AT_data_member_location[DW_OP_plus_uconst 0x3]
    2453                            .dwattr $C$DW$209, DW_AT_accessibility(DW_ACCESS_public)
    2454                            .dwattr $C$DW$209, DW_AT_decl_file("C:/ti/simplelink_cc13x0_sdk_2_30_00_20/source/ti/grlib/grl
    2455                            .dwattr $C$DW$209, DW_AT_decl_line(0xd9)
    2456                            .dwattr $C$DW$209, DW_AT_decl_column(0x0d)
    2457                    
    2458                    $C$DW$210       .dwtag  DW_TAG_member
    2459                            .dwattr $C$DW$210, DW_AT_type(*$C$DW$T$88)
    2460                            .dwattr $C$DW$210, DW_AT_name("first")
    2461                            .dwattr $C$DW$210, DW_AT_TI_symbol_name("first")
    2462                            .dwattr $C$DW$210, DW_AT_data_member_location[DW_OP_plus_uconst 0x4]
    2463                            .dwattr $C$DW$210, DW_AT_accessibility(DW_ACCESS_public)
    2464                            .dwattr $C$DW$210, DW_AT_decl_file("C:/ti/simplelink_cc13x0_sdk_2_30_00_20/source/ti/grlib/grl
    2465                            .dwattr $C$DW$210, DW_AT_decl_line(0xda)
    2466                            .dwattr $C$DW$210, DW_AT_decl_column(0x0d)
    2467                    
    2468                    $C$DW$211       .dwtag  DW_TAG_member
    2469                            .dwattr $C$DW$211, DW_AT_type(*$C$DW$T$88)
    2470                            .dwattr $C$DW$211, DW_AT_name("last")
    2471                            .dwattr $C$DW$211, DW_AT_TI_symbol_name("last")
TI ARM Assembler PC v16.9.9 Sun Nov 25 19:10:01 2018

Tools Copyright (c) 1996-2017 Texas Instruments Incorporated
C:\Users\Stryd\AppData\Local\Temp\{FD2CD87D-546B-4571-BBC0-B7C5FCD47FA5} PAGE   46

    2472                            .dwattr $C$DW$211, DW_AT_data_member_location[DW_OP_plus_uconst 0x5]
    2473                            .dwattr $C$DW$211, DW_AT_accessibility(DW_ACCESS_public)
    2474                            .dwattr $C$DW$211, DW_AT_decl_file("C:/ti/simplelink_cc13x0_sdk_2_30_00_20/source/ti/grlib/grl
    2475                            .dwattr $C$DW$211, DW_AT_decl_line(0xdb)
    2476                            .dwattr $C$DW$211, DW_AT_decl_column(0x0d)
    2477                    
    2478                    $C$DW$212       .dwtag  DW_TAG_member
    2479                            .dwattr $C$DW$212, DW_AT_type(*$C$DW$T$223)
    2480                            .dwattr $C$DW$212, DW_AT_name("offset")
    2481                            .dwattr $C$DW$212, DW_AT_TI_symbol_name("offset")
    2482                            .dwattr $C$DW$212, DW_AT_data_member_location[DW_OP_plus_uconst 0x8]
    2483                            .dwattr $C$DW$212, DW_AT_accessibility(DW_ACCESS_public)
    2484                            .dwattr $C$DW$212, DW_AT_decl_file("C:/ti/simplelink_cc13x0_sdk_2_30_00_20/source/ti/grlib/grl
    2485                            .dwattr $C$DW$212, DW_AT_decl_line(0xdc)
    2486                            .dwattr $C$DW$212, DW_AT_decl_column(0x15)
    2487                    
    2488                    $C$DW$213       .dwtag  DW_TAG_member
    2489                            .dwattr $C$DW$213, DW_AT_type(*$C$DW$T$196)
    2490                            .dwattr $C$DW$213, DW_AT_name("data")
    2491                            .dwattr $C$DW$213, DW_AT_TI_symbol_name("data")
    2492                            .dwattr $C$DW$213, DW_AT_data_member_location[DW_OP_plus_uconst 0xc]
    2493                            .dwattr $C$DW$213, DW_AT_accessibility(DW_ACCESS_public)
    2494                            .dwattr $C$DW$213, DW_AT_decl_file("C:/ti/simplelink_cc13x0_sdk_2_30_00_20/source/ti/grlib/grl
    2495                            .dwattr $C$DW$213, DW_AT_decl_line(0xdd)
    2496                            .dwattr $C$DW$213, DW_AT_decl_column(0x14)
    2497                    
    2498                            .dwattr $C$DW$T$224, DW_AT_decl_file("C:/ti/simplelink_cc13x0_sdk_2_30_00_20/source/ti/grlib/g
    2499                            .dwattr $C$DW$T$224, DW_AT_decl_line(0xd4)
    2500                            .dwattr $C$DW$T$224, DW_AT_decl_column(0x10)
    2501                            .dwendtag $C$DW$T$224
    2502                    
    2503                    $C$DW$T$500     .dwtag  DW_TAG_typedef
    2504                            .dwattr $C$DW$T$500, DW_AT_name("Graphics_FontEx")
    2505                            .dwattr $C$DW$T$500, DW_AT_type(*$C$DW$T$224)
    2506                            .dwattr $C$DW$T$500, DW_AT_language(DW_LANG_C)
    2507                            .dwattr $C$DW$T$500, DW_AT_decl_file("C:/ti/simplelink_cc13x0_sdk_2_30_00_20/source/ti/grlib/g
    2508                            .dwattr $C$DW$T$500, DW_AT_decl_line(0xde)
    2509                            .dwattr $C$DW$T$500, DW_AT_decl_column(0x03)
    2510                    
    2511                    
    2512                    $C$DW$T$225     .dwtag  DW_TAG_structure_type
    2513                            .dwattr $C$DW$T$225, DW_AT_name("Graphics_Image")
    2514                            .dwattr $C$DW$T$225, DW_AT_byte_size(0x10)
    2515                    $C$DW$214       .dwtag  DW_TAG_member
    2516                            .dwattr $C$DW$214, DW_AT_type(*$C$DW$T$88)
    2517                            .dwattr $C$DW$214, DW_AT_name("bPP")
    2518                            .dwattr $C$DW$214, DW_AT_TI_symbol_name("bPP")
    2519                            .dwattr $C$DW$214, DW_AT_data_member_location[DW_OP_plus_uconst 0x0]
    2520                            .dwattr $C$DW$214, DW_AT_accessibility(DW_ACCESS_public)
    2521                            .dwattr $C$DW$214, DW_AT_decl_file("C:/ti/simplelink_cc13x0_sdk_2_30_00_20/source/ti/grlib/grl
    2522                            .dwattr $C$DW$214, DW_AT_decl_line(0x4f)
    2523                            .dwattr $C$DW$214, DW_AT_decl_column(0x0d)
    2524                    
    2525                    $C$DW$215       .dwtag  DW_TAG_member
    2526                            .dwattr $C$DW$215, DW_AT_type(*$C$DW$T$105)
TI ARM Assembler PC v16.9.9 Sun Nov 25 19:10:01 2018

Tools Copyright (c) 1996-2017 Texas Instruments Incorporated
C:\Users\Stryd\AppData\Local\Temp\{FD2CD87D-546B-4571-BBC0-B7C5FCD47FA5} PAGE   47

    2527                            .dwattr $C$DW$215, DW_AT_name("xSize")
    2528                            .dwattr $C$DW$215, DW_AT_TI_symbol_name("xSize")
    2529                            .dwattr $C$DW$215, DW_AT_data_member_location[DW_OP_plus_uconst 0x2]
    2530                            .dwattr $C$DW$215, DW_AT_accessibility(DW_ACCESS_public)
    2531                            .dwattr $C$DW$215, DW_AT_decl_file("C:/ti/simplelink_cc13x0_sdk_2_30_00_20/source/ti/grlib/grl
    2532                            .dwattr $C$DW$215, DW_AT_decl_line(0x50)
    2533                            .dwattr $C$DW$215, DW_AT_decl_column(0x0e)
    2534                    
    2535                    $C$DW$216       .dwtag  DW_TAG_member
    2536                            .dwattr $C$DW$216, DW_AT_type(*$C$DW$T$105)
    2537                            .dwattr $C$DW$216, DW_AT_name("ySize")
    2538                            .dwattr $C$DW$216, DW_AT_TI_symbol_name("ySize")
    2539                            .dwattr $C$DW$216, DW_AT_data_member_location[DW_OP_plus_uconst 0x4]
    2540                            .dwattr $C$DW$216, DW_AT_accessibility(DW_ACCESS_public)
    2541                            .dwattr $C$DW$216, DW_AT_decl_file("C:/ti/simplelink_cc13x0_sdk_2_30_00_20/source/ti/grlib/grl
    2542                            .dwattr $C$DW$216, DW_AT_decl_line(0x51)
    2543                            .dwattr $C$DW$216, DW_AT_decl_column(0x0e)
    2544                    
    2545                    $C$DW$217       .dwtag  DW_TAG_member
    2546                            .dwattr $C$DW$217, DW_AT_type(*$C$DW$T$105)
    2547                            .dwattr $C$DW$217, DW_AT_name("numColors")
    2548                            .dwattr $C$DW$217, DW_AT_TI_symbol_name("numColors")
    2549                            .dwattr $C$DW$217, DW_AT_data_member_location[DW_OP_plus_uconst 0x6]
    2550                            .dwattr $C$DW$217, DW_AT_accessibility(DW_ACCESS_public)
    2551                            .dwattr $C$DW$217, DW_AT_decl_file("C:/ti/simplelink_cc13x0_sdk_2_30_00_20/source/ti/grlib/grl
    2552                            .dwattr $C$DW$217, DW_AT_decl_line(0x52)
    2553                            .dwattr $C$DW$217, DW_AT_decl_column(0x0e)
    2554                    
    2555                    $C$DW$218       .dwtag  DW_TAG_member
    2556                            .dwattr $C$DW$218, DW_AT_type(*$C$DW$T$198)
    2557                            .dwattr $C$DW$218, DW_AT_name("pPalette")
    2558                            .dwattr $C$DW$218, DW_AT_TI_symbol_name("pPalette")
    2559                            .dwattr $C$DW$218, DW_AT_data_member_location[DW_OP_plus_uconst 0x8]
    2560                            .dwattr $C$DW$218, DW_AT_accessibility(DW_ACCESS_public)
    2561                            .dwattr $C$DW$218, DW_AT_decl_file("C:/ti/simplelink_cc13x0_sdk_2_30_00_20/source/ti/grlib/grl
    2562                            .dwattr $C$DW$218, DW_AT_decl_line(0x53)
    2563                            .dwattr $C$DW$218, DW_AT_decl_column(0x17)
    2564                    
    2565                    $C$DW$219       .dwtag  DW_TAG_member
    2566                            .dwattr $C$DW$219, DW_AT_type(*$C$DW$T$196)
    2567                            .dwattr $C$DW$219, DW_AT_name("pPixel")
    2568                            .dwattr $C$DW$219, DW_AT_TI_symbol_name("pPixel")
    2569                            .dwattr $C$DW$219, DW_AT_data_member_location[DW_OP_plus_uconst 0xc]
    2570                            .dwattr $C$DW$219, DW_AT_accessibility(DW_ACCESS_public)
    2571                            .dwattr $C$DW$219, DW_AT_decl_file("C:/ti/simplelink_cc13x0_sdk_2_30_00_20/source/ti/grlib/grl
    2572                            .dwattr $C$DW$219, DW_AT_decl_line(0x54)
    2573                            .dwattr $C$DW$219, DW_AT_decl_column(0x15)
    2574                    
    2575                            .dwattr $C$DW$T$225, DW_AT_decl_file("C:/ti/simplelink_cc13x0_sdk_2_30_00_20/source/ti/grlib/g
    2576                            .dwattr $C$DW$T$225, DW_AT_decl_line(0x4d)
    2577                            .dwattr $C$DW$T$225, DW_AT_decl_column(0x10)
    2578                            .dwendtag $C$DW$T$225
    2579                    
    2580                    $C$DW$T$501     .dwtag  DW_TAG_typedef
    2581                            .dwattr $C$DW$T$501, DW_AT_name("Graphics_Image")
TI ARM Assembler PC v16.9.9 Sun Nov 25 19:10:01 2018

Tools Copyright (c) 1996-2017 Texas Instruments Incorporated
C:\Users\Stryd\AppData\Local\Temp\{FD2CD87D-546B-4571-BBC0-B7C5FCD47FA5} PAGE   48

    2582                            .dwattr $C$DW$T$501, DW_AT_type(*$C$DW$T$225)
    2583                            .dwattr $C$DW$T$501, DW_AT_language(DW_LANG_C)
    2584                            .dwattr $C$DW$T$501, DW_AT_decl_file("C:/ti/simplelink_cc13x0_sdk_2_30_00_20/source/ti/grlib/g
    2585                            .dwattr $C$DW$T$501, DW_AT_decl_line(0x55)
    2586                            .dwattr $C$DW$T$501, DW_AT_decl_column(0x03)
    2587                    
    2588                    
    2589                    $C$DW$T$226     .dwtag  DW_TAG_structure_type
    2590                            .dwattr $C$DW$T$226, DW_AT_name("Graphics_Rectangle")
    2591                            .dwattr $C$DW$T$226, DW_AT_byte_size(0x08)
    2592                    $C$DW$220       .dwtag  DW_TAG_member
    2593                            .dwattr $C$DW$220, DW_AT_type(*$C$DW$T$191)
    2594                            .dwattr $C$DW$220, DW_AT_name("xMin")
    2595                            .dwattr $C$DW$220, DW_AT_TI_symbol_name("xMin")
    2596                            .dwattr $C$DW$220, DW_AT_data_member_location[DW_OP_plus_uconst 0x0]
    2597                            .dwattr $C$DW$220, DW_AT_accessibility(DW_ACCESS_public)
    2598                            .dwattr $C$DW$220, DW_AT_decl_file("C:/ti/simplelink_cc13x0_sdk_2_30_00_20/source/ti/grlib/grl
    2599                            .dwattr $C$DW$220, DW_AT_decl_line(0x60)
    2600                            .dwattr $C$DW$220, DW_AT_decl_column(0x0d)
    2601                    
    2602                    $C$DW$221       .dwtag  DW_TAG_member
    2603                            .dwattr $C$DW$221, DW_AT_type(*$C$DW$T$191)
    2604                            .dwattr $C$DW$221, DW_AT_name("yMin")
    2605                            .dwattr $C$DW$221, DW_AT_TI_symbol_name("yMin")
    2606                            .dwattr $C$DW$221, DW_AT_data_member_location[DW_OP_plus_uconst 0x2]
    2607                            .dwattr $C$DW$221, DW_AT_accessibility(DW_ACCESS_public)
    2608                            .dwattr $C$DW$221, DW_AT_decl_file("C:/ti/simplelink_cc13x0_sdk_2_30_00_20/source/ti/grlib/grl
    2609                            .dwattr $C$DW$221, DW_AT_decl_line(0x61)
    2610                            .dwattr $C$DW$221, DW_AT_decl_column(0x0d)
    2611                    
    2612                    $C$DW$222       .dwtag  DW_TAG_member
    2613                            .dwattr $C$DW$222, DW_AT_type(*$C$DW$T$191)
    2614                            .dwattr $C$DW$222, DW_AT_name("xMax")
    2615                            .dwattr $C$DW$222, DW_AT_TI_symbol_name("xMax")
    2616                            .dwattr $C$DW$222, DW_AT_data_member_location[DW_OP_plus_uconst 0x4]
    2617                            .dwattr $C$DW$222, DW_AT_accessibility(DW_ACCESS_public)
    2618                            .dwattr $C$DW$222, DW_AT_decl_file("C:/ti/simplelink_cc13x0_sdk_2_30_00_20/source/ti/grlib/grl
    2619                            .dwattr $C$DW$222, DW_AT_decl_line(0x62)
    2620                            .dwattr $C$DW$222, DW_AT_decl_column(0x0d)
    2621                    
    2622                    $C$DW$223       .dwtag  DW_TAG_member
    2623                            .dwattr $C$DW$223, DW_AT_type(*$C$DW$T$191)
    2624                            .dwattr $C$DW$223, DW_AT_name("yMax")
    2625                            .dwattr $C$DW$223, DW_AT_TI_symbol_name("yMax")
    2626                            .dwattr $C$DW$223, DW_AT_data_member_location[DW_OP_plus_uconst 0x6]
    2627                            .dwattr $C$DW$223, DW_AT_accessibility(DW_ACCESS_public)
    2628                            .dwattr $C$DW$223, DW_AT_decl_file("C:/ti/simplelink_cc13x0_sdk_2_30_00_20/source/ti/grlib/grl
    2629                            .dwattr $C$DW$223, DW_AT_decl_line(0x63)
    2630                            .dwattr $C$DW$223, DW_AT_decl_column(0x0d)
    2631                    
    2632                            .dwattr $C$DW$T$226, DW_AT_decl_file("C:/ti/simplelink_cc13x0_sdk_2_30_00_20/source/ti/grlib/g
    2633                            .dwattr $C$DW$T$226, DW_AT_decl_line(0x5e)
    2634                            .dwattr $C$DW$T$226, DW_AT_decl_column(0x10)
    2635                            .dwendtag $C$DW$T$226
    2636                    
TI ARM Assembler PC v16.9.9 Sun Nov 25 19:10:01 2018

Tools Copyright (c) 1996-2017 Texas Instruments Incorporated
C:\Users\Stryd\AppData\Local\Temp\{FD2CD87D-546B-4571-BBC0-B7C5FCD47FA5} PAGE   49

    2637                    $C$DW$T$182     .dwtag  DW_TAG_typedef
    2638                            .dwattr $C$DW$T$182, DW_AT_name("Graphics_Rectangle")
    2639                            .dwattr $C$DW$T$182, DW_AT_type(*$C$DW$T$226)
    2640                            .dwattr $C$DW$T$182, DW_AT_language(DW_LANG_C)
    2641                            .dwattr $C$DW$T$182, DW_AT_decl_file("C:/ti/simplelink_cc13x0_sdk_2_30_00_20/source/ti/grlib/g
    2642                            .dwattr $C$DW$T$182, DW_AT_decl_line(0x64)
    2643                            .dwattr $C$DW$T$182, DW_AT_decl_column(0x03)
    2644                    
    2645                    $C$DW$T$205     .dwtag  DW_TAG_const_type
    2646                            .dwattr $C$DW$T$205, DW_AT_type(*$C$DW$T$182)
    2647                    
    2648                    $C$DW$T$206     .dwtag  DW_TAG_pointer_type
    2649                            .dwattr $C$DW$T$206, DW_AT_type(*$C$DW$T$205)
    2650                            .dwattr $C$DW$T$206, DW_AT_address_class(0x20)
    2651                    
    2652                    
    2653                    $C$DW$T$502     .dwtag  DW_TAG_enumeration_type
    2654                            .dwattr $C$DW$T$502, DW_AT_name("LCD_Align")
    2655                            .dwattr $C$DW$T$502, DW_AT_byte_size(0x01)
    2656                    $C$DW$224       .dwtag  DW_TAG_enumerator
    2657                            .dwattr $C$DW$224, DW_AT_name("LCD_ALIGN_LEFT")
    2658                            .dwattr $C$DW$224, DW_AT_const_value(0x00)
    2659                            .dwattr $C$DW$224, DW_AT_decl_file("C:/ti/simplelink_cc13x0_sdk_2_30_00_20/source/ti/display/l
    2660                            .dwattr $C$DW$224, DW_AT_decl_line(0x131)
    2661                            .dwattr $C$DW$224, DW_AT_decl_column(0x05)
    2662                    
    2663                    $C$DW$225       .dwtag  DW_TAG_enumerator
    2664                            .dwattr $C$DW$225, DW_AT_name("LCD_ALIGN_CENTER")
    2665                            .dwattr $C$DW$225, DW_AT_const_value(0x01)
    2666                            .dwattr $C$DW$225, DW_AT_decl_file("C:/ti/simplelink_cc13x0_sdk_2_30_00_20/source/ti/display/l
    2667                            .dwattr $C$DW$225, DW_AT_decl_line(0x132)
    2668                            .dwattr $C$DW$225, DW_AT_decl_column(0x05)
    2669                    
    2670                    $C$DW$226       .dwtag  DW_TAG_enumerator
    2671                            .dwattr $C$DW$226, DW_AT_name("LCD_ALIGN_RIGHT")
    2672                            .dwattr $C$DW$226, DW_AT_const_value(0x02)
    2673                            .dwattr $C$DW$226, DW_AT_decl_file("C:/ti/simplelink_cc13x0_sdk_2_30_00_20/source/ti/display/l
    2674                            .dwattr $C$DW$226, DW_AT_decl_line(0x133)
    2675                            .dwattr $C$DW$226, DW_AT_decl_column(0x05)
    2676                    
    2677                            .dwattr $C$DW$T$502, DW_AT_decl_file("C:/ti/simplelink_cc13x0_sdk_2_30_00_20/source/ti/display
    2678                            .dwattr $C$DW$T$502, DW_AT_decl_line(0x12f)
    2679                            .dwattr $C$DW$T$502, DW_AT_decl_column(0x0e)
    2680                            .dwendtag $C$DW$T$502
    2681                    
    2682                    $C$DW$T$503     .dwtag  DW_TAG_typedef
    2683                            .dwattr $C$DW$T$503, DW_AT_name("LCD_Align")
    2684                            .dwattr $C$DW$T$503, DW_AT_type(*$C$DW$T$502)
    2685                            .dwattr $C$DW$T$503, DW_AT_language(DW_LANG_C)
    2686                            .dwattr $C$DW$T$503, DW_AT_decl_file("C:/ti/simplelink_cc13x0_sdk_2_30_00_20/source/ti/display
    2687                            .dwattr $C$DW$T$503, DW_AT_decl_line(0x134)
    2688                            .dwattr $C$DW$T$503, DW_AT_decl_column(0x03)
    2689                    
    2690                    
    2691                    $C$DW$T$228     .dwtag  DW_TAG_structure_type
TI ARM Assembler PC v16.9.9 Sun Nov 25 19:10:01 2018

Tools Copyright (c) 1996-2017 Texas Instruments Incorporated
C:\Users\Stryd\AppData\Local\Temp\{FD2CD87D-546B-4571-BBC0-B7C5FCD47FA5} PAGE   50

    2692                            .dwattr $C$DW$T$228, DW_AT_name("LCD_Buffer")
    2693                            .dwattr $C$DW$T$228, DW_AT_byte_size(0x24)
    2694                    $C$DW$227       .dwtag  DW_TAG_member
    2695                            .dwattr $C$DW$227, DW_AT_type(*$C$DW$T$165)
    2696                            .dwattr $C$DW$227, DW_AT_name("pcBuffer")
    2697                            .dwattr $C$DW$227, DW_AT_TI_symbol_name("pcBuffer")
    2698                            .dwattr $C$DW$227, DW_AT_data_member_location[DW_OP_plus_uconst 0x0]
    2699                            .dwattr $C$DW$227, DW_AT_accessibility(DW_ACCESS_public)
    2700                            .dwattr $C$DW$227, DW_AT_decl_file("C:/ti/simplelink_cc13x0_sdk_2_30_00_20/source/ti/display/l
    2701                            .dwattr $C$DW$227, DW_AT_decl_line(0x19a)
    2702                            .dwattr $C$DW$227, DW_AT_decl_column(0x1a)
    2703                    
    2704                    $C$DW$228       .dwtag  DW_TAG_member
    2705                            .dwattr $C$DW$228, DW_AT_type(*$C$DW$T$11)
    2706                            .dwattr $C$DW$228, DW_AT_name("bufSize")
    2707                            .dwattr $C$DW$228, DW_AT_TI_symbol_name("bufSize")
    2708                            .dwattr $C$DW$228, DW_AT_data_member_location[DW_OP_plus_uconst 0x4]
    2709                            .dwattr $C$DW$228, DW_AT_accessibility(DW_ACCESS_public)
    2710                            .dwattr $C$DW$228, DW_AT_decl_file("C:/ti/simplelink_cc13x0_sdk_2_30_00_20/source/ti/display/l
    2711                            .dwattr $C$DW$228, DW_AT_decl_line(0x19b)
    2712                            .dwattr $C$DW$228, DW_AT_decl_column(0x19)
    2713                    
    2714                    $C$DW$229       .dwtag  DW_TAG_member
    2715                            .dwattr $C$DW$229, DW_AT_type(*$C$DW$T$227)
    2716                            .dwattr $C$DW$229, DW_AT_name("bufMutex")
    2717                            .dwattr $C$DW$229, DW_AT_TI_symbol_name("bufMutex")
    2718                            .dwattr $C$DW$229, DW_AT_data_member_location[DW_OP_plus_uconst 0x8]
    2719                            .dwattr $C$DW$229, DW_AT_accessibility(DW_ACCESS_public)
    2720                            .dwattr $C$DW$229, DW_AT_decl_file("C:/ti/simplelink_cc13x0_sdk_2_30_00_20/source/ti/display/l
    2721                            .dwattr $C$DW$229, DW_AT_decl_line(0x19c)
    2722                            .dwattr $C$DW$229, DW_AT_decl_column(0x19)
    2723                    
    2724                            .dwattr $C$DW$T$228, DW_AT_decl_file("C:/ti/simplelink_cc13x0_sdk_2_30_00_20/source/ti/display
    2725                            .dwattr $C$DW$T$228, DW_AT_decl_line(0x198)
    2726                            .dwattr $C$DW$T$228, DW_AT_decl_column(0x10)
    2727                            .dwendtag $C$DW$T$228
    2728                    
    2729                    $C$DW$T$241     .dwtag  DW_TAG_typedef
    2730                            .dwattr $C$DW$T$241, DW_AT_name("LCD_Buffer")
    2731                            .dwattr $C$DW$T$241, DW_AT_type(*$C$DW$T$228)
    2732                            .dwattr $C$DW$T$241, DW_AT_language(DW_LANG_C)
    2733                            .dwattr $C$DW$T$241, DW_AT_decl_file("C:/ti/simplelink_cc13x0_sdk_2_30_00_20/source/ti/display
    2734                            .dwattr $C$DW$T$241, DW_AT_decl_line(0x19d)
    2735                            .dwattr $C$DW$T$241, DW_AT_decl_column(0x03)
    2736                    
    2737                    $C$DW$T$242     .dwtag  DW_TAG_pointer_type
    2738                            .dwattr $C$DW$T$242, DW_AT_type(*$C$DW$T$241)
    2739                            .dwattr $C$DW$T$242, DW_AT_address_class(0x20)
    2740                    
    2741                    
    2742                    $C$DW$T$229     .dwtag  DW_TAG_structure_type
    2743                            .dwattr $C$DW$T$229, DW_AT_name("LCD_Command")
    2744                            .dwattr $C$DW$T$229, DW_AT_byte_size(0x11)
    2745                    $C$DW$230       .dwtag  DW_TAG_member
    2746                            .dwattr $C$DW$230, DW_AT_type(*$C$DW$T$6)
TI ARM Assembler PC v16.9.9 Sun Nov 25 19:10:01 2018

Tools Copyright (c) 1996-2017 Texas Instruments Incorporated
C:\Users\Stryd\AppData\Local\Temp\{FD2CD87D-546B-4571-BBC0-B7C5FCD47FA5} PAGE   51

    2747                            .dwattr $C$DW$230, DW_AT_name("displayStartLine")
    2748                            .dwattr $C$DW$230, DW_AT_TI_symbol_name("displayStartLine")
    2749                            .dwattr $C$DW$230, DW_AT_data_member_location[DW_OP_plus_uconst 0x0]
    2750                            .dwattr $C$DW$230, DW_AT_accessibility(DW_ACCESS_public)
    2751                            .dwattr $C$DW$230, DW_AT_decl_file("C:/ti/simplelink_cc13x0_sdk_2_30_00_20/source/ti/display/l
    2752                            .dwattr $C$DW$230, DW_AT_decl_line(0x17a)
    2753                            .dwattr $C$DW$230, DW_AT_decl_column(0x0b)
    2754                    
    2755                    $C$DW$231       .dwtag  DW_TAG_member
    2756                            .dwattr $C$DW$231, DW_AT_type(*$C$DW$T$6)
    2757                            .dwattr $C$DW$231, DW_AT_name("adcSet")
    2758                            .dwattr $C$DW$231, DW_AT_TI_symbol_name("adcSet")
    2759                            .dwattr $C$DW$231, DW_AT_data_member_location[DW_OP_plus_uconst 0x1]
    2760                            .dwattr $C$DW$231, DW_AT_accessibility(DW_ACCESS_public)
    2761                            .dwattr $C$DW$231, DW_AT_decl_file("C:/ti/simplelink_cc13x0_sdk_2_30_00_20/source/ti/display/l
    2762                            .dwattr $C$DW$231, DW_AT_decl_line(0x17b)
    2763                            .dwattr $C$DW$231, DW_AT_decl_column(0x0b)
    2764                    
    2765                    $C$DW$232       .dwtag  DW_TAG_member
    2766                            .dwattr $C$DW$232, DW_AT_type(*$C$DW$T$6)
    2767                            .dwattr $C$DW$232, DW_AT_name("outputMode")
    2768                            .dwattr $C$DW$232, DW_AT_TI_symbol_name("outputMode")
    2769                            .dwattr $C$DW$232, DW_AT_data_member_location[DW_OP_plus_uconst 0x2]
    2770                            .dwattr $C$DW$232, DW_AT_accessibility(DW_ACCESS_public)
    2771                            .dwattr $C$DW$232, DW_AT_decl_file("C:/ti/simplelink_cc13x0_sdk_2_30_00_20/source/ti/display/l
    2772                            .dwattr $C$DW$232, DW_AT_decl_line(0x17c)
    2773                            .dwattr $C$DW$232, DW_AT_decl_column(0x0b)
    2774                    
    2775                    $C$DW$233       .dwtag  DW_TAG_member
    2776                            .dwattr $C$DW$233, DW_AT_type(*$C$DW$T$6)
    2777                            .dwattr $C$DW$233, DW_AT_name("displayType")
    2778                            .dwattr $C$DW$233, DW_AT_TI_symbol_name("displayType")
    2779                            .dwattr $C$DW$233, DW_AT_data_member_location[DW_OP_plus_uconst 0x3]
    2780                            .dwattr $C$DW$233, DW_AT_accessibility(DW_ACCESS_public)
    2781                            .dwattr $C$DW$233, DW_AT_decl_file("C:/ti/simplelink_cc13x0_sdk_2_30_00_20/source/ti/display/l
    2782                            .dwattr $C$DW$233, DW_AT_decl_line(0x17d)
    2783                            .dwattr $C$DW$233, DW_AT_decl_column(0x0b)
    2784                    
    2785                    $C$DW$234       .dwtag  DW_TAG_member
    2786                            .dwattr $C$DW$234, DW_AT_type(*$C$DW$T$6)
    2787                            .dwattr $C$DW$234, DW_AT_name("lcdBias")
    2788                            .dwattr $C$DW$234, DW_AT_TI_symbol_name("lcdBias")
    2789                            .dwattr $C$DW$234, DW_AT_data_member_location[DW_OP_plus_uconst 0x4]
    2790                            .dwattr $C$DW$234, DW_AT_accessibility(DW_ACCESS_public)
    2791                            .dwattr $C$DW$234, DW_AT_decl_file("C:/ti/simplelink_cc13x0_sdk_2_30_00_20/source/ti/display/l
    2792                            .dwattr $C$DW$234, DW_AT_decl_line(0x17e)
    2793                            .dwattr $C$DW$234, DW_AT_decl_column(0x0b)
    2794                    
    2795                    $C$DW$235       .dwtag  DW_TAG_member
    2796                            .dwattr $C$DW$235, DW_AT_type(*$C$DW$T$6)
    2797                            .dwattr $C$DW$235, DW_AT_name("powerControl")
    2798                            .dwattr $C$DW$235, DW_AT_TI_symbol_name("powerControl")
    2799                            .dwattr $C$DW$235, DW_AT_data_member_location[DW_OP_plus_uconst 0x5]
    2800                            .dwattr $C$DW$235, DW_AT_accessibility(DW_ACCESS_public)
    2801                            .dwattr $C$DW$235, DW_AT_decl_file("C:/ti/simplelink_cc13x0_sdk_2_30_00_20/source/ti/display/l
TI ARM Assembler PC v16.9.9 Sun Nov 25 19:10:01 2018

Tools Copyright (c) 1996-2017 Texas Instruments Incorporated
C:\Users\Stryd\AppData\Local\Temp\{FD2CD87D-546B-4571-BBC0-B7C5FCD47FA5} PAGE   52

    2802                            .dwattr $C$DW$235, DW_AT_decl_line(0x17f)
    2803                            .dwattr $C$DW$235, DW_AT_decl_column(0x0b)
    2804                    
    2805                    $C$DW$236       .dwtag  DW_TAG_member
    2806                            .dwattr $C$DW$236, DW_AT_type(*$C$DW$T$6)
    2807                            .dwattr $C$DW$236, DW_AT_name("boosterRadio0")
    2808                            .dwattr $C$DW$236, DW_AT_TI_symbol_name("boosterRadio0")
    2809                            .dwattr $C$DW$236, DW_AT_data_member_location[DW_OP_plus_uconst 0x6]
    2810                            .dwattr $C$DW$236, DW_AT_accessibility(DW_ACCESS_public)
    2811                            .dwattr $C$DW$236, DW_AT_decl_file("C:/ti/simplelink_cc13x0_sdk_2_30_00_20/source/ti/display/l
    2812                            .dwattr $C$DW$236, DW_AT_decl_line(0x180)
    2813                            .dwattr $C$DW$236, DW_AT_decl_column(0x0b)
    2814                    
    2815                    $C$DW$237       .dwtag  DW_TAG_member
    2816                            .dwattr $C$DW$237, DW_AT_type(*$C$DW$T$6)
    2817                            .dwattr $C$DW$237, DW_AT_name("boosterRadio1")
    2818                            .dwattr $C$DW$237, DW_AT_TI_symbol_name("boosterRadio1")
    2819                            .dwattr $C$DW$237, DW_AT_data_member_location[DW_OP_plus_uconst 0x7]
    2820                            .dwattr $C$DW$237, DW_AT_accessibility(DW_ACCESS_public)
    2821                            .dwattr $C$DW$237, DW_AT_decl_file("C:/ti/simplelink_cc13x0_sdk_2_30_00_20/source/ti/display/l
    2822                            .dwattr $C$DW$237, DW_AT_decl_line(0x181)
    2823                            .dwattr $C$DW$237, DW_AT_decl_column(0x0b)
    2824                    
    2825                    $C$DW$238       .dwtag  DW_TAG_member
    2826                            .dwattr $C$DW$238, DW_AT_type(*$C$DW$T$6)
    2827                            .dwattr $C$DW$238, DW_AT_name("contrastSet0")
    2828                            .dwattr $C$DW$238, DW_AT_TI_symbol_name("contrastSet0")
    2829                            .dwattr $C$DW$238, DW_AT_data_member_location[DW_OP_plus_uconst 0x8]
    2830                            .dwattr $C$DW$238, DW_AT_accessibility(DW_ACCESS_public)
    2831                            .dwattr $C$DW$238, DW_AT_decl_file("C:/ti/simplelink_cc13x0_sdk_2_30_00_20/source/ti/display/l
    2832                            .dwattr $C$DW$238, DW_AT_decl_line(0x182)
    2833                            .dwattr $C$DW$238, DW_AT_decl_column(0x0b)
    2834                    
    2835                    $C$DW$239       .dwtag  DW_TAG_member
    2836                            .dwattr $C$DW$239, DW_AT_type(*$C$DW$T$6)
    2837                            .dwattr $C$DW$239, DW_AT_name("contrastSet1")
    2838                            .dwattr $C$DW$239, DW_AT_TI_symbol_name("contrastSet1")
    2839                            .dwattr $C$DW$239, DW_AT_data_member_location[DW_OP_plus_uconst 0x9]
    2840                            .dwattr $C$DW$239, DW_AT_accessibility(DW_ACCESS_public)
    2841                            .dwattr $C$DW$239, DW_AT_decl_file("C:/ti/simplelink_cc13x0_sdk_2_30_00_20/source/ti/display/l
    2842                            .dwattr $C$DW$239, DW_AT_decl_line(0x183)
    2843                            .dwattr $C$DW$239, DW_AT_decl_column(0x0b)
    2844                    
    2845                    $C$DW$240       .dwtag  DW_TAG_member
    2846                            .dwattr $C$DW$240, DW_AT_type(*$C$DW$T$6)
    2847                            .dwattr $C$DW$240, DW_AT_name("contrastSet2")
    2848                            .dwattr $C$DW$240, DW_AT_TI_symbol_name("contrastSet2")
    2849                            .dwattr $C$DW$240, DW_AT_data_member_location[DW_OP_plus_uconst 0xa]
    2850                            .dwattr $C$DW$240, DW_AT_accessibility(DW_ACCESS_public)
    2851                            .dwattr $C$DW$240, DW_AT_decl_file("C:/ti/simplelink_cc13x0_sdk_2_30_00_20/source/ti/display/l
    2852                            .dwattr $C$DW$240, DW_AT_decl_line(0x184)
    2853                            .dwattr $C$DW$240, DW_AT_decl_column(0x0b)
    2854                    
    2855                    $C$DW$241       .dwtag  DW_TAG_member
    2856                            .dwattr $C$DW$241, DW_AT_type(*$C$DW$T$6)
TI ARM Assembler PC v16.9.9 Sun Nov 25 19:10:01 2018

Tools Copyright (c) 1996-2017 Texas Instruments Incorporated
C:\Users\Stryd\AppData\Local\Temp\{FD2CD87D-546B-4571-BBC0-B7C5FCD47FA5} PAGE   53

    2857                            .dwattr $C$DW$241, DW_AT_name("staticIndicator0")
    2858                            .dwattr $C$DW$241, DW_AT_TI_symbol_name("staticIndicator0")
    2859                            .dwattr $C$DW$241, DW_AT_data_member_location[DW_OP_plus_uconst 0xb]
    2860                            .dwattr $C$DW$241, DW_AT_accessibility(DW_ACCESS_public)
    2861                            .dwattr $C$DW$241, DW_AT_decl_file("C:/ti/simplelink_cc13x0_sdk_2_30_00_20/source/ti/display/l
    2862                            .dwattr $C$DW$241, DW_AT_decl_line(0x185)
    2863                            .dwattr $C$DW$241, DW_AT_decl_column(0x0b)
    2864                    
    2865                    $C$DW$242       .dwtag  DW_TAG_member
    2866                            .dwattr $C$DW$242, DW_AT_type(*$C$DW$T$6)
    2867                            .dwattr $C$DW$242, DW_AT_name("staticIndicator1")
    2868                            .dwattr $C$DW$242, DW_AT_TI_symbol_name("staticIndicator1")
    2869                            .dwattr $C$DW$242, DW_AT_data_member_location[DW_OP_plus_uconst 0xc]
    2870                            .dwattr $C$DW$242, DW_AT_accessibility(DW_ACCESS_public)
    2871                            .dwattr $C$DW$242, DW_AT_decl_file("C:/ti/simplelink_cc13x0_sdk_2_30_00_20/source/ti/display/l
    2872                            .dwattr $C$DW$242, DW_AT_decl_line(0x186)
    2873                            .dwattr $C$DW$242, DW_AT_decl_column(0x0b)
    2874                    
    2875                    $C$DW$243       .dwtag  DW_TAG_member
    2876                            .dwattr $C$DW$243, DW_AT_type(*$C$DW$T$6)
    2877                            .dwattr $C$DW$243, DW_AT_name("displayEn")
    2878                            .dwattr $C$DW$243, DW_AT_TI_symbol_name("displayEn")
    2879                            .dwattr $C$DW$243, DW_AT_data_member_location[DW_OP_plus_uconst 0xd]
    2880                            .dwattr $C$DW$243, DW_AT_accessibility(DW_ACCESS_public)
    2881                            .dwattr $C$DW$243, DW_AT_decl_file("C:/ti/simplelink_cc13x0_sdk_2_30_00_20/source/ti/display/l
    2882                            .dwattr $C$DW$243, DW_AT_decl_line(0x187)
    2883                            .dwattr $C$DW$243, DW_AT_decl_column(0x0b)
    2884                    
    2885                    $C$DW$244       .dwtag  DW_TAG_member
    2886                            .dwattr $C$DW$244, DW_AT_type(*$C$DW$T$6)
    2887                            .dwattr $C$DW$244, DW_AT_name("setPage")
    2888                            .dwattr $C$DW$244, DW_AT_TI_symbol_name("setPage")
    2889                            .dwattr $C$DW$244, DW_AT_data_member_location[DW_OP_plus_uconst 0xe]
    2890                            .dwattr $C$DW$244, DW_AT_accessibility(DW_ACCESS_public)
    2891                            .dwattr $C$DW$244, DW_AT_decl_file("C:/ti/simplelink_cc13x0_sdk_2_30_00_20/source/ti/display/l
    2892                            .dwattr $C$DW$244, DW_AT_decl_line(0x188)
    2893                            .dwattr $C$DW$244, DW_AT_decl_column(0x0b)
    2894                    
    2895                    $C$DW$245       .dwtag  DW_TAG_member
    2896                            .dwattr $C$DW$245, DW_AT_type(*$C$DW$T$6)
    2897                            .dwattr $C$DW$245, DW_AT_name("columnHi")
    2898                            .dwattr $C$DW$245, DW_AT_TI_symbol_name("columnHi")
    2899                            .dwattr $C$DW$245, DW_AT_data_member_location[DW_OP_plus_uconst 0xf]
    2900                            .dwattr $C$DW$245, DW_AT_accessibility(DW_ACCESS_public)
    2901                            .dwattr $C$DW$245, DW_AT_decl_file("C:/ti/simplelink_cc13x0_sdk_2_30_00_20/source/ti/display/l
    2902                            .dwattr $C$DW$245, DW_AT_decl_line(0x189)
    2903                            .dwattr $C$DW$245, DW_AT_decl_column(0x0b)
    2904                    
    2905                    $C$DW$246       .dwtag  DW_TAG_member
    2906                            .dwattr $C$DW$246, DW_AT_type(*$C$DW$T$6)
    2907                            .dwattr $C$DW$246, DW_AT_name("columnLo")
    2908                            .dwattr $C$DW$246, DW_AT_TI_symbol_name("columnLo")
    2909                            .dwattr $C$DW$246, DW_AT_data_member_location[DW_OP_plus_uconst 0x10]
    2910                            .dwattr $C$DW$246, DW_AT_accessibility(DW_ACCESS_public)
    2911                            .dwattr $C$DW$246, DW_AT_decl_file("C:/ti/simplelink_cc13x0_sdk_2_30_00_20/source/ti/display/l
TI ARM Assembler PC v16.9.9 Sun Nov 25 19:10:01 2018

Tools Copyright (c) 1996-2017 Texas Instruments Incorporated
C:\Users\Stryd\AppData\Local\Temp\{FD2CD87D-546B-4571-BBC0-B7C5FCD47FA5} PAGE   54

    2912                            .dwattr $C$DW$246, DW_AT_decl_line(0x18a)
    2913                            .dwattr $C$DW$246, DW_AT_decl_column(0x0b)
    2914                    
    2915                            .dwattr $C$DW$T$229, DW_AT_decl_file("C:/ti/simplelink_cc13x0_sdk_2_30_00_20/source/ti/display
    2916                            .dwattr $C$DW$T$229, DW_AT_decl_line(0x178)
    2917                            .dwattr $C$DW$T$229, DW_AT_decl_column(0x10)
    2918                            .dwendtag $C$DW$T$229
    2919                    
    2920                    $C$DW$T$236     .dwtag  DW_TAG_typedef
    2921                            .dwattr $C$DW$T$236, DW_AT_name("LCD_Command")
    2922                            .dwattr $C$DW$T$236, DW_AT_type(*$C$DW$T$229)
    2923                            .dwattr $C$DW$T$236, DW_AT_language(DW_LANG_C)
    2924                            .dwattr $C$DW$T$236, DW_AT_decl_file("C:/ti/simplelink_cc13x0_sdk_2_30_00_20/source/ti/display
    2925                            .dwattr $C$DW$T$236, DW_AT_decl_line(0x18b)
    2926                            .dwattr $C$DW$T$236, DW_AT_decl_column(0x03)
    2927                    
    2928                    $C$DW$T$237     .dwtag  DW_TAG_const_type
    2929                            .dwattr $C$DW$T$237, DW_AT_type(*$C$DW$T$236)
    2930                    
    2931                    $C$DW$T$238     .dwtag  DW_TAG_pointer_type
    2932                            .dwattr $C$DW$T$238, DW_AT_type(*$C$DW$T$237)
    2933                            .dwattr $C$DW$T$238, DW_AT_address_class(0x20)
    2934                    
    2935                    
    2936                    $C$DW$T$235     .dwtag  DW_TAG_structure_type
    2937                            .dwattr $C$DW$T$235, DW_AT_name("LCD_Config")
    2938                            .dwattr $C$DW$T$235, DW_AT_byte_size(0x08)
    2939                    $C$DW$247       .dwtag  DW_TAG_member
    2940                            .dwattr $C$DW$247, DW_AT_type(*$C$DW$T$231)
    2941                            .dwattr $C$DW$247, DW_AT_name("object")
    2942                            .dwattr $C$DW$247, DW_AT_TI_symbol_name("object")
    2943                            .dwattr $C$DW$247, DW_AT_data_member_location[DW_OP_plus_uconst 0x0]
    2944                            .dwattr $C$DW$247, DW_AT_accessibility(DW_ACCESS_public)
    2945                            .dwattr $C$DW$247, DW_AT_decl_file("C:/ti/simplelink_cc13x0_sdk_2_30_00_20/source/ti/display/l
    2946                            .dwattr $C$DW$247, DW_AT_decl_line(0x1d6)
    2947                            .dwattr $C$DW$247, DW_AT_decl_column(0x1a)
    2948                    
    2949                    $C$DW$248       .dwtag  DW_TAG_member
    2950                            .dwattr $C$DW$248, DW_AT_type(*$C$DW$T$234)
    2951                            .dwattr $C$DW$248, DW_AT_name("hwAttrs")
    2952                            .dwattr $C$DW$248, DW_AT_TI_symbol_name("hwAttrs")
    2953                            .dwattr $C$DW$248, DW_AT_data_member_location[DW_OP_plus_uconst 0x4]
    2954                            .dwattr $C$DW$248, DW_AT_accessibility(DW_ACCESS_public)
    2955                            .dwattr $C$DW$248, DW_AT_decl_file("C:/ti/simplelink_cc13x0_sdk_2_30_00_20/source/ti/display/l
    2956                            .dwattr $C$DW$248, DW_AT_decl_line(0x1d8)
    2957                            .dwattr $C$DW$248, DW_AT_decl_column(0x1a)
    2958                    
    2959                            .dwattr $C$DW$T$235, DW_AT_decl_file("C:/ti/simplelink_cc13x0_sdk_2_30_00_20/source/ti/display
    2960                            .dwattr $C$DW$T$235, DW_AT_decl_line(0x1d3)
    2961                            .dwattr $C$DW$T$235, DW_AT_decl_column(0x10)
    2962                            .dwendtag $C$DW$T$235
    2963                    
    2964                    $C$DW$T$504     .dwtag  DW_TAG_typedef
    2965                            .dwattr $C$DW$T$504, DW_AT_name("LCD_Config")
    2966                            .dwattr $C$DW$T$504, DW_AT_type(*$C$DW$T$235)
TI ARM Assembler PC v16.9.9 Sun Nov 25 19:10:01 2018

Tools Copyright (c) 1996-2017 Texas Instruments Incorporated
C:\Users\Stryd\AppData\Local\Temp\{FD2CD87D-546B-4571-BBC0-B7C5FCD47FA5} PAGE   55

    2967                            .dwattr $C$DW$T$504, DW_AT_language(DW_LANG_C)
    2968                            .dwattr $C$DW$T$504, DW_AT_decl_file("C:/ti/simplelink_cc13x0_sdk_2_30_00_20/source/ti/display
    2969                            .dwattr $C$DW$T$504, DW_AT_decl_line(0x1d9)
    2970                            .dwattr $C$DW$T$504, DW_AT_decl_column(0x03)
    2971                    
    2972                    $C$DW$T$505     .dwtag  DW_TAG_pointer_type
    2973                            .dwattr $C$DW$T$505, DW_AT_type(*$C$DW$T$235)
    2974                            .dwattr $C$DW$T$505, DW_AT_address_class(0x20)
    2975                    
    2976                    $C$DW$T$506     .dwtag  DW_TAG_typedef
    2977                            .dwattr $C$DW$T$506, DW_AT_name("LCD_Handle")
    2978                            .dwattr $C$DW$T$506, DW_AT_type(*$C$DW$T$505)
    2979                            .dwattr $C$DW$T$506, DW_AT_language(DW_LANG_C)
    2980                            .dwattr $C$DW$T$506, DW_AT_decl_file("C:/ti/simplelink_cc13x0_sdk_2_30_00_20/source/ti/display
    2981                            .dwattr $C$DW$T$506, DW_AT_decl_line(0x126)
    2982                            .dwattr $C$DW$T$506, DW_AT_decl_column(0x1e)
    2983                    
    2984                    
    2985                    $C$DW$T$239     .dwtag  DW_TAG_structure_type
    2986                            .dwattr $C$DW$T$239, DW_AT_name("LCD_HWAttrs")
    2987                            .dwattr $C$DW$T$239, DW_AT_byte_size(0x08)
    2988                    $C$DW$249       .dwtag  DW_TAG_member
    2989                            .dwattr $C$DW$249, DW_AT_type(*$C$DW$T$238)
    2990                            .dwattr $C$DW$249, DW_AT_name("LCD_initCmd")
    2991                            .dwattr $C$DW$249, DW_AT_TI_symbol_name("LCD_initCmd")
    2992                            .dwattr $C$DW$249, DW_AT_data_member_location[DW_OP_plus_uconst 0x0]
    2993                            .dwattr $C$DW$249, DW_AT_accessibility(DW_ACCESS_public)
    2994                            .dwattr $C$DW$249, DW_AT_decl_file("C:/ti/simplelink_cc13x0_sdk_2_30_00_20/source/ti/display/l
    2995                            .dwattr $C$DW$249, DW_AT_decl_line(0x1c1)
    2996                            .dwattr $C$DW$249, DW_AT_decl_column(0x18)
    2997                    
    2998                    $C$DW$250       .dwtag  DW_TAG_member
    2999                            .dwattr $C$DW$250, DW_AT_type(*$C$DW$T$88)
    3000                            .dwattr $C$DW$250, DW_AT_name("lcdModePin")
    3001                            .dwattr $C$DW$250, DW_AT_TI_symbol_name("lcdModePin")
    3002                            .dwattr $C$DW$250, DW_AT_data_member_location[DW_OP_plus_uconst 0x4]
    3003                            .dwattr $C$DW$250, DW_AT_accessibility(DW_ACCESS_public)
    3004                            .dwattr $C$DW$250, DW_AT_decl_file("C:/ti/simplelink_cc13x0_sdk_2_30_00_20/source/ti/display/l
    3005                            .dwattr $C$DW$250, DW_AT_decl_line(0x1c3)
    3006                            .dwattr $C$DW$250, DW_AT_decl_column(0x17)
    3007                    
    3008                    $C$DW$251       .dwtag  DW_TAG_member
    3009                            .dwattr $C$DW$251, DW_AT_type(*$C$DW$T$88)
    3010                            .dwattr $C$DW$251, DW_AT_name("lcdResetPin")
    3011                            .dwattr $C$DW$251, DW_AT_TI_symbol_name("lcdResetPin")
    3012                            .dwattr $C$DW$251, DW_AT_data_member_location[DW_OP_plus_uconst 0x5]
    3013                            .dwattr $C$DW$251, DW_AT_accessibility(DW_ACCESS_public)
    3014                            .dwattr $C$DW$251, DW_AT_decl_file("C:/ti/simplelink_cc13x0_sdk_2_30_00_20/source/ti/display/l
