TI ARM Assembler PC v16.9.9 Sun Nov 25 19:10:02 2018

Tools Copyright (c) 1996-2017 Texas Instruments Incorporated
C:\Users\Stryd\AppData\Local\Temp\{A794D619-A51F-4E6F-9B47-EF132169661C} PAGE    1

       1                    ;******************************************************************************
       2                    ;* TI ARM C/C++ Codegen                                        PC v16.9.9.LTS *
       3                    ;* Date/Time created: Sun Nov 25 19:10:02 2018                                *
       4                    ;******************************************************************************
       5                            .compiler_opts --abi=eabi --arm_vmrs_si_workaround=off --code_state=16 --diag_wrap=off --embed
       6 00000000                   .thumb
       7                    
       8                    $C$DW$CU        .dwtag  DW_TAG_compile_unit
       9                            .dwattr $C$DW$CU, DW_AT_name("../Application/MAC/HAL/target/hal_rtc_wrapper.c")
      10                            .dwattr $C$DW$CU, DW_AT_producer("TI TI ARM C/C++ Codegen PC v16.9.9.LTS Copyright (c) 1996-20
      11                            .dwattr $C$DW$CU, DW_AT_TI_version(0x01)
      12                            .dwattr $C$DW$CU, DW_AT_comp_dir("C:\CCSWorkspace\ECG603\sensor_cc1350lp_Lab5Part2\sensor_cc13
      13                    
      14                    $C$DW$1 .dwtag  DW_TAG_subprogram
      15                            .dwattr $C$DW$1, DW_AT_name("ti_sysbios_hal_Hwi_disableInterrupt__E")
      16                            .dwattr $C$DW$1, DW_AT_TI_symbol_name("ti_sysbios_hal_Hwi_disableInterrupt__E")
      17                            .dwattr $C$DW$1, DW_AT_type(*$C$DW$T$337)
      18                            .dwattr $C$DW$1, DW_AT_declaration
      19                            .dwattr $C$DW$1, DW_AT_external
      20                            .dwattr $C$DW$1, DW_AT_decl_file("C:/ti/simplelink_cc13x0_sdk_2_30_00_20/kernel/tirtos/package
      21                            .dwattr $C$DW$1, DW_AT_decl_line(0x1f4)
      22                            .dwattr $C$DW$1, DW_AT_decl_column(0x13)
      23                    $C$DW$2 .dwtag  DW_TAG_formal_parameter
      24                            .dwattr $C$DW$2, DW_AT_type(*$C$DW$T$337)
      25                    
      26                            .dwendtag $C$DW$1
      27                    
      28                    
      29                    $C$DW$3 .dwtag  DW_TAG_subprogram
      30                            .dwattr $C$DW$3, DW_AT_name("ti_sysbios_hal_Hwi_enableInterrupt__E")
      31                            .dwattr $C$DW$3, DW_AT_TI_symbol_name("ti_sysbios_hal_Hwi_enableInterrupt__E")
      32                            .dwattr $C$DW$3, DW_AT_type(*$C$DW$T$337)
      33                            .dwattr $C$DW$3, DW_AT_declaration
      34                            .dwattr $C$DW$3, DW_AT_external
      35                            .dwattr $C$DW$3, DW_AT_decl_file("C:/ti/simplelink_cc13x0_sdk_2_30_00_20/kernel/tirtos/package
      36                            .dwattr $C$DW$3, DW_AT_decl_line(0x1f9)
      37                            .dwattr $C$DW$3, DW_AT_decl_column(0x13)
      38                    $C$DW$4 .dwtag  DW_TAG_formal_parameter
      39                            .dwattr $C$DW$4, DW_AT_type(*$C$DW$T$337)
      40                    
      41                            .dwendtag $C$DW$3
      42                    
      43                    $C$DW$5 .dwtag  DW_TAG_variable
      44                            .dwattr $C$DW$5, DW_AT_name("ICall_enterCriticalSection")
      45                            .dwattr $C$DW$5, DW_AT_TI_symbol_name("ICall_enterCriticalSection")
      46                            .dwattr $C$DW$5, DW_AT_type(*$C$DW$T$267)
      47                            .dwattr $C$DW$5, DW_AT_declaration
      48                            .dwattr $C$DW$5, DW_AT_external
      49                            .dwattr $C$DW$5, DW_AT_decl_file("C:/ti/simplelink_cc13x0_sdk_2_30_00_20/source/ti/ti154stack/
      50                            .dwattr $C$DW$5, DW_AT_decl_line(0x384)
      51                            .dwattr $C$DW$5, DW_AT_decl_column(0x16)
      52                    
      53                    $C$DW$6 .dwtag  DW_TAG_variable
      54                            .dwattr $C$DW$6, DW_AT_name("ICall_leaveCriticalSection")
      55                            .dwattr $C$DW$6, DW_AT_TI_symbol_name("ICall_leaveCriticalSection")
TI ARM Assembler PC v16.9.9 Sun Nov 25 19:10:02 2018

Tools Copyright (c) 1996-2017 Texas Instruments Incorporated
C:\Users\Stryd\AppData\Local\Temp\{A794D619-A51F-4E6F-9B47-EF132169661C} PAGE    2

      56                            .dwattr $C$DW$6, DW_AT_type(*$C$DW$T$270)
      57                            .dwattr $C$DW$6, DW_AT_declaration
      58                            .dwattr $C$DW$6, DW_AT_external
      59                            .dwattr $C$DW$6, DW_AT_decl_file("C:/ti/simplelink_cc13x0_sdk_2_30_00_20/source/ti/ti154stack/
      60                            .dwattr $C$DW$6, DW_AT_decl_line(0x387)
      61                            .dwattr $C$DW$6, DW_AT_decl_column(0x16)
      62                    
      63 00000000           ||$O1$$||:      .usect  ".bss:$O1$$",16,4
      64                    
      65                    ;*********************************************************************
      66                    ;* GROUPED GLOBALS FOR $O1$$                                         *
      67                    ;*********************************************************************
      68          00000000! rtcIntOccurred: .set    ||$O1$$||+0
      69                    $C$DW$7 .dwtag  DW_TAG_variable
      70                            .dwattr $C$DW$7, DW_AT_name("rtcIntOccurred")
      71                            .dwattr $C$DW$7, DW_AT_TI_symbol_name("rtcIntOccurred")
      72                            .dwattr $C$DW$7, DW_AT_type(*$C$DW$T$912)
      73                            .dwattr $C$DW$7, DW_AT_location[DW_OP_addr rtcIntOccurred]
      74                            .dwattr $C$DW$7, DW_AT_decl_file("../Application/MAC/HAL/target/hal_rtc_wrapper.c")
      75                            .dwattr $C$DW$7, DW_AT_decl_line(0x54)
      76                            .dwattr $C$DW$7, DW_AT_decl_column(0x0e)
      77                    
      78          00000004! rtcIntCback:    .set    ||$O1$$||+4
      79                    $C$DW$8 .dwtag  DW_TAG_variable
      80                            .dwattr $C$DW$8, DW_AT_name("rtcIntCback")
      81                            .dwattr $C$DW$8, DW_AT_TI_symbol_name("rtcIntCback")
      82                            .dwattr $C$DW$8, DW_AT_type(*$C$DW$T$724)
      83                            .dwattr $C$DW$8, DW_AT_location[DW_OP_addr rtcIntCback]
      84                            .dwattr $C$DW$8, DW_AT_decl_file("../Application/MAC/HAL/target/hal_rtc_wrapper.c")
      85                            .dwattr $C$DW$8, DW_AT_decl_line(0x57)
      86                            .dwattr $C$DW$8, DW_AT_decl_column(0x16)
      87                    
      88                    ;       C:\ti\ccsv7\tools\compiler\ti-cgt-arm_16.9.9.LTS\bin\armopt.exe C:/CCSWorkspace/ECG603/sensor_
      89 00000000                   .sect   ".text:halClrRtcIntFlag"
      90                            .clink
      91                            .thumbfunc halClrRtcIntFlag
      92 00000000                   .thumb
      93                            .global halClrRtcIntFlag
      94                    
      95                    $C$DW$9 .dwtag  DW_TAG_subprogram
      96                            .dwattr $C$DW$9, DW_AT_name("halClrRtcIntFlag")
      97                            .dwattr $C$DW$9, DW_AT_low_pc(halClrRtcIntFlag)
      98                            .dwattr $C$DW$9, DW_AT_high_pc(0x00)
      99                            .dwattr $C$DW$9, DW_AT_TI_symbol_name("halClrRtcIntFlag")
     100                            .dwattr $C$DW$9, DW_AT_external
     101                            .dwattr $C$DW$9, DW_AT_TI_begin_file("../Application/MAC/HAL/target/hal_rtc_wrapper.c")
     102                            .dwattr $C$DW$9, DW_AT_TI_begin_line(0x194)
     103                            .dwattr $C$DW$9, DW_AT_TI_begin_column(0x06)
     104                            .dwattr $C$DW$9, DW_AT_decl_file("../Application/MAC/HAL/target/hal_rtc_wrapper.c")
     105                            .dwattr $C$DW$9, DW_AT_decl_line(0x194)
     106                            .dwattr $C$DW$9, DW_AT_decl_column(0x06)
     107                            .dwattr $C$DW$9, DW_AT_TI_max_frame_size(0x00)
     108                            .dwpsn  file "../Application/MAC/HAL/target/hal_rtc_wrapper.c",line 405,column 1,is_stmt,addre
     109                    
     110                            .dwfde $C$DW$CIE, halClrRtcIntFlag
TI ARM Assembler PC v16.9.9 Sun Nov 25 19:10:02 2018

Tools Copyright (c) 1996-2017 Texas Instruments Incorporated
C:\Users\Stryd\AppData\Local\Temp\{A794D619-A51F-4E6F-9B47-EF132169661C} PAGE    3

     111                    $C$DW$10        .dwtag  DW_TAG_formal_parameter
     112                            .dwattr $C$DW$10, DW_AT_name("rtcChan")
     113                            .dwattr $C$DW$10, DW_AT_TI_symbol_name("rtcChan")
     114                            .dwattr $C$DW$10, DW_AT_type(*$C$DW$T$10)
     115                            .dwattr $C$DW$10, DW_AT_location[DW_OP_reg0]
     116                    
     117                    
     118                    ;*****************************************************************************
     119                    ;* FUNCTION NAME: halClrRtcIntFlag                                           *
     120                    ;*                                                                           *
     121                    ;*   Regs Modified     : A1,A2,SR                                            *
     122                    ;*   Regs Used         : A1,A2,LR,SR                                         *
     123                    ;*   Local Frame Size  : 0 Args + 0 Auto + 0 Save = 0 byte                   *
     124                    ;*****************************************************************************
     125                    halClrRtcIntFlag:
     126                    ;* --------------------------------------------------------------------------*
     127                    ;* A1    assigned to rtcChan
     128                    $C$DW$11        .dwtag  DW_TAG_variable
     129                            .dwattr $C$DW$11, DW_AT_name("rtcChan")
     130                            .dwattr $C$DW$11, DW_AT_TI_symbol_name("rtcChan")
     131                            .dwattr $C$DW$11, DW_AT_type(*$C$DW$T$913)
     132                            .dwattr $C$DW$11, DW_AT_location[DW_OP_reg0]
     133                    
     134                            .dwcfi  cfa_offset, 0
     135                            .dwpsn  file "../Application/MAC/HAL/target/hal_rtc_wrapper.c",line 409,column 5,is_stmt,isa 1
     136 00000000 4906              LDR       A2, $C$CON2           ; [DPU_3_PIPE] |409|  ; [ORIG 16-BIT INS]
     137                            .dwpsn  file "../Application/MAC/HAL/target/hal_rtc_wrapper.c",line 407,column 3,is_stmt,isa 1
     138 00000002 2801              CMP       A1, #1                ; [DPU_3_PIPE] |407|  ; [ORIG 16-BIT INS]
     139 00000004 D005              BEQ       ||$C$L1||             ; [DPU_3_PIPE] |407|  ; [ORIG 16-BIT INS]
     140                            ; BRANCHCC OCCURS {||$C$L1||}    ; [] |407| 
     141                    ;* --------------------------------------------------------------------------*
     142                            .dwpsn  file "../Application/MAC/HAL/target/hal_rtc_wrapper.c",line 411,column 8,is_stmt,isa 1
     143 00000006 2802              CMP       A1, #2                ; [DPU_3_PIPE] |411|  ; [ORIG 16-BIT INS]
     144 00000008 BF1A              ITTE      NE                    ; [DPU_3_PIPE]  ; [ORIG 16-BIT INS]
     145                            .dwpsn  file "../Application/MAC/HAL/target/hal_rtc_wrapper.c",line 417,column 5,is_stmt,isa 1
     146 0000000a 1C08              MOVNE     A1, A2                ; [DPU_3_PIPE] |417|  ; [ORIG 16-BIT INS]
     147 0000000c 1C40              ADDNE     A1, A1, #1            ; [DPU_3_PIPE]  ; [ORIG 16-BIT INS]
     148                            .dwpsn  file "../Application/MAC/HAL/target/hal_rtc_wrapper.c",line 413,column 5,is_stmt,isa 1
     149 0000000e 1C08              MOVEQ     A1, A2                ; [DPU_3_PIPE] |413|  ; [ORIG 16-BIT INS]
     150                            .dwpsn  file "../Application/MAC/HAL/target/hal_rtc_wrapper.c",line 414,column 3,is_stmt,isa 1
     151 00000010 E001              B         ||$C$L2||             ; [DPU_3_PIPE] |414|  ; [ORIG 16-BIT INS]
     152                            ; BRANCH OCCURS {||$C$L2||}      ; [] |414| 
     153                    ;* --------------------------------------------------------------------------*
     154 00000012           ||$C$L1||:    
     155                            .dwpsn  file "../Application/MAC/HAL/target/hal_rtc_wrapper.c",line 409,column 5,is_stmt,isa 1
     156 00000012 4608              MOV       A1, A2                ; [DPU_3_PIPE] |409|  ; [ORIG 16-BIT INS]
     157 00000014 1E40              SUBS      A1, A1, #1            ; [DPU_3_PIPE]  ; [ORIG 16-BIT INS]
     158                    ;* --------------------------------------------------------------------------*
     159 00000016           ||$C$L2||:    
     160 00000016 2100              MOVS      A2, #0                ; [DPU_3_PIPE] |409|  ; [ORIG 16-BIT INS]
     161 00000018 7001              STRB      A2, [A1, #0]          ; [DPU_3_PIPE] |409|  ; [ORIG 16-BIT INS]
     162                    $C$DW$12        .dwtag  DW_TAG_TI_branch
     163                            .dwattr $C$DW$12, DW_AT_low_pc(0x00)
     164                            .dwattr $C$DW$12, DW_AT_TI_return
     165                    
TI ARM Assembler PC v16.9.9 Sun Nov 25 19:10:02 2018

Tools Copyright (c) 1996-2017 Texas Instruments Incorporated
C:\Users\Stryd\AppData\Local\Temp\{A794D619-A51F-4E6F-9B47-EF132169661C} PAGE    4

     166 0000001a 4770              BX        LR                    ; [DPU_3_PIPE]  ; [ORIG 16-BIT INS]
     167                            ; BRANCH OCCURS                  ; [] 
     168                            .dwattr $C$DW$9, DW_AT_TI_end_file("../Application/MAC/HAL/target/hal_rtc_wrapper.c")
     169                            .dwattr $C$DW$9, DW_AT_TI_end_line(0x1a5)
     170                            .dwattr $C$DW$9, DW_AT_TI_end_column(0x01)
     171                            .dwendentry
     172                            .dwendtag $C$DW$9
     173                    
     174 00000000                   .sect   ".text:halSetRtcTimerEvent"
     175                            .clink
     176                            .thumbfunc halSetRtcTimerEvent
     177 00000000                   .thumb
     178                            .global halSetRtcTimerEvent
     179                    
     180                    $C$DW$13        .dwtag  DW_TAG_subprogram
     181                            .dwattr $C$DW$13, DW_AT_name("halSetRtcTimerEvent")
     182                            .dwattr $C$DW$13, DW_AT_low_pc(halSetRtcTimerEvent)
     183                            .dwattr $C$DW$13, DW_AT_high_pc(0x00)
     184                            .dwattr $C$DW$13, DW_AT_TI_symbol_name("halSetRtcTimerEvent")
     185                            .dwattr $C$DW$13, DW_AT_external
     186                            .dwattr $C$DW$13, DW_AT_TI_begin_file("../Application/MAC/HAL/target/hal_rtc_wrapper.c")
     187                            .dwattr $C$DW$13, DW_AT_TI_begin_line(0xc6)
     188                            .dwattr $C$DW$13, DW_AT_TI_begin_column(0x06)
     189                            .dwattr $C$DW$13, DW_AT_decl_file("../Application/MAC/HAL/target/hal_rtc_wrapper.c")
     190                            .dwattr $C$DW$13, DW_AT_decl_line(0xc6)
     191                            .dwattr $C$DW$13, DW_AT_decl_column(0x06)
     192                            .dwattr $C$DW$13, DW_AT_TI_max_frame_size(0x18)
     193                            .dwpsn  file "../Application/MAC/HAL/target/hal_rtc_wrapper.c",line 199,column 1,is_stmt,addre
     194                    
     195                            .dwfde $C$DW$CIE, halSetRtcTimerEvent
     196                    $C$DW$14        .dwtag  DW_TAG_formal_parameter
     197                            .dwattr $C$DW$14, DW_AT_name("rtcChan")
     198                            .dwattr $C$DW$14, DW_AT_TI_symbol_name("rtcChan")
     199                            .dwattr $C$DW$14, DW_AT_type(*$C$DW$T$750)
     200                            .dwattr $C$DW$14, DW_AT_location[DW_OP_reg0]
     201                    
     202                    $C$DW$15        .dwtag  DW_TAG_formal_parameter
     203                            .dwattr $C$DW$15, DW_AT_name("compVal")
     204                            .dwattr $C$DW$15, DW_AT_TI_symbol_name("compVal")
     205                            .dwattr $C$DW$15, DW_AT_type(*$C$DW$T$750)
     206                            .dwattr $C$DW$15, DW_AT_location[DW_OP_reg1]
     207                    
     208                    
     209                    ;*****************************************************************************
     210                    ;* FUNCTION NAME: halSetRtcTimerEvent                                        *
     211                    ;*                                                                           *
     212                    ;*   Regs Modified     : A1,A2,A3,A4,V1,V2,V3,V4,V5,V9,SP,LR,SR              *
     213                    ;*   Regs Used         : A1,A2,A3,A4,V1,V2,V3,V4,V5,V9,SP,LR,SR              *
     214                    ;*   Local Frame Size  : 0 Args + 0 Auto + 24 Save = 24 byte                 *
     215                    ;*****************************************************************************
     216                    halSetRtcTimerEvent:
     217                    ;* --------------------------------------------------------------------------*
     218                    ;* V1    assigned to rtcChan
     219                    $C$DW$16        .dwtag  DW_TAG_variable
     220                            .dwattr $C$DW$16, DW_AT_name("rtcChan")
TI ARM Assembler PC v16.9.9 Sun Nov 25 19:10:02 2018

Tools Copyright (c) 1996-2017 Texas Instruments Incorporated
C:\Users\Stryd\AppData\Local\Temp\{A794D619-A51F-4E6F-9B47-EF132169661C} PAGE    5

     221                            .dwattr $C$DW$16, DW_AT_TI_symbol_name("rtcChan")
     222                            .dwattr $C$DW$16, DW_AT_type(*$C$DW$T$1225)
     223                            .dwattr $C$DW$16, DW_AT_location[DW_OP_reg4]
     224                    
     225                    ;* V2    assigned to compVal
     226                    $C$DW$17        .dwtag  DW_TAG_variable
     227                            .dwattr $C$DW$17, DW_AT_name("compVal")
     228                            .dwattr $C$DW$17, DW_AT_TI_symbol_name("compVal")
     229                            .dwattr $C$DW$17, DW_AT_type(*$C$DW$T$1225)
     230                            .dwattr $C$DW$17, DW_AT_location[DW_OP_reg5]
     231                    
     232                    ;* V5    assigned to cs
     233                    $C$DW$18        .dwtag  DW_TAG_variable
     234                            .dwattr $C$DW$18, DW_AT_name("cs")
     235                            .dwattr $C$DW$18, DW_AT_TI_symbol_name("cs")
     236                            .dwattr $C$DW$18, DW_AT_type(*$C$DW$T$1091)
     237                            .dwattr $C$DW$18, DW_AT_location[DW_OP_reg8]
     238                    
     239                            .dwcfi  cfa_offset, 0
     240 00000000 41F0E92D          PUSH      {V1, V2, V3, V4, V5, LR} ; [DPU_3_PIPE]  ; [KEEP 32-BIT INS]
     241                            .dwcfi  cfa_offset, 24
     242                            .dwcfi  save_reg_to_mem, 14, -4
     243                            .dwcfi  save_reg_to_mem, 8, -8
     244                            .dwcfi  save_reg_to_mem, 7, -12
     245                            .dwcfi  save_reg_to_mem, 6, -16
     246                            .dwcfi  save_reg_to_mem, 5, -20
     247                            .dwcfi  save_reg_to_mem, 4, -24
     248 00000004 4604              MOV       V1, A1                ; [DPU_3_PIPE] |199|  ; [ORIG 16-BIT INS]
     249                            .dwpsn  file "../Application/MAC/HAL/target/hal_rtc_wrapper.c",line 202,column 3,is_stmt,isa 1
     250 00000006 482B              LDR       A1, $C$CON4           ; [DPU_3_PIPE] |202|  ; [ORIG 16-BIT INS]
     251 00000008 6800              LDR       A1, [A1, #0]          ; [DPU_3_PIPE] |202|  ; [ORIG 16-BIT INS]
     252                            .dwpsn  file "../Application/MAC/HAL/target/hal_rtc_wrapper.c",line 199,column 1,is_stmt,isa 1
     253 0000000a 460D              MOV       V2, A2                ; [DPU_3_PIPE] |199|  ; [ORIG 16-BIT INS]
     254                            .dwpsn  file "../Application/MAC/HAL/target/hal_rtc_wrapper.c",line 202,column 3,is_stmt,isa 1
     255                    $C$DW$19        .dwtag  DW_TAG_TI_branch
     256                            .dwattr $C$DW$19, DW_AT_low_pc(0x00)
     257                            .dwattr $C$DW$19, DW_AT_TI_call
     258                            .dwattr $C$DW$19, DW_AT_TI_indirect
     259                    
     260 0000000c 4780              BLX       A1                    ; [DPU_3_PIPE] |202|  ; [ORIG 16-BIT INS]
     261                            ; CALL OCCURS {}                 ; [] |202| 
     262                            .dwpsn  file "C:/ti/simplelink_cc13x0_sdk_2_30_00_20/source/ti/devices/cc13x0/driverlib/aon_rt
     263 0000000e 4B2A              LDR       A4, $C$CON5           ; [DPU_3_PIPE] |657|  ; [ORIG 16-BIT INS]
     264                            .dwpsn  file "../Application/MAC/HAL/target/hal_rtc_wrapper.c",line 202,column 3,is_stmt,isa 1
     265 00000010 4680              MOV       V5, A1                ; [DPU_3_PIPE] |202|  ; [ORIG 16-BIT INS]
     266                            .dwpsn  file "C:/ti/simplelink_cc13x0_sdk_2_30_00_20/source/ti/devices/cc13x0/driverlib/aon_rt
     267 00000012 0860              LSRS      A1, V1, #1            ; [DPU_3_PIPE] |698|  ; [ORIG 16-BIT INS]
     268 00000014 D302              BCC       ||$C$L3||             ; [DPU_3_PIPE] |698|  ; [ORIG 16-BIT INS]
     269                            ; BRANCHCC OCCURS {||$C$L3||}    ; [] |698| 
     270                    ;* --------------------------------------------------------------------------*
     271                            .dwpsn  file "C:/ti/simplelink_cc13x0_sdk_2_30_00_20/source/ti/devices/cc13x0/driverlib/aon_rt
     272 00000016 2100              MOVS      A2, #0                ; [DPU_3_PIPE] |700|  ; [ORIG 16-BIT INS]
     273 00000018 4618              MOV       A1, A4                ; [DPU_3_PIPE] |700|  ; [ORIG 16-BIT INS]
     274 0000001a 6001              STR       A2, [A1, #0]          ; [DPU_3_PIPE] |700|  ; [ORIG 16-BIT INS]
     275                    ;* --------------------------------------------------------------------------*
TI ARM Assembler PC v16.9.9 Sun Nov 25 19:10:02 2018

Tools Copyright (c) 1996-2017 Texas Instruments Incorporated
C:\Users\Stryd\AppData\Local\Temp\{A794D619-A51F-4E6F-9B47-EF132169661C} PAGE    6

     276 0000001c           ||$C$L3||:    
     277                            .dwpsn  file "C:/ti/simplelink_cc13x0_sdk_2_30_00_20/source/ti/devices/cc13x0/driverlib/aon_rt
     278 0000001c 4F27              LDR       V4, $C$CON6           ; [DPU_3_PIPE] |662|  ; [ORIG 16-BIT INS]
     279                            .dwpsn  file "C:/ti/simplelink_cc13x0_sdk_2_30_00_20/source/ti/devices/cc13x0/driverlib/aon_rt
     280 0000001e 08A0              LSRS      A1, V1, #2            ; [DPU_3_PIPE] |703|  ; [ORIG 16-BIT INS]
     281 00000020 BF24              ITT       CS                    ; [DPU_3_PIPE]  ; [ORIG 16-BIT INS]
     282                            .dwpsn  file "C:/ti/simplelink_cc13x0_sdk_2_30_00_20/source/ti/devices/cc13x0/driverlib/aon_rt
     283 00000022 2000              MOVCS     A1, #0                ; [DPU_3_PIPE] |705|  ; [ORIG 16-BIT INS]
     284 00000024 6038              STRCS     A1, [V4, #0]          ; [DPU_3_PIPE] |705|  ; [ORIG 16-BIT INS]
     285                            .dwpsn  file "C:/ti/simplelink_cc13x0_sdk_2_30_00_20/source/ti/devices/cc13x0/driverlib/aon_rt
     286 00000026 4E26              LDR       V3, $C$CON7           ; [DPU_3_PIPE] |667|  ; [ORIG 16-BIT INS]
     287                            .dwpsn  file "C:/ti/simplelink_cc13x0_sdk_2_30_00_20/source/ti/devices/cc13x0/driverlib/aon_rt
     288 00000028 08E0              LSRS      A1, V1, #3            ; [DPU_3_PIPE] |708|  ; [ORIG 16-BIT INS]
     289 0000002a BF24              ITT       CS                    ; [DPU_3_PIPE]  ; [ORIG 16-BIT INS]
     290                            .dwpsn  file "C:/ti/simplelink_cc13x0_sdk_2_30_00_20/source/ti/devices/cc13x0/driverlib/aon_rt
     291 0000002c 2000              MOVCS     A1, #0                ; [DPU_3_PIPE] |710|  ; [ORIG 16-BIT INS]
     292 0000002e 6030              STRCS     A1, [V3, #0]          ; [DPU_3_PIPE] |710|  ; [ORIG 16-BIT INS]
     293                            .dwpsn  file "C:/ti/simplelink_cc13x0_sdk_2_30_00_20/source/ti/devices/cc13x0/driverlib/aon_rt
     294 00000030 4A24              LDR       A3, $C$CON8           ; [DPU_3_PIPE] |757|  ; [ORIG 16-BIT INS]
     295                            .dwpsn  file "C:/ti/simplelink_cc13x0_sdk_2_30_00_20/source/ti/devices/cc13x0/driverlib/aon_rt
     296 00000032 0860              LSRS      A1, V1, #1            ; [DPU_3_PIPE] |375|  ; [ORIG 16-BIT INS]
     297 00000034 D302              BCC       ||$C$L4||             ; [DPU_3_PIPE] |375|  ; [ORIG 16-BIT INS]
     298                            ; BRANCHCC OCCURS {||$C$L4||}    ; [] |375| 
     299                    ;* --------------------------------------------------------------------------*
     300                            .dwpsn  file "C:/ti/simplelink_cc13x0_sdk_2_30_00_20/source/ti/devices/cc13x0/driverlib/aon_rt
     301 00000036 2101              MOVS      A2, #1                ; [DPU_3_PIPE] |377|  ; [ORIG 16-BIT INS]
     302 00000038 4610              MOV       A1, A3                ; [DPU_3_PIPE] |377|  ; [ORIG 16-BIT INS]
     303 0000003a 6001              STR       A2, [A1, #0]          ; [DPU_3_PIPE] |377|  ; [ORIG 16-BIT INS]
     304                    ;* --------------------------------------------------------------------------*
     305 0000003c           ||$C$L4||:    
     306                            .dwpsn  file "C:/ti/simplelink_cc13x0_sdk_2_30_00_20/source/ti/devices/cc13x0/driverlib/aon_rt
     307 0000003c 08A0              LSRS      A1, V1, #2            ; [DPU_3_PIPE] |380|  ; [ORIG 16-BIT INS]
     308 0000003e D303              BCC       ||$C$L5||             ; [DPU_3_PIPE] |380|  ; [ORIG 16-BIT INS]
     309                            ; BRANCHCC OCCURS {||$C$L5||}    ; [] |380| 
     310                    ;* --------------------------------------------------------------------------*
     311                            .dwpsn  file "C:/ti/simplelink_cc13x0_sdk_2_30_00_20/source/ti/devices/cc13x0/driverlib/aon_rt
     312 00000040 7180F44F          MOV       A2, #256              ; [DPU_3_PIPE] |382|  ; [KEEP 32-BIT INS]
     313 00000044 4610              MOV       A1, A3                ; [DPU_3_PIPE] |382|  ; [ORIG 16-BIT INS]
     314 00000046 6001              STR       A2, [A1, #0]          ; [DPU_3_PIPE] |382|  ; [ORIG 16-BIT INS]
     315                    ;* --------------------------------------------------------------------------*
     316 00000048           ||$C$L5||:    
     317                            .dwpsn  file "C:/ti/simplelink_cc13x0_sdk_2_30_00_20/source/ti/devices/cc13x0/driverlib/aon_rt
     318 00000048 08E0              LSRS      A1, V1, #3            ; [DPU_3_PIPE] |385|  ; [ORIG 16-BIT INS]
     319 0000004a D303              BCC       ||$C$L6||             ; [DPU_3_PIPE] |385|  ; [ORIG 16-BIT INS]
     320                            ; BRANCHCC OCCURS {||$C$L6||}    ; [] |385| 
     321                    ;* --------------------------------------------------------------------------*
     322                            .dwpsn  file "C:/ti/simplelink_cc13x0_sdk_2_30_00_20/source/ti/devices/cc13x0/driverlib/aon_rt
     323 0000004c 3180F44F          MOV       A2, #65536            ; [DPU_3_PIPE] |387|  ; [KEEP 32-BIT INS]
     324 00000050 4610              MOV       A1, A3                ; [DPU_3_PIPE] |387|  ; [ORIG 16-BIT INS]
     325 00000052 6001              STR       A2, [A1, #0]          ; [DPU_3_PIPE] |387|  ; [ORIG 16-BIT INS]
     326                    ;* --------------------------------------------------------------------------*
     327 00000054           ||$C$L6||:    
     328                            .dwpsn  file "../Application/MAC/HAL/target/hal_rtc_wrapper.c",line 210,column 3,is_stmt,isa 1
     329 00000054 2C02              CMP       V1, #2                ; [DPU_3_PIPE] |210|  ; [ORIG 16-BIT INS]
     330 00000056 D004              BEQ       ||$C$L7||             ; [DPU_3_PIPE] |210|  ; [ORIG 16-BIT INS]
TI ARM Assembler PC v16.9.9 Sun Nov 25 19:10:02 2018

Tools Copyright (c) 1996-2017 Texas Instruments Incorporated
C:\Users\Stryd\AppData\Local\Temp\{A794D619-A51F-4E6F-9B47-EF132169661C} PAGE    7

     331                            ; BRANCHCC OCCURS {||$C$L7||}    ; [] |210| 
     332                    ;* --------------------------------------------------------------------------*
     333                            .dwpsn  file "../Application/MAC/HAL/target/hal_rtc_wrapper.c",line 215,column 8,is_stmt,isa 1
     334 00000058 2C04              CMP       V1, #4                ; [DPU_3_PIPE] |215|  ; [ORIG 16-BIT INS]
     335 0000005a D106              BNE       ||$C$L9||             ; [DPU_3_PIPE] |215|  ; [ORIG 16-BIT INS]
     336                            ; BRANCHCC OCCURS {||$C$L9||}    ; [] |215| 
     337                    ;* --------------------------------------------------------------------------*
     338                            .dwpsn  file "C:/ti/simplelink_cc13x0_sdk_2_30_00_20/source/ti/devices/cc13x0/driverlib/aon_rt
     339 0000005c 4618              MOV       A1, A4                ; [DPU_3_PIPE] |601|  ; [ORIG 16-BIT INS]
     340 0000005e 3048              ADDS      A1, A1, #72           ; [DPU_3_PIPE]  ; [ORIG 16-BIT INS]
     341                            .dwpsn  file "../Application/MAC/HAL/target/hal_rtc_wrapper.c",line 218,column 5,is_stmt,isa 1
     342 00000060 E001              B         ||$C$L8||             ; [DPU_3_PIPE] |218|  ; [ORIG 16-BIT INS]
     343                            ; BRANCH OCCURS {||$C$L8||}      ; [] |218| 
     344                    ;* --------------------------------------------------------------------------*
     345 00000062           ||$C$L7||:    
     346                            .dwpsn  file "C:/ti/simplelink_cc13x0_sdk_2_30_00_20/source/ti/devices/cc13x0/driverlib/aon_rt
     347 00000062 4618              MOV       A1, A4                ; [DPU_3_PIPE] |547|  ; [ORIG 16-BIT INS]
     348 00000064 3024              ADDS      A1, A1, #36           ; [DPU_3_PIPE]  ; [ORIG 16-BIT INS]
     349                    ;* --------------------------------------------------------------------------*
     350 00000066           ||$C$L8||:    
     351 00000066 2100              MOVS      A2, #0                ; [DPU_3_PIPE] |547|  ; [ORIG 16-BIT INS]
     352 00000068 6001              STR       A2, [A1, #0]          ; [DPU_3_PIPE] |547|  ; [ORIG 16-BIT INS]
     353                    ;* --------------------------------------------------------------------------*
     354 0000006a           ||$C$L9||:    
     355                            .dwpsn  file "../Application/MAC/HAL/target/hal_rtc_wrapper.c",line 222,column 3,is_stmt,isa 1
     356 0000006a B2E0              UXTB      A1, V1                ; [DPU_3_PIPE] |222|  ; [ORIG 16-BIT INS]
     357                    $C$DW$20        .dwtag  DW_TAG_TI_branch
     358                            .dwattr $C$DW$20, DW_AT_low_pc(0x00)
     359                            .dwattr $C$DW$20, DW_AT_name("halClrRtcIntFlag")
     360                            .dwattr $C$DW$20, DW_AT_TI_call
     361                    
     362 0000006c FFFEF7FF!         BL        halClrRtcIntFlag      ; [DPU_3_PIPE] |222|  ; [KEEP 32-BIT INS]
     363                            ; CALL OCCURS {halClrRtcIntFlag }  ; [] |222| 
     364                            .dwpsn  file "C:/ti/simplelink_cc13x0_sdk_2_30_00_20/source/ti/devices/cc13x0/driverlib/aon_rt
     365 00000070 0860              LSRS      A1, V1, #1            ; [DPU_3_PIPE] |745|  ; [ORIG 16-BIT INS]
     366 00000072 D302              BCC       ||$C$L10||            ; [DPU_3_PIPE] |745|  ; [ORIG 16-BIT INS]
     367                            ; BRANCHCC OCCURS {||$C$L10||}   ; [] |745| 
     368                    ;* --------------------------------------------------------------------------*
     369                            .dwpsn  file "C:/ti/simplelink_cc13x0_sdk_2_30_00_20/source/ti/devices/cc13x0/driverlib/aon_rt
     370 00000074 4610              MOV       A1, A3                ; [DPU_3_PIPE] |747|  ; [ORIG 16-BIT INS]
     371 00000076 3014              ADDS      A1, A1, #20           ; [DPU_3_PIPE]  ; [ORIG 16-BIT INS]
     372 00000078 6005              STR       V2, [A1, #0]          ; [DPU_3_PIPE] |747|  ; [ORIG 16-BIT INS]
     373                    ;* --------------------------------------------------------------------------*
     374 0000007a           ||$C$L10||:    
     375                            .dwpsn  file "C:/ti/simplelink_cc13x0_sdk_2_30_00_20/source/ti/devices/cc13x0/driverlib/aon_rt
     376 0000007a 08A0              LSRS      A1, V1, #2            ; [DPU_3_PIPE] |750|  ; [ORIG 16-BIT INS]
     377 0000007c D302              BCC       ||$C$L11||            ; [DPU_3_PIPE] |750|  ; [ORIG 16-BIT INS]
     378                            ; BRANCHCC OCCURS {||$C$L11||}   ; [] |750| 
     379                    ;* --------------------------------------------------------------------------*
     380                            .dwpsn  file "C:/ti/simplelink_cc13x0_sdk_2_30_00_20/source/ti/devices/cc13x0/driverlib/aon_rt
     381 0000007e 4610              MOV       A1, A3                ; [DPU_3_PIPE] |752|  ; [ORIG 16-BIT INS]
     382 00000080 3018              ADDS      A1, A1, #24           ; [DPU_3_PIPE]  ; [ORIG 16-BIT INS]
     383 00000082 6005              STR       V2, [A1, #0]          ; [DPU_3_PIPE] |752|  ; [ORIG 16-BIT INS]
     384                    ;* --------------------------------------------------------------------------*
     385 00000084           ||$C$L11||:    
TI ARM Assembler PC v16.9.9 Sun Nov 25 19:10:02 2018

Tools Copyright (c) 1996-2017 Texas Instruments Incorporated
C:\Users\Stryd\AppData\Local\Temp\{A794D619-A51F-4E6F-9B47-EF132169661C} PAGE    8

     386                            .dwpsn  file "C:/ti/simplelink_cc13x0_sdk_2_30_00_20/source/ti/devices/cc13x0/driverlib/aon_rt
     387 00000084 08E0              LSRS      A1, V1, #3            ; [DPU_3_PIPE] |755|  ; [ORIG 16-BIT INS]
     388 00000086 D302              BCC       ||$C$L12||            ; [DPU_3_PIPE] |755|  ; [ORIG 16-BIT INS]
     389                            ; BRANCHCC OCCURS {||$C$L12||}   ; [] |755| 
     390                    ;* --------------------------------------------------------------------------*
     391                            .dwpsn  file "C:/ti/simplelink_cc13x0_sdk_2_30_00_20/source/ti/devices/cc13x0/driverlib/aon_rt
     392 00000088 4610              MOV       A1, A3                ; [DPU_3_PIPE] |757|  ; [ORIG 16-BIT INS]
     393 0000008a 301C              ADDS      A1, A1, #28           ; [DPU_3_PIPE]  ; [ORIG 16-BIT INS]
     394 0000008c 6005              STR       V2, [A1, #0]          ; [DPU_3_PIPE] |757|  ; [ORIG 16-BIT INS]
     395                    ;* --------------------------------------------------------------------------*
     396 0000008e           ||$C$L12||:    
     397                            .dwpsn  file "C:/ti/simplelink_cc13x0_sdk_2_30_00_20/source/ti/devices/cc13x0/driverlib/aon_rt
     398 0000008e 0860              LSRS      A1, V1, #1            ; [DPU_3_PIPE] |655|  ; [ORIG 16-BIT INS]
     399 00000090 D302              BCC       ||$C$L13||            ; [DPU_3_PIPE] |655|  ; [ORIG 16-BIT INS]
     400                            ; BRANCHCC OCCURS {||$C$L13||}   ; [] |655| 
     401                    ;* --------------------------------------------------------------------------*
     402                            .dwpsn  file "C:/ti/simplelink_cc13x0_sdk_2_30_00_20/source/ti/devices/cc13x0/driverlib/aon_rt
     403 00000092 2101              MOVS      A2, #1                ; [DPU_3_PIPE] |657|  ; [ORIG 16-BIT INS]
     404 00000094 4618              MOV       A1, A4                ; [DPU_3_PIPE] |657|  ; [ORIG 16-BIT INS]
     405 00000096 6001              STR       A2, [A1, #0]          ; [DPU_3_PIPE] |657|  ; [ORIG 16-BIT INS]
     406                    ;* --------------------------------------------------------------------------*
     407 00000098           ||$C$L13||:    
     408                            .dwpsn  file "C:/ti/simplelink_cc13x0_sdk_2_30_00_20/source/ti/devices/cc13x0/driverlib/aon_rt
     409 00000098 08A0              LSRS      A1, V1, #2            ; [DPU_3_PIPE] |660|  ; [ORIG 16-BIT INS]
     410 0000009a BF24              ITT       CS                    ; [DPU_3_PIPE]  ; [ORIG 16-BIT INS]
     411                            .dwpsn  file "C:/ti/simplelink_cc13x0_sdk_2_30_00_20/source/ti/devices/cc13x0/driverlib/aon_rt
     412 0000009c 2001              MOVCS     A1, #1                ; [DPU_3_PIPE] |662|  ; [ORIG 16-BIT INS]
     413 0000009e 6038              STRCS     A1, [V4, #0]          ; [DPU_3_PIPE] |662|  ; [ORIG 16-BIT INS]
     414                            .dwpsn  file "C:/ti/simplelink_cc13x0_sdk_2_30_00_20/source/ti/devices/cc13x0/driverlib/aon_rt
     415 000000a0 08E0              LSRS      A1, V1, #3            ; [DPU_3_PIPE] |665|  ; [ORIG 16-BIT INS]
     416 000000a2 BF24              ITT       CS                    ; [DPU_3_PIPE]  ; [ORIG 16-BIT INS]
     417                            .dwpsn  file "C:/ti/simplelink_cc13x0_sdk_2_30_00_20/source/ti/devices/cc13x0/driverlib/aon_rt
     418 000000a4 2001              MOVCS     A1, #1                ; [DPU_3_PIPE] |667|  ; [ORIG 16-BIT INS]
     419 000000a6 6030              STRCS     A1, [V3, #0]          ; [DPU_3_PIPE] |667|  ; [ORIG 16-BIT INS]
     420                            .dwpsn  file "../Application/MAC/HAL/target/hal_rtc_wrapper.c",line 230,column 3,is_stmt,isa 1
     421 000000a8 4807              LDR       A1, $C$CON14          ; [DPU_3_PIPE] |230|  ; [ORIG 16-BIT INS]
     422 000000aa 6801              LDR       A2, [A1, #0]          ; [DPU_3_PIPE] |230|  ; [ORIG 16-BIT INS]
     423 000000ac 4640              MOV       A1, V5                ; [DPU_3_PIPE] |230|  ; [ORIG 16-BIT INS]
     424                    $C$DW$21        .dwtag  DW_TAG_TI_branch
     425                            .dwattr $C$DW$21, DW_AT_low_pc(0x00)
     426                            .dwattr $C$DW$21, DW_AT_TI_call
     427                            .dwattr $C$DW$21, DW_AT_TI_indirect
     428                    
     429 000000ae 4788              BLX       A2                    ; [DPU_3_PIPE] |230|  ; [ORIG 16-BIT INS]
     430                            ; CALL OCCURS {}                 ; [] |230| 
     431                    $C$DW$22        .dwtag  DW_TAG_TI_branch
     432                            .dwattr $C$DW$22, DW_AT_low_pc(0x00)
     433                            .dwattr $C$DW$22, DW_AT_TI_return
     434                    
     435 000000b0 81F0E8BD          POP       {V1, V2, V3, V4, V5, PC} ; [DPU_3_PIPE]  ; [KEEP 32-BIT INS]
     436                            .dwcfi  cfa_offset, 0
     437                            .dwcfi  restore_reg, 8
     438                            .dwcfi  restore_reg, 7
     439                            .dwcfi  restore_reg, 6
     440                            .dwcfi  restore_reg, 5
TI ARM Assembler PC v16.9.9 Sun Nov 25 19:10:02 2018

Tools Copyright (c) 1996-2017 Texas Instruments Incorporated
C:\Users\Stryd\AppData\Local\Temp\{A794D619-A51F-4E6F-9B47-EF132169661C} PAGE    9

     441                            .dwcfi  restore_reg, 4
     442                            ; BRANCH OCCURS                  ; [] 
     443                            .dwattr $C$DW$13, DW_AT_TI_end_file("../Application/MAC/HAL/target/hal_rtc_wrapper.c")
     444                            .dwattr $C$DW$13, DW_AT_TI_end_line(0xe9)
     445                            .dwattr $C$DW$13, DW_AT_TI_end_column(0x01)
     446                            .dwendentry
     447                            .dwendtag $C$DW$13
     448                    
     449 00000000                   .sect   ".text:halSetRtcIntFlag"
     450                            .clink
     451                            .thumbfunc halSetRtcIntFlag
     452 00000000                   .thumb
     453                            .global halSetRtcIntFlag
     454                    
     455                    $C$DW$23        .dwtag  DW_TAG_subprogram
     456                            .dwattr $C$DW$23, DW_AT_name("halSetRtcIntFlag")
     457                            .dwattr $C$DW$23, DW_AT_low_pc(halSetRtcIntFlag)
     458                            .dwattr $C$DW$23, DW_AT_high_pc(0x00)
     459                            .dwattr $C$DW$23, DW_AT_TI_symbol_name("halSetRtcIntFlag")
     460                            .dwattr $C$DW$23, DW_AT_external
     461                            .dwattr $C$DW$23, DW_AT_TI_begin_file("../Application/MAC/HAL/target/hal_rtc_wrapper.c")
     462                            .dwattr $C$DW$23, DW_AT_TI_begin_line(0x170)
     463                            .dwattr $C$DW$23, DW_AT_TI_begin_column(0x06)
     464                            .dwattr $C$DW$23, DW_AT_decl_file("../Application/MAC/HAL/target/hal_rtc_wrapper.c")
     465                            .dwattr $C$DW$23, DW_AT_decl_line(0x170)
     466                            .dwattr $C$DW$23, DW_AT_decl_column(0x06)
     467                            .dwattr $C$DW$23, DW_AT_TI_max_frame_size(0x00)
     468                            .dwpsn  file "../Application/MAC/HAL/target/hal_rtc_wrapper.c",line 369,column 1,is_stmt,addre
     469                    
     470                            .dwfde $C$DW$CIE, halSetRtcIntFlag
     471                    $C$DW$24        .dwtag  DW_TAG_formal_parameter
     472                            .dwattr $C$DW$24, DW_AT_name("rtcChan")
     473                            .dwattr $C$DW$24, DW_AT_TI_symbol_name("rtcChan")
     474                            .dwattr $C$DW$24, DW_AT_type(*$C$DW$T$10)
     475                            .dwattr $C$DW$24, DW_AT_location[DW_OP_reg0]
     476                    
     477                    
     478                    ;*****************************************************************************
     479                    ;* FUNCTION NAME: halSetRtcIntFlag                                           *
     480                    ;*                                                                           *
     481                    ;*   Regs Modified     : A1,A2,SR                                            *
     482                    ;*   Regs Used         : A1,A2,LR,SR                                         *
     483                    ;*   Local Frame Size  : 0 Args + 0 Auto + 0 Save = 0 byte                   *
     484                    ;*****************************************************************************
     485                    halSetRtcIntFlag:
     486                    ;* --------------------------------------------------------------------------*
     487                    ;* A1    assigned to rtcChan
     488                    $C$DW$25        .dwtag  DW_TAG_variable
     489                            .dwattr $C$DW$25, DW_AT_name("rtcChan")
     490                            .dwattr $C$DW$25, DW_AT_TI_symbol_name("rtcChan")
     491                            .dwattr $C$DW$25, DW_AT_type(*$C$DW$T$913)
     492                            .dwattr $C$DW$25, DW_AT_location[DW_OP_reg0]
     493                    
     494                            .dwcfi  cfa_offset, 0
     495                            .dwpsn  file "../Application/MAC/HAL/target/hal_rtc_wrapper.c",line 373,column 5,is_stmt,isa 1
TI ARM Assembler PC v16.9.9 Sun Nov 25 19:10:02 2018

Tools Copyright (c) 1996-2017 Texas Instruments Incorporated
C:\Users\Stryd\AppData\Local\Temp\{A794D619-A51F-4E6F-9B47-EF132169661C} PAGE   10

     496 00000000 4906              LDR       A2, $C$CON18          ; [DPU_3_PIPE] |373|  ; [ORIG 16-BIT INS]
     497                            .dwpsn  file "../Application/MAC/HAL/target/hal_rtc_wrapper.c",line 371,column 3,is_stmt,isa 1
     498 00000002 2801              CMP       A1, #1                ; [DPU_3_PIPE] |371|  ; [ORIG 16-BIT INS]
     499 00000004 D005              BEQ       ||$C$L14||            ; [DPU_3_PIPE] |371|  ; [ORIG 16-BIT INS]
     500                            ; BRANCHCC OCCURS {||$C$L14||}   ; [] |371| 
     501                    ;* --------------------------------------------------------------------------*
     502                            .dwpsn  file "../Application/MAC/HAL/target/hal_rtc_wrapper.c",line 375,column 8,is_stmt,isa 1
     503 00000006 2802              CMP       A1, #2                ; [DPU_3_PIPE] |375|  ; [ORIG 16-BIT INS]
     504 00000008 BF1A              ITTE      NE                    ; [DPU_3_PIPE]  ; [ORIG 16-BIT INS]
     505                            .dwpsn  file "../Application/MAC/HAL/target/hal_rtc_wrapper.c",line 381,column 5,is_stmt,isa 1
     506 0000000a 1C08              MOVNE     A1, A2                ; [DPU_3_PIPE] |381|  ; [ORIG 16-BIT INS]
     507 0000000c 1C40              ADDNE     A1, A1, #1            ; [DPU_3_PIPE]  ; [ORIG 16-BIT INS]
     508                            .dwpsn  file "../Application/MAC/HAL/target/hal_rtc_wrapper.c",line 377,column 5,is_stmt,isa 1
     509 0000000e 1C08              MOVEQ     A1, A2                ; [DPU_3_PIPE] |377|  ; [ORIG 16-BIT INS]
     510                            .dwpsn  file "../Application/MAC/HAL/target/hal_rtc_wrapper.c",line 378,column 3,is_stmt,isa 1
     511 00000010 E001              B         ||$C$L15||            ; [DPU_3_PIPE] |378|  ; [ORIG 16-BIT INS]
     512                            ; BRANCH OCCURS {||$C$L15||}     ; [] |378| 
     513                    ;* --------------------------------------------------------------------------*
     514 00000012           ||$C$L14||:    
     515                            .dwpsn  file "../Application/MAC/HAL/target/hal_rtc_wrapper.c",line 373,column 5,is_stmt,isa 1
     516 00000012 4608              MOV       A1, A2                ; [DPU_3_PIPE] |373|  ; [ORIG 16-BIT INS]
     517 00000014 1E40              SUBS      A1, A1, #1            ; [DPU_3_PIPE]  ; [ORIG 16-BIT INS]
     518                    ;* --------------------------------------------------------------------------*
     519 00000016           ||$C$L15||:    
     520 00000016 2101              MOVS      A2, #1                ; [DPU_3_PIPE] |373|  ; [ORIG 16-BIT INS]
     521 00000018 7001              STRB      A2, [A1, #0]          ; [DPU_3_PIPE] |373|  ; [ORIG 16-BIT INS]
     522                    $C$DW$26        .dwtag  DW_TAG_TI_branch
     523                            .dwattr $C$DW$26, DW_AT_low_pc(0x00)
     524                            .dwattr $C$DW$26, DW_AT_TI_return
     525                    
     526 0000001a 4770              BX        LR                    ; [DPU_3_PIPE]  ; [ORIG 16-BIT INS]
     527                            ; BRANCH OCCURS                  ; [] 
     528                            .dwattr $C$DW$23, DW_AT_TI_end_file("../Application/MAC/HAL/target/hal_rtc_wrapper.c")
     529                            .dwattr $C$DW$23, DW_AT_TI_end_line(0x181)
     530                            .dwattr $C$DW$23, DW_AT_TI_end_column(0x01)
     531                            .dwendentry
     532                            .dwendtag $C$DW$23
     533                    
     534 00000000                   .sect   ".text:halRtcTimerDelta"
     535                            .clink
     536                            .thumbfunc halRtcTimerDelta
     537 00000000                   .thumb
     538                            .global halRtcTimerDelta
     539                    
     540                    $C$DW$27        .dwtag  DW_TAG_subprogram
     541                            .dwattr $C$DW$27, DW_AT_name("halRtcTimerDelta")
     542                            .dwattr $C$DW$27, DW_AT_low_pc(halRtcTimerDelta)
     543                            .dwattr $C$DW$27, DW_AT_high_pc(0x00)
     544                            .dwattr $C$DW$27, DW_AT_TI_symbol_name("halRtcTimerDelta")
     545                            .dwattr $C$DW$27, DW_AT_external
     546                            .dwattr $C$DW$27, DW_AT_type(*$C$DW$T$750)
     547                            .dwattr $C$DW$27, DW_AT_TI_begin_file("../Application/MAC/HAL/target/hal_rtc_wrapper.c")
     548                            .dwattr $C$DW$27, DW_AT_TI_begin_line(0x1bb)
     549                            .dwattr $C$DW$27, DW_AT_TI_begin_column(0x08)
     550                            .dwattr $C$DW$27, DW_AT_decl_file("../Application/MAC/HAL/target/hal_rtc_wrapper.c")
TI ARM Assembler PC v16.9.9 Sun Nov 25 19:10:02 2018

Tools Copyright (c) 1996-2017 Texas Instruments Incorporated
C:\Users\Stryd\AppData\Local\Temp\{A794D619-A51F-4E6F-9B47-EF132169661C} PAGE   11

     551                            .dwattr $C$DW$27, DW_AT_decl_line(0x1bb)
     552                            .dwattr $C$DW$27, DW_AT_decl_column(0x08)
     553                            .dwattr $C$DW$27, DW_AT_TI_max_frame_size(0x18)
     554                            .dwpsn  file "../Application/MAC/HAL/target/hal_rtc_wrapper.c",line 444,column 1,is_stmt,addre
     555                    
     556                            .dwfde $C$DW$CIE, halRtcTimerDelta
     557                    $C$DW$28        .dwtag  DW_TAG_formal_parameter
     558                            .dwattr $C$DW$28, DW_AT_name("time1")
     559                            .dwattr $C$DW$28, DW_AT_TI_symbol_name("time1")
     560                            .dwattr $C$DW$28, DW_AT_type(*$C$DW$T$750)
     561                            .dwattr $C$DW$28, DW_AT_location[DW_OP_reg0]
     562                    
     563                    $C$DW$29        .dwtag  DW_TAG_formal_parameter
     564                            .dwattr $C$DW$29, DW_AT_name("time2")
     565                            .dwattr $C$DW$29, DW_AT_TI_symbol_name("time2")
     566                            .dwattr $C$DW$29, DW_AT_type(*$C$DW$T$750)
     567                            .dwattr $C$DW$29, DW_AT_location[DW_OP_reg1]
     568                    
     569                    
     570                    ;*****************************************************************************
     571                    ;* FUNCTION NAME: halRtcTimerDelta                                           *
     572                    ;*                                                                           *
     573                    ;*   Regs Modified     : A1,A2,A3,A4,V1,V2,V3,V4,V9,SP,LR,SR                 *
     574                    ;*   Regs Used         : A1,A2,A3,A4,V1,V2,V3,V4,V9,SP,LR,SR                 *
     575                    ;*   Local Frame Size  : 0 Args + 0 Auto + 20 Save = 20 byte                 *
     576                    ;*****************************************************************************
     577                    halRtcTimerDelta:
     578                    ;* --------------------------------------------------------------------------*
     579                    ;* V1    assigned to $O$K3
     580                    ;* V4    assigned to $O$K6
     581                    ;* V1    assigned to $O$K19
     582                    ;* A1    assigned to time1
     583                    $C$DW$30        .dwtag  DW_TAG_variable
     584                            .dwattr $C$DW$30, DW_AT_name("time1")
     585                            .dwattr $C$DW$30, DW_AT_TI_symbol_name("time1")
     586                            .dwattr $C$DW$30, DW_AT_type(*$C$DW$T$1225)
     587                            .dwattr $C$DW$30, DW_AT_location[DW_OP_reg0]
     588                    
     589                    ;* A2    assigned to time2
     590                    $C$DW$31        .dwtag  DW_TAG_variable
     591                            .dwattr $C$DW$31, DW_AT_name("time2")
     592                            .dwattr $C$DW$31, DW_AT_TI_symbol_name("time2")
     593                            .dwattr $C$DW$31, DW_AT_type(*$C$DW$T$1225)
     594                            .dwattr $C$DW$31, DW_AT_location[DW_OP_reg1]
     595                    
     596                    ;* V1    assigned to sec1
     597                    $C$DW$32        .dwtag  DW_TAG_variable
     598                            .dwattr $C$DW$32, DW_AT_name("sec1")
     599                            .dwattr $C$DW$32, DW_AT_TI_symbol_name("sec1")
     600                            .dwattr $C$DW$32, DW_AT_type(*$C$DW$T$750)
     601                            .dwattr $C$DW$32, DW_AT_location[DW_OP_reg4]
     602                    
     603                    ;* V4    assigned to subsec1
     604                    $C$DW$33        .dwtag  DW_TAG_variable
     605                            .dwattr $C$DW$33, DW_AT_name("subsec1")
TI ARM Assembler PC v16.9.9 Sun Nov 25 19:10:02 2018

Tools Copyright (c) 1996-2017 Texas Instruments Incorporated
C:\Users\Stryd\AppData\Local\Temp\{A794D619-A51F-4E6F-9B47-EF132169661C} PAGE   12

     606                            .dwattr $C$DW$33, DW_AT_TI_symbol_name("subsec1")
     607                            .dwattr $C$DW$33, DW_AT_type(*$C$DW$T$750)
     608                            .dwattr $C$DW$33, DW_AT_location[DW_OP_reg7]
     609                    
     610                    ;* V3    assigned to sec2
     611                    $C$DW$34        .dwtag  DW_TAG_variable
     612                            .dwattr $C$DW$34, DW_AT_name("sec2")
     613                            .dwattr $C$DW$34, DW_AT_TI_symbol_name("sec2")
     614                            .dwattr $C$DW$34, DW_AT_type(*$C$DW$T$750)
     615                            .dwattr $C$DW$34, DW_AT_location[DW_OP_reg6]
     616                    
     617                    ;* V2    assigned to subsec2
     618                    $C$DW$35        .dwtag  DW_TAG_variable
     619                            .dwattr $C$DW$35, DW_AT_name("subsec2")
     620                            .dwattr $C$DW$35, DW_AT_TI_symbol_name("subsec2")
     621                            .dwattr $C$DW$35, DW_AT_type(*$C$DW$T$750)
     622                            .dwattr $C$DW$35, DW_AT_location[DW_OP_reg5]
     623                    
     624                            .dwcfi  cfa_offset, 0
     625 00000000 B5F8              PUSH      {A4, V1, V2, V3, V4, LR} ; [DPU_3_PIPE]  ; [ORIG 16-BIT INS]
     626                            .dwcfi  cfa_offset, 24
     627                            .dwcfi  save_reg_to_mem, 14, -4
     628                            .dwcfi  save_reg_to_mem, 7, -8
     629                            .dwcfi  save_reg_to_mem, 6, -12
     630                            .dwcfi  save_reg_to_mem, 5, -16
     631                            .dwcfi  save_reg_to_mem, 4, -20
     632                            .dwcfi  save_reg_to_mem, 3, -24
     633                            .dwpsn  file "../Application/MAC/HAL/target/hal_rtc_wrapper.c",line 445,column 18,is_stmt,isa 
     634 00000002 0C04              LSRS      V1, A1, #16           ; [DPU_3_PIPE] |445|  ; [ORIG 16-BIT INS]
     635                            .dwpsn  file "../Application/MAC/HAL/target/hal_rtc_wrapper.c",line 446,column 18,is_stmt,isa 
     636 00000004 0400              LSLS      A1, A1, #16           ; [DPU_3_PIPE] |446|  ; [ORIG 16-BIT INS]
     637 00000006 0C07              LSRS      V4, A1, #16           ; [DPU_3_PIPE] |446|  ; [ORIG 16-BIT INS]
     638                            .dwpsn  file "../Application/MAC/HAL/target/hal_rtc_wrapper.c",line 448,column 18,is_stmt,isa 
     639 00000008 0408              LSLS      A1, A2, #16           ; [DPU_3_PIPE] |448|  ; [ORIG 16-BIT INS]
     640 0000000a 0C05              LSRS      V2, A1, #16           ; [DPU_3_PIPE] |448|  ; [ORIG 16-BIT INS]
     641                            .dwpsn  file "../Application/MAC/HAL/target/hal_rtc_wrapper.c",line 451,column 3,is_stmt,isa 1
     642 0000000c 4813              LDR       A1, $C$CON21          ; [DPU_3_PIPE] |451|  ; [ORIG 16-BIT INS]
     643 0000000e 6800              LDR       A1, [A1, #0]          ; [DPU_3_PIPE] |451|  ; [ORIG 16-BIT INS]
     644                            .dwpsn  file "../Application/MAC/HAL/target/hal_rtc_wrapper.c",line 447,column 18,is_stmt,isa 
     645 00000010 0C0E              LSRS      V3, A2, #16           ; [DPU_3_PIPE] |447|  ; [ORIG 16-BIT INS]
     646                            .dwpsn  file "../Application/MAC/HAL/target/hal_rtc_wrapper.c",line 451,column 3,is_stmt,isa 1
     647                    $C$DW$36        .dwtag  DW_TAG_TI_branch
     648                            .dwattr $C$DW$36, DW_AT_low_pc(0x00)
     649                            .dwattr $C$DW$36, DW_AT_TI_call
     650                            .dwattr $C$DW$36, DW_AT_TI_indirect
     651                    
     652 00000012 4780              BLX       A1                    ; [DPU_3_PIPE] |451|  ; [ORIG 16-BIT INS]
     653                            ; CALL OCCURS {}                 ; [] |451| 
     654                            .dwpsn  file "../Application/MAC/HAL/target/hal_rtc_wrapper.c",line 454,column 3,is_stmt,isa 1
     655 00000014 42B4              CMP       V1, V3                ; [DPU_3_PIPE] |454|  ; [ORIG 16-BIT INS]
     656 00000016 D30F              BCC       ||$C$L17||            ; [DPU_3_PIPE] |454|  ; [ORIG 16-BIT INS]
     657                            ; BRANCHCC OCCURS {||$C$L17||}   ; [] |454| 
     658                    ;* --------------------------------------------------------------------------*
     659                            .dwpsn  file "../Application/MAC/HAL/target/hal_rtc_wrapper.c",line 476,column 5,is_stmt,isa 1
     660 00000018 3480F5C4          RSB       V1, V1, #65536        ; [DPU_3_PIPE] |476|  ; [KEEP 32-BIT INS]
TI ARM Assembler PC v16.9.9 Sun Nov 25 19:10:02 2018

Tools Copyright (c) 1996-2017 Texas Instruments Incorporated
C:\Users\Stryd\AppData\Local\Temp\{A794D619-A51F-4E6F-9B47-EF132169661C} PAGE   13

     661 0000001c B117              CBZ       V4, ||$C$L16||        ; []  ; [ORIG 16-BIT INS]
     662                            .dwpsn  file "../Application/MAC/HAL/target/hal_rtc_wrapper.c",line 482,column 7,is_stmt,isa 1
     663 0000001e 1E64              SUBS      V1, V1, #1            ; [DPU_3_PIPE] |482|  ; [ORIG 16-BIT INS]
     664                            .dwpsn  file "../Application/MAC/HAL/target/hal_rtc_wrapper.c",line 485,column 7,is_stmt,isa 1
     665 00000020 3780F5C7          RSB       V4, V4, #65536        ; [DPU_3_PIPE] |485|  ; [KEEP 32-BIT INS]
     666                    ;* --------------------------------------------------------------------------*
     667 00000024           ||$C$L16||:    
     668                            .dwpsn  file "../Application/MAC/HAL/target/hal_rtc_wrapper.c",line 492,column 5,is_stmt,isa 1
     669 00000024 71FFF64F          MOV       A2, #65535            ; [DPU_3_PIPE] |492|  ; [KEEP 32-BIT INS]
     670 00000028 197F              ADDS      V4, V4, V2            ; [DPU_3_PIPE] |492|  ; [ORIG 16-BIT INS]
     671                            .dwpsn  file "../Application/MAC/HAL/target/hal_rtc_wrapper.c",line 489,column 5,is_stmt,isa 1
     672 0000002a 19A4              ADDS      V1, V1, V3            ; [DPU_3_PIPE] |489|  ; [ORIG 16-BIT INS]
     673                            .dwpsn  file "../Application/MAC/HAL/target/hal_rtc_wrapper.c",line 492,column 5,is_stmt,isa 1
     674 0000002c 42B9              CMP       A2, V4                ; [DPU_3_PIPE] |492|  ; [ORIG 16-BIT INS]
     675 0000002e BF3C              ITT       CC                    ; [DPU_3_PIPE]  ; [ORIG 16-BIT INS]
     676                            .dwpsn  file "../Application/MAC/HAL/target/hal_rtc_wrapper.c",line 498,column 7,is_stmt,isa 1
     677 00000030 1C64              ADDCC     V1, V1, #1            ; [DPU_3_PIPE] |498|  ; [ORIG 16-BIT INS]
     678                            .dwpsn  file "../Application/MAC/HAL/target/hal_rtc_wrapper.c",line 501,column 7,is_stmt,isa 1
     679 00000032 3780F5A7          SUBCC     V4, V4, #65536        ; [DPU_3_PIPE] |501|  ; [KEEP 32-BIT INS]
     680 00000036 E009              B         ||$C$L19||            ; [DPU_3_PIPE] |501|  ; [ORIG 16-BIT INS]
     681                            ; BRANCH OCCURS {||$C$L19||}     ; [] |501| 
     682                    ;* --------------------------------------------------------------------------*
     683 00000038           ||$C$L17||:    
     684                            .dwpsn  file "../Application/MAC/HAL/target/hal_rtc_wrapper.c",line 457,column 5,is_stmt,isa 1
     685 00000038 42AF              CMP       V4, V2                ; [DPU_3_PIPE] |457|  ; [ORIG 16-BIT INS]
     686 0000003a D905              BLS       ||$C$L18||            ; [DPU_3_PIPE] |457|  ; [ORIG 16-BIT INS]
     687                            ; BRANCHCC OCCURS {||$C$L18||}   ; [] |457| 
     688                    ;* --------------------------------------------------------------------------*
     689                            .dwpsn  file "../Application/MAC/HAL/target/hal_rtc_wrapper.c",line 469,column 7,is_stmt,isa 1
     690 0000003c 1B34              SUBS      V1, V3, V1            ; [DPU_3_PIPE] |469|  ; [ORIG 16-BIT INS]
     691                            .dwpsn  file "../Application/MAC/HAL/target/hal_rtc_wrapper.c",line 470,column 7,is_stmt,isa 1
     692 0000003e 1BEF              SUBS      V4, V2, V4            ; [DPU_3_PIPE] |470|  ; [ORIG 16-BIT INS]
     693                            .dwpsn  file "../Application/MAC/HAL/target/hal_rtc_wrapper.c",line 469,column 7,is_stmt,isa 1
     694 00000040 1E64              SUBS      V1, V1, #1            ; [DPU_3_PIPE] |469|  ; [ORIG 16-BIT INS]
     695                            .dwpsn  file "../Application/MAC/HAL/target/hal_rtc_wrapper.c",line 470,column 7,is_stmt,isa 1
     696 00000042 3780F507          ADD       V4, V4, #65536        ; [DPU_3_PIPE] |470|  ; [KEEP 32-BIT INS]
     697 00000046 E001              B         ||$C$L19||            ; [DPU_3_PIPE] |470|  ; [ORIG 16-BIT INS]
     698                            ; BRANCH OCCURS {||$C$L19||}     ; [] |470| 
     699                    ;* --------------------------------------------------------------------------*
     700 00000048           ||$C$L18||:    
     701                            .dwpsn  file "../Application/MAC/HAL/target/hal_rtc_wrapper.c",line 460,column 7,is_stmt,isa 1
     702 00000048 1B34              SUBS      V1, V3, V1            ; [DPU_3_PIPE] |460|  ; [ORIG 16-BIT INS]
     703                            .dwpsn  file "../Application/MAC/HAL/target/hal_rtc_wrapper.c",line 461,column 7,is_stmt,isa 1
     704 0000004a 1BEF              SUBS      V4, V2, V4            ; [DPU_3_PIPE] |461|  ; [ORIG 16-BIT INS]
     705                    ;* --------------------------------------------------------------------------*
     706 0000004c           ||$C$L19||:    
     707                            .dwpsn  file "../Application/MAC/HAL/target/hal_rtc_wrapper.c",line 505,column 3,is_stmt,isa 1
     708 0000004c 4904              LDR       A2, $C$CON22          ; [DPU_3_PIPE] |505|  ; [ORIG 16-BIT INS]
     709 0000004e 6809              LDR       A2, [A2, #0]          ; [DPU_3_PIPE] |505|  ; [ORIG 16-BIT INS]
     710                    $C$DW$37        .dwtag  DW_TAG_TI_branch
     711                            .dwattr $C$DW$37, DW_AT_low_pc(0x00)
     712                            .dwattr $C$DW$37, DW_AT_TI_call
     713                            .dwattr $C$DW$37, DW_AT_TI_indirect
     714                    
     715 00000050 4788              BLX       A2                    ; [DPU_3_PIPE] |505|  ; [ORIG 16-BIT INS]
TI ARM Assembler PC v16.9.9 Sun Nov 25 19:10:02 2018

Tools Copyright (c) 1996-2017 Texas Instruments Incorporated
C:\Users\Stryd\AppData\Local\Temp\{A794D619-A51F-4E6F-9B47-EF132169661C} PAGE   14

     716                            ; CALL OCCURS {}                 ; [] |505| 
     717 00000052 0438              LSLS      A1, V4, #16           ; [DPU_3_PIPE]  ; [ORIG 16-BIT INS]
     718 00000054 0C00              LSRS      A1, A1, #16           ; [DPU_3_PIPE]  ; [ORIG 16-BIT INS]
     719                            .dwpsn  file "../Application/MAC/HAL/target/hal_rtc_wrapper.c",line 508,column 3,is_stmt,isa 1
     720 00000056 4004EA40          ORR       A1, A1, V1, LSL #16   ; [DPU_3_PIPE] |508|  ; [KEEP 32-BIT INS]
     721                    $C$DW$38        .dwtag  DW_TAG_TI_branch
     722                            .dwattr $C$DW$38, DW_AT_low_pc(0x00)
     723                            .dwattr $C$DW$38, DW_AT_TI_return
     724                    
     725 0000005a BDF8              POP       {A4, V1, V2, V3, V4, PC} ; [DPU_3_PIPE]  ; [ORIG 16-BIT INS]
     726                            .dwcfi  cfa_offset, 0
     727                            .dwcfi  restore_reg, 7
     728                            .dwcfi  restore_reg, 6
     729                            .dwcfi  restore_reg, 5
     730                            .dwcfi  restore_reg, 4
     731                            .dwcfi  restore_reg, 3
     732                            ; BRANCH OCCURS                  ; [] 
     733                            .dwattr $C$DW$27, DW_AT_TI_end_file("../Application/MAC/HAL/target/hal_rtc_wrapper.c")
     734                            .dwattr $C$DW$27, DW_AT_TI_end_line(0x1fd)
     735                            .dwattr $C$DW$27, DW_AT_TI_end_column(0x01)
     736                            .dwendentry
     737                            .dwendtag $C$DW$27
     738                    
     739 00000000                   .sect   ".text:halRtcTimerCompare"
     740                            .clink
     741                            .thumbfunc halRtcTimerCompare
     742 00000000                   .thumb
     743                            .global halRtcTimerCompare
     744                    
     745                    $C$DW$39        .dwtag  DW_TAG_subprogram
     746                            .dwattr $C$DW$39, DW_AT_name("halRtcTimerCompare")
     747                            .dwattr $C$DW$39, DW_AT_low_pc(halRtcTimerCompare)
     748                            .dwattr $C$DW$39, DW_AT_high_pc(0x00)
     749                            .dwattr $C$DW$39, DW_AT_TI_symbol_name("halRtcTimerCompare")
     750                            .dwattr $C$DW$39, DW_AT_external
     751                            .dwattr $C$DW$39, DW_AT_type(*$C$DW$T$750)
     752                            .dwattr $C$DW$39, DW_AT_TI_begin_file("../Application/MAC/HAL/target/hal_rtc_wrapper.c")
     753                            .dwattr $C$DW$39, DW_AT_TI_begin_line(0x214)
     754                            .dwattr $C$DW$39, DW_AT_TI_begin_column(0x08)
     755                            .dwattr $C$DW$39, DW_AT_decl_file("../Application/MAC/HAL/target/hal_rtc_wrapper.c")
     756                            .dwattr $C$DW$39, DW_AT_decl_line(0x214)
     757                            .dwattr $C$DW$39, DW_AT_decl_column(0x08)
     758                            .dwattr $C$DW$39, DW_AT_TI_max_frame_size(0x00)
     759                            .dwpsn  file "../Application/MAC/HAL/target/hal_rtc_wrapper.c",line 533,column 1,is_stmt,addre
     760                    
     761                            .dwfde $C$DW$CIE, halRtcTimerCompare
     762                    $C$DW$40        .dwtag  DW_TAG_formal_parameter
     763                            .dwattr $C$DW$40, DW_AT_name("time1")
     764                            .dwattr $C$DW$40, DW_AT_TI_symbol_name("time1")
     765                            .dwattr $C$DW$40, DW_AT_type(*$C$DW$T$750)
     766                            .dwattr $C$DW$40, DW_AT_location[DW_OP_reg0]
     767                    
     768                    $C$DW$41        .dwtag  DW_TAG_formal_parameter
     769                            .dwattr $C$DW$41, DW_AT_name("time2")
     770                            .dwattr $C$DW$41, DW_AT_TI_symbol_name("time2")
TI ARM Assembler PC v16.9.9 Sun Nov 25 19:10:02 2018

Tools Copyright (c) 1996-2017 Texas Instruments Incorporated
C:\Users\Stryd\AppData\Local\Temp\{A794D619-A51F-4E6F-9B47-EF132169661C} PAGE   15

     771                            .dwattr $C$DW$41, DW_AT_type(*$C$DW$T$750)
     772                            .dwattr $C$DW$41, DW_AT_location[DW_OP_reg1]
     773                    
     774                    
     775                    ;*****************************************************************************
     776                    ;* FUNCTION NAME: halRtcTimerCompare                                         *
     777                    ;*                                                                           *
     778                    ;*   Regs Modified     : A1,SR                                               *
     779                    ;*   Regs Used         : A1,LR,SR                                            *
     780                    ;*   Local Frame Size  : 0 Args + 0 Auto + 0 Save = 0 byte                   *
     781                    ;*****************************************************************************
     782 00000000           halRtcTimerCompare:
     783                    ;* --------------------------------------------------------------------------*
     784                            .dwcfi  cfa_offset, 0
     785                            .dwpsn  file "../Application/MAC/HAL/target/hal_rtc_wrapper.c",line 534,column 3,is_stmt,isa 1
     786 00000000 2001              MOVS      A1, #1                ; [DPU_3_PIPE] |534|  ; [ORIG 16-BIT INS]
     787                    $C$DW$42        .dwtag  DW_TAG_TI_branch
     788                            .dwattr $C$DW$42, DW_AT_low_pc(0x00)
     789                            .dwattr $C$DW$42, DW_AT_TI_return
     790                    
     791 00000002 4770              BX        LR                    ; [DPU_3_PIPE]  ; [ORIG 16-BIT INS]
     792                            ; BRANCH OCCURS                  ; [] 
     793                            .dwattr $C$DW$39, DW_AT_TI_end_file("../Application/MAC/HAL/target/hal_rtc_wrapper.c")
     794                            .dwattr $C$DW$39, DW_AT_TI_end_line(0x217)
     795                            .dwattr $C$DW$39, DW_AT_TI_end_column(0x01)
     796                            .dwendentry
     797                            .dwendtag $C$DW$39
     798                    
     799 00000000                   .sect   ".text:halRtcRegIntCBack"
     800                            .clink
     801                            .thumbfunc halRtcRegIntCBack
     802 00000000                   .thumb
     803                            .global halRtcRegIntCBack
     804                    
     805                    $C$DW$43        .dwtag  DW_TAG_subprogram
     806                            .dwattr $C$DW$43, DW_AT_name("halRtcRegIntCBack")
     807                            .dwattr $C$DW$43, DW_AT_low_pc(halRtcRegIntCBack)
     808                            .dwattr $C$DW$43, DW_AT_high_pc(0x00)
     809                            .dwattr $C$DW$43, DW_AT_TI_symbol_name("halRtcRegIntCBack")
     810                            .dwattr $C$DW$43, DW_AT_external
     811                            .dwattr $C$DW$43, DW_AT_TI_begin_file("../Application/MAC/HAL/target/hal_rtc_wrapper.c")
     812                            .dwattr $C$DW$43, DW_AT_TI_begin_line(0x22c)
     813                            .dwattr $C$DW$43, DW_AT_TI_begin_column(0x06)
     814                            .dwattr $C$DW$43, DW_AT_decl_file("../Application/MAC/HAL/target/hal_rtc_wrapper.c")
     815                            .dwattr $C$DW$43, DW_AT_decl_line(0x22c)
     816                            .dwattr $C$DW$43, DW_AT_decl_column(0x06)
     817                            .dwattr $C$DW$43, DW_AT_TI_max_frame_size(0x00)
     818                            .dwpsn  file "../Application/MAC/HAL/target/hal_rtc_wrapper.c",line 557,column 1,is_stmt,addre
     819                    
     820                            .dwfde $C$DW$CIE, halRtcRegIntCBack
     821                    $C$DW$44        .dwtag  DW_TAG_formal_parameter
     822                            .dwattr $C$DW$44, DW_AT_name("rtcChan")
     823                            .dwattr $C$DW$44, DW_AT_TI_symbol_name("rtcChan")
     824                            .dwattr $C$DW$44, DW_AT_type(*$C$DW$T$10)
     825                            .dwattr $C$DW$44, DW_AT_location[DW_OP_reg0]
TI ARM Assembler PC v16.9.9 Sun Nov 25 19:10:02 2018

Tools Copyright (c) 1996-2017 Texas Instruments Incorporated
C:\Users\Stryd\AppData\Local\Temp\{A794D619-A51F-4E6F-9B47-EF132169661C} PAGE   16

     826                    
     827                    $C$DW$45        .dwtag  DW_TAG_formal_parameter
     828                            .dwattr $C$DW$45, DW_AT_name("rtcCback")
     829                            .dwattr $C$DW$45, DW_AT_TI_symbol_name("rtcCback")
     830                            .dwattr $C$DW$45, DW_AT_type(*$C$DW$T$723)
     831                            .dwattr $C$DW$45, DW_AT_location[DW_OP_reg1]
     832                    
     833                    
     834                    ;*****************************************************************************
     835                    ;* FUNCTION NAME: halRtcRegIntCBack                                          *
     836                    ;*                                                                           *
     837                    ;*   Regs Modified     : A1,A3,SR                                            *
     838                    ;*   Regs Used         : A1,A2,A3,LR,SR                                      *
     839                    ;*   Local Frame Size  : 0 Args + 0 Auto + 0 Save = 0 byte                   *
     840                    ;*****************************************************************************
     841                    halRtcRegIntCBack:
     842                    ;* --------------------------------------------------------------------------*
     843                    ;* A3    assigned to rtcChan
     844                    $C$DW$46        .dwtag  DW_TAG_variable
     845                            .dwattr $C$DW$46, DW_AT_name("rtcChan")
     846                            .dwattr $C$DW$46, DW_AT_TI_symbol_name("rtcChan")
     847                            .dwattr $C$DW$46, DW_AT_type(*$C$DW$T$913)
     848                            .dwattr $C$DW$46, DW_AT_location[DW_OP_reg2]
     849                    
     850                    ;* A2    assigned to rtcCback
     851                    $C$DW$47        .dwtag  DW_TAG_variable
     852                            .dwattr $C$DW$47, DW_AT_name("rtcCback")
     853                            .dwattr $C$DW$47, DW_AT_TI_symbol_name("rtcCback")
     854                            .dwattr $C$DW$47, DW_AT_type(*$C$DW$T$725)
     855                            .dwattr $C$DW$47, DW_AT_location[DW_OP_reg1]
     856                    
     857                            .dwcfi  cfa_offset, 0
     858 00000000 4602              MOV       A3, A1                ; [DPU_3_PIPE] |557|  ; [ORIG 16-BIT INS]
     859                            .dwpsn  file "../Application/MAC/HAL/target/hal_rtc_wrapper.c",line 561,column 5,is_stmt,isa 1
     860 00000002 4805              LDR       A1, $C$CON24          ; [DPU_3_PIPE] |561|  ; [ORIG 16-BIT INS]
     861                            .dwpsn  file "../Application/MAC/HAL/target/hal_rtc_wrapper.c",line 559,column 3,is_stmt,isa 1
     862 00000004 2A01              CMP       A3, #1                ; [DPU_3_PIPE] |559|  ; [ORIG 16-BIT INS]
     863 00000006 D003              BEQ       ||$C$L20||            ; [DPU_3_PIPE] |559|  ; [ORIG 16-BIT INS]
     864                            ; BRANCHCC OCCURS {||$C$L20||}   ; [] |559| 
     865                    ;* --------------------------------------------------------------------------*
     866                            .dwpsn  file "../Application/MAC/HAL/target/hal_rtc_wrapper.c",line 563,column 8,is_stmt,isa 1
     867 00000008 2A02              CMP       A3, #2                ; [DPU_3_PIPE] |563|  ; [ORIG 16-BIT INS]
     868 0000000a BF18              IT        NE                    ; [DPU_3_PIPE]  ; [ORIG 16-BIT INS]
     869 0000000c 1D00              ADDNE     A1, A1, #4            ; [DPU_3_PIPE]  ; [ORIG 16-BIT INS]
     870                            .dwpsn  file "../Application/MAC/HAL/target/hal_rtc_wrapper.c",line 569,column 5,is_stmt,isa 1
     871 0000000e E000              B         ||$C$L21||            ; [DPU_3_PIPE] |569|  ; [ORIG 16-BIT INS]
     872                            ; BRANCH OCCURS {||$C$L21||}     ; [] |569| 
     873                    ;* --------------------------------------------------------------------------*
     874 00000010           ||$C$L20||:    
     875 00000010 1F00              SUBS      A1, A1, #4            ; [DPU_3_PIPE]  ; [ORIG 16-BIT INS]
     876                    ;* --------------------------------------------------------------------------*
     877 00000012           ||$C$L21||:    
     878                            .dwpsn  file "../Application/MAC/HAL/target/hal_rtc_wrapper.c",line 561,column 5,is_stmt,isa 1
     879 00000012 6001              STR       A2, [A1, #0]          ; [DPU_3_PIPE] |561|  ; [ORIG 16-BIT INS]
     880                    $C$DW$48        .dwtag  DW_TAG_TI_branch
TI ARM Assembler PC v16.9.9 Sun Nov 25 19:10:02 2018

Tools Copyright (c) 1996-2017 Texas Instruments Incorporated
C:\Users\Stryd\AppData\Local\Temp\{A794D619-A51F-4E6F-9B47-EF132169661C} PAGE   17

     881                            .dwattr $C$DW$48, DW_AT_low_pc(0x00)
     882                            .dwattr $C$DW$48, DW_AT_TI_return
     883                    
     884 00000014 4770              BX        LR                    ; [DPU_3_PIPE]  ; [ORIG 16-BIT INS]
     885                            ; BRANCH OCCURS                  ; [] 
     886                            .dwattr $C$DW$43, DW_AT_TI_end_file("../Application/MAC/HAL/target/hal_rtc_wrapper.c")
     887                            .dwattr $C$DW$43, DW_AT_TI_end_line(0x23d)
     888                            .dwattr $C$DW$43, DW_AT_TI_end_column(0x01)
     889                            .dwendentry
     890                            .dwendtag $C$DW$43
     891                    
     892 00000000                   .sect   ".text:halReadRtcTimer"
     893                            .clink
     894                            .thumbfunc halReadRtcTimer
     895 00000000                   .thumb
     896                            .global halReadRtcTimer
     897                    
     898                    $C$DW$49        .dwtag  DW_TAG_subprogram
     899                            .dwattr $C$DW$49, DW_AT_name("halReadRtcTimer")
     900                            .dwattr $C$DW$49, DW_AT_low_pc(halReadRtcTimer)
     901                            .dwattr $C$DW$49, DW_AT_high_pc(0x00)
     902                            .dwattr $C$DW$49, DW_AT_TI_symbol_name("halReadRtcTimer")
     903                            .dwattr $C$DW$49, DW_AT_external
     904                            .dwattr $C$DW$49, DW_AT_type(*$C$DW$T$750)
     905                            .dwattr $C$DW$49, DW_AT_TI_begin_file("../Application/MAC/HAL/target/hal_rtc_wrapper.c")
     906                            .dwattr $C$DW$49, DW_AT_TI_begin_line(0x120)
     907                            .dwattr $C$DW$49, DW_AT_TI_begin_column(0x08)
     908                            .dwattr $C$DW$49, DW_AT_decl_file("../Application/MAC/HAL/target/hal_rtc_wrapper.c")
     909                            .dwattr $C$DW$49, DW_AT_decl_line(0x120)
     910                            .dwattr $C$DW$49, DW_AT_decl_column(0x08)
     911                            .dwattr $C$DW$49, DW_AT_TI_max_frame_size(0x10)
     912                            .dwpsn  file "../Application/MAC/HAL/target/hal_rtc_wrapper.c",line 289,column 1,is_stmt,addre
     913                    
     914                            .dwfde $C$DW$CIE, halReadRtcTimer
     915                    
     916                    ;*****************************************************************************
     917                    ;* FUNCTION NAME: halReadRtcTimer                                            *
     918                    ;*                                                                           *
     919                    ;*   Regs Modified     : A1,A2,A3,A4,V1,V2,V9,SP,LR,SR                       *
     920                    ;*   Regs Used         : A1,A2,A3,A4,V1,V2,V9,SP,LR,SR                       *
     921                    ;*   Local Frame Size  : 0 Args + 0 Auto + 12 Save = 12 byte                 *
     922                    ;*****************************************************************************
     923                    halReadRtcTimer:
     924                    ;* --------------------------------------------------------------------------*
     925                    ;* A2    assigned to $O$K6
     926                    ;* A3    assigned to $O$R1
     927                    ;* V1    assigned to secTime
     928                    $C$DW$50        .dwtag  DW_TAG_variable
     929                            .dwattr $C$DW$50, DW_AT_name("secTime")
     930                            .dwattr $C$DW$50, DW_AT_TI_symbol_name("secTime")
     931                            .dwattr $C$DW$50, DW_AT_type(*$C$DW$T$750)
     932                            .dwattr $C$DW$50, DW_AT_location[DW_OP_reg4]
     933                    
     934                    ;* V2    assigned to fracTime
     935                    $C$DW$51        .dwtag  DW_TAG_variable
TI ARM Assembler PC v16.9.9 Sun Nov 25 19:10:02 2018

Tools Copyright (c) 1996-2017 Texas Instruments Incorporated
C:\Users\Stryd\AppData\Local\Temp\{A794D619-A51F-4E6F-9B47-EF132169661C} PAGE   18

     936                            .dwattr $C$DW$51, DW_AT_name("fracTime")
     937                            .dwattr $C$DW$51, DW_AT_TI_symbol_name("fracTime")
     938                            .dwattr $C$DW$51, DW_AT_type(*$C$DW$T$750)
     939                            .dwattr $C$DW$51, DW_AT_location[DW_OP_reg5]
     940                    
     941                            .dwcfi  cfa_offset, 0
     942                            .dwpsn  file "../Application/MAC/HAL/target/hal_rtc_wrapper.c",line 294,column 3,is_stmt,isa 1
     943 00000000 4808              LDR       A1, $C$CON26          ; [DPU_3_PIPE] |294|  ; [ORIG 16-BIT INS]
     944 00000002 B538              PUSH      {A4, V1, V2, LR}      ; [DPU_3_PIPE]  ; [ORIG 16-BIT INS]
     945                            .dwcfi  cfa_offset, 16
     946                            .dwcfi  save_reg_to_mem, 14, -4
     947                            .dwcfi  save_reg_to_mem, 5, -8
     948                            .dwcfi  save_reg_to_mem, 4, -12
     949                            .dwcfi  save_reg_to_mem, 3, -16
     950 00000004 6800              LDR       A1, [A1, #0]          ; [DPU_3_PIPE] |294|  ; [ORIG 16-BIT INS]
     951                    $C$DW$52        .dwtag  DW_TAG_TI_branch
     952                            .dwattr $C$DW$52, DW_AT_low_pc(0x00)
     953                            .dwattr $C$DW$52, DW_AT_TI_call
     954                            .dwattr $C$DW$52, DW_AT_TI_indirect
     955                    
     956 00000006 4780              BLX       A1                    ; [DPU_3_PIPE] |294|  ; [ORIG 16-BIT INS]
     957                            ; CALL OCCURS {}                 ; [] |294| 
     958 00000008 4907              LDR       A2, $C$CON27          ; [DPU_3_PIPE]  ; [ORIG 16-BIT INS]
     959                    ;* --------------------------------------------------------------------------*
     960                    ;*   BEGIN LOOP ||$C$L22||
     961                    ;*
     962                    ;*   Loop source line                : 298
     963                    ;*   Loop closing brace source line  : 306
     964                    ;*   Known Minimum Trip Count        : 1
     965                    ;*   Known Maximum Trip Count        : 4294967295
     966                    ;*   Known Max Trip Count Factor     : 1
     967                    ;* --------------------------------------------------------------------------*
     968 0000000a           ||$C$L22||:    
     969                            .dwpsn  file "C:/ti/simplelink_cc13x0_sdk_2_30_00_20/source/ti/devices/cc13x0/driverlib/aon_rt
     970 0000000a 680C              LDR       V1, [A2, #0]          ; [DPU_3_PIPE] |461|  ; [ORIG 16-BIT INS]
     971                            .dwpsn  file "C:/ti/simplelink_cc13x0_sdk_2_30_00_20/source/ti/devices/cc13x0/driverlib/aon_rt
     972 0000000c 684A              LDR       A3, [A2, #4]          ; [DPU_3_PIPE] |493|  ; [ORIG 16-BIT INS]
     973                            .dwpsn  file "C:/ti/simplelink_cc13x0_sdk_2_30_00_20/source/ti/devices/cc13x0/driverlib/aon_rt
     974 0000000e 680A              LDR       A3, [A2, #0]          ; [DPU_3_PIPE] |461|  ; [ORIG 16-BIT INS]
     975                            .dwpsn  file "../Application/MAC/HAL/target/hal_rtc_wrapper.c",line 306,column 12,is_stmt,isa 
     976 00000010 4294              CMP       V1, A3                ; [DPU_3_PIPE] |306|  ; [ORIG 16-BIT INS]
     977 00000012 D1FA              BNE       ||$C$L22||            ; [DPU_3_PIPE] |306|  ; [ORIG 16-BIT INS]
     978                            ; BRANCHCC OCCURS {||$C$L22||}   ; [] |306| 
     979                    ;* --------------------------------------------------------------------------*
     980                            .dwpsn  file "C:/ti/simplelink_cc13x0_sdk_2_30_00_20/source/ti/devices/cc13x0/driverlib/aon_rt
     981 00000014 684D              LDR       V2, [A2, #4]          ; [DPU_3_PIPE] |493|  ; [ORIG 16-BIT INS]
     982                            .dwpsn  file "../Application/MAC/HAL/target/hal_rtc_wrapper.c",line 311,column 3,is_stmt,isa 1
     983 00000016 4905              LDR       A2, $C$CON29          ; [DPU_3_PIPE] |311|  ; [ORIG 16-BIT INS]
     984 00000018 6809              LDR       A2, [A2, #0]          ; [DPU_3_PIPE] |311|  ; [ORIG 16-BIT INS]
     985                    $C$DW$53        .dwtag  DW_TAG_TI_branch
     986                            .dwattr $C$DW$53, DW_AT_low_pc(0x00)
     987                            .dwattr $C$DW$53, DW_AT_TI_call
     988                            .dwattr $C$DW$53, DW_AT_TI_indirect
     989                    
     990 0000001a 4788              BLX       A2                    ; [DPU_3_PIPE] |311|  ; [ORIG 16-BIT INS]
TI ARM Assembler PC v16.9.9 Sun Nov 25 19:10:02 2018

Tools Copyright (c) 1996-2017 Texas Instruments Incorporated
C:\Users\Stryd\AppData\Local\Temp\{A794D619-A51F-4E6F-9B47-EF132169661C} PAGE   19

     991                            ; CALL OCCURS {}                 ; [] |311| 
     992                            .dwpsn  file "../Application/MAC/HAL/target/hal_rtc_wrapper.c",line 314,column 3,is_stmt,isa 1
     993 0000001c 0420              LSLS      A1, V1, #16           ; [DPU_3_PIPE] |314|  ; [ORIG 16-BIT INS]
     994 0000001e 4015EA40          ORR       A1, A1, V2, LSR #16   ; [DPU_3_PIPE] |314|  ; [KEEP 32-BIT INS]
     995                    $C$DW$54        .dwtag  DW_TAG_TI_branch
     996                            .dwattr $C$DW$54, DW_AT_low_pc(0x00)
     997                            .dwattr $C$DW$54, DW_AT_TI_return
     998                    
     999 00000022 BD38              POP       {A4, V1, V2, PC}      ; [DPU_3_PIPE]  ; [ORIG 16-BIT INS]
    1000                            .dwcfi  cfa_offset, 0
    1001                            .dwcfi  restore_reg, 5
    1002                            .dwcfi  restore_reg, 4
    1003                            .dwcfi  restore_reg, 3
    1004                            ; BRANCH OCCURS                  ; [] 
    1005                            .dwattr $C$DW$49, DW_AT_TI_end_file("../Application/MAC/HAL/target/hal_rtc_wrapper.c")
    1006                            .dwattr $C$DW$49, DW_AT_TI_end_line(0x13b)
    1007                            .dwattr $C$DW$49, DW_AT_TI_end_column(0x01)
    1008                            .dwendentry
    1009                            .dwendtag $C$DW$49
    1010                    
    1011 00000000                   .sect   ".text:halInitRTC"
    1012                            .clink
    1013                            .thumbfunc halInitRTC
    1014 00000000                   .thumb
    1015                            .global halInitRTC
    1016                    
    1017                    $C$DW$55        .dwtag  DW_TAG_subprogram
    1018                            .dwattr $C$DW$55, DW_AT_name("halInitRTC")
    1019                            .dwattr $C$DW$55, DW_AT_low_pc(halInitRTC)
    1020                            .dwattr $C$DW$55, DW_AT_high_pc(0x00)
    1021                            .dwattr $C$DW$55, DW_AT_TI_symbol_name("halInitRTC")
    1022                            .dwattr $C$DW$55, DW_AT_external
    1023                            .dwattr $C$DW$55, DW_AT_TI_begin_file("../Application/MAC/HAL/target/hal_rtc_wrapper.c")
    1024                            .dwattr $C$DW$55, DW_AT_TI_begin_line(0x74)
    1025                            .dwattr $C$DW$55, DW_AT_TI_begin_column(0x06)
    1026                            .dwattr $C$DW$55, DW_AT_decl_file("../Application/MAC/HAL/target/hal_rtc_wrapper.c")
    1027                            .dwattr $C$DW$55, DW_AT_decl_line(0x74)
    1028                            .dwattr $C$DW$55, DW_AT_decl_column(0x06)
    1029                            .dwattr $C$DW$55, DW_AT_TI_max_frame_size(0x18)
    1030                            .dwpsn  file "../Application/MAC/HAL/target/hal_rtc_wrapper.c",line 117,column 1,is_stmt,addre
    1031                    
    1032                            .dwfde $C$DW$CIE, halInitRTC
    1033                    
    1034                    ;*****************************************************************************
    1035                    ;* FUNCTION NAME: halInitRTC                                                 *
    1036                    ;*                                                                           *
    1037                    ;*   Regs Modified     : A1,A2,A3,A4,V1,V2,V3,V4,V9,SP,LR,SR                 *
    1038                    ;*   Regs Used         : A1,A2,A3,A4,V1,V2,V3,V4,V9,SP,LR,SR                 *
    1039                    ;*   Local Frame Size  : 0 Args + 0 Auto + 20 Save = 20 byte                 *
    1040                    ;*****************************************************************************
    1041                    halInitRTC:
    1042                    ;* --------------------------------------------------------------------------*
    1043                    ;* V2    assigned to $O$C1
    1044                    ;* V1    assigned to $O$C2
    1045                    ;* A4    assigned to $O$C3
TI ARM Assembler PC v16.9.9 Sun Nov 25 19:10:02 2018

Tools Copyright (c) 1996-2017 Texas Instruments Incorporated
C:\Users\Stryd\AppData\Local\Temp\{A794D619-A51F-4E6F-9B47-EF132169661C} PAGE   20

    1046                    ;* A1    assigned to $O$C4
    1047                    ;* V3    assigned to $O$C5
    1048                    ;* V4    assigned to cs
    1049                    $C$DW$56        .dwtag  DW_TAG_variable
    1050                            .dwattr $C$DW$56, DW_AT_name("cs")
    1051                            .dwattr $C$DW$56, DW_AT_TI_symbol_name("cs")
    1052                            .dwattr $C$DW$56, DW_AT_type(*$C$DW$T$1091)
    1053                            .dwattr $C$DW$56, DW_AT_location[DW_OP_reg7]
    1054                    
    1055                    ;* A1    assigned to ui32Cfg
    1056                    $C$DW$57        .dwtag  DW_TAG_variable
    1057                            .dwattr $C$DW$57, DW_AT_name("ui32Cfg")
    1058                            .dwattr $C$DW$57, DW_AT_TI_symbol_name("ui32Cfg")
    1059                            .dwattr $C$DW$57, DW_AT_type(*$C$DW$T$142)
    1060                            .dwattr $C$DW$57, DW_AT_location[DW_OP_reg0]
    1061                    
    1062                    ;* A1    assigned to ui32Cfg
    1063                    $C$DW$58        .dwtag  DW_TAG_variable
    1064                            .dwattr $C$DW$58, DW_AT_name("ui32Cfg")
    1065                            .dwattr $C$DW$58, DW_AT_TI_symbol_name("ui32Cfg")
    1066                            .dwattr $C$DW$58, DW_AT_type(*$C$DW$T$142)
    1067                            .dwattr $C$DW$58, DW_AT_location[DW_OP_reg0]
    1068                    
    1069                            .dwcfi  cfa_offset, 0
    1070                            .dwpsn  file "../Application/MAC/HAL/target/hal_rtc_wrapper.c",line 120,column 3,is_stmt,isa 1
    1071 00000000 4829              LDR       A1, $C$CON36          ; [DPU_3_PIPE] |120|  ; [ORIG 16-BIT INS]
    1072 00000002 B5F8              PUSH      {A4, V1, V2, V3, V4, LR} ; [DPU_3_PIPE]  ; [ORIG 16-BIT INS]
    1073                            .dwcfi  cfa_offset, 24
    1074                            .dwcfi  save_reg_to_mem, 14, -4
    1075                            .dwcfi  save_reg_to_mem, 7, -8
    1076                            .dwcfi  save_reg_to_mem, 6, -12
    1077                            .dwcfi  save_reg_to_mem, 5, -16
    1078                            .dwcfi  save_reg_to_mem, 4, -20
    1079                            .dwcfi  save_reg_to_mem, 3, -24
    1080 00000004 6800              LDR       A1, [A1, #0]          ; [DPU_3_PIPE] |120|  ; [ORIG 16-BIT INS]
    1081                    $C$DW$59        .dwtag  DW_TAG_TI_branch
    1082                            .dwattr $C$DW$59, DW_AT_low_pc(0x00)
    1083                            .dwattr $C$DW$59, DW_AT_TI_call
    1084                            .dwattr $C$DW$59, DW_AT_TI_indirect
    1085                    
    1086 00000006 4780              BLX       A1                    ; [DPU_3_PIPE] |120|  ; [ORIG 16-BIT INS]
    1087                            ; CALL OCCURS {}                 ; [] |120| 
    1088 00000008 4607              MOV       V4, A1                ; [DPU_3_PIPE] |120|  ; [ORIG 16-BIT INS]
    1089                            .dwpsn  file "../Application/MAC/HAL/target/hal_rtc_wrapper.c",line 123,column 3,is_stmt,isa 1
    1090 0000000a 2014              MOVS      A1, #20               ; [DPU_3_PIPE] |123|  ; [ORIG 16-BIT INS]
    1091                    $C$DW$60        .dwtag  DW_TAG_TI_branch
    1092                            .dwattr $C$DW$60, DW_AT_low_pc(0x00)
    1093                            .dwattr $C$DW$60, DW_AT_name("ti_sysbios_hal_Hwi_disableInterrupt__E")
    1094                            .dwattr $C$DW$60, DW_AT_TI_call
    1095                    
    1096 0000000c FFFEF7FF!         BL        ti_sysbios_hal_Hwi_disableInterrupt__E ; [DPU_3_PIPE] |123|  ; [KEEP 32-BIT INS]
    1097                            ; CALL OCCURS {ti_sysbios_hal_Hwi_disableInterrupt__E }  ; [] |123| 
    1098                            .dwpsn  file "C:/ti/simplelink_cc13x0_sdk_2_30_00_20/source/ti/devices/cc13x0/driverlib/aon_rt
    1099 00000010 4D21              LDR       V2, $C$CON31          ; [DPU_3_PIPE] |214|  ; [ORIG 16-BIT INS]
    1100 00000012 2401              MOVS      V1, #1                ; [DPU_3_PIPE] |214|  ; [ORIG 16-BIT INS]
TI ARM Assembler PC v16.9.9 Sun Nov 25 19:10:02 2018

Tools Copyright (c) 1996-2017 Texas Instruments Incorporated
C:\Users\Stryd\AppData\Local\Temp\{A794D619-A51F-4E6F-9B47-EF132169661C} PAGE   21

    1101                            .dwpsn  file "C:/ti/simplelink_cc13x0_sdk_2_30_00_20/source/ti/devices/cc13x0/driverlib/aon_rt
    1102 00000014 2600              MOVS      V3, #0                ; [DPU_3_PIPE] |700|  ; [ORIG 16-BIT INS]
    1103                            .dwpsn  file "C:/ti/simplelink_cc13x0_sdk_2_30_00_20/source/ti/devices/cc13x0/driverlib/aon_rt
    1104 00000016 602C              STR       V1, [V2, #0]          ; [DPU_3_PIPE] |214|  ; [ORIG 16-BIT INS]
    1105                            .dwpsn  file "C:/ti/simplelink_cc13x0_sdk_2_30_00_20/source/ti/devices/cc13x0/driverlib/aon_rt
    1106 00000018 4B24              LDR       A4, $C$CON37          ; [DPU_3_PIPE] |377|  ; [ORIG 16-BIT INS]
    1107                            .dwpsn  file "C:/ti/simplelink_cc13x0_sdk_2_30_00_20/source/ti/devices/cc13x0/driverlib/aon_rt
    1108 0000001a 6264F8C5          STR       V3, [V2, #612]        ; [DPU_3_PIPE] |700|  ; [KEEP 32-BIT INS]
    1109 0000001e 1F1B              SUBS      A4, A4, #4            ; [DPU_3_PIPE]  ; [ORIG 16-BIT INS]
    1110                            .dwpsn  file "C:/ti/simplelink_cc13x0_sdk_2_30_00_20/source/ti/devices/cc13x0/driverlib/aon_rt
    1111 00000020 601C              STR       V1, [A4, #0]          ; [DPU_3_PIPE] |377|  ; [ORIG 16-BIT INS]
    1112                            .dwpsn  file "C:/ti/simplelink_cc13x0_sdk_2_30_00_20/source/ti/devices/cc13x0/driverlib/aon_rt
    1113 00000022 481E              LDR       A1, $C$CON33          ; [DPU_3_PIPE] |705|  ; [ORIG 16-BIT INS]
    1114 00000024 6206              STR       V3, [A1, #32]         ; [DPU_3_PIPE] |705|  ; [ORIG 16-BIT INS]
    1115                            .dwpsn  file "C:/ti/simplelink_cc13x0_sdk_2_30_00_20/source/ti/devices/cc13x0/driverlib/aon_rt
    1116 00000026 7180F44F          MOV       A2, #256              ; [DPU_3_PIPE] |382|  ; [KEEP 32-BIT INS]
    1117 0000002a 6019              STR       A2, [A4, #0]          ; [DPU_3_PIPE] |382|  ; [ORIG 16-BIT INS]
    1118                            .dwpsn  file "C:/ti/simplelink_cc13x0_sdk_2_30_00_20/source/ti/devices/cc13x0/driverlib/aon_rt
    1119 0000002c 6406              STR       V3, [A1, #64]         ; [DPU_3_PIPE] |710|  ; [ORIG 16-BIT INS]
    1120                            .dwpsn  file "C:/ti/simplelink_cc13x0_sdk_2_30_00_20/source/ti/devices/cc13x0/driverlib/aon_rt
    1121 0000002e 3080F44F          MOV       A1, #65536            ; [DPU_3_PIPE] |387|  ; [KEEP 32-BIT INS]
    1122 00000032 6018              STR       A1, [A4, #0]          ; [DPU_3_PIPE] |387|  ; [ORIG 16-BIT INS]
    1123 00000034 4620              MOV       A1, V1                ; [DPU_3_PIPE] |387|  ; [ORIG 16-BIT INS]
    1124                            .dwpsn  file "../Application/MAC/HAL/target/hal_rtc_wrapper.c",line 144,column 3,is_stmt,isa 1
    1125                    $C$DW$61        .dwtag  DW_TAG_TI_branch
    1126                            .dwattr $C$DW$61, DW_AT_low_pc(0x00)
    1127                            .dwattr $C$DW$61, DW_AT_name("halClrRtcIntFlag")
    1128                            .dwattr $C$DW$61, DW_AT_TI_call
    1129                    
    1130 00000036 FFFEF7FF!         BL        halClrRtcIntFlag      ; [DPU_3_PIPE] |144|  ; [KEEP 32-BIT INS]
    1131                            ; CALL OCCURS {halClrRtcIntFlag }  ; [] |144| 
    1132                            .dwpsn  file "../Application/MAC/HAL/target/hal_rtc_wrapper.c",line 145,column 3,is_stmt,isa 1
    1133 0000003a 2002              MOVS      A1, #2                ; [DPU_3_PIPE] |145|  ; [ORIG 16-BIT INS]
    1134                    $C$DW$62        .dwtag  DW_TAG_TI_branch
    1135                            .dwattr $C$DW$62, DW_AT_low_pc(0x00)
    1136                            .dwattr $C$DW$62, DW_AT_name("halClrRtcIntFlag")
    1137                            .dwattr $C$DW$62, DW_AT_TI_call
    1138                    
    1139 0000003c FFFEF7FF!         BL        halClrRtcIntFlag      ; [DPU_3_PIPE] |145|  ; [KEEP 32-BIT INS]
    1140                            ; CALL OCCURS {halClrRtcIntFlag }  ; [] |145| 
    1141                            .dwpsn  file "../Application/MAC/HAL/target/hal_rtc_wrapper.c",line 146,column 3,is_stmt,isa 1
    1142 00000040 2004              MOVS      A1, #4                ; [DPU_3_PIPE] |146|  ; [ORIG 16-BIT INS]
    1143                    $C$DW$63        .dwtag  DW_TAG_TI_branch
    1144                            .dwattr $C$DW$63, DW_AT_low_pc(0x00)
    1145                            .dwattr $C$DW$63, DW_AT_name("halClrRtcIntFlag")
    1146                            .dwattr $C$DW$63, DW_AT_TI_call
    1147                    
    1148 00000042 FFFEF7FF!         BL        halClrRtcIntFlag      ; [DPU_3_PIPE] |146|  ; [KEEP 32-BIT INS]
    1149                            ; CALL OCCURS {halClrRtcIntFlag }  ; [] |146| 
    1150 00000046 4620              MOV       A1, V1                ; [DPU_3_PIPE] |146|  ; [ORIG 16-BIT INS]
    1151 00000048 4631              MOV       A2, V3                ; [DPU_3_PIPE] |146|  ; [ORIG 16-BIT INS]
    1152                            .dwpsn  file "../Application/MAC/HAL/target/hal_rtc_wrapper.c",line 149,column 3,is_stmt,isa 1
    1153                    $C$DW$64        .dwtag  DW_TAG_TI_branch
    1154                            .dwattr $C$DW$64, DW_AT_low_pc(0x00)
    1155                            .dwattr $C$DW$64, DW_AT_name("halRtcRegIntCBack")
TI ARM Assembler PC v16.9.9 Sun Nov 25 19:10:02 2018

Tools Copyright (c) 1996-2017 Texas Instruments Incorporated
C:\Users\Stryd\AppData\Local\Temp\{A794D619-A51F-4E6F-9B47-EF132169661C} PAGE   22

    1156                            .dwattr $C$DW$64, DW_AT_TI_call
    1157                    
    1158 0000004a FFFEF7FF!         BL        halRtcRegIntCBack     ; [DPU_3_PIPE] |149|  ; [KEEP 32-BIT INS]
    1159                            ; CALL OCCURS {halRtcRegIntCBack }  ; [] |149| 
    1160                    ;* --------------------------------------------------------------------------*
    1161                            .dwpsn  file "../Application/MAC/HAL/target/hal_rtc_wrapper.c",line 150,column 3,is_stmt,isa 1
    1162 0000004e 2002              MOVS      A1, #2                ; [DPU_3_PIPE] |150|  ; [ORIG 16-BIT INS]
    1163                    $C$DW$65        .dwtag  DW_TAG_TI_branch
    1164                            .dwattr $C$DW$65, DW_AT_low_pc(0x00)
    1165                            .dwattr $C$DW$65, DW_AT_name("halRtcRegIntCBack")
    1166                            .dwattr $C$DW$65, DW_AT_TI_call
    1167                    
    1168 00000050 FFFEF7FF!         BL        halRtcRegIntCBack     ; [DPU_3_PIPE] |150|  ; [KEEP 32-BIT INS]
    1169                            ; CALL OCCURS {halRtcRegIntCBack }  ; [] |150| 
    1170                            .dwpsn  file "../Application/MAC/HAL/target/hal_rtc_wrapper.c",line 151,column 3,is_stmt,isa 1
    1171 00000054 2004              MOVS      A1, #4                ; [DPU_3_PIPE] |151|  ; [ORIG 16-BIT INS]
    1172                    $C$DW$66        .dwtag  DW_TAG_TI_branch
    1173                            .dwattr $C$DW$66, DW_AT_low_pc(0x00)
    1174                            .dwattr $C$DW$66, DW_AT_name("halRtcRegIntCBack")
    1175                            .dwattr $C$DW$66, DW_AT_TI_call
    1176                    
    1177 00000056 FFFEF7FF!         BL        halRtcRegIntCBack     ; [DPU_3_PIPE] |151|  ; [KEEP 32-BIT INS]
    1178                            ; CALL OCCURS {halRtcRegIntCBack }  ; [] |151| 
    1179                            .dwpsn  file "C:/ti/simplelink_cc13x0_sdk_2_30_00_20/source/ti/devices/cc13x0/driverlib/aon_rt
    1180 0000005a 0C04F853          LDR       A1, [A4, #-4]         ; [DPU_3_PIPE] |310|  ; [KEEP 32-BIT INS]
    1181                            .dwpsn  file "C:/ti/simplelink_cc13x0_sdk_2_30_00_20/source/ti/devices/cc13x0/driverlib/aon_rt
    1182 0000005e 6070F420          BIC       A1, A1, #3840         ; [DPU_3_PIPE] |314|  ; [KEEP 32-BIT INS]
    1183                            .dwpsn  file "../Application/MAC/HAL/target/hal_rtc_wrapper.c",line 164,column 3,is_stmt,isa 1
    1184 00000062 490F              LDR       A2, $C$CON34          ; [DPU_3_PIPE] |164|  ; [ORIG 16-BIT INS]
    1185                            .dwpsn  file "C:/ti/simplelink_cc13x0_sdk_2_30_00_20/source/ti/devices/cc13x0/driverlib/aon_rt
    1186 00000064 0C04F843          STR       A1, [A4, #-4]         ; [DPU_3_PIPE] |314|  ; [KEEP 32-BIT INS]
    1187                            .dwpsn  file "C:/ti/simplelink_cc13x0_sdk_2_30_00_20/source/ti/devices/cc13x0/driverlib/aon_rt
    1188 00000068 0C04F853          LDR       A1, [A4, #-4]         ; [DPU_3_PIPE] |345|  ; [KEEP 32-BIT INS]
    1189                            .dwpsn  file "C:/ti/simplelink_cc13x0_sdk_2_30_00_20/source/ti/devices/cc13x0/driverlib/aon_rt
    1190 0000006c 2080F420          BIC       A1, A1, #262144       ; [DPU_3_PIPE] |346|  ; [KEEP 32-BIT INS]
    1191 00000070 3040F440          ORR       A1, A1, #196608       ; [DPU_3_PIPE] |346|  ; [KEEP 32-BIT INS]
    1192                            .dwpsn  file "C:/ti/simplelink_cc13x0_sdk_2_30_00_20/source/ti/devices/cc13x0/driverlib/aon_rt
    1193 00000074 0C04F843          STR       A1, [A4, #-4]         ; [DPU_3_PIPE] |349|  ; [KEEP 32-BIT INS]
    1194                            .dwpsn  file "../Application/MAC/HAL/target/hal_rtc_wrapper.c",line 164,column 3,is_stmt,isa 1
    1195 00000078 6808              LDR       A1, [A2, #0]          ; [DPU_3_PIPE] |164|  ; [ORIG 16-BIT INS]
    1196 0000007a 6802              LDR       A3, [A1, #0]          ; [DPU_3_PIPE] |164|  ; [ORIG 16-BIT INS]
    1197 0000007c 2123              MOVS      A2, #35               ; [DPU_3_PIPE] |164|  ; [ORIG 16-BIT INS]
    1198 0000007e 4630              MOV       A1, V3                ; [DPU_3_PIPE] |164|  ; [ORIG 16-BIT INS]
    1199                    $C$DW$67        .dwtag  DW_TAG_TI_branch
    1200                            .dwattr $C$DW$67, DW_AT_low_pc(0x00)
    1201                            .dwattr $C$DW$67, DW_AT_TI_call
    1202                            .dwattr $C$DW$67, DW_AT_TI_indirect
    1203                    
    1204 00000080 4790              BLX       A3                    ; [DPU_3_PIPE] |164|  ; [ORIG 16-BIT INS]
    1205                            ; CALL OCCURS {}                 ; [] |164| 
    1206                            .dwpsn  file "C:/ti/simplelink_cc13x0_sdk_2_30_00_20/source/ti/devices/cc13x0/driverlib/aon_rt
    1207 00000082 4C1CF845          STR       V1, [V2, #-28]        ; [DPU_3_PIPE] |177|  ; [KEEP 32-BIT INS]
    1208                            .dwpsn  file "../Application/MAC/HAL/target/hal_rtc_wrapper.c",line 171,column 3,is_stmt,isa 1
    1209 00000086 2014              MOVS      A1, #20               ; [DPU_3_PIPE] |171|  ; [ORIG 16-BIT INS]
    1210                    $C$DW$68        .dwtag  DW_TAG_TI_branch
TI ARM Assembler PC v16.9.9 Sun Nov 25 19:10:02 2018

Tools Copyright (c) 1996-2017 Texas Instruments Incorporated
C:\Users\Stryd\AppData\Local\Temp\{A794D619-A51F-4E6F-9B47-EF132169661C} PAGE   23

    1211                            .dwattr $C$DW$68, DW_AT_low_pc(0x00)
    1212                            .dwattr $C$DW$68, DW_AT_name("ti_sysbios_hal_Hwi_enableInterrupt__E")
    1213                            .dwattr $C$DW$68, DW_AT_TI_call
    1214                    
    1215 00000088 FFFEF7FF!         BL        ti_sysbios_hal_Hwi_enableInterrupt__E ; [DPU_3_PIPE] |171|  ; [KEEP 32-BIT INS]
    1216                            ; CALL OCCURS {ti_sysbios_hal_Hwi_enableInterrupt__E }  ; [] |171| 
    1217                            .dwpsn  file "../Application/MAC/HAL/target/hal_rtc_wrapper.c",line 173,column 3,is_stmt,isa 1
    1218 0000008c 4805              LDR       A1, $C$CON35          ; [DPU_3_PIPE] |173|  ; [ORIG 16-BIT INS]
    1219 0000008e 6801              LDR       A2, [A1, #0]          ; [DPU_3_PIPE] |173|  ; [ORIG 16-BIT INS]
    1220 00000090 4638              MOV       A1, V4                ; [DPU_3_PIPE] |173|  ; [ORIG 16-BIT INS]
    1221                    $C$DW$69        .dwtag  DW_TAG_TI_branch
    1222                            .dwattr $C$DW$69, DW_AT_low_pc(0x00)
    1223                            .dwattr $C$DW$69, DW_AT_TI_call
    1224                            .dwattr $C$DW$69, DW_AT_TI_indirect
    1225                    
    1226 00000092 4788              BLX       A2                    ; [DPU_3_PIPE] |173|  ; [ORIG 16-BIT INS]
    1227                            ; CALL OCCURS {}                 ; [] |173| 
    1228                    $C$DW$70        .dwtag  DW_TAG_TI_branch
    1229                            .dwattr $C$DW$70, DW_AT_low_pc(0x00)
    1230                            .dwattr $C$DW$70, DW_AT_TI_return
    1231                    
    1232 00000094 BDF8              POP       {A4, V1, V2, V3, V4, PC} ; [DPU_3_PIPE]  ; [ORIG 16-BIT INS]
    1233                            .dwcfi  cfa_offset, 0
    1234                            .dwcfi  restore_reg, 7
    1235                            .dwcfi  restore_reg, 6
    1236                            .dwcfi  restore_reg, 5
    1237                            .dwcfi  restore_reg, 4
    1238                            .dwcfi  restore_reg, 3
    1239                            ; BRANCH OCCURS                  ; [] 
    1240                            .dwattr $C$DW$55, DW_AT_TI_end_file("../Application/MAC/HAL/target/hal_rtc_wrapper.c")
    1241                            .dwattr $C$DW$55, DW_AT_TI_end_line(0xb0)
    1242                            .dwattr $C$DW$55, DW_AT_TI_end_column(0x01)
    1243                            .dwendentry
    1244                            .dwendtag $C$DW$55
    1245                    
    1246 00000000                   .sect   ".text:halGetRtcIntFlag"
    1247                            .clink
    1248                            .thumbfunc halGetRtcIntFlag
    1249 00000000                   .thumb
    1250                            .global halGetRtcIntFlag
    1251                    
    1252                    $C$DW$71        .dwtag  DW_TAG_subprogram
    1253                            .dwattr $C$DW$71, DW_AT_name("halGetRtcIntFlag")
    1254                            .dwattr $C$DW$71, DW_AT_low_pc(halGetRtcIntFlag)
    1255                            .dwattr $C$DW$71, DW_AT_high_pc(0x00)
    1256                            .dwattr $C$DW$71, DW_AT_TI_symbol_name("halGetRtcIntFlag")
    1257                            .dwattr $C$DW$71, DW_AT_external
    1258                            .dwattr $C$DW$71, DW_AT_type(*$C$DW$T$754)
    1259                            .dwattr $C$DW$71, DW_AT_TI_begin_file("../Application/MAC/HAL/target/hal_rtc_wrapper.c")
    1260                            .dwattr $C$DW$71, DW_AT_TI_begin_line(0x14e)
    1261                            .dwattr $C$DW$71, DW_AT_TI_begin_column(0x07)
    1262                            .dwattr $C$DW$71, DW_AT_decl_file("../Application/MAC/HAL/target/hal_rtc_wrapper.c")
    1263                            .dwattr $C$DW$71, DW_AT_decl_line(0x14e)
    1264                            .dwattr $C$DW$71, DW_AT_decl_column(0x07)
    1265                            .dwattr $C$DW$71, DW_AT_TI_max_frame_size(0x00)
TI ARM Assembler PC v16.9.9 Sun Nov 25 19:10:02 2018

Tools Copyright (c) 1996-2017 Texas Instruments Incorporated
C:\Users\Stryd\AppData\Local\Temp\{A794D619-A51F-4E6F-9B47-EF132169661C} PAGE   24

    1266                            .dwpsn  file "../Application/MAC/HAL/target/hal_rtc_wrapper.c",line 335,column 1,is_stmt,addre
    1267                    
    1268                            .dwfde $C$DW$CIE, halGetRtcIntFlag
    1269                    $C$DW$72        .dwtag  DW_TAG_formal_parameter
    1270                            .dwattr $C$DW$72, DW_AT_name("rtcChan")
    1271                            .dwattr $C$DW$72, DW_AT_TI_symbol_name("rtcChan")
    1272                            .dwattr $C$DW$72, DW_AT_type(*$C$DW$T$10)
    1273                            .dwattr $C$DW$72, DW_AT_location[DW_OP_reg0]
    1274                    
    1275                    
    1276                    ;*****************************************************************************
    1277                    ;* FUNCTION NAME: halGetRtcIntFlag                                           *
    1278                    ;*                                                                           *
    1279                    ;*   Regs Modified     : A1,A2,SR                                            *
    1280                    ;*   Regs Used         : A1,A2,LR,SR                                         *
    1281                    ;*   Local Frame Size  : 0 Args + 0 Auto + 0 Save = 0 byte                   *
    1282                    ;*****************************************************************************
    1283                    halGetRtcIntFlag:
    1284                    ;* --------------------------------------------------------------------------*
    1285                    ;* A1    assigned to rtcChan
    1286                    $C$DW$73        .dwtag  DW_TAG_variable
    1287                            .dwattr $C$DW$73, DW_AT_name("rtcChan")
    1288                            .dwattr $C$DW$73, DW_AT_TI_symbol_name("rtcChan")
    1289                            .dwattr $C$DW$73, DW_AT_type(*$C$DW$T$913)
    1290                            .dwattr $C$DW$73, DW_AT_location[DW_OP_reg0]
    1291                    
    1292                            .dwcfi  cfa_offset, 0
    1293                            .dwpsn  file "../Application/MAC/HAL/target/hal_rtc_wrapper.c",line 339,column 5,is_stmt,isa 1
    1294 00000000 4906              LDR       A2, $C$CON38          ; [DPU_3_PIPE] |339|  ; [ORIG 16-BIT INS]
    1295 00000002 2801              CMP       A1, #1                ; [DPU_3_PIPE] |339|  ; [ORIG 16-BIT INS]
    1296 00000004 BF08              IT        EQ                    ; [DPU_3_PIPE]  ; [ORIG 16-BIT INS]
    1297 00000006 1C08              MOVEQ     A1, A2                ; [DPU_3_PIPE] |339|  ; [ORIG 16-BIT INS]
    1298 00000008 D005              BEQ       ||$C$L23||            ; [DPU_3_PIPE] |339|  ; [ORIG 16-BIT INS]
    1299                            ; BRANCHCC OCCURS {||$C$L23||}   ; [] |339| 
    1300                    ;* --------------------------------------------------------------------------*
    1301 0000000a 2802              CMP       A1, #2                ; [DPU_3_PIPE] |339|  ; [ORIG 16-BIT INS]
    1302 0000000c BF07              ITTEE     EQ                    ; [DPU_3_PIPE]  ; [ORIG 16-BIT INS]
    1303 0000000e 1C08              MOVEQ     A1, A2                ; [DPU_3_PIPE] |339|  ; [ORIG 16-BIT INS]
    1304 00000010 1C40              ADDEQ     A1, A1, #1            ; [DPU_3_PIPE]  ; [ORIG 16-BIT INS]
    1305 00000012 1C08              MOVNE     A1, A2                ; [DPU_3_PIPE] |339|  ; [ORIG 16-BIT INS]
    1306 00000014 1C80              ADDNE     A1, A1, #2            ; [DPU_3_PIPE]  ; [ORIG 16-BIT INS]
    1307                    ;* --------------------------------------------------------------------------*
    1308 00000016           ||$C$L23||:    
    1309 00000016 7800              LDRB      A1, [A1, #0]          ; [DPU_3_PIPE] |339|  ; [ORIG 16-BIT INS]
    1310                    $C$DW$74        .dwtag  DW_TAG_TI_branch
    1311                            .dwattr $C$DW$74, DW_AT_low_pc(0x00)
    1312                            .dwattr $C$DW$74, DW_AT_TI_return
    1313                    
    1314 00000018 4770              BX        LR                    ; [DPU_3_PIPE]  ; [ORIG 16-BIT INS]
    1315                            ; BRANCH OCCURS                  ; [] 
    1316                            .dwattr $C$DW$71, DW_AT_TI_end_file("../Application/MAC/HAL/target/hal_rtc_wrapper.c")
    1317                            .dwattr $C$DW$71, DW_AT_TI_end_line(0x15d)
    1318                            .dwattr $C$DW$71, DW_AT_TI_end_column(0x01)
    1319                            .dwendentry
    1320                            .dwendtag $C$DW$71
TI ARM Assembler PC v16.9.9 Sun Nov 25 19:10:02 2018

Tools Copyright (c) 1996-2017 Texas Instruments Incorporated
C:\Users\Stryd\AppData\Local\Temp\{A794D619-A51F-4E6F-9B47-EF132169661C} PAGE   25

    1321                    
    1322 00000000                   .sect   ".text:halClearRtcTimerEvent"
    1323                            .clink
    1324                            .thumbfunc halClearRtcTimerEvent
    1325 00000000                   .thumb
    1326                            .global halClearRtcTimerEvent
    1327                    
    1328                    $C$DW$75        .dwtag  DW_TAG_subprogram
    1329                            .dwattr $C$DW$75, DW_AT_name("halClearRtcTimerEvent")
    1330                            .dwattr $C$DW$75, DW_AT_low_pc(halClearRtcTimerEvent)
    1331                            .dwattr $C$DW$75, DW_AT_high_pc(0x00)
    1332                            .dwattr $C$DW$75, DW_AT_TI_symbol_name("halClearRtcTimerEvent")
    1333                            .dwattr $C$DW$75, DW_AT_external
    1334                            .dwattr $C$DW$75, DW_AT_TI_begin_file("../Application/MAC/HAL/target/hal_rtc_wrapper.c")
    1335                            .dwattr $C$DW$75, DW_AT_TI_begin_line(0xfb)
    1336                            .dwattr $C$DW$75, DW_AT_TI_begin_column(0x06)
    1337                            .dwattr $C$DW$75, DW_AT_decl_file("../Application/MAC/HAL/target/hal_rtc_wrapper.c")
    1338                            .dwattr $C$DW$75, DW_AT_decl_line(0xfb)
    1339                            .dwattr $C$DW$75, DW_AT_decl_column(0x06)
    1340                            .dwattr $C$DW$75, DW_AT_TI_max_frame_size(0x08)
    1341                            .dwpsn  file "../Application/MAC/HAL/target/hal_rtc_wrapper.c",line 252,column 1,is_stmt,addre
    1342                    
    1343                            .dwfde $C$DW$CIE, halClearRtcTimerEvent
    1344                    $C$DW$76        .dwtag  DW_TAG_formal_parameter
    1345                            .dwattr $C$DW$76, DW_AT_name("rtcChan")
    1346                            .dwattr $C$DW$76, DW_AT_TI_symbol_name("rtcChan")
    1347                            .dwattr $C$DW$76, DW_AT_type(*$C$DW$T$750)
    1348                            .dwattr $C$DW$76, DW_AT_location[DW_OP_reg0]
    1349                    
    1350                    
    1351                    ;*****************************************************************************
    1352                    ;* FUNCTION NAME: halClearRtcTimerEvent                                      *
    1353                    ;*                                                                           *
    1354                    ;*   Regs Modified     : A1,A2,A3,A4,V1,V9,SP,LR,SR                          *
    1355                    ;*   Regs Used         : A1,A2,A3,A4,V1,V9,SP,LR,SR                          *
    1356                    ;*   Local Frame Size  : 0 Args + 0 Auto + 8 Save = 8 byte                   *
    1357                    ;*****************************************************************************
    1358                    halClearRtcTimerEvent:
    1359                    ;* --------------------------------------------------------------------------*
    1360                    ;* V1    assigned to rtcChan
    1361                    $C$DW$77        .dwtag  DW_TAG_variable
    1362                            .dwattr $C$DW$77, DW_AT_name("rtcChan")
    1363                            .dwattr $C$DW$77, DW_AT_TI_symbol_name("rtcChan")
    1364                            .dwattr $C$DW$77, DW_AT_type(*$C$DW$T$1225)
    1365                            .dwattr $C$DW$77, DW_AT_location[DW_OP_reg4]
    1366                    
    1367                    ;* A3    assigned to cs
    1368                    $C$DW$78        .dwtag  DW_TAG_variable
    1369                            .dwattr $C$DW$78, DW_AT_name("cs")
    1370                            .dwattr $C$DW$78, DW_AT_TI_symbol_name("cs")
    1371                            .dwattr $C$DW$78, DW_AT_type(*$C$DW$T$1091)
    1372                            .dwattr $C$DW$78, DW_AT_location[DW_OP_reg2]
    1373                    
    1374                            .dwcfi  cfa_offset, 0
    1375 00000000 B510              PUSH      {V1, LR}              ; [DPU_3_PIPE]  ; [ORIG 16-BIT INS]
TI ARM Assembler PC v16.9.9 Sun Nov 25 19:10:02 2018

Tools Copyright (c) 1996-2017 Texas Instruments Incorporated
C:\Users\Stryd\AppData\Local\Temp\{A794D619-A51F-4E6F-9B47-EF132169661C} PAGE   26

    1376                            .dwcfi  cfa_offset, 8
    1377                            .dwcfi  save_reg_to_mem, 14, -4
    1378                            .dwcfi  save_reg_to_mem, 4, -8
    1379 00000002 4604              MOV       V1, A1                ; [DPU_3_PIPE] |252|  ; [ORIG 16-BIT INS]
    1380                            .dwpsn  file "../Application/MAC/HAL/target/hal_rtc_wrapper.c",line 255,column 3,is_stmt,isa 1
    1381 00000004 4817              LDR       A1, $C$CON47          ; [DPU_3_PIPE] |255|  ; [ORIG 16-BIT INS]
    1382 00000006 6800              LDR       A1, [A1, #0]          ; [DPU_3_PIPE] |255|  ; [ORIG 16-BIT INS]
    1383                    $C$DW$79        .dwtag  DW_TAG_TI_branch
    1384                            .dwattr $C$DW$79, DW_AT_low_pc(0x00)
    1385                            .dwattr $C$DW$79, DW_AT_TI_call
    1386                            .dwattr $C$DW$79, DW_AT_TI_indirect
    1387                    
    1388 00000008 4780              BLX       A1                    ; [DPU_3_PIPE] |255|  ; [ORIG 16-BIT INS]
    1389                            ; CALL OCCURS {}                 ; [] |255| 
    1390 0000000a 4602              MOV       A3, A1                ; [DPU_3_PIPE] |255|  ; [ORIG 16-BIT INS]
    1391                            .dwpsn  file "C:/ti/simplelink_cc13x0_sdk_2_30_00_20/source/ti/devices/cc13x0/driverlib/aon_rt
    1392 0000000c 4813              LDR       A1, $C$CON43          ; [DPU_3_PIPE] |710|  ; [ORIG 16-BIT INS]
    1393                            .dwpsn  file "C:/ti/simplelink_cc13x0_sdk_2_30_00_20/source/ti/devices/cc13x0/driverlib/aon_rt
    1394 0000000e 0861              LSRS      A2, V1, #1            ; [DPU_3_PIPE] |698|  ; [ORIG 16-BIT INS]
    1395 00000010 D303              BCC       ||$C$L24||            ; [DPU_3_PIPE] |698|  ; [ORIG 16-BIT INS]
    1396                            ; BRANCHCC OCCURS {||$C$L24||}   ; [] |698| 
    1397                    ;* --------------------------------------------------------------------------*
    1398                            .dwpsn  file "C:/ti/simplelink_cc13x0_sdk_2_30_00_20/source/ti/devices/cc13x0/driverlib/aon_rt
    1399 00000012 2300              MOVS      A4, #0                ; [DPU_3_PIPE] |700|  ; [ORIG 16-BIT INS]
    1400 00000014 0120F1A0          SUB       A2, A1, #32           ; [DPU_3_PIPE]  ; [KEEP 32-BIT INS]
    1401 00000018 600B              STR       A4, [A2, #0]          ; [DPU_3_PIPE] |700|  ; [ORIG 16-BIT INS]
    1402                    ;* --------------------------------------------------------------------------*
    1403 0000001a           ||$C$L24||:    
    1404                            .dwpsn  file "C:/ti/simplelink_cc13x0_sdk_2_30_00_20/source/ti/devices/cc13x0/driverlib/aon_rt
    1405 0000001a 08A1              LSRS      A2, V1, #2            ; [DPU_3_PIPE] |703|  ; [ORIG 16-BIT INS]
    1406 0000001c BF24              ITT       CS                    ; [DPU_3_PIPE]  ; [ORIG 16-BIT INS]
    1407                            .dwpsn  file "C:/ti/simplelink_cc13x0_sdk_2_30_00_20/source/ti/devices/cc13x0/driverlib/aon_rt
    1408 0000001e 2100              MOVCS     A2, #0                ; [DPU_3_PIPE] |705|  ; [ORIG 16-BIT INS]
    1409 00000020 6001              STRCS     A2, [A1, #0]          ; [DPU_3_PIPE] |705|  ; [ORIG 16-BIT INS]
    1410                            .dwpsn  file "C:/ti/simplelink_cc13x0_sdk_2_30_00_20/source/ti/devices/cc13x0/driverlib/aon_rt
    1411 00000022 08E1              LSRS      A2, V1, #3            ; [DPU_3_PIPE] |708|  ; [ORIG 16-BIT INS]
    1412 00000024 D302              BCC       ||$C$L25||            ; [DPU_3_PIPE] |708|  ; [ORIG 16-BIT INS]
    1413                            ; BRANCHCC OCCURS {||$C$L25||}   ; [] |708| 
    1414                    ;* --------------------------------------------------------------------------*
    1415                            .dwpsn  file "C:/ti/simplelink_cc13x0_sdk_2_30_00_20/source/ti/devices/cc13x0/driverlib/aon_rt
    1416 00000026 2100              MOVS      A2, #0                ; [DPU_3_PIPE] |710|  ; [ORIG 16-BIT INS]
    1417 00000028 3020              ADDS      A1, A1, #32           ; [DPU_3_PIPE]  ; [ORIG 16-BIT INS]
    1418 0000002a 6001              STR       A2, [A1, #0]          ; [DPU_3_PIPE] |710|  ; [ORIG 16-BIT INS]
    1419                    ;* --------------------------------------------------------------------------*
    1420 0000002c           ||$C$L25||:    
    1421                            .dwpsn  file "C:/ti/simplelink_cc13x0_sdk_2_30_00_20/source/ti/devices/cc13x0/driverlib/aon_rt
    1422 0000002c 480C              LDR       A1, $C$CON45          ; [DPU_3_PIPE] |387|  ; [ORIG 16-BIT INS]
    1423                            .dwpsn  file "C:/ti/simplelink_cc13x0_sdk_2_30_00_20/source/ti/devices/cc13x0/driverlib/aon_rt
    1424 0000002e 0861              LSRS      A2, V1, #1            ; [DPU_3_PIPE] |375|  ; [ORIG 16-BIT INS]
    1425 00000030 BF24              ITT       CS                    ; [DPU_3_PIPE]  ; [ORIG 16-BIT INS]
    1426                            .dwpsn  file "C:/ti/simplelink_cc13x0_sdk_2_30_00_20/source/ti/devices/cc13x0/driverlib/aon_rt
    1427 00000032 2101              MOVCS     A2, #1                ; [DPU_3_PIPE] |377|  ; [ORIG 16-BIT INS]
    1428 00000034 6001              STRCS     A2, [A1, #0]          ; [DPU_3_PIPE] |377|  ; [ORIG 16-BIT INS]
    1429                            .dwpsn  file "C:/ti/simplelink_cc13x0_sdk_2_30_00_20/source/ti/devices/cc13x0/driverlib/aon_rt
    1430 00000036 08A1              LSRS      A2, V1, #2            ; [DPU_3_PIPE] |380|  ; [ORIG 16-BIT INS]
TI ARM Assembler PC v16.9.9 Sun Nov 25 19:10:02 2018

Tools Copyright (c) 1996-2017 Texas Instruments Incorporated
C:\Users\Stryd\AppData\Local\Temp\{A794D619-A51F-4E6F-9B47-EF132169661C} PAGE   27

    1431 00000038 BF24              ITT       CS                    ; [DPU_3_PIPE]  ; [ORIG 16-BIT INS]
    1432                            .dwpsn  file "C:/ti/simplelink_cc13x0_sdk_2_30_00_20/source/ti/devices/cc13x0/driverlib/aon_rt
    1433 0000003a 7180F44F          MOVCS     A2, #256              ; [DPU_3_PIPE] |382|  ; [KEEP 32-BIT INS]
    1434 0000003e 6001              STRCS     A2, [A1, #0]          ; [DPU_3_PIPE] |382|  ; [ORIG 16-BIT INS]
    1435                            .dwpsn  file "C:/ti/simplelink_cc13x0_sdk_2_30_00_20/source/ti/devices/cc13x0/driverlib/aon_rt
    1436 00000040 08E1              LSRS      A2, V1, #3            ; [DPU_3_PIPE] |385|  ; [ORIG 16-BIT INS]
    1437 00000042 BF24              ITT       CS                    ; [DPU_3_PIPE]  ; [ORIG 16-BIT INS]
    1438                            .dwpsn  file "C:/ti/simplelink_cc13x0_sdk_2_30_00_20/source/ti/devices/cc13x0/driverlib/aon_rt
    1439 00000044 3180F44F          MOVCS     A2, #65536            ; [DPU_3_PIPE] |387|  ; [KEEP 32-BIT INS]
    1440 00000048 6001              STRCS     A2, [A1, #0]          ; [DPU_3_PIPE] |387|  ; [ORIG 16-BIT INS]
    1441                            .dwpsn  file "../Application/MAC/HAL/target/hal_rtc_wrapper.c",line 264,column 3,is_stmt,isa 1
    1442 0000004a B2E0              UXTB      A1, V1                ; [DPU_3_PIPE] |264|  ; [ORIG 16-BIT INS]
    1443                    $C$DW$80        .dwtag  DW_TAG_TI_branch
    1444                            .dwattr $C$DW$80, DW_AT_low_pc(0x00)
    1445                            .dwattr $C$DW$80, DW_AT_name("halClrRtcIntFlag")
    1446                            .dwattr $C$DW$80, DW_AT_TI_call
    1447                    
    1448 0000004c FFFEF7FF!         BL        halClrRtcIntFlag      ; [DPU_3_PIPE] |264|  ; [KEEP 32-BIT INS]
    1449                            ; CALL OCCURS {halClrRtcIntFlag }  ; [] |264| 
    1450                            .dwpsn  file "../Application/MAC/HAL/target/hal_rtc_wrapper.c",line 266,column 3,is_stmt,isa 1
    1451 00000050 4805              LDR       A1, $C$CON48          ; [DPU_3_PIPE] |266|  ; [ORIG 16-BIT INS]
    1452 00000052 6801              LDR       A2, [A1, #0]          ; [DPU_3_PIPE] |266|  ; [ORIG 16-BIT INS]
    1453 00000054 4610              MOV       A1, A3                ; [DPU_3_PIPE] |266|  ; [ORIG 16-BIT INS]
    1454                    $C$DW$81        .dwtag  DW_TAG_TI_branch
    1455                            .dwattr $C$DW$81, DW_AT_low_pc(0x00)
    1456                            .dwattr $C$DW$81, DW_AT_TI_call
    1457                            .dwattr $C$DW$81, DW_AT_TI_indirect
    1458                    
    1459 00000056 4788              BLX       A2                    ; [DPU_3_PIPE] |266|  ; [ORIG 16-BIT INS]
    1460                            ; CALL OCCURS {}                 ; [] |266| 
    1461                    $C$DW$82        .dwtag  DW_TAG_TI_branch
    1462                            .dwattr $C$DW$82, DW_AT_low_pc(0x00)
    1463                            .dwattr $C$DW$82, DW_AT_TI_return
    1464                    
    1465 00000058 BD10              POP       {V1, PC}              ; [DPU_3_PIPE]  ; [ORIG 16-BIT INS]
    1466                            .dwcfi  cfa_offset, 0
    1467                            .dwcfi  restore_reg, 4
    1468                            ; BRANCH OCCURS                  ; [] 
    1469                            .dwattr $C$DW$75, DW_AT_TI_end_file("../Application/MAC/HAL/target/hal_rtc_wrapper.c")
    1470                            .dwattr $C$DW$75, DW_AT_TI_end_line(0x10d)
    1471                            .dwattr $C$DW$75, DW_AT_TI_end_column(0x01)
    1472                            .dwendentry
    1473                            .dwendtag $C$DW$75
    1474                    
    1475 00000000                   .sect   ".text:RTC_ISR"
    1476                            .clink
    1477                            .thumbfunc RTC_ISR
    1478 00000000                   .thumb
    1479                            .global RTC_ISR
    1480                    
    1481                    $C$DW$83        .dwtag  DW_TAG_subprogram
    1482                            .dwattr $C$DW$83, DW_AT_name("RTC_ISR")
    1483                            .dwattr $C$DW$83, DW_AT_low_pc(RTC_ISR)
    1484                            .dwattr $C$DW$83, DW_AT_high_pc(0x00)
    1485                            .dwattr $C$DW$83, DW_AT_TI_symbol_name("RTC_ISR")
TI ARM Assembler PC v16.9.9 Sun Nov 25 19:10:02 2018

Tools Copyright (c) 1996-2017 Texas Instruments Incorporated
C:\Users\Stryd\AppData\Local\Temp\{A794D619-A51F-4E6F-9B47-EF132169661C} PAGE   28

    1486                            .dwattr $C$DW$83, DW_AT_external
    1487                            .dwattr $C$DW$83, DW_AT_TI_begin_file("../Application/MAC/HAL/target/hal_rtc_wrapper.c")
    1488                            .dwattr $C$DW$83, DW_AT_TI_begin_line(0x24f)
    1489                            .dwattr $C$DW$83, DW_AT_TI_begin_column(0x06)
    1490                            .dwattr $C$DW$83, DW_AT_decl_file("../Application/MAC/HAL/target/hal_rtc_wrapper.c")
    1491                            .dwattr $C$DW$83, DW_AT_decl_line(0x24f)
    1492                            .dwattr $C$DW$83, DW_AT_decl_column(0x06)
    1493                            .dwattr $C$DW$83, DW_AT_TI_max_frame_size(0x10)
    1494                            .dwpsn  file "../Application/MAC/HAL/target/hal_rtc_wrapper.c",line 592,column 1,is_stmt,addre
    1495                    
    1496                            .dwfde $C$DW$CIE, RTC_ISR
    1497                    
    1498                    ;*****************************************************************************
    1499                    ;* FUNCTION NAME: RTC_ISR                                                    *
    1500                    ;*                                                                           *
    1501                    ;*   Regs Modified     : A1,A2,A3,A4,V1,V2,V3,V9,SP,LR,SR                    *
    1502                    ;*   Regs Used         : A1,A2,A3,A4,V1,V2,V3,V9,SP,LR,SR                    *
    1503                    ;*   Local Frame Size  : 0 Args + 0 Auto + 16 Save = 16 byte                 *
    1504                    ;*****************************************************************************
    1505                    RTC_ISR:
    1506                    ;* --------------------------------------------------------------------------*
    1507                    ;* A1    assigned to $O$C4
    1508                    ;* A1    assigned to $O$C5
    1509                    ;* A1    assigned to $O$C6
    1510                    ;* A1    assigned to $O$K17
    1511                    ;* A1    assigned to $O$K17
    1512                    ;* A1    assigned to $O$K17
    1513                    ;* V1    assigned to $O$K6
    1514                    ;* V3    assigned to cs
    1515                    $C$DW$84        .dwtag  DW_TAG_variable
    1516                            .dwattr $C$DW$84, DW_AT_name("cs")
    1517                            .dwattr $C$DW$84, DW_AT_TI_symbol_name("cs")
    1518                            .dwattr $C$DW$84, DW_AT_type(*$C$DW$T$1091)
    1519                            .dwattr $C$DW$84, DW_AT_location[DW_OP_reg6]
    1520                    
    1521                            .dwcfi  cfa_offset, 0
    1522                            .dwpsn  file "../Application/MAC/HAL/target/hal_rtc_wrapper.c",line 595,column 3,is_stmt,isa 1
    1523 00000000 4819              LDR       A1, $C$CON55          ; [DPU_3_PIPE] |595|  ; [ORIG 16-BIT INS]
    1524 00000002 B570              PUSH      {V1, V2, V3, LR}      ; [DPU_3_PIPE]  ; [ORIG 16-BIT INS]
    1525                            .dwcfi  cfa_offset, 16
    1526                            .dwcfi  save_reg_to_mem, 14, -4
    1527                            .dwcfi  save_reg_to_mem, 6, -8
    1528                            .dwcfi  save_reg_to_mem, 5, -12
    1529                            .dwcfi  save_reg_to_mem, 4, -16
    1530 00000004 6800              LDR       A1, [A1, #0]          ; [DPU_3_PIPE] |595|  ; [ORIG 16-BIT INS]
    1531                    $C$DW$85        .dwtag  DW_TAG_TI_branch
    1532                            .dwattr $C$DW$85, DW_AT_low_pc(0x00)
    1533                            .dwattr $C$DW$85, DW_AT_TI_call
    1534                            .dwattr $C$DW$85, DW_AT_TI_indirect
    1535                    
    1536 00000006 4780              BLX       A1                    ; [DPU_3_PIPE] |595|  ; [ORIG 16-BIT INS]
    1537                            ; CALL OCCURS {}                 ; [] |595| 
    1538                            .dwpsn  file "C:/ti/simplelink_cc13x0_sdk_2_30_00_20/source/ti/devices/cc13x0/driverlib/aon_rt
    1539 00000008 4C18              LDR       V1, $C$CON56          ; [DPU_3_PIPE] |420|  ; [ORIG 16-BIT INS]
    1540                            .dwpsn  file "../Application/MAC/HAL/target/hal_rtc_wrapper.c",line 625,column 5,is_stmt,isa 1
TI ARM Assembler PC v16.9.9 Sun Nov 25 19:10:02 2018

Tools Copyright (c) 1996-2017 Texas Instruments Incorporated
C:\Users\Stryd\AppData\Local\Temp\{A794D619-A51F-4E6F-9B47-EF132169661C} PAGE   29

    1541 0000000a 4D19              LDR       V2, $C$CON57          ; [DPU_3_PIPE] |625|  ; [ORIG 16-BIT INS]
    1542                            .dwpsn  file "../Application/MAC/HAL/target/hal_rtc_wrapper.c",line 595,column 3,is_stmt,isa 1
    1543 0000000c 4606              MOV       V3, A1                ; [DPU_3_PIPE] |595|  ; [ORIG 16-BIT INS]
    1544 0000000e 3464              ADDS      V1, V1, #100          ; [DPU_3_PIPE]  ; [ORIG 16-BIT INS]
    1545                            .dwpsn  file "C:/ti/simplelink_cc13x0_sdk_2_30_00_20/source/ti/devices/cc13x0/driverlib/aon_rt
    1546 00000010 6820              LDR       A1, [V1, #0]          ; [DPU_3_PIPE] |420|  ; [ORIG 16-BIT INS]
    1547 00000012 B150              CBZ       A1, ||$C$L27||        ; []  ; [ORIG 16-BIT INS]
    1548                            ; BRANCHCC OCCURS {||$C$L27||}   ; [] |420| 
    1549                    ;* --------------------------------------------------------------------------*
    1550                            .dwpsn  file "../Application/MAC/HAL/target/hal_rtc_wrapper.c",line 602,column 5,is_stmt,isa 1
    1551 00000014 2001              MOVS      A1, #1                ; [DPU_3_PIPE] |602|  ; [ORIG 16-BIT INS]
    1552                    $C$DW$86        .dwtag  DW_TAG_TI_branch
    1553                            .dwattr $C$DW$86, DW_AT_low_pc(0x00)
    1554                            .dwattr $C$DW$86, DW_AT_name("halSetRtcIntFlag")
    1555                            .dwattr $C$DW$86, DW_AT_TI_call
    1556                    
    1557 00000016 FFFEF7FF!         BL        halSetRtcIntFlag      ; [DPU_3_PIPE] |602|  ; [KEEP 32-BIT INS]
    1558                            ; CALL OCCURS {halSetRtcIntFlag }  ; [] |602| 
    1559                            .dwpsn  file "../Application/MAC/HAL/target/hal_rtc_wrapper.c",line 605,column 5,is_stmt,isa 1
    1560 0000001a 4628              MOV       A1, V2                ; [DPU_3_PIPE] |605|  ; [ORIG 16-BIT INS]
    1561 0000001c 1D00              ADDS      A1, A1, #4            ; [DPU_3_PIPE]  ; [ORIG 16-BIT INS]
    1562 0000001e 6800              LDR       A1, [A1, #0]          ; [DPU_3_PIPE] |605|  ; [ORIG 16-BIT INS]
    1563 00000020 B100              CBZ       A1, ||$C$L26||        ; []  ; [ORIG 16-BIT INS]
    1564                            ; BRANCHCC OCCURS {||$C$L26||}   ; [] |605| 
    1565                    ;* --------------------------------------------------------------------------*
    1566                            .dwpsn  file "../Application/MAC/HAL/target/hal_rtc_wrapper.c",line 605,column 25,is_stmt,isa 
    1567                    $C$DW$87        .dwtag  DW_TAG_TI_branch
    1568                            .dwattr $C$DW$87, DW_AT_low_pc(0x00)
    1569                            .dwattr $C$DW$87, DW_AT_TI_call
    1570                            .dwattr $C$DW$87, DW_AT_TI_indirect
    1571                    
    1572 00000022 4780              BLX       A1                    ; [DPU_3_PIPE] |605|  ; [ORIG 16-BIT INS]
    1573                            ; CALL OCCURS {}                 ; [] |605| 
    1574                    ;* --------------------------------------------------------------------------*
    1575 00000024           ||$C$L26||:    
    1576                            .dwpsn  file "../Application/MAC/HAL/target/hal_rtc_wrapper.c",line 607,column 5,is_stmt,isa 1
    1577 00000024 2001              MOVS      A1, #1                ; [DPU_3_PIPE] |607|  ; [ORIG 16-BIT INS]
    1578                    $C$DW$88        .dwtag  DW_TAG_TI_branch
    1579                            .dwattr $C$DW$88, DW_AT_low_pc(0x00)
    1580                            .dwattr $C$DW$88, DW_AT_name("halClearRtcTimerEvent")
    1581                            .dwattr $C$DW$88, DW_AT_TI_call
    1582                    
    1583 00000026 FFFEF7FF!         BL        halClearRtcTimerEvent ; [DPU_3_PIPE] |607|  ; [KEEP 32-BIT INS]
    1584                            ; CALL OCCURS {halClearRtcTimerEvent }  ; [] |607| 
    1585                    ;* --------------------------------------------------------------------------*
    1586 0000002a           ||$C$L27||:    
    1587                            .dwpsn  file "C:/ti/simplelink_cc13x0_sdk_2_30_00_20/source/ti/devices/cc13x0/driverlib/aon_rt
    1588 0000002a 6A20              LDR       A1, [V1, #32]         ; [DPU_3_PIPE] |425|  ; [ORIG 16-BIT INS]
    1589 0000002c B150              CBZ       A1, ||$C$L29||        ; []  ; [ORIG 16-BIT INS]
    1590                            ; BRANCHCC OCCURS {||$C$L29||}   ; [] |425| 
    1591                    ;* --------------------------------------------------------------------------*
    1592                            .dwpsn  file "../Application/MAC/HAL/target/hal_rtc_wrapper.c",line 612,column 5,is_stmt,isa 1
    1593 0000002e 2002              MOVS      A1, #2                ; [DPU_3_PIPE] |612|  ; [ORIG 16-BIT INS]
    1594                    $C$DW$89        .dwtag  DW_TAG_TI_branch
    1595                            .dwattr $C$DW$89, DW_AT_low_pc(0x00)
TI ARM Assembler PC v16.9.9 Sun Nov 25 19:10:02 2018

Tools Copyright (c) 1996-2017 Texas Instruments Incorporated
C:\Users\Stryd\AppData\Local\Temp\{A794D619-A51F-4E6F-9B47-EF132169661C} PAGE   30

    1596                            .dwattr $C$DW$89, DW_AT_name("halSetRtcIntFlag")
    1597                            .dwattr $C$DW$89, DW_AT_TI_call
    1598                    
    1599 00000030 FFFEF7FF!         BL        halSetRtcIntFlag      ; [DPU_3_PIPE] |612|  ; [KEEP 32-BIT INS]
    1600                            ; CALL OCCURS {halSetRtcIntFlag }  ; [] |612| 
    1601                            .dwpsn  file "../Application/MAC/HAL/target/hal_rtc_wrapper.c",line 615,column 5,is_stmt,isa 1
    1602 00000034 4628              MOV       A1, V2                ; [DPU_3_PIPE] |615|  ; [ORIG 16-BIT INS]
    1603 00000036 3008              ADDS      A1, A1, #8            ; [DPU_3_PIPE]  ; [ORIG 16-BIT INS]
    1604 00000038 6800              LDR       A1, [A1, #0]          ; [DPU_3_PIPE] |615|  ; [ORIG 16-BIT INS]
    1605 0000003a B100              CBZ       A1, ||$C$L28||        ; []  ; [ORIG 16-BIT INS]
    1606                            ; BRANCHCC OCCURS {||$C$L28||}   ; [] |615| 
    1607                    ;* --------------------------------------------------------------------------*
    1608                            .dwpsn  file "../Application/MAC/HAL/target/hal_rtc_wrapper.c",line 615,column 25,is_stmt,isa 
    1609                    $C$DW$90        .dwtag  DW_TAG_TI_branch
    1610                            .dwattr $C$DW$90, DW_AT_low_pc(0x00)
    1611                            .dwattr $C$DW$90, DW_AT_TI_call
    1612                            .dwattr $C$DW$90, DW_AT_TI_indirect
    1613                    
    1614 0000003c 4780              BLX       A1                    ; [DPU_3_PIPE] |615|  ; [ORIG 16-BIT INS]
    1615                            ; CALL OCCURS {}                 ; [] |615| 
    1616                    ;* --------------------------------------------------------------------------*
    1617 0000003e           ||$C$L28||:    
    1618                            .dwpsn  file "../Application/MAC/HAL/target/hal_rtc_wrapper.c",line 617,column 5,is_stmt,isa 1
    1619 0000003e 2002              MOVS      A1, #2                ; [DPU_3_PIPE] |617|  ; [ORIG 16-BIT INS]
    1620                    $C$DW$91        .dwtag  DW_TAG_TI_branch
    1621                            .dwattr $C$DW$91, DW_AT_low_pc(0x00)
    1622                            .dwattr $C$DW$91, DW_AT_name("halClearRtcTimerEvent")
    1623                            .dwattr $C$DW$91, DW_AT_TI_call
    1624                    
    1625 00000040 FFFEF7FF!         BL        halClearRtcTimerEvent ; [DPU_3_PIPE] |617|  ; [KEEP 32-BIT INS]
    1626                            ; CALL OCCURS {halClearRtcTimerEvent }  ; [] |617| 
    1627                    ;* --------------------------------------------------------------------------*
    1628 00000044           ||$C$L29||:    
    1629                            .dwpsn  file "C:/ti/simplelink_cc13x0_sdk_2_30_00_20/source/ti/devices/cc13x0/driverlib/aon_rt
    1630 00000044 6C20              LDR       A1, [V1, #64]         ; [DPU_3_PIPE] |430|  ; [ORIG 16-BIT INS]
    1631 00000046 B150              CBZ       A1, ||$C$L31||        ; []  ; [ORIG 16-BIT INS]
    1632                            ; BRANCHCC OCCURS {||$C$L31||}   ; [] |430| 
    1633                    ;* --------------------------------------------------------------------------*
    1634                            .dwpsn  file "../Application/MAC/HAL/target/hal_rtc_wrapper.c",line 622,column 5,is_stmt,isa 1
    1635 00000048 2004              MOVS      A1, #4                ; [DPU_3_PIPE] |622|  ; [ORIG 16-BIT INS]
    1636                    $C$DW$92        .dwtag  DW_TAG_TI_branch
    1637                            .dwattr $C$DW$92, DW_AT_low_pc(0x00)
    1638                            .dwattr $C$DW$92, DW_AT_name("halSetRtcIntFlag")
    1639                            .dwattr $C$DW$92, DW_AT_TI_call
    1640                    
    1641 0000004a FFFEF7FF!         BL        halSetRtcIntFlag      ; [DPU_3_PIPE] |622|  ; [KEEP 32-BIT INS]
    1642                            ; CALL OCCURS {halSetRtcIntFlag }  ; [] |622| 
    1643                            .dwpsn  file "../Application/MAC/HAL/target/hal_rtc_wrapper.c",line 625,column 5,is_stmt,isa 1
    1644 0000004e 4628              MOV       A1, V2                ; [DPU_3_PIPE] |625|  ; [ORIG 16-BIT INS]
    1645 00000050 300C              ADDS      A1, A1, #12           ; [DPU_3_PIPE]  ; [ORIG 16-BIT INS]
    1646 00000052 6800              LDR       A1, [A1, #0]          ; [DPU_3_PIPE] |625|  ; [ORIG 16-BIT INS]
    1647 00000054 B100              CBZ       A1, ||$C$L30||        ; []  ; [ORIG 16-BIT INS]
    1648                            ; BRANCHCC OCCURS {||$C$L30||}   ; [] |625| 
    1649                    ;* --------------------------------------------------------------------------*
    1650                            .dwpsn  file "../Application/MAC/HAL/target/hal_rtc_wrapper.c",line 625,column 25,is_stmt,isa 
TI ARM Assembler PC v16.9.9 Sun Nov 25 19:10:02 2018

Tools Copyright (c) 1996-2017 Texas Instruments Incorporated
C:\Users\Stryd\AppData\Local\Temp\{A794D619-A51F-4E6F-9B47-EF132169661C} PAGE   31

    1651                    $C$DW$93        .dwtag  DW_TAG_TI_branch
    1652                            .dwattr $C$DW$93, DW_AT_low_pc(0x00)
    1653                            .dwattr $C$DW$93, DW_AT_TI_call
    1654                            .dwattr $C$DW$93, DW_AT_TI_indirect
    1655                    
    1656 00000056 4780              BLX       A1                    ; [DPU_3_PIPE] |625|  ; [ORIG 16-BIT INS]
    1657                            ; CALL OCCURS {}                 ; [] |625| 
    1658                    ;* --------------------------------------------------------------------------*
    1659 00000058           ||$C$L30||:    
    1660                            .dwpsn  file "../Application/MAC/HAL/target/hal_rtc_wrapper.c",line 627,column 5,is_stmt,isa 1
    1661 00000058 2004              MOVS      A1, #4                ; [DPU_3_PIPE] |627|  ; [ORIG 16-BIT INS]
    1662                    $C$DW$94        .dwtag  DW_TAG_TI_branch
    1663                            .dwattr $C$DW$94, DW_AT_low_pc(0x00)
    1664                            .dwattr $C$DW$94, DW_AT_name("halClearRtcTimerEvent")
    1665                            .dwattr $C$DW$94, DW_AT_TI_call
    1666                    
    1667 0000005a FFFEF7FF!         BL        halClearRtcTimerEvent ; [DPU_3_PIPE] |627|  ; [KEEP 32-BIT INS]
    1668                            ; CALL OCCURS {halClearRtcTimerEvent }  ; [] |627| 
    1669                    ;* --------------------------------------------------------------------------*
    1670 0000005e           ||$C$L31||:    
    1671                            .dwpsn  file "../Application/MAC/HAL/target/hal_rtc_wrapper.c",line 630,column 3,is_stmt,isa 1
    1672 0000005e 4805              LDR       A1, $C$CON58          ; [DPU_3_PIPE] |630|  ; [ORIG 16-BIT INS]
    1673 00000060 6801              LDR       A2, [A1, #0]          ; [DPU_3_PIPE] |630|  ; [ORIG 16-BIT INS]
    1674 00000062 4630              MOV       A1, V3                ; [DPU_3_PIPE] |630|  ; [ORIG 16-BIT INS]
    1675                    $C$DW$95        .dwtag  DW_TAG_TI_branch
    1676                            .dwattr $C$DW$95, DW_AT_low_pc(0x00)
    1677                            .dwattr $C$DW$95, DW_AT_TI_call
    1678                            .dwattr $C$DW$95, DW_AT_TI_indirect
    1679                    
    1680 00000064 4788              BLX       A2                    ; [DPU_3_PIPE] |630|  ; [ORIG 16-BIT INS]
    1681                            ; CALL OCCURS {}                 ; [] |630| 
    1682                    $C$DW$96        .dwtag  DW_TAG_TI_branch
    1683                            .dwattr $C$DW$96, DW_AT_low_pc(0x00)
    1684                            .dwattr $C$DW$96, DW_AT_TI_return
    1685                    
    1686 00000066 BD70              POP       {V1, V2, V3, PC}      ; [DPU_3_PIPE]  ; [ORIG 16-BIT INS]
    1687                            .dwcfi  cfa_offset, 0
    1688                            .dwcfi  restore_reg, 6
    1689                            .dwcfi  restore_reg, 5
    1690                            .dwcfi  restore_reg, 4
    1691                            ; BRANCH OCCURS                  ; [] 
    1692                            .dwattr $C$DW$83, DW_AT_TI_end_file("../Application/MAC/HAL/target/hal_rtc_wrapper.c")
    1693                            .dwattr $C$DW$83, DW_AT_TI_end_line(0x279)
    1694                            .dwattr $C$DW$83, DW_AT_TI_end_column(0x01)
    1695                            .dwendentry
    1696                            .dwendtag $C$DW$83
    1697                    
    1698                    ;******************************************************************************
    1699                    ;* CONSTANT TABLE                                                             *
    1700                    ;******************************************************************************
    1701 0000001c                   .sect   ".text:halClrRtcIntFlag"
    1702                            .align  4
    1703 0000001c 00000001! ||$C$CON2||:    .bits   ||$O1$$||+1,32
    1704                    ;******************************************************************************
    1705                    ;* CONSTANT TABLE                                                             *
TI ARM Assembler PC v16.9.9 Sun Nov 25 19:10:02 2018

Tools Copyright (c) 1996-2017 Texas Instruments Incorporated
C:\Users\Stryd\AppData\Local\Temp\{A794D619-A51F-4E6F-9B47-EF132169661C} PAGE   32

    1706                    ;******************************************************************************
    1707 000000b4                   .sect   ".text:halSetRtcTimerEvent"
    1708                            .align  4
    1709 000000b4 00000000! ||$C$CON4||:    .bits   ICall_enterCriticalSection,32
    1710                            .align  4
    1711 000000b8 43240280  ||$C$CON5||:    .bits   1126433408,32
    1712                            .align  4
    1713 000000bc 432402A0  ||$C$CON6||:    .bits   1126433440,32
    1714                            .align  4
    1715 000000c0 432402C0  ||$C$CON7||:    .bits   1126433472,32
    1716                            .align  4
    1717 000000c4 40092004  ||$C$CON8||:    .bits   1074339844,32
    1718                            .align  4
    1719 000000c8 00000000! ||$C$CON14||:   .bits   ICall_leaveCriticalSection,32
    1720                    ;******************************************************************************
    1721                    ;* CONSTANT TABLE                                                             *
    1722                    ;******************************************************************************
    1723 0000001c                   .sect   ".text:halSetRtcIntFlag"
    1724                            .align  4
    1725 0000001c 00000001! ||$C$CON18||:   .bits   ||$O1$$||+1,32
    1726                    ;******************************************************************************
    1727                    ;* CONSTANT TABLE                                                             *
    1728                    ;******************************************************************************
    1729 0000005c                   .sect   ".text:halRtcTimerDelta"
    1730                            .align  4
    1731 0000005c 00000000! ||$C$CON21||:   .bits   ICall_enterCriticalSection,32
    1732                            .align  4
    1733 00000060 00000000! ||$C$CON22||:   .bits   ICall_leaveCriticalSection,32
    1734                    ;******************************************************************************
    1735                    ;* CONSTANT TABLE                                                             *
    1736                    ;******************************************************************************
    1737 00000016                   .sect   ".text:halRtcRegIntCBack"
    1738                            .align  4
    1739 00000016 000846C0! ||$C$CON24||:   .bits   ||$O1$$||+8,32
         0000001a 00000000 
    1740                    ;******************************************************************************
    1741                    ;* CONSTANT TABLE                                                             *
    1742                    ;******************************************************************************
    1743 00000024                   .sect   ".text:halReadRtcTimer"
    1744                            .align  4
    1745 00000024 00000000! ||$C$CON26||:   .bits   ICall_enterCriticalSection,32
    1746                            .align  4
    1747 00000028 40092008  ||$C$CON27||:   .bits   1074339848,32
    1748                            .align  4
    1749 0000002c 00000000! ||$C$CON29||:   .bits   ICall_leaveCriticalSection,32
    1750                    ;******************************************************************************
    1751                    ;* CONSTANT TABLE                                                             *
    1752                    ;******************************************************************************
    1753 00000096                   .sect   ".text:halInitRTC"
    1754                            .align  4
    1755 00000096 001C46C0  ||$C$CON31||:   .bits   1126432796,32
         0000009a 00004324 
    1756                            .align  4
    1757 0000009a 02804324  ||$C$CON33||:   .bits   1126433408,32
         0000009e 00004324 
TI ARM Assembler PC v16.9.9 Sun Nov 25 19:10:02 2018

Tools Copyright (c) 1996-2017 Texas Instruments Incorporated
C:\Users\Stryd\AppData\Local\Temp\{A794D619-A51F-4E6F-9B47-EF132169661C} PAGE   33

    1758                            .align  4
    1759 0000009e 01844324  ||$C$CON34||:   .bits   268435844,32
         000000a2 00001000 
    1760                            .align  4
    1761 000000a2 00001000! ||$C$CON35||:   .bits   ICall_leaveCriticalSection,32
         000000a6 00000000 
    1762                            .align  4
    1763 000000a6 00000000! ||$C$CON36||:   .bits   ICall_enterCriticalSection,32
         000000aa 00000000 
    1764                            .align  4
    1765 000000aa 20080000  ||$C$CON37||:   .bits   1074339848,32
         000000ae 00004009 
    1766                    ;******************************************************************************
    1767                    ;* CONSTANT TABLE                                                             *
    1768                    ;******************************************************************************
    1769 0000001a                   .sect   ".text:halGetRtcIntFlag"
    1770                            .align  4
    1771 0000001a 000046C0! ||$C$CON38||:   .bits   ||$O1$$||,32
         0000001e 00000000 
    1772                    ;******************************************************************************
    1773                    ;* CONSTANT TABLE                                                             *
    1774                    ;******************************************************************************
    1775 0000005a                   .sect   ".text:halClearRtcTimerEvent"
    1776                            .align  4
    1777 0000005a 02A046C0  ||$C$CON43||:   .bits   1126433440,32
         0000005e 00004324 
    1778                            .align  4
    1779 0000005e 20044324  ||$C$CON45||:   .bits   1074339844,32
         00000062 00004009 
    1780                            .align  4
    1781 00000062 00004009! ||$C$CON47||:   .bits   ICall_enterCriticalSection,32
         00000066 00000000 
    1782                            .align  4
    1783 00000066 00000000! ||$C$CON48||:   .bits   ICall_leaveCriticalSection,32
         0000006a 00000000 
    1784                    ;******************************************************************************
    1785                    ;* CONSTANT TABLE                                                             *
    1786                    ;******************************************************************************
    1787 00000068                   .sect   ".text:RTC_ISR"
    1788                            .align  4
    1789 00000068 00000000! ||$C$CON55||:   .bits   ICall_enterCriticalSection,32
    1790                            .align  4
    1791 0000006c 4324001C  ||$C$CON56||:   .bits   1126432796,32
    1792                            .align  4
    1793 00000070 00000000! ||$C$CON57||:   .bits   ||$O1$$||,32
    1794                            .align  4
    1795 00000074 00000000! ||$C$CON58||:   .bits   ICall_leaveCriticalSection,32
    1796                    ;*****************************************************************************
    1797                    ;* UNDEFINED EXTERNAL REFERENCES                                             *
    1798                    ;*****************************************************************************
    1799                            .global ti_sysbios_hal_Hwi_disableInterrupt__E
    1800                            .global ti_sysbios_hal_Hwi_enableInterrupt__E
    1801                            .global ICall_enterCriticalSection
    1802                            .global ICall_leaveCriticalSection
    1803                    
TI ARM Assembler PC v16.9.9 Sun Nov 25 19:10:02 2018

Tools Copyright (c) 1996-2017 Texas Instruments Incorporated
C:\Users\Stryd\AppData\Local\Temp\{A794D619-A51F-4E6F-9B47-EF132169661C} PAGE   34

    1804                    ;******************************************************************************
    1805                    ;* BUILD ATTRIBUTES                                                           *
    1806                    ;******************************************************************************
    1807                            .battr "aeabi", Tag_File, 1, Tag_ABI_PCS_wchar_t(2)
    1808                            .battr "aeabi", Tag_File, 1, Tag_ABI_FP_rounding(0)
    1809                            .battr "aeabi", Tag_File, 1, Tag_ABI_FP_denormal(0)
    1810                            .battr "aeabi", Tag_File, 1, Tag_ABI_FP_exceptions(0)
    1811                            .battr "aeabi", Tag_File, 1, Tag_ABI_FP_number_model(1)
    1812                            .battr "aeabi", Tag_File, 1, Tag_ABI_enum_size(1)
    1813                            .battr "aeabi", Tag_File, 1, Tag_ABI_optimization_goals(0)
    1814                            .battr "aeabi", Tag_File, 1, Tag_ABI_FP_optimization_goals(0)
    1815                            .battr "TI", Tag_File, 1, Tag_Bitfield_layout(2)
    1816                            .battr "aeabi", Tag_File, 1, Tag_ABI_VFP_args(3)
    1817                            .battr "TI", Tag_File, 1, Tag_FP_interface(1)
    1818                    
    1819                    ;******************************************************************************
    1820                    ;* TYPE INFORMATION                                                           *
    1821                    ;******************************************************************************
    1822                    
    1823                    $C$DW$T$630     .dwtag  DW_TAG_enumeration_type
    1824                            .dwattr $C$DW$T$630, DW_AT_byte_size(0x01)
    1825                    $C$DW$97        .dwtag  DW_TAG_enumerator
    1826                            .dwattr $C$DW$97, DW_AT_name("FAPI_PROGRAM_DATA")
    1827                            .dwattr $C$DW$97, DW_AT_const_value(0x02)
    1828                            .dwattr $C$DW$97, DW_AT_decl_file("C:/ti/simplelink_cc13x0_sdk_2_30_00_20/source/ti/devices/cc
    1829                            .dwattr $C$DW$97, DW_AT_decl_line(0xa6)
    1830                            .dwattr $C$DW$97, DW_AT_decl_column(0x05)
    1831                    
    1832                    $C$DW$98        .dwtag  DW_TAG_enumerator
    1833                            .dwattr $C$DW$98, DW_AT_name("FAPI_ERASE_SECTOR")
    1834                            .dwattr $C$DW$98, DW_AT_const_value(0x06)
    1835                            .dwattr $C$DW$98, DW_AT_decl_file("C:/ti/simplelink_cc13x0_sdk_2_30_00_20/source/ti/devices/cc
    1836                            .dwattr $C$DW$98, DW_AT_decl_line(0xa7)
    1837                            .dwattr $C$DW$98, DW_AT_decl_column(0x05)
    1838                    
    1839                    $C$DW$99        .dwtag  DW_TAG_enumerator
    1840                            .dwattr $C$DW$99, DW_AT_name("FAPI_ERASE_BANK")
    1841                            .dwattr $C$DW$99, DW_AT_const_value(0x08)
    1842                            .dwattr $C$DW$99, DW_AT_decl_file("C:/ti/simplelink_cc13x0_sdk_2_30_00_20/source/ti/devices/cc
    1843                            .dwattr $C$DW$99, DW_AT_decl_line(0xa8)
    1844                            .dwattr $C$DW$99, DW_AT_decl_column(0x05)
    1845                    
    1846                    $C$DW$100       .dwtag  DW_TAG_enumerator
    1847                            .dwattr $C$DW$100, DW_AT_name("FAPI_VALIDATE_SECTOR")
    1848                            .dwattr $C$DW$100, DW_AT_const_value(0x0e)
    1849                            .dwattr $C$DW$100, DW_AT_decl_file("C:/ti/simplelink_cc13x0_sdk_2_30_00_20/source/ti/devices/c
    1850                            .dwattr $C$DW$100, DW_AT_decl_line(0xa9)
    1851                            .dwattr $C$DW$100, DW_AT_decl_column(0x05)
    1852                    
    1853                    $C$DW$101       .dwtag  DW_TAG_enumerator
    1854                            .dwattr $C$DW$101, DW_AT_name("FAPI_CLEAR_STATUS")
    1855                            .dwattr $C$DW$101, DW_AT_const_value(0x10)
    1856                            .dwattr $C$DW$101, DW_AT_decl_file("C:/ti/simplelink_cc13x0_sdk_2_30_00_20/source/ti/devices/c
    1857                            .dwattr $C$DW$101, DW_AT_decl_line(0xaa)
    1858                            .dwattr $C$DW$101, DW_AT_decl_column(0x05)
TI ARM Assembler PC v16.9.9 Sun Nov 25 19:10:02 2018

Tools Copyright (c) 1996-2017 Texas Instruments Incorporated
C:\Users\Stryd\AppData\Local\Temp\{A794D619-A51F-4E6F-9B47-EF132169661C} PAGE   35

    1859                    
    1860                    $C$DW$102       .dwtag  DW_TAG_enumerator
    1861                            .dwattr $C$DW$102, DW_AT_name("FAPI_PROGRAM_RESUME")
    1862                            .dwattr $C$DW$102, DW_AT_const_value(0x14)
    1863                            .dwattr $C$DW$102, DW_AT_decl_file("C:/ti/simplelink_cc13x0_sdk_2_30_00_20/source/ti/devices/c
    1864                            .dwattr $C$DW$102, DW_AT_decl_line(0xab)
    1865                            .dwattr $C$DW$102, DW_AT_decl_column(0x05)
    1866                    
    1867                    $C$DW$103       .dwtag  DW_TAG_enumerator
    1868                            .dwattr $C$DW$103, DW_AT_name("FAPI_ERASE_RESUME")
    1869                            .dwattr $C$DW$103, DW_AT_const_value(0x16)
    1870                            .dwattr $C$DW$103, DW_AT_decl_file("C:/ti/simplelink_cc13x0_sdk_2_30_00_20/source/ti/devices/c
    1871                            .dwattr $C$DW$103, DW_AT_decl_line(0xac)
    1872                            .dwattr $C$DW$103, DW_AT_decl_column(0x05)
    1873                    
    1874                    $C$DW$104       .dwtag  DW_TAG_enumerator
    1875                            .dwattr $C$DW$104, DW_AT_name("FAPI_CLEAR_MORE")
    1876                            .dwattr $C$DW$104, DW_AT_const_value(0x18)
    1877                            .dwattr $C$DW$104, DW_AT_decl_file("C:/ti/simplelink_cc13x0_sdk_2_30_00_20/source/ti/devices/c
    1878                            .dwattr $C$DW$104, DW_AT_decl_line(0xad)
    1879                            .dwattr $C$DW$104, DW_AT_decl_column(0x05)
    1880                    
    1881                    $C$DW$105       .dwtag  DW_TAG_enumerator
    1882                            .dwattr $C$DW$105, DW_AT_name("FAPI_PROGRAM_SECTOR")
    1883                            .dwattr $C$DW$105, DW_AT_const_value(0x20)
    1884                            .dwattr $C$DW$105, DW_AT_decl_file("C:/ti/simplelink_cc13x0_sdk_2_30_00_20/source/ti/devices/c
    1885                            .dwattr $C$DW$105, DW_AT_decl_line(0xae)
    1886                            .dwattr $C$DW$105, DW_AT_decl_column(0x05)
    1887                    
    1888                    $C$DW$106       .dwtag  DW_TAG_enumerator
    1889                            .dwattr $C$DW$106, DW_AT_name("FAPI_ERASE_OTP")
    1890                            .dwattr $C$DW$106, DW_AT_const_value(0x30)
    1891                            .dwattr $C$DW$106, DW_AT_decl_file("C:/ti/simplelink_cc13x0_sdk_2_30_00_20/source/ti/devices/c
    1892                            .dwattr $C$DW$106, DW_AT_decl_line(0xaf)
    1893                            .dwattr $C$DW$106, DW_AT_decl_column(0x05)
    1894                    
    1895                            .dwattr $C$DW$T$630, DW_AT_decl_file("C:/ti/simplelink_cc13x0_sdk_2_30_00_20/source/ti/devices
    1896                            .dwattr $C$DW$T$630, DW_AT_decl_line(0xa5)
    1897                            .dwattr $C$DW$T$630, DW_AT_decl_column(0x01)
    1898                            .dwendtag $C$DW$T$630
    1899                    
    1900                    $C$DW$T$631     .dwtag  DW_TAG_typedef
    1901                            .dwattr $C$DW$T$631, DW_AT_name("tFlashStateCommandsType")
    1902                            .dwattr $C$DW$T$631, DW_AT_type(*$C$DW$T$630)
    1903                            .dwattr $C$DW$T$631, DW_AT_language(DW_LANG_C)
    1904                            .dwattr $C$DW$T$631, DW_AT_decl_file("C:/ti/simplelink_cc13x0_sdk_2_30_00_20/source/ti/devices
    1905                            .dwattr $C$DW$T$631, DW_AT_decl_line(0xb0)
    1906                            .dwattr $C$DW$T$631, DW_AT_decl_column(0x03)
    1907                    
    1908                    
    1909                    $C$DW$T$632     .dwtag  DW_TAG_enumeration_type
    1910                            .dwattr $C$DW$T$632, DW_AT_byte_size(0x01)
    1911                    $C$DW$107       .dwtag  DW_TAG_enumerator
    1912                            .dwattr $C$DW$107, DW_AT_name("ICALL_RTI_APP_CMD_EVENT")
    1913                            .dwattr $C$DW$107, DW_AT_const_value(0xe0)
TI ARM Assembler PC v16.9.9 Sun Nov 25 19:10:02 2018

Tools Copyright (c) 1996-2017 Texas Instruments Incorporated
C:\Users\Stryd\AppData\Local\Temp\{A794D619-A51F-4E6F-9B47-EF132169661C} PAGE   36

    1914                            .dwattr $C$DW$107, DW_AT_decl_file("C:/ti/simplelink_cc13x0_sdk_2_30_00_20/source/ti/ti154stac
    1915                            .dwattr $C$DW$107, DW_AT_decl_line(0x3de)
    1916                            .dwattr $C$DW$107, DW_AT_decl_column(0x04)
    1917                    
    1918                    $C$DW$108       .dwtag  DW_TAG_enumerator
    1919                            .dwattr $C$DW$108, DW_AT_name("ICALL_RTI_STACK_CMD_EVENT")
    1920                            .dwattr $C$DW$108, DW_AT_const_value(0xe1)
    1921                            .dwattr $C$DW$108, DW_AT_decl_file("C:/ti/simplelink_cc13x0_sdk_2_30_00_20/source/ti/ti154stac
    1922                            .dwattr $C$DW$108, DW_AT_decl_line(0x3e0)
    1923                            .dwattr $C$DW$108, DW_AT_decl_column(0x04)
    1924                    
    1925                    $C$DW$109       .dwtag  DW_TAG_enumerator
    1926                            .dwattr $C$DW$109, DW_AT_name("ICALL_RTI_APP_ASYNC_CMD_EVENT")
    1927                            .dwattr $C$DW$109, DW_AT_const_value(0xe2)
    1928                            .dwattr $C$DW$109, DW_AT_decl_file("C:/ti/simplelink_cc13x0_sdk_2_30_00_20/source/ti/ti154stac
    1929                            .dwattr $C$DW$109, DW_AT_decl_line(0x3e2)
    1930                            .dwattr $C$DW$109, DW_AT_decl_column(0x04)
    1931                    
    1932                    $C$DW$110       .dwtag  DW_TAG_enumerator
    1933                            .dwattr $C$DW$110, DW_AT_name("ICALL_RTI_APP_SYNC_CMD_EVENT")
    1934                            .dwattr $C$DW$110, DW_AT_const_value(0xe3)
    1935                            .dwattr $C$DW$110, DW_AT_decl_file("C:/ti/simplelink_cc13x0_sdk_2_30_00_20/source/ti/ti154stac
    1936                            .dwattr $C$DW$110, DW_AT_decl_line(0x3e4)
    1937                            .dwattr $C$DW$110, DW_AT_decl_column(0x04)
    1938                    
    1939                    $C$DW$111       .dwtag  DW_TAG_enumerator
    1940                            .dwattr $C$DW$111, DW_AT_name("ICALL_RCN_APP_ASYNC_CMD_EVENT")
    1941                            .dwattr $C$DW$111, DW_AT_const_value(0xe4)
    1942                            .dwattr $C$DW$111, DW_AT_decl_file("C:/ti/simplelink_cc13x0_sdk_2_30_00_20/source/ti/ti154stac
    1943                            .dwattr $C$DW$111, DW_AT_decl_line(0x3e6)
    1944                            .dwattr $C$DW$111, DW_AT_decl_column(0x04)
    1945                    
    1946                    $C$DW$112       .dwtag  DW_TAG_enumerator
    1947                            .dwattr $C$DW$112, DW_AT_name("ICALL_RCN_APP_SYNC_CMD_EVENT")
    1948                            .dwattr $C$DW$112, DW_AT_const_value(0xe5)
    1949                            .dwattr $C$DW$112, DW_AT_decl_file("C:/ti/simplelink_cc13x0_sdk_2_30_00_20/source/ti/ti154stac
    1950                            .dwattr $C$DW$112, DW_AT_decl_line(0x3e8)
    1951                            .dwattr $C$DW$112, DW_AT_decl_column(0x04)
    1952                    
    1953                            .dwattr $C$DW$T$632, DW_AT_decl_file("C:/ti/simplelink_cc13x0_sdk_2_30_00_20/source/ti/ti154st
    1954                            .dwattr $C$DW$T$632, DW_AT_decl_line(0x3dc)
    1955                            .dwattr $C$DW$T$632, DW_AT_decl_column(0x01)
    1956                            .dwendtag $C$DW$T$632
    1957                    
    1958                    $C$DW$T$633     .dwtag  DW_TAG_typedef
    1959                            .dwattr $C$DW$T$633, DW_AT_name("ICall_RemotiCmdEvent_t")
    1960                            .dwattr $C$DW$T$633, DW_AT_type(*$C$DW$T$632)
    1961                            .dwattr $C$DW$T$633, DW_AT_language(DW_LANG_C)
    1962                            .dwattr $C$DW$T$633, DW_AT_decl_file("C:/ti/simplelink_cc13x0_sdk_2_30_00_20/source/ti/ti154st
    1963                            .dwattr $C$DW$T$633, DW_AT_decl_line(0x3e9)
    1964                            .dwattr $C$DW$T$633, DW_AT_decl_column(0x02)
    1965                    
    1966                    
    1967                    $C$DW$T$183     .dwtag  DW_TAG_structure_type
    1968                            .dwattr $C$DW$T$183, DW_AT_byte_size(0x4c)
TI ARM Assembler PC v16.9.9 Sun Nov 25 19:10:02 2018

Tools Copyright (c) 1996-2017 Texas Instruments Incorporated
C:\Users\Stryd\AppData\Local\Temp\{A794D619-A51F-4E6F-9B47-EF132169661C} PAGE   37

    1969                    $C$DW$113       .dwtag  DW_TAG_member
    1970                            .dwattr $C$DW$113, DW_AT_type(*$C$DW$T$147)
    1971                            .dwattr $C$DW$113, DW_AT_name("Crc32")
    1972                            .dwattr $C$DW$113, DW_AT_TI_symbol_name("Crc32")
    1973                            .dwattr $C$DW$113, DW_AT_data_member_location[DW_OP_plus_uconst 0x0]
    1974                            .dwattr $C$DW$113, DW_AT_accessibility(DW_ACCESS_public)
    1975                            .dwattr $C$DW$113, DW_AT_decl_file("C:\ti\simplelink_cc13x0_sdk_2_30_00_20\source\ti\devices\c
    1976                            .dwattr $C$DW$113, DW_AT_decl_line(0x76)
    1977                            .dwattr $C$DW$113, DW_AT_decl_column(0x25)
    1978                    
    1979                    $C$DW$114       .dwtag  DW_TAG_member
    1980                            .dwattr $C$DW$114, DW_AT_type(*$C$DW$T$150)
    1981                            .dwattr $C$DW$114, DW_AT_name("FlashGetSize")
    1982                            .dwattr $C$DW$114, DW_AT_TI_symbol_name("FlashGetSize")
    1983                            .dwattr $C$DW$114, DW_AT_data_member_location[DW_OP_plus_uconst 0x4]
    1984                            .dwattr $C$DW$114, DW_AT_accessibility(DW_ACCESS_public)
    1985                            .dwattr $C$DW$114, DW_AT_decl_file("C:\ti\simplelink_cc13x0_sdk_2_30_00_20\source\ti\devices\c
    1986                            .dwattr $C$DW$114, DW_AT_decl_line(0x77)
    1987                            .dwattr $C$DW$114, DW_AT_decl_column(0x25)
    1988                    
    1989                    $C$DW$115       .dwtag  DW_TAG_member
    1990                            .dwattr $C$DW$115, DW_AT_type(*$C$DW$T$151)
    1991                            .dwattr $C$DW$115, DW_AT_name("GetChipId")
    1992                            .dwattr $C$DW$115, DW_AT_TI_symbol_name("GetChipId")
    1993                            .dwattr $C$DW$115, DW_AT_data_member_location[DW_OP_plus_uconst 0x8]
    1994                            .dwattr $C$DW$115, DW_AT_accessibility(DW_ACCESS_public)
    1995                            .dwattr $C$DW$115, DW_AT_decl_file("C:\ti\simplelink_cc13x0_sdk_2_30_00_20\source\ti\devices\c
    1996                            .dwattr $C$DW$115, DW_AT_decl_line(0x78)
    1997                            .dwattr $C$DW$115, DW_AT_decl_column(0x25)
    1998                    
    1999                    $C$DW$116       .dwtag  DW_TAG_member
    2000                            .dwattr $C$DW$116, DW_AT_type(*$C$DW$T$154)
    2001                            .dwattr $C$DW$116, DW_AT_name("ReservedLocation1")
    2002                            .dwattr $C$DW$116, DW_AT_TI_symbol_name("ReservedLocation1")
    2003                            .dwattr $C$DW$116, DW_AT_data_member_location[DW_OP_plus_uconst 0xc]
    2004                            .dwattr $C$DW$116, DW_AT_accessibility(DW_ACCESS_public)
    2005                            .dwattr $C$DW$116, DW_AT_decl_file("C:\ti\simplelink_cc13x0_sdk_2_30_00_20\source\ti\devices\c
    2006                            .dwattr $C$DW$116, DW_AT_decl_line(0x79)
    2007                            .dwattr $C$DW$116, DW_AT_decl_column(0x25)
    2008                    
    2009                    $C$DW$117       .dwtag  DW_TAG_member
    2010                            .dwattr $C$DW$117, DW_AT_type(*$C$DW$T$155)
    2011                            .dwattr $C$DW$117, DW_AT_name("ReservedLocation2")
    2012                            .dwattr $C$DW$117, DW_AT_TI_symbol_name("ReservedLocation2")
    2013                            .dwattr $C$DW$117, DW_AT_data_member_location[DW_OP_plus_uconst 0x10]
    2014                            .dwattr $C$DW$117, DW_AT_accessibility(DW_ACCESS_public)
    2015                            .dwattr $C$DW$117, DW_AT_decl_file("C:\ti\simplelink_cc13x0_sdk_2_30_00_20\source\ti\devices\c
    2016                            .dwattr $C$DW$117, DW_AT_decl_line(0x7a)
    2017                            .dwattr $C$DW$117, DW_AT_decl_column(0x25)
    2018                    
    2019                    $C$DW$118       .dwtag  DW_TAG_member
    2020                            .dwattr $C$DW$118, DW_AT_type(*$C$DW$T$156)
    2021                            .dwattr $C$DW$118, DW_AT_name("ReservedLocation3")
    2022                            .dwattr $C$DW$118, DW_AT_TI_symbol_name("ReservedLocation3")
    2023                            .dwattr $C$DW$118, DW_AT_data_member_location[DW_OP_plus_uconst 0x14]
TI ARM Assembler PC v16.9.9 Sun Nov 25 19:10:02 2018

Tools Copyright (c) 1996-2017 Texas Instruments Incorporated
C:\Users\Stryd\AppData\Local\Temp\{A794D619-A51F-4E6F-9B47-EF132169661C} PAGE   38

    2024                            .dwattr $C$DW$118, DW_AT_accessibility(DW_ACCESS_public)
    2025                            .dwattr $C$DW$118, DW_AT_decl_file("C:\ti\simplelink_cc13x0_sdk_2_30_00_20\source\ti\devices\c
    2026                            .dwattr $C$DW$118, DW_AT_decl_line(0x7b)
    2027                            .dwattr $C$DW$118, DW_AT_decl_column(0x25)
    2028                    
    2029                    $C$DW$119       .dwtag  DW_TAG_member
    2030                            .dwattr $C$DW$119, DW_AT_type(*$C$DW$T$159)
    2031                            .dwattr $C$DW$119, DW_AT_name("ResetDevice")
    2032                            .dwattr $C$DW$119, DW_AT_TI_symbol_name("ResetDevice")
    2033                            .dwattr $C$DW$119, DW_AT_data_member_location[DW_OP_plus_uconst 0x18]
    2034                            .dwattr $C$DW$119, DW_AT_accessibility(DW_ACCESS_public)
    2035                            .dwattr $C$DW$119, DW_AT_decl_file("C:\ti\simplelink_cc13x0_sdk_2_30_00_20\source\ti\devices\c
    2036                            .dwattr $C$DW$119, DW_AT_decl_line(0x7c)
    2037                            .dwattr $C$DW$119, DW_AT_decl_column(0x25)
    2038                    
    2039                    $C$DW$120       .dwtag  DW_TAG_member
    2040                            .dwattr $C$DW$120, DW_AT_type(*$C$DW$T$164)
    2041                            .dwattr $C$DW$120, DW_AT_name("Fletcher32")
    2042                            .dwattr $C$DW$120, DW_AT_TI_symbol_name("Fletcher32")
    2043                            .dwattr $C$DW$120, DW_AT_data_member_location[DW_OP_plus_uconst 0x1c]
    2044                            .dwattr $C$DW$120, DW_AT_accessibility(DW_ACCESS_public)
    2045                            .dwattr $C$DW$120, DW_AT_decl_file("C:\ti\simplelink_cc13x0_sdk_2_30_00_20\source\ti\devices\c
    2046                            .dwattr $C$DW$120, DW_AT_decl_line(0x7d)
    2047                            .dwattr $C$DW$120, DW_AT_decl_column(0x25)
    2048                    
    2049                    $C$DW$121       .dwtag  DW_TAG_member
    2050                            .dwattr $C$DW$121, DW_AT_type(*$C$DW$T$168)
    2051                            .dwattr $C$DW$121, DW_AT_name("MinValue")
    2052                            .dwattr $C$DW$121, DW_AT_TI_symbol_name("MinValue")
    2053                            .dwattr $C$DW$121, DW_AT_data_member_location[DW_OP_plus_uconst 0x20]
    2054                            .dwattr $C$DW$121, DW_AT_accessibility(DW_ACCESS_public)
    2055                            .dwattr $C$DW$121, DW_AT_decl_file("C:\ti\simplelink_cc13x0_sdk_2_30_00_20\source\ti\devices\c
    2056                            .dwattr $C$DW$121, DW_AT_decl_line(0x7e)
    2057                            .dwattr $C$DW$121, DW_AT_decl_column(0x25)
    2058                    
    2059                    $C$DW$122       .dwtag  DW_TAG_member
    2060                            .dwattr $C$DW$122, DW_AT_type(*$C$DW$T$169)
    2061                            .dwattr $C$DW$122, DW_AT_name("MaxValue")
    2062                            .dwattr $C$DW$122, DW_AT_TI_symbol_name("MaxValue")
    2063                            .dwattr $C$DW$122, DW_AT_data_member_location[DW_OP_plus_uconst 0x24]
    2064                            .dwattr $C$DW$122, DW_AT_accessibility(DW_ACCESS_public)
    2065                            .dwattr $C$DW$122, DW_AT_decl_file("C:\ti\simplelink_cc13x0_sdk_2_30_00_20\source\ti\devices\c
    2066                            .dwattr $C$DW$122, DW_AT_decl_line(0x7f)
    2067                            .dwattr $C$DW$122, DW_AT_decl_column(0x25)
    2068                    
    2069                    $C$DW$123       .dwtag  DW_TAG_member
    2070                            .dwattr $C$DW$123, DW_AT_type(*$C$DW$T$170)
    2071                            .dwattr $C$DW$123, DW_AT_name("MeanValue")
    2072                            .dwattr $C$DW$123, DW_AT_TI_symbol_name("MeanValue")
    2073                            .dwattr $C$DW$123, DW_AT_data_member_location[DW_OP_plus_uconst 0x28]
    2074                            .dwattr $C$DW$123, DW_AT_accessibility(DW_ACCESS_public)
    2075                            .dwattr $C$DW$123, DW_AT_decl_file("C:\ti\simplelink_cc13x0_sdk_2_30_00_20\source\ti\devices\c
    2076                            .dwattr $C$DW$123, DW_AT_decl_line(0x80)
    2077                            .dwattr $C$DW$123, DW_AT_decl_column(0x25)
    2078                    
TI ARM Assembler PC v16.9.9 Sun Nov 25 19:10:02 2018

Tools Copyright (c) 1996-2017 Texas Instruments Incorporated
C:\Users\Stryd\AppData\Local\Temp\{A794D619-A51F-4E6F-9B47-EF132169661C} PAGE   39

    2079                    $C$DW$124       .dwtag  DW_TAG_member
    2080                            .dwattr $C$DW$124, DW_AT_type(*$C$DW$T$171)
    2081                            .dwattr $C$DW$124, DW_AT_name("StandDeviationValue")
    2082                            .dwattr $C$DW$124, DW_AT_TI_symbol_name("StandDeviationValue")
    2083                            .dwattr $C$DW$124, DW_AT_data_member_location[DW_OP_plus_uconst 0x2c]
    2084                            .dwattr $C$DW$124, DW_AT_accessibility(DW_ACCESS_public)
    2085                            .dwattr $C$DW$124, DW_AT_decl_file("C:\ti\simplelink_cc13x0_sdk_2_30_00_20\source\ti\devices\c
    2086                            .dwattr $C$DW$124, DW_AT_decl_line(0x81)
    2087                            .dwattr $C$DW$124, DW_AT_decl_column(0x25)
    2088                    
    2089                    $C$DW$125       .dwtag  DW_TAG_member
    2090                            .dwattr $C$DW$125, DW_AT_type(*$C$DW$T$174)
    2091                            .dwattr $C$DW$125, DW_AT_name("ReservedLocation4")
    2092                            .dwattr $C$DW$125, DW_AT_TI_symbol_name("ReservedLocation4")
    2093                            .dwattr $C$DW$125, DW_AT_data_member_location[DW_OP_plus_uconst 0x30]
    2094                            .dwattr $C$DW$125, DW_AT_accessibility(DW_ACCESS_public)
    2095                            .dwattr $C$DW$125, DW_AT_decl_file("C:\ti\simplelink_cc13x0_sdk_2_30_00_20\source\ti\devices\c
    2096                            .dwattr $C$DW$125, DW_AT_decl_line(0x82)
    2097                            .dwattr $C$DW$125, DW_AT_decl_column(0x25)
    2098                    
    2099                    $C$DW$126       .dwtag  DW_TAG_member
    2100                            .dwattr $C$DW$126, DW_AT_type(*$C$DW$T$175)
    2101                            .dwattr $C$DW$126, DW_AT_name("ReservedLocation5")
    2102                            .dwattr $C$DW$126, DW_AT_TI_symbol_name("ReservedLocation5")
    2103                            .dwattr $C$DW$126, DW_AT_data_member_location[DW_OP_plus_uconst 0x34]
    2104                            .dwattr $C$DW$126, DW_AT_accessibility(DW_ACCESS_public)
    2105                            .dwattr $C$DW$126, DW_AT_decl_file("C:\ti\simplelink_cc13x0_sdk_2_30_00_20\source\ti\devices\c
    2106                            .dwattr $C$DW$126, DW_AT_decl_line(0x83)
    2107                            .dwattr $C$DW$126, DW_AT_decl_column(0x25)
    2108                    
    2109                    $C$DW$127       .dwtag  DW_TAG_member
    2110                            .dwattr $C$DW$127, DW_AT_type(*$C$DW$T$176)
    2111                            .dwattr $C$DW$127, DW_AT_name("HFSourceSafeSwitch")
    2112                            .dwattr $C$DW$127, DW_AT_TI_symbol_name("HFSourceSafeSwitch")
    2113                            .dwattr $C$DW$127, DW_AT_data_member_location[DW_OP_plus_uconst 0x38]
    2114                            .dwattr $C$DW$127, DW_AT_accessibility(DW_ACCESS_public)
    2115                            .dwattr $C$DW$127, DW_AT_decl_file("C:\ti\simplelink_cc13x0_sdk_2_30_00_20\source\ti\devices\c
    2116                            .dwattr $C$DW$127, DW_AT_decl_line(0x84)
    2117                            .dwattr $C$DW$127, DW_AT_decl_column(0x25)
    2118                    
    2119                    $C$DW$128       .dwtag  DW_TAG_member
    2120                            .dwattr $C$DW$128, DW_AT_type(*$C$DW$T$179)
    2121                            .dwattr $C$DW$128, DW_AT_name("SelectCompAInput")
    2122                            .dwattr $C$DW$128, DW_AT_TI_symbol_name("SelectCompAInput")
    2123                            .dwattr $C$DW$128, DW_AT_data_member_location[DW_OP_plus_uconst 0x3c]
    2124                            .dwattr $C$DW$128, DW_AT_accessibility(DW_ACCESS_public)
    2125                            .dwattr $C$DW$128, DW_AT_decl_file("C:\ti\simplelink_cc13x0_sdk_2_30_00_20\source\ti\devices\c
    2126                            .dwattr $C$DW$128, DW_AT_decl_line(0x85)
    2127                            .dwattr $C$DW$128, DW_AT_decl_column(0x25)
    2128                    
    2129                    $C$DW$129       .dwtag  DW_TAG_member
    2130                            .dwattr $C$DW$129, DW_AT_type(*$C$DW$T$180)
    2131                            .dwattr $C$DW$129, DW_AT_name("SelectCompARef")
    2132                            .dwattr $C$DW$129, DW_AT_TI_symbol_name("SelectCompARef")
    2133                            .dwattr $C$DW$129, DW_AT_data_member_location[DW_OP_plus_uconst 0x40]
TI ARM Assembler PC v16.9.9 Sun Nov 25 19:10:02 2018

Tools Copyright (c) 1996-2017 Texas Instruments Incorporated
C:\Users\Stryd\AppData\Local\Temp\{A794D619-A51F-4E6F-9B47-EF132169661C} PAGE   40

    2134                            .dwattr $C$DW$129, DW_AT_accessibility(DW_ACCESS_public)
    2135                            .dwattr $C$DW$129, DW_AT_decl_file("C:\ti\simplelink_cc13x0_sdk_2_30_00_20\source\ti\devices\c
    2136                            .dwattr $C$DW$129, DW_AT_decl_line(0x86)
    2137                            .dwattr $C$DW$129, DW_AT_decl_column(0x25)
    2138                    
    2139                    $C$DW$130       .dwtag  DW_TAG_member
    2140                            .dwattr $C$DW$130, DW_AT_type(*$C$DW$T$181)
    2141                            .dwattr $C$DW$130, DW_AT_name("SelectADCCompBInput")
    2142                            .dwattr $C$DW$130, DW_AT_TI_symbol_name("SelectADCCompBInput")
    2143                            .dwattr $C$DW$130, DW_AT_data_member_location[DW_OP_plus_uconst 0x44]
    2144                            .dwattr $C$DW$130, DW_AT_accessibility(DW_ACCESS_public)
    2145                            .dwattr $C$DW$130, DW_AT_decl_file("C:\ti\simplelink_cc13x0_sdk_2_30_00_20\source\ti\devices\c
    2146                            .dwattr $C$DW$130, DW_AT_decl_line(0x87)
    2147                            .dwattr $C$DW$130, DW_AT_decl_column(0x25)
    2148                    
    2149                    $C$DW$131       .dwtag  DW_TAG_member
    2150                            .dwattr $C$DW$131, DW_AT_type(*$C$DW$T$182)
    2151                            .dwattr $C$DW$131, DW_AT_name("SelectCompBRef")
    2152                            .dwattr $C$DW$131, DW_AT_TI_symbol_name("SelectCompBRef")
    2153                            .dwattr $C$DW$131, DW_AT_data_member_location[DW_OP_plus_uconst 0x48]
    2154                            .dwattr $C$DW$131, DW_AT_accessibility(DW_ACCESS_public)
    2155                            .dwattr $C$DW$131, DW_AT_decl_file("C:\ti\simplelink_cc13x0_sdk_2_30_00_20\source\ti\devices\c
    2156                            .dwattr $C$DW$131, DW_AT_decl_line(0x88)
    2157                            .dwattr $C$DW$131, DW_AT_decl_column(0x25)
    2158                    
    2159                            .dwattr $C$DW$T$183, DW_AT_decl_file("C:\ti\simplelink_cc13x0_sdk_2_30_00_20\source\ti\devices
    2160                            .dwattr $C$DW$T$183, DW_AT_decl_line(0x75)
    2161                            .dwattr $C$DW$T$183, DW_AT_decl_column(0x01)
    2162                            .dwendtag $C$DW$T$183
    2163                    
    2164                    $C$DW$T$634     .dwtag  DW_TAG_typedef
    2165                            .dwattr $C$DW$T$634, DW_AT_name("HARD_API_T")
    2166                            .dwattr $C$DW$T$634, DW_AT_type(*$C$DW$T$183)
    2167                            .dwattr $C$DW$T$634, DW_AT_language(DW_LANG_C)
    2168                            .dwattr $C$DW$T$634, DW_AT_decl_file("C:\ti\simplelink_cc13x0_sdk_2_30_00_20\source\ti\devices
    2169                            .dwattr $C$DW$T$634, DW_AT_decl_line(0x89)
    2170                            .dwattr $C$DW$T$634, DW_AT_decl_column(0x03)
    2171                    
    2172                    
    2173                    $C$DW$T$184     .dwtag  DW_TAG_structure_type
    2174                            .dwattr $C$DW$T$184, DW_AT_byte_size(0x08)
    2175                    $C$DW$132       .dwtag  DW_TAG_member
    2176                            .dwattr $C$DW$132, DW_AT_type(*$C$DW$T$10)
    2177                            .dwattr $C$DW$132, DW_AT_name("quot")
    2178                            .dwattr $C$DW$132, DW_AT_TI_symbol_name("quot")
    2179                            .dwattr $C$DW$132, DW_AT_data_member_location[DW_OP_plus_uconst 0x0]
    2180                            .dwattr $C$DW$132, DW_AT_accessibility(DW_ACCESS_public)
    2181                            .dwattr $C$DW$132, DW_AT_decl_file("C:/ti/ccsv7/tools/compiler/ti-cgt-arm_16.9.9.LTS/include/s
    2182                            .dwattr $C$DW$132, DW_AT_decl_line(0x5c)
    2183                            .dwattr $C$DW$132, DW_AT_decl_column(0x16)
    2184                    
    2185                    $C$DW$133       .dwtag  DW_TAG_member
    2186                            .dwattr $C$DW$133, DW_AT_type(*$C$DW$T$10)
    2187                            .dwattr $C$DW$133, DW_AT_name("rem")
    2188                            .dwattr $C$DW$133, DW_AT_TI_symbol_name("rem")
TI ARM Assembler PC v16.9.9 Sun Nov 25 19:10:02 2018

Tools Copyright (c) 1996-2017 Texas Instruments Incorporated
C:\Users\Stryd\AppData\Local\Temp\{A794D619-A51F-4E6F-9B47-EF132169661C} PAGE   41

    2189                            .dwattr $C$DW$133, DW_AT_data_member_location[DW_OP_plus_uconst 0x4]
    2190                            .dwattr $C$DW$133, DW_AT_accessibility(DW_ACCESS_public)
    2191                            .dwattr $C$DW$133, DW_AT_decl_file("C:/ti/ccsv7/tools/compiler/ti-cgt-arm_16.9.9.LTS/include/s
    2192                            .dwattr $C$DW$133, DW_AT_decl_line(0x5c)
    2193                            .dwattr $C$DW$133, DW_AT_decl_column(0x1c)
    2194                    
    2195                            .dwattr $C$DW$T$184, DW_AT_decl_file("C:/ti/ccsv7/tools/compiler/ti-cgt-arm_16.9.9.LTS/include
    2196                            .dwattr $C$DW$T$184, DW_AT_decl_line(0x5c)
    2197                            .dwattr $C$DW$T$184, DW_AT_decl_column(0x10)
    2198                            .dwendtag $C$DW$T$184
    2199                    
    2200                    $C$DW$T$635     .dwtag  DW_TAG_typedef
    2201                            .dwattr $C$DW$T$635, DW_AT_name("div_t")
    2202                            .dwattr $C$DW$T$635, DW_AT_type(*$C$DW$T$184)
    2203                            .dwattr $C$DW$T$635, DW_AT_language(DW_LANG_C)
    2204                            .dwattr $C$DW$T$635, DW_AT_decl_file("C:/ti/ccsv7/tools/compiler/ti-cgt-arm_16.9.9.LTS/include
    2205                            .dwattr $C$DW$T$635, DW_AT_decl_line(0x5c)
    2206                            .dwattr $C$DW$T$635, DW_AT_decl_column(0x23)
    2207                    
    2208                    
    2209                    $C$DW$T$185     .dwtag  DW_TAG_structure_type
    2210                            .dwattr $C$DW$T$185, DW_AT_byte_size(0x08)
    2211                    $C$DW$134       .dwtag  DW_TAG_member
    2212                            .dwattr $C$DW$134, DW_AT_type(*$C$DW$T$10)
    2213                            .dwattr $C$DW$134, DW_AT_name("quot")
    2214                            .dwattr $C$DW$134, DW_AT_TI_symbol_name("quot")
    2215                            .dwattr $C$DW$134, DW_AT_data_member_location[DW_OP_plus_uconst 0x0]
    2216                            .dwattr $C$DW$134, DW_AT_accessibility(DW_ACCESS_public)
    2217                            .dwattr $C$DW$134, DW_AT_decl_file("C:/ti/ccsv7/tools/compiler/ti-cgt-arm_16.9.9.LTS/include/s
    2218                            .dwattr $C$DW$134, DW_AT_decl_line(0x5e)
    2219                            .dwattr $C$DW$134, DW_AT_decl_column(0x16)
    2220                    
    2221                    $C$DW$135       .dwtag  DW_TAG_member
    2222                            .dwattr $C$DW$135, DW_AT_type(*$C$DW$T$10)
    2223                            .dwattr $C$DW$135, DW_AT_name("rem")
    2224                            .dwattr $C$DW$135, DW_AT_TI_symbol_name("rem")
    2225                            .dwattr $C$DW$135, DW_AT_data_member_location[DW_OP_plus_uconst 0x4]
    2226                            .dwattr $C$DW$135, DW_AT_accessibility(DW_ACCESS_public)
    2227                            .dwattr $C$DW$135, DW_AT_decl_file("C:/ti/ccsv7/tools/compiler/ti-cgt-arm_16.9.9.LTS/include/s
    2228                            .dwattr $C$DW$135, DW_AT_decl_line(0x5e)
    2229                            .dwattr $C$DW$135, DW_AT_decl_column(0x1c)
    2230                    
    2231                            .dwattr $C$DW$T$185, DW_AT_decl_file("C:/ti/ccsv7/tools/compiler/ti-cgt-arm_16.9.9.LTS/include
    2232                            .dwattr $C$DW$T$185, DW_AT_decl_line(0x5e)
    2233                            .dwattr $C$DW$T$185, DW_AT_decl_column(0x10)
    2234                            .dwendtag $C$DW$T$185
    2235                    
    2236                    $C$DW$T$636     .dwtag  DW_TAG_typedef
    2237                            .dwattr $C$DW$T$636, DW_AT_name("ldiv_t")
    2238                            .dwattr $C$DW$T$636, DW_AT_type(*$C$DW$T$185)
    2239                            .dwattr $C$DW$T$636, DW_AT_language(DW_LANG_C)
    2240                            .dwattr $C$DW$T$636, DW_AT_decl_file("C:/ti/ccsv7/tools/compiler/ti-cgt-arm_16.9.9.LTS/include
    2241                            .dwattr $C$DW$T$636, DW_AT_decl_line(0x5e)
    2242                            .dwattr $C$DW$T$636, DW_AT_decl_column(0x23)
    2243                    
TI ARM Assembler PC v16.9.9 Sun Nov 25 19:10:02 2018

Tools Copyright (c) 1996-2017 Texas Instruments Incorporated
C:\Users\Stryd\AppData\Local\Temp\{A794D619-A51F-4E6F-9B47-EF132169661C} PAGE   42

    2244                    
    2245                    $C$DW$T$186     .dwtag  DW_TAG_structure_type
    2246                            .dwattr $C$DW$T$186, DW_AT_byte_size(0x10)
    2247                    $C$DW$136       .dwtag  DW_TAG_member
    2248                            .dwattr $C$DW$136, DW_AT_type(*$C$DW$T$14)
    2249                            .dwattr $C$DW$136, DW_AT_name("quot")
    2250                            .dwattr $C$DW$136, DW_AT_TI_symbol_name("quot")
    2251                            .dwattr $C$DW$136, DW_AT_data_member_location[DW_OP_plus_uconst 0x0]
    2252                            .dwattr $C$DW$136, DW_AT_accessibility(DW_ACCESS_public)
    2253                            .dwattr $C$DW$136, DW_AT_decl_file("C:/ti/ccsv7/tools/compiler/ti-cgt-arm_16.9.9.LTS/include/s
    2254                            .dwattr $C$DW$136, DW_AT_decl_line(0x61)
    2255                            .dwattr $C$DW$136, DW_AT_decl_column(0x1c)
    2256                    
    2257                    $C$DW$137       .dwtag  DW_TAG_member
    2258                            .dwattr $C$DW$137, DW_AT_type(*$C$DW$T$14)
    2259                            .dwattr $C$DW$137, DW_AT_name("rem")
    2260                            .dwattr $C$DW$137, DW_AT_TI_symbol_name("rem")
    2261                            .dwattr $C$DW$137, DW_AT_data_member_location[DW_OP_plus_uconst 0x8]
    2262                            .dwattr $C$DW$137, DW_AT_accessibility(DW_ACCESS_public)
    2263                            .dwattr $C$DW$137, DW_AT_decl_file("C:/ti/ccsv7/tools/compiler/ti-cgt-arm_16.9.9.LTS/include/s
    2264                            .dwattr $C$DW$137, DW_AT_decl_line(0x61)
    2265                            .dwattr $C$DW$137, DW_AT_decl_column(0x22)
    2266                    
    2267                            .dwattr $C$DW$T$186, DW_AT_decl_file("C:/ti/ccsv7/tools/compiler/ti-cgt-arm_16.9.9.LTS/include
    2268                            .dwattr $C$DW$T$186, DW_AT_decl_line(0x61)
    2269                            .dwattr $C$DW$T$186, DW_AT_decl_column(0x10)
    2270                            .dwendtag $C$DW$T$186
    2271                    
    2272                    $C$DW$T$637     .dwtag  DW_TAG_typedef
    2273                            .dwattr $C$DW$T$637, DW_AT_name("lldiv_t")
    2274                            .dwattr $C$DW$T$637, DW_AT_type(*$C$DW$T$186)
    2275                            .dwattr $C$DW$T$637, DW_AT_language(DW_LANG_C)
    2276                            .dwattr $C$DW$T$637, DW_AT_decl_file("C:/ti/ccsv7/tools/compiler/ti-cgt-arm_16.9.9.LTS/include
    2277                            .dwattr $C$DW$T$637, DW_AT_decl_line(0x61)
    2278                            .dwattr $C$DW$T$637, DW_AT_decl_column(0x29)
    2279                    
    2280                    
    2281                    $C$DW$T$190     .dwtag  DW_TAG_structure_type
    2282                            .dwattr $C$DW$T$190, DW_AT_byte_size(0x08)
    2283                    $C$DW$138       .dwtag  DW_TAG_member
    2284                            .dwattr $C$DW$138, DW_AT_type(*$C$DW$T$188)
    2285                            .dwattr $C$DW$138, DW_AT_name("pointerStack")
    2286                            .dwattr $C$DW$138, DW_AT_TI_symbol_name("pointerStack")
    2287                            .dwattr $C$DW$138, DW_AT_data_member_location[DW_OP_plus_uconst 0x0]
    2288                            .dwattr $C$DW$138, DW_AT_accessibility(DW_ACCESS_public)
    2289                            .dwattr $C$DW$138, DW_AT_decl_file("C:/ti/simplelink_cc13x0_sdk_2_30_00_20/source/ti/ti154stac
    2290                            .dwattr $C$DW$138, DW_AT_decl_line(0x3f5)
    2291                            .dwattr $C$DW$138, DW_AT_decl_column(0x16)
    2292                    
    2293                    $C$DW$139       .dwtag  DW_TAG_member
    2294                            .dwattr $C$DW$139, DW_AT_type(*$C$DW$T$189)
    2295                            .dwattr $C$DW$139, DW_AT_name("directAPI")
    2296                            .dwattr $C$DW$139, DW_AT_TI_symbol_name("directAPI")
    2297                            .dwattr $C$DW$139, DW_AT_data_member_location[DW_OP_plus_uconst 0x4]
    2298                            .dwattr $C$DW$139, DW_AT_accessibility(DW_ACCESS_public)
TI ARM Assembler PC v16.9.9 Sun Nov 25 19:10:02 2018

Tools Copyright (c) 1996-2017 Texas Instruments Incorporated
C:\Users\Stryd\AppData\Local\Temp\{A794D619-A51F-4E6F-9B47-EF132169661C} PAGE   43

    2299                            .dwattr $C$DW$139, DW_AT_decl_file("C:/ti/simplelink_cc13x0_sdk_2_30_00_20/source/ti/ti154stac
    2300                            .dwattr $C$DW$139, DW_AT_decl_line(0x3f6)
    2301                            .dwattr $C$DW$139, DW_AT_decl_column(0x15)
    2302                    
    2303                            .dwattr $C$DW$T$190, DW_AT_decl_file("C:/ti/simplelink_cc13x0_sdk_2_30_00_20/source/ti/ti154st
    2304                            .dwattr $C$DW$T$190, DW_AT_decl_line(0x3f4)
    2305                            .dwattr $C$DW$T$190, DW_AT_decl_column(0x01)
    2306                            .dwendtag $C$DW$T$190
    2307                    
    2308                    $C$DW$T$192     .dwtag  DW_TAG_typedef
    2309                            .dwattr $C$DW$T$192, DW_AT_name("icall_directAPIMsg_t")
    2310                            .dwattr $C$DW$T$192, DW_AT_type(*$C$DW$T$190)
    2311                            .dwattr $C$DW$T$192, DW_AT_language(DW_LANG_C)
    2312                            .dwattr $C$DW$T$192, DW_AT_decl_file("C:/ti/simplelink_cc13x0_sdk_2_30_00_20/source/ti/ti154st
    2313                            .dwattr $C$DW$T$192, DW_AT_decl_line(0x3f7)
    2314                            .dwattr $C$DW$T$192, DW_AT_decl_column(0x03)
    2315                    
    2316                    
    2317                    $C$DW$T$193     .dwtag  DW_TAG_structure_type
    2318                            .dwattr $C$DW$T$193, DW_AT_byte_size(0x14)
    2319                    $C$DW$140       .dwtag  DW_TAG_member
    2320                            .dwattr $C$DW$140, DW_AT_type(*$C$DW$T$191)
    2321                            .dwattr $C$DW$140, DW_AT_name("hdr")
    2322                            .dwattr $C$DW$140, DW_AT_TI_symbol_name("hdr")
    2323                            .dwattr $C$DW$140, DW_AT_data_member_location[DW_OP_plus_uconst 0x0]
    2324                            .dwattr $C$DW$140, DW_AT_accessibility(DW_ACCESS_public)
    2325                            .dwattr $C$DW$140, DW_AT_decl_file("C:/ti/simplelink_cc13x0_sdk_2_30_00_20/source/ti/ti154stac
    2326                            .dwattr $C$DW$140, DW_AT_decl_line(0x3fb)
    2327                            .dwattr $C$DW$140, DW_AT_decl_column(0x10)
    2328                    
    2329                    $C$DW$141       .dwtag  DW_TAG_member
    2330                            .dwattr $C$DW$141, DW_AT_type(*$C$DW$T$192)
    2331                            .dwattr $C$DW$141, DW_AT_name("msg")
    2332                            .dwattr $C$DW$141, DW_AT_TI_symbol_name("msg")
    2333                            .dwattr $C$DW$141, DW_AT_data_member_location[DW_OP_plus_uconst 0xc]
    2334                            .dwattr $C$DW$141, DW_AT_accessibility(DW_ACCESS_public)
    2335                            .dwattr $C$DW$141, DW_AT_decl_file("C:/ti/simplelink_cc13x0_sdk_2_30_00_20/source/ti/ti154stac
    2336                            .dwattr $C$DW$141, DW_AT_decl_line(0x3fc)
    2337                            .dwattr $C$DW$141, DW_AT_decl_column(0x1a)
    2338                    
    2339                            .dwattr $C$DW$T$193, DW_AT_decl_file("C:/ti/simplelink_cc13x0_sdk_2_30_00_20/source/ti/ti154st
    2340                            .dwattr $C$DW$T$193, DW_AT_decl_line(0x3fa)
    2341                            .dwattr $C$DW$T$193, DW_AT_decl_column(0x01)
    2342                            .dwendtag $C$DW$T$193
    2343                    
    2344                    $C$DW$T$638     .dwtag  DW_TAG_typedef
    2345                            .dwattr $C$DW$T$638, DW_AT_name("icallLiteMsg_t")
    2346                            .dwattr $C$DW$T$638, DW_AT_type(*$C$DW$T$193)
    2347                            .dwattr $C$DW$T$638, DW_AT_language(DW_LANG_C)
    2348                            .dwattr $C$DW$T$638, DW_AT_decl_file("C:/ti/simplelink_cc13x0_sdk_2_30_00_20/source/ti/ti154st
    2349                            .dwattr $C$DW$T$638, DW_AT_decl_line(0x3fd)
    2350                            .dwattr $C$DW$T$638, DW_AT_decl_column(0x03)
    2351                    
    2352                    
    2353                    $C$DW$T$197     .dwtag  DW_TAG_structure_type
TI ARM Assembler PC v16.9.9 Sun Nov 25 19:10:02 2018

Tools Copyright (c) 1996-2017 Texas Instruments Incorporated
C:\Users\Stryd\AppData\Local\Temp\{A794D619-A51F-4E6F-9B47-EF132169661C} PAGE   44

    2354                            .dwattr $C$DW$T$197, DW_AT_byte_size(0x08)
    2355                    $C$DW$142       .dwtag  DW_TAG_member
    2356                            .dwattr $C$DW$142, DW_AT_type(*$C$DW$T$10)
    2357                            .dwattr $C$DW$142, DW_AT_name("length")
    2358                            .dwattr $C$DW$142, DW_AT_TI_symbol_name("length")
    2359                            .dwattr $C$DW$142, DW_AT_data_member_location[DW_OP_plus_uconst 0x0]
    2360                            .dwattr $C$DW$142, DW_AT_accessibility(DW_ACCESS_public)
    2361                            .dwattr $C$DW$142, DW_AT_decl_file("C:/ti/simplelink_cc13x0_sdk_2_30_00_20/kernel/tirtos/packa
    2362                            .dwattr $C$DW$142, DW_AT_decl_line(0x36f)
    2363                            .dwattr $C$DW$142, DW_AT_decl_column(0x16)
    2364                    
    2365                    $C$DW$143       .dwtag  DW_TAG_member
    2366                            .dwattr $C$DW$143, DW_AT_type(*$C$DW$T$196)
    2367                            .dwattr $C$DW$143, DW_AT_name("elem")
    2368                            .dwattr $C$DW$143, DW_AT_TI_symbol_name("elem")
    2369                            .dwattr $C$DW$143, DW_AT_data_member_location[DW_OP_plus_uconst 0x4]
    2370                            .dwattr $C$DW$143, DW_AT_accessibility(DW_ACCESS_public)
    2371                            .dwattr $C$DW$143, DW_AT_decl_file("C:/ti/simplelink_cc13x0_sdk_2_30_00_20/kernel/tirtos/packa
    2372                            .dwattr $C$DW$143, DW_AT_decl_line(0x36f)
    2373                            .dwattr $C$DW$143, DW_AT_decl_column(0x44)
    2374                    
    2375                            .dwattr $C$DW$T$197, DW_AT_decl_file("C:/ti/simplelink_cc13x0_sdk_2_30_00_20/kernel/tirtos/pac
    2376                            .dwattr $C$DW$T$197, DW_AT_decl_line(0x36f)
    2377                            .dwattr $C$DW$T$197, DW_AT_decl_column(0x10)
    2378                            .dwendtag $C$DW$T$197
    2379                    
    2380                    $C$DW$T$639     .dwtag  DW_TAG_typedef
    2381                            .dwattr $C$DW$T$639, DW_AT_name("ARRAY1_ti_sysbios_family_arm_m3_Hwi_hooks")
    2382                            .dwattr $C$DW$T$639, DW_AT_type(*$C$DW$T$197)
    2383                            .dwattr $C$DW$T$639, DW_AT_language(DW_LANG_C)
    2384                            .dwattr $C$DW$T$639, DW_AT_decl_file("C:/ti/simplelink_cc13x0_sdk_2_30_00_20/kernel/tirtos/pac
    2385                            .dwattr $C$DW$T$639, DW_AT_decl_line(0x36f)
    2386                            .dwattr $C$DW$T$639, DW_AT_decl_column(0x4c)
    2387                    
    2388                    
    2389                    $C$DW$T$200     .dwtag  DW_TAG_structure_type
    2390                            .dwattr $C$DW$T$200, DW_AT_byte_size(0x08)
    2391                    $C$DW$144       .dwtag  DW_TAG_member
    2392                            .dwattr $C$DW$144, DW_AT_type(*$C$DW$T$10)
    2393                            .dwattr $C$DW$144, DW_AT_name("length")
    2394                            .dwattr $C$DW$144, DW_AT_TI_symbol_name("length")
    2395                            .dwattr $C$DW$144, DW_AT_data_member_location[DW_OP_plus_uconst 0x0]
    2396                            .dwattr $C$DW$144, DW_AT_accessibility(DW_ACCESS_public)
    2397                            .dwattr $C$DW$144, DW_AT_decl_file("C:/ti/simplelink_cc13x0_sdk_2_30_00_20/kernel/tirtos/packa
    2398                            .dwattr $C$DW$144, DW_AT_decl_line(0x370)
    2399                            .dwattr $C$DW$144, DW_AT_decl_column(0x16)
    2400                    
    2401                    $C$DW$145       .dwtag  DW_TAG_member
    2402                            .dwattr $C$DW$145, DW_AT_type(*$C$DW$T$199)
    2403                            .dwattr $C$DW$145, DW_AT_name("elem")
    2404                            .dwattr $C$DW$145, DW_AT_TI_symbol_name("elem")
    2405                            .dwattr $C$DW$145, DW_AT_data_member_location[DW_OP_plus_uconst 0x4]
    2406                            .dwattr $C$DW$145, DW_AT_accessibility(DW_ACCESS_public)
    2407                            .dwattr $C$DW$145, DW_AT_decl_file("C:/ti/simplelink_cc13x0_sdk_2_30_00_20/kernel/tirtos/packa
    2408                            .dwattr $C$DW$145, DW_AT_decl_line(0x370)
TI ARM Assembler PC v16.9.9 Sun Nov 25 19:10:02 2018

Tools Copyright (c) 1996-2017 Texas Instruments Incorporated
C:\Users\Stryd\AppData\Local\Temp\{A794D619-A51F-4E6F-9B47-EF132169661C} PAGE   45

    2409                            .dwattr $C$DW$145, DW_AT_decl_column(0x4a)
    2410                    
    2411                            .dwattr $C$DW$T$200, DW_AT_decl_file("C:/ti/simplelink_cc13x0_sdk_2_30_00_20/kernel/tirtos/pac
    2412                            .dwattr $C$DW$T$200, DW_AT_decl_line(0x370)
    2413                            .dwattr $C$DW$T$200, DW_AT_decl_column(0x10)
    2414                            .dwendtag $C$DW$T$200
    2415                    
    2416                    $C$DW$T$640     .dwtag  DW_TAG_typedef
    2417                            .dwattr $C$DW$T$640, DW_AT_name("CARRAY1_ti_sysbios_family_arm_m3_Hwi_hooks")
    2418                            .dwattr $C$DW$T$640, DW_AT_type(*$C$DW$T$200)
    2419                            .dwattr $C$DW$T$640, DW_AT_language(DW_LANG_C)
    2420                            .dwattr $C$DW$T$640, DW_AT_decl_file("C:/ti/simplelink_cc13x0_sdk_2_30_00_20/kernel/tirtos/pac
    2421                            .dwattr $C$DW$T$640, DW_AT_decl_line(0x370)
    2422                            .dwattr $C$DW$T$640, DW_AT_decl_column(0x52)
    2423                    
    2424                    $C$DW$T$641     .dwtag  DW_TAG_typedef
    2425                            .dwattr $C$DW$T$641, DW_AT_name("CT__ti_sysbios_family_arm_m3_Hwi_hooks")
    2426                            .dwattr $C$DW$T$641, DW_AT_type(*$C$DW$T$640)
    2427                            .dwattr $C$DW$T$641, DW_AT_language(DW_LANG_C)
    2428                            .dwattr $C$DW$T$641, DW_AT_decl_file("C:/ti/simplelink_cc13x0_sdk_2_30_00_20/kernel/tirtos/pac
    2429                            .dwattr $C$DW$T$641, DW_AT_decl_line(0x372)
    2430                            .dwattr $C$DW$T$641, DW_AT_decl_column(0x34)
    2431                    
    2432                    $C$DW$T$642     .dwtag  DW_TAG_typedef
    2433                            .dwattr $C$DW$T$642, DW_AT_name("__TA_ti_sysbios_family_arm_m3_Hwi_hooks")
    2434                            .dwattr $C$DW$T$642, DW_AT_type(*$C$DW$T$640)
    2435                            .dwattr $C$DW$T$642, DW_AT_language(DW_LANG_C)
    2436                            .dwattr $C$DW$T$642, DW_AT_decl_file("C:/ti/simplelink_cc13x0_sdk_2_30_00_20/kernel/tirtos/pac
    2437                            .dwattr $C$DW$T$642, DW_AT_decl_line(0x371)
    2438                            .dwattr $C$DW$T$642, DW_AT_decl_column(0x34)
    2439                    
    2440                    
    2441                    $C$DW$T$205     .dwtag  DW_TAG_union_type
    2442                            .dwattr $C$DW$T$205, DW_AT_byte_size(0x02)
    2443                    $C$DW$146       .dwtag  DW_TAG_member
    2444                            .dwattr $C$DW$146, DW_AT_type(*$C$DW$T$202)
    2445                            .dwattr $C$DW$146, DW_AT_name("entityId")
    2446                            .dwattr $C$DW$146, DW_AT_TI_symbol_name("entityId")
    2447                            .dwattr $C$DW$146, DW_AT_data_member_location[DW_OP_plus_uconst 0x0]
    2448                            .dwattr $C$DW$146, DW_AT_accessibility(DW_ACCESS_public)
    2449                            .dwattr $C$DW$146, DW_AT_decl_file("C:/ti/simplelink_cc13x0_sdk_2_30_00_20/source/ti/ti154stac
    2450                            .dwattr $C$DW$146, DW_AT_decl_line(0x1fe)
    2451                            .dwattr $C$DW$146, DW_AT_decl_column(0x14)
    2452                    
    2453                    $C$DW$147       .dwtag  DW_TAG_member
    2454                            .dwattr $C$DW$147, DW_AT_type(*$C$DW$T$204)
    2455                            .dwattr $C$DW$147, DW_AT_name("servId")
    2456                            .dwattr $C$DW$147, DW_AT_TI_symbol_name("servId")
    2457                            .dwattr $C$DW$147, DW_AT_data_member_location[DW_OP_plus_uconst 0x0]
    2458                            .dwattr $C$DW$147, DW_AT_accessibility(DW_ACCESS_public)
    2459                            .dwattr $C$DW$147, DW_AT_decl_file("C:/ti/simplelink_cc13x0_sdk_2_30_00_20/source/ti/ti154stac
    2460                            .dwattr $C$DW$147, DW_AT_decl_line(0x200)
    2461                            .dwattr $C$DW$147, DW_AT_decl_column(0x17)
    2462                    
    2463                            .dwattr $C$DW$T$205, DW_AT_decl_file("C:/ti/simplelink_cc13x0_sdk_2_30_00_20/source/ti/ti154st
TI ARM Assembler PC v16.9.9 Sun Nov 25 19:10:02 2018

Tools Copyright (c) 1996-2017 Texas Instruments Incorporated
C:\Users\Stryd\AppData\Local\Temp\{A794D619-A51F-4E6F-9B47-EF132169661C} PAGE   46

    2464                            .dwattr $C$DW$T$205, DW_AT_decl_line(0x1fc)
    2465                            .dwattr $C$DW$T$205, DW_AT_decl_column(0x03)
    2466                            .dwendtag $C$DW$T$205
    2467                    
    2468                    
    2469                    $C$DW$T$206     .dwtag  DW_TAG_union_type
    2470                            .dwattr $C$DW$T$206, DW_AT_byte_size(0x02)
    2471                    $C$DW$148       .dwtag  DW_TAG_member
    2472                            .dwattr $C$DW$148, DW_AT_type(*$C$DW$T$204)
    2473                            .dwattr $C$DW$148, DW_AT_name("servId")
    2474                            .dwattr $C$DW$148, DW_AT_TI_symbol_name("servId")
    2475                            .dwattr $C$DW$148, DW_AT_data_member_location[DW_OP_plus_uconst 0x0]
    2476                            .dwattr $C$DW$148, DW_AT_accessibility(DW_ACCESS_public)
    2477                            .dwattr $C$DW$148, DW_AT_decl_file("C:/ti/simplelink_cc13x0_sdk_2_30_00_20/source/ti/ti154stac
    2478                            .dwattr $C$DW$148, DW_AT_decl_line(0x211)
    2479                            .dwattr $C$DW$148, DW_AT_decl_column(0x17)
    2480                    
    2481                    $C$DW$149       .dwtag  DW_TAG_member
    2482                            .dwattr $C$DW$149, DW_AT_type(*$C$DW$T$202)
    2483                            .dwattr $C$DW$149, DW_AT_name("entityId")
    2484                            .dwattr $C$DW$149, DW_AT_TI_symbol_name("entityId")
    2485                            .dwattr $C$DW$149, DW_AT_data_member_location[DW_OP_plus_uconst 0x0]
    2486                            .dwattr $C$DW$149, DW_AT_accessibility(DW_ACCESS_public)
    2487                            .dwattr $C$DW$149, DW_AT_decl_file("C:/ti/simplelink_cc13x0_sdk_2_30_00_20/source/ti/ti154stac
    2488                            .dwattr $C$DW$149, DW_AT_decl_line(0x213)
    2489                            .dwattr $C$DW$149, DW_AT_decl_column(0x14)
    2490                    
    2491                            .dwattr $C$DW$T$206, DW_AT_decl_file("C:/ti/simplelink_cc13x0_sdk_2_30_00_20/source/ti/ti154st
    2492                            .dwattr $C$DW$T$206, DW_AT_decl_line(0x20f)
    2493                            .dwattr $C$DW$T$206, DW_AT_decl_column(0x03)
    2494                            .dwendtag $C$DW$T$206
    2495                    
    2496                    
    2497                    $C$DW$T$210     .dwtag  DW_TAG_union_type
    2498                            .dwattr $C$DW$T$210, DW_AT_byte_size(0x04)
    2499                    $C$DW$150       .dwtag  DW_TAG_member
    2500                            .dwattr $C$DW$150, DW_AT_type(*$C$DW$T$207)
    2501                            .dwattr $C$DW$150, DW_AT_name("f")
    2502                            .dwattr $C$DW$150, DW_AT_TI_symbol_name("f")
    2503                            .dwattr $C$DW$150, DW_AT_data_member_location[DW_OP_plus_uconst 0x0]
    2504                            .dwattr $C$DW$150, DW_AT_accessibility(DW_ACCESS_public)
    2505                            .dwattr $C$DW$150, DW_AT_decl_file("C:/ti/xdctools_3_50_08_24_core/packages/xdc/std.h")
    2506                            .dwattr $C$DW$150, DW_AT_decl_line(0xb7)
    2507                            .dwattr $C$DW$150, DW_AT_decl_column(0x0f)
    2508                    
    2509                    $C$DW$151       .dwtag  DW_TAG_member
    2510                            .dwattr $C$DW$151, DW_AT_type(*$C$DW$T$209)
    2511                            .dwattr $C$DW$151, DW_AT_name("a")
    2512                            .dwattr $C$DW$151, DW_AT_TI_symbol_name("a")
    2513                            .dwattr $C$DW$151, DW_AT_data_member_location[DW_OP_plus_uconst 0x0]
    2514                            .dwattr $C$DW$151, DW_AT_accessibility(DW_ACCESS_public)
    2515                            .dwattr $C$DW$151, DW_AT_decl_file("C:/ti/xdctools_3_50_08_24_core/packages/xdc/std.h")
    2516                            .dwattr $C$DW$151, DW_AT_decl_line(0xb8)
    2517                            .dwattr $C$DW$151, DW_AT_decl_column(0x0f)
    2518                    
TI ARM Assembler PC v16.9.9 Sun Nov 25 19:10:02 2018

Tools Copyright (c) 1996-2017 Texas Instruments Incorporated
C:\Users\Stryd\AppData\Local\Temp\{A794D619-A51F-4E6F-9B47-EF132169661C} PAGE   47

    2519                            .dwattr $C$DW$T$210, DW_AT_decl_file("C:/ti/xdctools_3_50_08_24_core/packages/xdc/std.h")
    2520                            .dwattr $C$DW$T$210, DW_AT_decl_line(0xb6)
    2521                            .dwattr $C$DW$T$210, DW_AT_decl_column(0x0f)
    2522                            .dwendtag $C$DW$T$210
    2523                    
    2524                    $C$DW$T$643     .dwtag  DW_TAG_typedef
    2525                            .dwattr $C$DW$T$643, DW_AT_name("xdc_FloatData")
    2526                            .dwattr $C$DW$T$643, DW_AT_type(*$C$DW$T$210)
    2527                            .dwattr $C$DW$T$643, DW_AT_language(DW_LANG_C)
    2528                            .dwattr $C$DW$T$643, DW_AT_decl_file("C:/ti/xdctools_3_50_08_24_core/packages/xdc/std.h")
    2529                            .dwattr $C$DW$T$643, DW_AT_decl_line(0xb9)
    2530                            .dwattr $C$DW$T$643, DW_AT_decl_column(0x03)
    2531                    
    2532                    
    2533                    $C$DW$T$213     .dwtag  DW_TAG_structure_type
    2534                            .dwattr $C$DW$T$213, DW_AT_name(".ggroup1")
    2535                            .dwattr $C$DW$T$213, DW_AT_byte_size(0x10)
    2536                    $C$DW$152       .dwtag  DW_TAG_member
    2537                            .dwattr $C$DW$152, DW_AT_type(*$C$DW$T$211)
    2538                            .dwattr $C$DW$152, DW_AT_name("rtcIntOccurred")
    2539                            .dwattr $C$DW$152, DW_AT_TI_symbol_name("rtcIntOccurred")
    2540                            .dwattr $C$DW$152, DW_AT_data_member_location[DW_OP_plus_uconst 0x0]
    2541                            .dwattr $C$DW$152, DW_AT_accessibility(DW_ACCESS_public)
    2542                    
    2543                    $C$DW$153       .dwtag  DW_TAG_member
    2544                            .dwattr $C$DW$153, DW_AT_type(*$C$DW$T$212)
    2545                            .dwattr $C$DW$153, DW_AT_name("rtcIntCback")
    2546                            .dwattr $C$DW$153, DW_AT_TI_symbol_name("rtcIntCback")
    2547                            .dwattr $C$DW$153, DW_AT_data_member_location[DW_OP_plus_uconst 0x4]
    2548                            .dwattr $C$DW$153, DW_AT_accessibility(DW_ACCESS_public)
    2549                    
    2550                            .dwendtag $C$DW$T$213
    2551                    
    2552                    
    2553                    $C$DW$T$214     .dwtag  DW_TAG_structure_type
    2554                            .dwattr $C$DW$T$214, DW_AT_name("_ICall_LiteCmdStatus_")
    2555                            .dwattr $C$DW$T$214, DW_AT_byte_size(0x01)
    2556                    $C$DW$154       .dwtag  DW_TAG_member
    2557                            .dwattr $C$DW$154, DW_AT_type(*$C$DW$T$201)
    2558                            .dwattr $C$DW$154, DW_AT_name("cmdId")
    2559                            .dwattr $C$DW$154, DW_AT_TI_symbol_name("cmdId")
    2560                            .dwattr $C$DW$154, DW_AT_data_member_location[DW_OP_plus_uconst 0x0]
    2561                            .dwattr $C$DW$154, DW_AT_accessibility(DW_ACCESS_public)
    2562                            .dwattr $C$DW$154, DW_AT_decl_file("C:/ti/simplelink_cc13x0_sdk_2_30_00_20/source/ti/ti154stac
    2563                            .dwattr $C$DW$154, DW_AT_decl_line(0x3f0)
    2564                            .dwattr $C$DW$154, DW_AT_decl_column(0x11)
    2565                    
    2566                            .dwattr $C$DW$T$214, DW_AT_decl_file("C:/ti/simplelink_cc13x0_sdk_2_30_00_20/source/ti/ti154st
    2567                            .dwattr $C$DW$T$214, DW_AT_decl_line(0x3ee)
    2568                            .dwattr $C$DW$T$214, DW_AT_decl_column(0x10)
    2569                            .dwendtag $C$DW$T$214
    2570                    
    2571                    $C$DW$T$645     .dwtag  DW_TAG_typedef
    2572                            .dwattr $C$DW$T$645, DW_AT_name("ICall_LiteCmdStatus")
    2573                            .dwattr $C$DW$T$645, DW_AT_type(*$C$DW$T$214)
TI ARM Assembler PC v16.9.9 Sun Nov 25 19:10:02 2018

Tools Copyright (c) 1996-2017 Texas Instruments Incorporated
C:\Users\Stryd\AppData\Local\Temp\{A794D619-A51F-4E6F-9B47-EF132169661C} PAGE   48

    2574                            .dwattr $C$DW$T$645, DW_AT_language(DW_LANG_C)
    2575                            .dwattr $C$DW$T$645, DW_AT_decl_file("C:/ti/simplelink_cc13x0_sdk_2_30_00_20/source/ti/ti154st
    2576                            .dwattr $C$DW$T$645, DW_AT_decl_line(0x3f1)
    2577                            .dwattr $C$DW$T$645, DW_AT_decl_column(0x03)
    2578                    
    2579                    $C$DW$T$2       .dwtag  DW_TAG_unspecified_type
    2580                            .dwattr $C$DW$T$2, DW_AT_name("void")
    2581                    
    2582                    $C$DW$T$3       .dwtag  DW_TAG_pointer_type
    2583                            .dwattr $C$DW$T$3, DW_AT_type(*$C$DW$T$2)
    2584                            .dwattr $C$DW$T$3, DW_AT_address_class(0x20)
    2585                    
    2586                    $C$DW$T$646     .dwtag  DW_TAG_typedef
    2587                            .dwattr $C$DW$T$646, DW_AT_name("ICall_Semaphore")
    2588                            .dwattr $C$DW$T$646, DW_AT_type(*$C$DW$T$3)
    2589                            .dwattr $C$DW$T$646, DW_AT_language(DW_LANG_C)
    2590                            .dwattr $C$DW$T$646, DW_AT_decl_file("C:/ti/simplelink_cc13x0_sdk_2_30_00_20/source/ti/ti154st
    2591                            .dwattr $C$DW$T$646, DW_AT_decl_line(0x1ac)
    2592                            .dwattr $C$DW$T$646, DW_AT_decl_column(0x0f)
    2593                    
    2594                    $C$DW$T$229     .dwtag  DW_TAG_typedef
    2595                            .dwattr $C$DW$T$229, DW_AT_name("ICall_SyncHandle")
    2596                            .dwattr $C$DW$T$229, DW_AT_type(*$C$DW$T$3)
    2597                            .dwattr $C$DW$T$229, DW_AT_language(DW_LANG_C)
    2598                            .dwattr $C$DW$T$229, DW_AT_decl_file("C:/ti/simplelink_cc13x0_sdk_2_30_00_20/source/ti/ti154st
    2599                            .dwattr $C$DW$T$229, DW_AT_decl_line(0x1aa)
    2600                            .dwattr $C$DW$T$229, DW_AT_decl_column(0x0f)
    2601                    
    2602                    $C$DW$T$274     .dwtag  DW_TAG_typedef
    2603                            .dwattr $C$DW$T$274, DW_AT_name("ICall_TimerID")
    2604                            .dwattr $C$DW$T$274, DW_AT_type(*$C$DW$T$3)
    2605                            .dwattr $C$DW$T$274, DW_AT_language(DW_LANG_C)
    2606                            .dwattr $C$DW$T$274, DW_AT_decl_file("C:/ti/simplelink_cc13x0_sdk_2_30_00_20/source/ti/ti154st
    2607                            .dwattr $C$DW$T$274, DW_AT_decl_line(0x1b7)
    2608                            .dwattr $C$DW$T$274, DW_AT_decl_column(0x0f)
    2609                    
    2610                    $C$DW$T$330     .dwtag  DW_TAG_typedef
    2611                            .dwattr $C$DW$T$330, DW_AT_name("xdc_Ptr")
    2612                            .dwattr $C$DW$T$330, DW_AT_type(*$C$DW$T$3)
    2613                            .dwattr $C$DW$T$330, DW_AT_language(DW_LANG_C)
    2614                            .dwattr $C$DW$T$330, DW_AT_decl_file("C:/ti/xdctools_3_50_08_24_core/packages/xdc/std.h")
    2615                            .dwattr $C$DW$T$330, DW_AT_decl_line(0x2e)
    2616                            .dwattr $C$DW$T$330, DW_AT_decl_column(0x1a)
    2617                    
    2618                    $C$DW$T$647     .dwtag  DW_TAG_typedef
    2619                            .dwattr $C$DW$T$647, DW_AT_name("CT__ti_sysbios_BIOS_Module__gateObj")
    2620                            .dwattr $C$DW$T$647, DW_AT_type(*$C$DW$T$330)
    2621                            .dwattr $C$DW$T$647, DW_AT_language(DW_LANG_C)
    2622                            .dwattr $C$DW$T$647, DW_AT_decl_file("C:/ti/simplelink_cc13x0_sdk_2_30_00_20/kernel/tirtos/pac
    2623                            .dwattr $C$DW$T$647, DW_AT_decl_line(0xa3)
    2624                            .dwattr $C$DW$T$647, DW_AT_decl_column(0x11)
    2625                    
    2626                    $C$DW$T$648     .dwtag  DW_TAG_typedef
    2627                            .dwattr $C$DW$T$648, DW_AT_name("CT__ti_sysbios_BIOS_Module__gatePrms")
    2628                            .dwattr $C$DW$T$648, DW_AT_type(*$C$DW$T$330)
TI ARM Assembler PC v16.9.9 Sun Nov 25 19:10:02 2018

Tools Copyright (c) 1996-2017 Texas Instruments Incorporated
C:\Users\Stryd\AppData\Local\Temp\{A794D619-A51F-4E6F-9B47-EF132169661C} PAGE   49

    2629                            .dwattr $C$DW$T$648, DW_AT_language(DW_LANG_C)
    2630                            .dwattr $C$DW$T$648, DW_AT_decl_file("C:/ti/simplelink_cc13x0_sdk_2_30_00_20/kernel/tirtos/pac
    2631                            .dwattr $C$DW$T$648, DW_AT_decl_line(0xac)
    2632                            .dwattr $C$DW$T$648, DW_AT_decl_column(0x11)
    2633                    
    2634                    $C$DW$T$649     .dwtag  DW_TAG_typedef
    2635                            .dwattr $C$DW$T$649, DW_AT_name("CT__ti_sysbios_BIOS_Module__loggerObj")
    2636                            .dwattr $C$DW$T$649, DW_AT_type(*$C$DW$T$330)
    2637                            .dwattr $C$DW$T$649, DW_AT_language(DW_LANG_C)
    2638                            .dwattr $C$DW$T$649, DW_AT_decl_file("C:/ti/simplelink_cc13x0_sdk_2_30_00_20/kernel/tirtos/pac
    2639                            .dwattr $C$DW$T$649, DW_AT_decl_line(0xc7)
    2640                            .dwattr $C$DW$T$649, DW_AT_decl_column(0x11)
    2641                    
    2642                    $C$DW$T$650     .dwtag  DW_TAG_typedef
    2643                            .dwattr $C$DW$T$650, DW_AT_name("CT__ti_sysbios_BIOS_Object__table")
    2644                            .dwattr $C$DW$T$650, DW_AT_type(*$C$DW$T$330)
    2645                            .dwattr $C$DW$T$650, DW_AT_language(DW_LANG_C)
    2646                            .dwattr $C$DW$T$650, DW_AT_decl_file("C:/ti/simplelink_cc13x0_sdk_2_30_00_20/kernel/tirtos/pac
    2647                            .dwattr $C$DW$T$650, DW_AT_decl_line(0x118)
    2648                            .dwattr $C$DW$T$650, DW_AT_decl_column(0x11)
    2649                    
    2650                    $C$DW$T$651     .dwtag  DW_TAG_typedef
    2651                            .dwattr $C$DW$T$651, DW_AT_name("CT__ti_sysbios_BIOS_RtsGateProxy_Module__gateObj")
    2652                            .dwattr $C$DW$T$651, DW_AT_type(*$C$DW$T$330)
    2653                            .dwattr $C$DW$T$651, DW_AT_language(DW_LANG_C)
    2654                            .dwattr $C$DW$T$651, DW_AT_decl_file("C:/ti/simplelink_cc13x0_sdk_2_30_00_20/kernel/tirtos/pac
    2655                            .dwattr $C$DW$T$651, DW_AT_decl_line(0x68)
    2656                            .dwattr $C$DW$T$651, DW_AT_decl_column(0x11)
    2657                    
    2658                    $C$DW$T$652     .dwtag  DW_TAG_typedef
    2659                            .dwattr $C$DW$T$652, DW_AT_name("CT__ti_sysbios_BIOS_RtsGateProxy_Module__gatePrms")
    2660                            .dwattr $C$DW$T$652, DW_AT_type(*$C$DW$T$330)
    2661                            .dwattr $C$DW$T$652, DW_AT_language(DW_LANG_C)
    2662                            .dwattr $C$DW$T$652, DW_AT_decl_file("C:/ti/simplelink_cc13x0_sdk_2_30_00_20/kernel/tirtos/pac
    2663                            .dwattr $C$DW$T$652, DW_AT_decl_line(0x71)
    2664                            .dwattr $C$DW$T$652, DW_AT_decl_column(0x11)
    2665                    
    2666                    $C$DW$T$653     .dwtag  DW_TAG_typedef
    2667                            .dwattr $C$DW$T$653, DW_AT_name("CT__ti_sysbios_BIOS_RtsGateProxy_Module__loggerObj")
    2668                            .dwattr $C$DW$T$653, DW_AT_type(*$C$DW$T$330)
    2669                            .dwattr $C$DW$T$653, DW_AT_language(DW_LANG_C)
    2670                            .dwattr $C$DW$T$653, DW_AT_decl_file("C:/ti/simplelink_cc13x0_sdk_2_30_00_20/kernel/tirtos/pac
    2671                            .dwattr $C$DW$T$653, DW_AT_decl_line(0x8c)
    2672                            .dwattr $C$DW$T$653, DW_AT_decl_column(0x11)
    2673                    
    2674                    $C$DW$T$654     .dwtag  DW_TAG_typedef
    2675                            .dwattr $C$DW$T$654, DW_AT_name("CT__ti_sysbios_BIOS_RtsGateProxy_Object__table")
    2676                            .dwattr $C$DW$T$654, DW_AT_type(*$C$DW$T$330)
    2677                            .dwattr $C$DW$T$654, DW_AT_language(DW_LANG_C)
    2678                            .dwattr $C$DW$T$654, DW_AT_decl_file("C:/ti/simplelink_cc13x0_sdk_2_30_00_20/kernel/tirtos/pac
    2679                            .dwattr $C$DW$T$654, DW_AT_decl_line(0xdd)
    2680                            .dwattr $C$DW$T$654, DW_AT_decl_column(0x11)
    2681                    
    2682                    $C$DW$T$655     .dwtag  DW_TAG_typedef
    2683                            .dwattr $C$DW$T$655, DW_AT_name("CT__ti_sysbios_family_arm_m3_Hwi_Module__gateObj")
TI ARM Assembler PC v16.9.9 Sun Nov 25 19:10:02 2018

Tools Copyright (c) 1996-2017 Texas Instruments Incorporated
C:\Users\Stryd\AppData\Local\Temp\{A794D619-A51F-4E6F-9B47-EF132169661C} PAGE   50

    2684                            .dwattr $C$DW$T$655, DW_AT_type(*$C$DW$T$330)
    2685                            .dwattr $C$DW$T$655, DW_AT_language(DW_LANG_C)
    2686                            .dwattr $C$DW$T$655, DW_AT_decl_file("C:/ti/simplelink_cc13x0_sdk_2_30_00_20/kernel/tirtos/pac
    2687                            .dwattr $C$DW$T$655, DW_AT_decl_line(0x19b)
    2688                            .dwattr $C$DW$T$655, DW_AT_decl_column(0x11)
    2689                    
    2690                    $C$DW$T$656     .dwtag  DW_TAG_typedef
    2691                            .dwattr $C$DW$T$656, DW_AT_name("CT__ti_sysbios_family_arm_m3_Hwi_Module__gatePrms")
    2692                            .dwattr $C$DW$T$656, DW_AT_type(*$C$DW$T$330)
    2693                            .dwattr $C$DW$T$656, DW_AT_language(DW_LANG_C)
    2694                            .dwattr $C$DW$T$656, DW_AT_decl_file("C:/ti/simplelink_cc13x0_sdk_2_30_00_20/kernel/tirtos/pac
    2695                            .dwattr $C$DW$T$656, DW_AT_decl_line(0x1a4)
    2696                            .dwattr $C$DW$T$656, DW_AT_decl_column(0x11)
    2697                    
    2698                    $C$DW$T$657     .dwtag  DW_TAG_typedef
    2699                            .dwattr $C$DW$T$657, DW_AT_name("CT__ti_sysbios_family_arm_m3_Hwi_Module__loggerObj")
    2700                            .dwattr $C$DW$T$657, DW_AT_type(*$C$DW$T$330)
    2701                            .dwattr $C$DW$T$657, DW_AT_language(DW_LANG_C)
    2702                            .dwattr $C$DW$T$657, DW_AT_decl_file("C:/ti/simplelink_cc13x0_sdk_2_30_00_20/kernel/tirtos/pac
    2703                            .dwattr $C$DW$T$657, DW_AT_decl_line(0x1bf)
    2704                            .dwattr $C$DW$T$657, DW_AT_decl_column(0x11)
    2705                    
    2706                    $C$DW$T$658     .dwtag  DW_TAG_typedef
    2707                            .dwattr $C$DW$T$658, DW_AT_name("CT__ti_sysbios_family_arm_m3_Hwi_Object__table")
    2708                            .dwattr $C$DW$T$658, DW_AT_type(*$C$DW$T$330)
    2709                            .dwattr $C$DW$T$658, DW_AT_language(DW_LANG_C)
    2710                            .dwattr $C$DW$T$658, DW_AT_decl_file("C:/ti/simplelink_cc13x0_sdk_2_30_00_20/kernel/tirtos/pac
    2711                            .dwattr $C$DW$T$658, DW_AT_decl_line(0x210)
    2712                            .dwattr $C$DW$T$658, DW_AT_decl_column(0x11)
    2713                    
    2714                    $C$DW$T$659     .dwtag  DW_TAG_typedef
    2715                            .dwattr $C$DW$T$659, DW_AT_name("CT__ti_sysbios_hal_Hwi_HwiProxy_Module__gateObj")
    2716                            .dwattr $C$DW$T$659, DW_AT_type(*$C$DW$T$330)
    2717                            .dwattr $C$DW$T$659, DW_AT_language(DW_LANG_C)
    2718                            .dwattr $C$DW$T$659, DW_AT_decl_file("C:/ti/simplelink_cc13x0_sdk_2_30_00_20/kernel/tirtos/pac
    2719                            .dwattr $C$DW$T$659, DW_AT_decl_line(0x7d)
    2720                            .dwattr $C$DW$T$659, DW_AT_decl_column(0x11)
    2721                    
    2722                    $C$DW$T$660     .dwtag  DW_TAG_typedef
    2723                            .dwattr $C$DW$T$660, DW_AT_name("CT__ti_sysbios_hal_Hwi_HwiProxy_Module__gatePrms")
    2724                            .dwattr $C$DW$T$660, DW_AT_type(*$C$DW$T$330)
    2725                            .dwattr $C$DW$T$660, DW_AT_language(DW_LANG_C)
    2726                            .dwattr $C$DW$T$660, DW_AT_decl_file("C:/ti/simplelink_cc13x0_sdk_2_30_00_20/kernel/tirtos/pac
    2727                            .dwattr $C$DW$T$660, DW_AT_decl_line(0x86)
    2728                            .dwattr $C$DW$T$660, DW_AT_decl_column(0x11)
    2729                    
    2730                    $C$DW$T$661     .dwtag  DW_TAG_typedef
    2731                            .dwattr $C$DW$T$661, DW_AT_name("CT__ti_sysbios_hal_Hwi_HwiProxy_Module__loggerObj")
    2732                            .dwattr $C$DW$T$661, DW_AT_type(*$C$DW$T$330)
    2733                            .dwattr $C$DW$T$661, DW_AT_language(DW_LANG_C)
    2734                            .dwattr $C$DW$T$661, DW_AT_decl_file("C:/ti/simplelink_cc13x0_sdk_2_30_00_20/kernel/tirtos/pac
    2735                            .dwattr $C$DW$T$661, DW_AT_decl_line(0xa1)
    2736                            .dwattr $C$DW$T$661, DW_AT_decl_column(0x11)
    2737                    
    2738                    $C$DW$T$662     .dwtag  DW_TAG_typedef
TI ARM Assembler PC v16.9.9 Sun Nov 25 19:10:02 2018

Tools Copyright (c) 1996-2017 Texas Instruments Incorporated
C:\Users\Stryd\AppData\Local\Temp\{A794D619-A51F-4E6F-9B47-EF132169661C} PAGE   51

    2739                            .dwattr $C$DW$T$662, DW_AT_name("CT__ti_sysbios_hal_Hwi_HwiProxy_Object__table")
    2740                            .dwattr $C$DW$T$662, DW_AT_type(*$C$DW$T$330)
    2741                            .dwattr $C$DW$T$662, DW_AT_language(DW_LANG_C)
    2742                            .dwattr $C$DW$T$662, DW_AT_decl_file("C:/ti/simplelink_cc13x0_sdk_2_30_00_20/kernel/tirtos/pac
    2743                            .dwattr $C$DW$T$662, DW_AT_decl_line(0xf2)
    2744                            .dwattr $C$DW$T$662, DW_AT_decl_column(0x11)
    2745                    
    2746                    $C$DW$T$663     .dwtag  DW_TAG_typedef
    2747                            .dwattr $C$DW$T$663, DW_AT_name("CT__ti_sysbios_hal_Hwi_Module__gateObj")
    2748                            .dwattr $C$DW$T$663, DW_AT_type(*$C$DW$T$330)
    2749                            .dwattr $C$DW$T$663, DW_AT_language(DW_LANG_C)
    2750                            .dwattr $C$DW$T$663, DW_AT_decl_file("C:/ti/simplelink_cc13x0_sdk_2_30_00_20/kernel/tirtos/pac
    2751                            .dwattr $C$DW$T$663, DW_AT_decl_line(0x96)
    2752                            .dwattr $C$DW$T$663, DW_AT_decl_column(0x11)
    2753                    
    2754                    $C$DW$T$664     .dwtag  DW_TAG_typedef
    2755                            .dwattr $C$DW$T$664, DW_AT_name("CT__ti_sysbios_hal_Hwi_Module__gatePrms")
    2756                            .dwattr $C$DW$T$664, DW_AT_type(*$C$DW$T$330)
    2757                            .dwattr $C$DW$T$664, DW_AT_language(DW_LANG_C)
    2758                            .dwattr $C$DW$T$664, DW_AT_decl_file("C:/ti/simplelink_cc13x0_sdk_2_30_00_20/kernel/tirtos/pac
    2759                            .dwattr $C$DW$T$664, DW_AT_decl_line(0x9f)
    2760                            .dwattr $C$DW$T$664, DW_AT_decl_column(0x11)
    2761                    
    2762                    $C$DW$T$665     .dwtag  DW_TAG_typedef
    2763                            .dwattr $C$DW$T$665, DW_AT_name("CT__ti_sysbios_hal_Hwi_Module__loggerObj")
    2764                            .dwattr $C$DW$T$665, DW_AT_type(*$C$DW$T$330)
    2765                            .dwattr $C$DW$T$665, DW_AT_language(DW_LANG_C)
    2766                            .dwattr $C$DW$T$665, DW_AT_decl_file("C:/ti/simplelink_cc13x0_sdk_2_30_00_20/kernel/tirtos/pac
    2767                            .dwattr $C$DW$T$665, DW_AT_decl_line(0xba)
    2768                            .dwattr $C$DW$T$665, DW_AT_decl_column(0x11)
    2769                    
    2770                    $C$DW$T$666     .dwtag  DW_TAG_typedef
    2771                            .dwattr $C$DW$T$666, DW_AT_name("CT__ti_sysbios_hal_Hwi_Object__table")
    2772                            .dwattr $C$DW$T$666, DW_AT_type(*$C$DW$T$330)
    2773                            .dwattr $C$DW$T$666, DW_AT_language(DW_LANG_C)
    2774                            .dwattr $C$DW$T$666, DW_AT_decl_file("C:/ti/simplelink_cc13x0_sdk_2_30_00_20/kernel/tirtos/pac
    2775                            .dwattr $C$DW$T$666, DW_AT_decl_line(0x10b)
    2776                            .dwattr $C$DW$T$666, DW_AT_decl_column(0x11)
    2777                    
    2778                    $C$DW$T$667     .dwtag  DW_TAG_typedef
    2779                            .dwattr $C$DW$T$667, DW_AT_name("CT__xdc_runtime_Assert_Module__gateObj")
    2780                            .dwattr $C$DW$T$667, DW_AT_type(*$C$DW$T$330)
    2781                            .dwattr $C$DW$T$667, DW_AT_language(DW_LANG_C)
    2782                            .dwattr $C$DW$T$667, DW_AT_decl_file("C:/ti/xdctools_3_50_08_24_core/packages/xdc/runtime/Asse
    2783                            .dwattr $C$DW$T$667, DW_AT_decl_line(0x69)
    2784                            .dwattr $C$DW$T$667, DW_AT_decl_column(0x11)
    2785                    
    2786                    $C$DW$T$668     .dwtag  DW_TAG_typedef
    2787                            .dwattr $C$DW$T$668, DW_AT_name("CT__xdc_runtime_Assert_Module__gatePrms")
    2788                            .dwattr $C$DW$T$668, DW_AT_type(*$C$DW$T$330)
    2789                            .dwattr $C$DW$T$668, DW_AT_language(DW_LANG_C)
    2790                            .dwattr $C$DW$T$668, DW_AT_decl_file("C:/ti/xdctools_3_50_08_24_core/packages/xdc/runtime/Asse
    2791                            .dwattr $C$DW$T$668, DW_AT_decl_line(0x72)
    2792                            .dwattr $C$DW$T$668, DW_AT_decl_column(0x11)
    2793                    
TI ARM Assembler PC v16.9.9 Sun Nov 25 19:10:02 2018

Tools Copyright (c) 1996-2017 Texas Instruments Incorporated
C:\Users\Stryd\AppData\Local\Temp\{A794D619-A51F-4E6F-9B47-EF132169661C} PAGE   52

    2794                    $C$DW$T$669     .dwtag  DW_TAG_typedef
    2795                            .dwattr $C$DW$T$669, DW_AT_name("CT__xdc_runtime_Assert_Module__loggerObj")
    2796                            .dwattr $C$DW$T$669, DW_AT_type(*$C$DW$T$330)
    2797                            .dwattr $C$DW$T$669, DW_AT_language(DW_LANG_C)
    2798                            .dwattr $C$DW$T$669, DW_AT_decl_file("C:/ti/xdctools_3_50_08_24_core/packages/xdc/runtime/Asse
    2799                            .dwattr $C$DW$T$669, DW_AT_decl_line(0x8d)
    2800                            .dwattr $C$DW$T$669, DW_AT_decl_column(0x11)
    2801                    
    2802                    $C$DW$T$670     .dwtag  DW_TAG_typedef
    2803                            .dwattr $C$DW$T$670, DW_AT_name("CT__xdc_runtime_Assert_Object__table")
    2804                            .dwattr $C$DW$T$670, DW_AT_type(*$C$DW$T$330)
    2805                            .dwattr $C$DW$T$670, DW_AT_language(DW_LANG_C)
    2806                            .dwattr $C$DW$T$670, DW_AT_decl_file("C:/ti/xdctools_3_50_08_24_core/packages/xdc/runtime/Asse
    2807                            .dwattr $C$DW$T$670, DW_AT_decl_line(0xde)
    2808                            .dwattr $C$DW$T$670, DW_AT_decl_column(0x11)
    2809                    
    2810                    $C$DW$T$671     .dwtag  DW_TAG_typedef
    2811                            .dwattr $C$DW$T$671, DW_AT_name("CT__xdc_runtime_Diags_Module__gateObj")
    2812                            .dwattr $C$DW$T$671, DW_AT_type(*$C$DW$T$330)
    2813                            .dwattr $C$DW$T$671, DW_AT_language(DW_LANG_C)
    2814                            .dwattr $C$DW$T$671, DW_AT_decl_file("C:/ti/xdctools_3_50_08_24_core/packages/xdc/runtime/Diag
    2815                            .dwattr $C$DW$T$671, DW_AT_decl_line(0xbe)
    2816                            .dwattr $C$DW$T$671, DW_AT_decl_column(0x11)
    2817                    
    2818                    $C$DW$T$672     .dwtag  DW_TAG_typedef
    2819                            .dwattr $C$DW$T$672, DW_AT_name("CT__xdc_runtime_Diags_Module__gatePrms")
    2820                            .dwattr $C$DW$T$672, DW_AT_type(*$C$DW$T$330)
    2821                            .dwattr $C$DW$T$672, DW_AT_language(DW_LANG_C)
    2822                            .dwattr $C$DW$T$672, DW_AT_decl_file("C:/ti/xdctools_3_50_08_24_core/packages/xdc/runtime/Diag
    2823                            .dwattr $C$DW$T$672, DW_AT_decl_line(0xc7)
    2824                            .dwattr $C$DW$T$672, DW_AT_decl_column(0x11)
    2825                    
    2826                    $C$DW$T$673     .dwtag  DW_TAG_typedef
    2827                            .dwattr $C$DW$T$673, DW_AT_name("CT__xdc_runtime_Diags_Module__loggerObj")
    2828                            .dwattr $C$DW$T$673, DW_AT_type(*$C$DW$T$330)
    2829                            .dwattr $C$DW$T$673, DW_AT_language(DW_LANG_C)
    2830                            .dwattr $C$DW$T$673, DW_AT_decl_file("C:/ti/xdctools_3_50_08_24_core/packages/xdc/runtime/Diag
    2831                            .dwattr $C$DW$T$673, DW_AT_decl_line(0xe2)
    2832                            .dwattr $C$DW$T$673, DW_AT_decl_column(0x11)
    2833                    
    2834                    $C$DW$T$674     .dwtag  DW_TAG_typedef
    2835                            .dwattr $C$DW$T$674, DW_AT_name("CT__xdc_runtime_Diags_Object__table")
    2836                            .dwattr $C$DW$T$674, DW_AT_type(*$C$DW$T$330)
    2837                            .dwattr $C$DW$T$674, DW_AT_language(DW_LANG_C)
    2838                            .dwattr $C$DW$T$674, DW_AT_decl_file("C:/ti/xdctools_3_50_08_24_core/packages/xdc/runtime/Diag
    2839                            .dwattr $C$DW$T$674, DW_AT_decl_line(0x133)
    2840                            .dwattr $C$DW$T$674, DW_AT_decl_column(0x11)
    2841                    
    2842                    $C$DW$T$675     .dwtag  DW_TAG_typedef
    2843                            .dwattr $C$DW$T$675, DW_AT_name("CT__xdc_runtime_Error_Module__gateObj")
    2844                            .dwattr $C$DW$T$675, DW_AT_type(*$C$DW$T$330)
    2845                            .dwattr $C$DW$T$675, DW_AT_language(DW_LANG_C)
    2846                            .dwattr $C$DW$T$675, DW_AT_decl_file("C:/ti/xdctools_3_50_08_24_core/packages/xdc/runtime/Erro
    2847                            .dwattr $C$DW$T$675, DW_AT_decl_line(0x8d)
    2848                            .dwattr $C$DW$T$675, DW_AT_decl_column(0x11)
TI ARM Assembler PC v16.9.9 Sun Nov 25 19:10:02 2018

Tools Copyright (c) 1996-2017 Texas Instruments Incorporated
C:\Users\Stryd\AppData\Local\Temp\{A794D619-A51F-4E6F-9B47-EF132169661C} PAGE   53

    2849                    
    2850                    $C$DW$T$676     .dwtag  DW_TAG_typedef
    2851                            .dwattr $C$DW$T$676, DW_AT_name("CT__xdc_runtime_Error_Module__gatePrms")
    2852                            .dwattr $C$DW$T$676, DW_AT_type(*$C$DW$T$330)
    2853                            .dwattr $C$DW$T$676, DW_AT_language(DW_LANG_C)
    2854                            .dwattr $C$DW$T$676, DW_AT_decl_file("C:/ti/xdctools_3_50_08_24_core/packages/xdc/runtime/Erro
    2855                            .dwattr $C$DW$T$676, DW_AT_decl_line(0x96)
    2856                            .dwattr $C$DW$T$676, DW_AT_decl_column(0x11)
    2857                    
    2858                    $C$DW$T$677     .dwtag  DW_TAG_typedef
    2859                            .dwattr $C$DW$T$677, DW_AT_name("CT__xdc_runtime_Error_Module__loggerObj")
