TI ARM Assembler PC v16.9.9 Sun Nov 25 19:10:06 2018

Tools Copyright (c) 1996-2017 Texas Instruments Incorporated
C:\Users\Stryd\AppData\Local\Temp\{6FE13B51-C70D-4DF2-8F05-648F609965C3} PAGE    1

       1                    ;******************************************************************************
       2                    ;* TI ARM C/C++ Codegen                                        PC v16.9.9.LTS *
       3                    ;* Date/Time created: Sun Nov 25 19:10:05 2018                                *
       4                    ;******************************************************************************
       5                            .compiler_opts --abi=eabi --arm_vmrs_si_workaround=off --code_state=16 --diag_wrap=off --embed
       6 00000000                   .thumb
       7                    
       8                    $C$DW$CU        .dwtag  DW_TAG_compile_unit
       9                            .dwattr $C$DW$CU, DW_AT_name("../Application/Services/nvoctp.c")
      10                            .dwattr $C$DW$CU, DW_AT_producer("TI TI ARM C/C++ Codegen PC v16.9.9.LTS Copyright (c) 1996-20
      11                            .dwattr $C$DW$CU, DW_AT_TI_version(0x01)
      12                            .dwattr $C$DW$CU, DW_AT_comp_dir("C:\CCSWorkspace\ECG603\sensor_cc1350lp_Lab5Part2\sensor_cc13
      13                    
      14                    $C$DW$1 .dwtag  DW_TAG_subprogram
      15                            .dwattr $C$DW$1, DW_AT_name("memset")
      16                            .dwattr $C$DW$1, DW_AT_TI_symbol_name("memset")
      17                            .dwattr $C$DW$1, DW_AT_type(*$C$DW$T$3)
      18                            .dwattr $C$DW$1, DW_AT_declaration
      19                            .dwattr $C$DW$1, DW_AT_external
      20                            .dwattr $C$DW$1, DW_AT_decl_file("C:/ti/ccsv7/tools/compiler/ti-cgt-arm_16.9.9.LTS/include/str
      21                            .dwattr $C$DW$1, DW_AT_decl_line(0x71)
      22                            .dwattr $C$DW$1, DW_AT_decl_column(0x16)
      23                    $C$DW$2 .dwtag  DW_TAG_formal_parameter
      24                            .dwattr $C$DW$2, DW_AT_type(*$C$DW$T$3)
      25                    
      26                    $C$DW$3 .dwtag  DW_TAG_formal_parameter
      27                            .dwattr $C$DW$3, DW_AT_type(*$C$DW$T$10)
      28                    
      29                    $C$DW$4 .dwtag  DW_TAG_formal_parameter
      30                            .dwattr $C$DW$4, DW_AT_type(*$C$DW$T$221)
      31                    
      32                            .dwendtag $C$DW$1
      33                    
      34                    
      35                    $C$DW$5 .dwtag  DW_TAG_subprogram
      36                            .dwattr $C$DW$5, DW_AT_name("ti_sysbios_knl_Semaphore_create")
      37                            .dwattr $C$DW$5, DW_AT_TI_symbol_name("ti_sysbios_knl_Semaphore_create")
      38                            .dwattr $C$DW$5, DW_AT_type(*$C$DW$T$821)
      39                            .dwattr $C$DW$5, DW_AT_declaration
      40                            .dwattr $C$DW$5, DW_AT_external
      41                            .dwattr $C$DW$5, DW_AT_decl_file("C:/ti/simplelink_cc13x0_sdk_2_30_00_20/kernel/tirtos/package
      42                            .dwattr $C$DW$5, DW_AT_decl_line(0x1a6)
      43                            .dwattr $C$DW$5, DW_AT_decl_column(0x2a)
      44                    $C$DW$6 .dwtag  DW_TAG_formal_parameter
      45                            .dwattr $C$DW$6, DW_AT_type(*$C$DW$T$328)
      46                    
      47                    $C$DW$7 .dwtag  DW_TAG_formal_parameter
      48                            .dwattr $C$DW$7, DW_AT_type(*$C$DW$T$1649)
      49                    
      50                    $C$DW$8 .dwtag  DW_TAG_formal_parameter
      51                            .dwattr $C$DW$8, DW_AT_type(*$C$DW$T$356)
      52                    
      53                            .dwendtag $C$DW$5
      54                    
      55                    
TI ARM Assembler PC v16.9.9 Sun Nov 25 19:10:06 2018

Tools Copyright (c) 1996-2017 Texas Instruments Incorporated
C:\Users\Stryd\AppData\Local\Temp\{6FE13B51-C70D-4DF2-8F05-648F609965C3} PAGE    2

      56                    $C$DW$9 .dwtag  DW_TAG_subprogram
      57                            .dwattr $C$DW$9, DW_AT_name("ti_sysbios_knl_Semaphore_Params__init__S")
      58                            .dwattr $C$DW$9, DW_AT_TI_symbol_name("ti_sysbios_knl_Semaphore_Params__init__S")
      59                            .dwattr $C$DW$9, DW_AT_declaration
      60                            .dwattr $C$DW$9, DW_AT_external
      61                            .dwattr $C$DW$9, DW_AT_decl_file("C:/ti/simplelink_cc13x0_sdk_2_30_00_20/kernel/tirtos/package
      62                            .dwattr $C$DW$9, DW_AT_decl_line(0x1d2)
      63                            .dwattr $C$DW$9, DW_AT_decl_column(0x13)
      64                    $C$DW$10        .dwtag  DW_TAG_formal_parameter
      65                            .dwattr $C$DW$10, DW_AT_type(*$C$DW$T$353)
      66                    
      67                    $C$DW$11        .dwtag  DW_TAG_formal_parameter
      68                            .dwattr $C$DW$11, DW_AT_type(*$C$DW$T$289)
      69                    
      70                    $C$DW$12        .dwtag  DW_TAG_formal_parameter
      71                            .dwattr $C$DW$12, DW_AT_type(*$C$DW$T$365)
      72                    
      73                    $C$DW$13        .dwtag  DW_TAG_formal_parameter
      74                            .dwattr $C$DW$13, DW_AT_type(*$C$DW$T$365)
      75                    
      76                            .dwendtag $C$DW$9
      77                    
      78                    
      79                    $C$DW$14        .dwtag  DW_TAG_subprogram
      80                            .dwattr $C$DW$14, DW_AT_name("ti_sysbios_knl_Semaphore_pend__E")
      81                            .dwattr $C$DW$14, DW_AT_TI_symbol_name("ti_sysbios_knl_Semaphore_pend__E")
      82                            .dwattr $C$DW$14, DW_AT_type(*$C$DW$T$327)
      83                            .dwattr $C$DW$14, DW_AT_declaration
      84                            .dwattr $C$DW$14, DW_AT_external
      85                            .dwattr $C$DW$14, DW_AT_decl_file("C:/ti/simplelink_cc13x0_sdk_2_30_00_20/kernel/tirtos/packag
      86                            .dwattr $C$DW$14, DW_AT_decl_line(0x1dc)
      87                            .dwattr $C$DW$14, DW_AT_decl_column(0x13)
      88                    $C$DW$15        .dwtag  DW_TAG_formal_parameter
      89                            .dwattr $C$DW$15, DW_AT_type(*$C$DW$T$821)
      90                    
      91                    $C$DW$16        .dwtag  DW_TAG_formal_parameter
      92                            .dwattr $C$DW$16, DW_AT_type(*$C$DW$T$388)
      93                    
      94                            .dwendtag $C$DW$14
      95                    
      96                    
      97                    $C$DW$17        .dwtag  DW_TAG_subprogram
      98                            .dwattr $C$DW$17, DW_AT_name("ti_sysbios_knl_Semaphore_post__E")
      99                            .dwattr $C$DW$17, DW_AT_TI_symbol_name("ti_sysbios_knl_Semaphore_post__E")
     100                            .dwattr $C$DW$17, DW_AT_declaration
     101                            .dwattr $C$DW$17, DW_AT_external
     102                            .dwattr $C$DW$17, DW_AT_decl_file("C:/ti/simplelink_cc13x0_sdk_2_30_00_20/kernel/tirtos/packag
     103                            .dwattr $C$DW$17, DW_AT_decl_line(0x1e1)
     104                            .dwattr $C$DW$17, DW_AT_decl_column(0x13)
     105                    $C$DW$18        .dwtag  DW_TAG_formal_parameter
     106                            .dwattr $C$DW$18, DW_AT_type(*$C$DW$T$821)
     107                    
     108                            .dwendtag $C$DW$17
     109                    
     110                    
TI ARM Assembler PC v16.9.9 Sun Nov 25 19:10:06 2018

Tools Copyright (c) 1996-2017 Texas Instruments Incorporated
C:\Users\Stryd\AppData\Local\Temp\{6FE13B51-C70D-4DF2-8F05-648F609965C3} PAGE    3

     111                    $C$DW$19        .dwtag  DW_TAG_subprogram
     112                            .dwattr $C$DW$19, DW_AT_name("NOROM_FlashSectorErase")
     113                            .dwattr $C$DW$19, DW_AT_TI_symbol_name("NOROM_FlashSectorErase")
     114                            .dwattr $C$DW$19, DW_AT_type(*$C$DW$T$124)
     115                            .dwattr $C$DW$19, DW_AT_declaration
     116                            .dwattr $C$DW$19, DW_AT_external
     117                            .dwattr $C$DW$19, DW_AT_decl_file("C:/ti/simplelink_cc13x0_sdk_2_30_00_20/source/ti/devices/cc
     118                            .dwattr $C$DW$19, DW_AT_decl_line(0x2a0)
     119                            .dwattr $C$DW$19, DW_AT_decl_column(0x11)
     120                    $C$DW$20        .dwtag  DW_TAG_formal_parameter
     121                            .dwattr $C$DW$20, DW_AT_type(*$C$DW$T$124)
     122                    
     123                            .dwendtag $C$DW$19
     124                    
     125                    
     126                    $C$DW$21        .dwtag  DW_TAG_subprogram
     127                            .dwattr $C$DW$21, DW_AT_name("NOROM_FlashProgram")
     128                            .dwattr $C$DW$21, DW_AT_TI_symbol_name("NOROM_FlashProgram")
     129                            .dwattr $C$DW$21, DW_AT_type(*$C$DW$T$124)
     130                            .dwattr $C$DW$21, DW_AT_declaration
     131                            .dwattr $C$DW$21, DW_AT_external
     132                            .dwattr $C$DW$21, DW_AT_decl_file("C:/ti/simplelink_cc13x0_sdk_2_30_00_20/source/ti/devices/cc
     133                            .dwattr $C$DW$21, DW_AT_decl_line(0x2ca)
     134                            .dwattr $C$DW$21, DW_AT_decl_column(0x11)
     135                    $C$DW$22        .dwtag  DW_TAG_formal_parameter
     136                            .dwattr $C$DW$22, DW_AT_type(*$C$DW$T$130)
     137                    
     138                    $C$DW$23        .dwtag  DW_TAG_formal_parameter
     139                            .dwattr $C$DW$23, DW_AT_type(*$C$DW$T$124)
     140                    
     141                    $C$DW$24        .dwtag  DW_TAG_formal_parameter
     142                            .dwattr $C$DW$24, DW_AT_type(*$C$DW$T$124)
     143                    
     144                            .dwendtag $C$DW$21
     145                    
     146                    
     147                    $C$DW$25        .dwtag  DW_TAG_subprogram
     148                            .dwattr $C$DW$25, DW_AT_name("PWRMON_check")
     149                            .dwattr $C$DW$25, DW_AT_TI_symbol_name("PWRMON_check")
     150                            .dwattr $C$DW$25, DW_AT_type(*$C$DW$T$242)
     151                            .dwattr $C$DW$25, DW_AT_declaration
     152                            .dwattr $C$DW$25, DW_AT_external
     153                            .dwattr $C$DW$25, DW_AT_decl_file("C:/ti/simplelink_cc13x0_sdk_2_30_00_20/source/ti/ti154stack
     154                            .dwattr $C$DW$25, DW_AT_decl_line(0x63)
     155                            .dwattr $C$DW$25, DW_AT_decl_column(0x0d)
     156                    $C$DW$26        .dwtag  DW_TAG_formal_parameter
     157                            .dwattr $C$DW$26, DW_AT_type(*$C$DW$T$125)
     158                    
     159                            .dwendtag $C$DW$25
     160                    
     161                    
     162                    $C$DW$27        .dwtag  DW_TAG_subprogram
     163                            .dwattr $C$DW$27, DW_AT_name("NOROM_VIMSModeGet")
     164                            .dwattr $C$DW$27, DW_AT_TI_symbol_name("NOROM_VIMSModeGet")
     165                            .dwattr $C$DW$27, DW_AT_type(*$C$DW$T$124)
TI ARM Assembler PC v16.9.9 Sun Nov 25 19:10:06 2018

Tools Copyright (c) 1996-2017 Texas Instruments Incorporated
C:\Users\Stryd\AppData\Local\Temp\{6FE13B51-C70D-4DF2-8F05-648F609965C3} PAGE    4

     166                            .dwattr $C$DW$27, DW_AT_declaration
     167                            .dwattr $C$DW$27, DW_AT_external
     168                            .dwattr $C$DW$27, DW_AT_decl_file("C:/ti/simplelink_cc13x0_sdk_2_30_00_20/source/ti/devices/cc
     169                            .dwattr $C$DW$27, DW_AT_decl_line(0xe2)
     170                            .dwattr $C$DW$27, DW_AT_decl_column(0x11)
     171                    $C$DW$28        .dwtag  DW_TAG_formal_parameter
     172                            .dwattr $C$DW$28, DW_AT_type(*$C$DW$T$124)
     173                    
     174                            .dwendtag $C$DW$27
     175                    
     176                    $C$DW$29        .dwtag  DW_TAG_variable
     177                            .dwattr $C$DW$29, DW_AT_name("ICall_enterCriticalSection")
     178                            .dwattr $C$DW$29, DW_AT_TI_symbol_name("ICall_enterCriticalSection")
     179                            .dwattr $C$DW$29, DW_AT_type(*$C$DW$T$271)
     180                            .dwattr $C$DW$29, DW_AT_declaration
     181                            .dwattr $C$DW$29, DW_AT_external
     182                            .dwattr $C$DW$29, DW_AT_decl_file("C:/ti/simplelink_cc13x0_sdk_2_30_00_20/source/ti/ti154stack
     183                            .dwattr $C$DW$29, DW_AT_decl_line(0x384)
     184                            .dwattr $C$DW$29, DW_AT_decl_column(0x16)
     185                    
     186                    $C$DW$30        .dwtag  DW_TAG_variable
     187                            .dwattr $C$DW$30, DW_AT_name("ICall_leaveCriticalSection")
     188                            .dwattr $C$DW$30, DW_AT_TI_symbol_name("ICall_leaveCriticalSection")
     189                            .dwattr $C$DW$30, DW_AT_type(*$C$DW$T$274)
     190                            .dwattr $C$DW$30, DW_AT_declaration
     191                            .dwattr $C$DW$30, DW_AT_external
     192                            .dwattr $C$DW$30, DW_AT_decl_file("C:/ti/simplelink_cc13x0_sdk_2_30_00_20/source/ti/ti154stack
     193                            .dwattr $C$DW$30, DW_AT_decl_line(0x387)
     194                            .dwattr $C$DW$30, DW_AT_decl_column(0x16)
     195                    
     196 00000000                   .sect   ".const:diagId"
     197                            .align  2
     198                            .elfsym diagId,SYM_SIZE(6)
     199 00000000           diagId:
     200 00000000 00000000          .bits   0,8                     ; diagId.systemID @ 0
     201 00000000 00000000          .bits   0,8
     202 00000000 00010000          .bits   1,16                    ; diagId.itemID @ 16
     203 00000004 00000000          .bits   0,16                    ; diagId.subID @ 32
     204                    
     205                    $C$DW$31        .dwtag  DW_TAG_variable
     206                            .dwattr $C$DW$31, DW_AT_name("diagId")
     207                            .dwattr $C$DW$31, DW_AT_TI_symbol_name("diagId")
     208                            .dwattr $C$DW$31, DW_AT_type(*$C$DW$T$1506)
     209                            .dwattr $C$DW$31, DW_AT_location[DW_OP_addr diagId]
     210                            .dwattr $C$DW$31, DW_AT_decl_file("../Application/Services/nvoctp.c")
     211                            .dwattr $C$DW$31, DW_AT_decl_line(0x83)
     212                            .dwattr $C$DW$31, DW_AT_decl_column(0x1e)
     213                    
     214 00000000                   .sect   ".data:$O1$$", RW
     215                            .align  4
     216                            .elfsym ||$O1$$||,SYM_SIZE(12)
     217 00000000           ||$O1$$||:
     218 00000000 0000001D          .bits   29,8                    ; $O1$$.nvBegPage @ 0
     219 00000000 00001E1D          .bits   30,8                    ; $O1$$.nvEndPage @ 8
     220 00000000 00001E1D          .bits   0,16
TI ARM Assembler PC v16.9.9 Sun Nov 25 19:10:06 2018

Tools Copyright (c) 1996-2017 Texas Instruments Incorporated
C:\Users\Stryd\AppData\Local\Temp\{6FE13B51-C70D-4DF2-8F05-648F609965C3} PAGE    5

     221 00000004 00000003          .bits   3,8                     ; $O1$$.failF @ 32
     222 00000005                   .space  7
     223                    
     224                    
     225                    ;*********************************************************************
     226                    ;* GROUPED GLOBALS FOR $O1$$                                         *
     227                    ;*********************************************************************
     228          00000000! nvBegPage:      .set    ||$O1$$||+0
     229                    $C$DW$32        .dwtag  DW_TAG_variable
     230                            .dwattr $C$DW$32, DW_AT_name("nvBegPage")
     231                            .dwattr $C$DW$32, DW_AT_TI_symbol_name("nvBegPage")
     232                            .dwattr $C$DW$32, DW_AT_type(*$C$DW$T$1061)
     233                            .dwattr $C$DW$32, DW_AT_location[DW_OP_addr nvBegPage]
     234                            .dwattr $C$DW$32, DW_AT_decl_file("../Application/Services/nvoctp.c")
     235                            .dwattr $C$DW$32, DW_AT_decl_line(0x123)
     236                            .dwattr $C$DW$32, DW_AT_decl_column(0x10)
     237                    
     238          00000001! nvEndPage:      .set    ||$O1$$||+1
     239                    $C$DW$33        .dwtag  DW_TAG_variable
     240                            .dwattr $C$DW$33, DW_AT_name("nvEndPage")
     241                            .dwattr $C$DW$33, DW_AT_TI_symbol_name("nvEndPage")
     242                            .dwattr $C$DW$33, DW_AT_type(*$C$DW$T$1061)
     243                            .dwattr $C$DW$33, DW_AT_location[DW_OP_addr nvEndPage]
     244                            .dwattr $C$DW$33, DW_AT_decl_file("../Application/Services/nvoctp.c")
     245                            .dwattr $C$DW$33, DW_AT_decl_line(0x124)
     246                            .dwattr $C$DW$33, DW_AT_decl_column(0x10)
     247                    
     248          00000002! activePg:       .set    ||$O1$$||+2
     249                    $C$DW$34        .dwtag  DW_TAG_variable
     250                            .dwattr $C$DW$34, DW_AT_name("activePg")
     251                            .dwattr $C$DW$34, DW_AT_TI_symbol_name("activePg")
     252                            .dwattr $C$DW$34, DW_AT_type(*$C$DW$T$126)
     253                            .dwattr $C$DW$34, DW_AT_location[DW_OP_addr activePg]
     254                            .dwattr $C$DW$34, DW_AT_decl_file("../Application/Services/nvoctp.c")
     255                            .dwattr $C$DW$34, DW_AT_decl_line(0x127)
     256                            .dwattr $C$DW$34, DW_AT_decl_column(0x10)
     257                    
     258          00000003! pgCycle:        .set    ||$O1$$||+3
     259                    $C$DW$35        .dwtag  DW_TAG_variable
     260                            .dwattr $C$DW$35, DW_AT_name("pgCycle")
     261                            .dwattr $C$DW$35, DW_AT_TI_symbol_name("pgCycle")
     262                            .dwattr $C$DW$35, DW_AT_type(*$C$DW$T$126)
     263                            .dwattr $C$DW$35, DW_AT_location[DW_OP_addr pgCycle]
     264                            .dwattr $C$DW$35, DW_AT_decl_file("../Application/Services/nvoctp.c")
     265                            .dwattr $C$DW$35, DW_AT_decl_line(0x12e)
     266                            .dwattr $C$DW$35, DW_AT_decl_column(0x10)
     267                    
     268          00000004! failF:  .set    ||$O1$$||+4
     269                    $C$DW$36        .dwtag  DW_TAG_variable
     270                            .dwattr $C$DW$36, DW_AT_name("failF")
     271                            .dwattr $C$DW$36, DW_AT_TI_symbol_name("failF")
     272                            .dwattr $C$DW$36, DW_AT_type(*$C$DW$T$126)
     273                            .dwattr $C$DW$36, DW_AT_location[DW_OP_addr failF]
     274                            .dwattr $C$DW$36, DW_AT_decl_file("../Application/Services/nvoctp.c")
     275                            .dwattr $C$DW$36, DW_AT_decl_line(0x133)
TI ARM Assembler PC v16.9.9 Sun Nov 25 19:10:06 2018

Tools Copyright (c) 1996-2017 Texas Instruments Incorporated
C:\Users\Stryd\AppData\Local\Temp\{6FE13B51-C70D-4DF2-8F05-648F609965C3} PAGE    6

     276                            .dwattr $C$DW$36, DW_AT_decl_column(0x10)
     277                    
     278          00000005! failW:  .set    ||$O1$$||+5
     279                    $C$DW$37        .dwtag  DW_TAG_variable
     280                            .dwattr $C$DW$37, DW_AT_name("failW")
     281                            .dwattr $C$DW$37, DW_AT_TI_symbol_name("failW")
     282                            .dwattr $C$DW$37, DW_AT_type(*$C$DW$T$126)
     283                            .dwattr $C$DW$37, DW_AT_location[DW_OP_addr failW]
     284                            .dwattr $C$DW$37, DW_AT_decl_file("../Application/Services/nvoctp.c")
     285                            .dwattr $C$DW$37, DW_AT_decl_line(0x138)
     286                            .dwattr $C$DW$37, DW_AT_decl_column(0x10)
     287                    
     288          00000006! pgOff:  .set    ||$O1$$||+6
     289                    $C$DW$38        .dwtag  DW_TAG_variable
     290                            .dwattr $C$DW$38, DW_AT_name("pgOff")
     291                            .dwattr $C$DW$38, DW_AT_TI_symbol_name("pgOff")
     292                            .dwattr $C$DW$38, DW_AT_type(*$C$DW$T$125)
     293                            .dwattr $C$DW$38, DW_AT_location[DW_OP_addr pgOff]
     294                            .dwattr $C$DW$38, DW_AT_decl_file("../Application/Services/nvoctp.c")
     295                            .dwattr $C$DW$38, DW_AT_decl_line(0x12a)
     296                            .dwattr $C$DW$38, DW_AT_decl_column(0x11)
     297                    
     298          00000008! nvMutex:        .set    ||$O1$$||+8
     299                    $C$DW$39        .dwtag  DW_TAG_variable
     300                            .dwattr $C$DW$39, DW_AT_name("nvMutex")
     301                            .dwattr $C$DW$39, DW_AT_TI_symbol_name("nvMutex")
     302                            .dwattr $C$DW$39, DW_AT_type(*$C$DW$T$821)
     303                            .dwattr $C$DW$39, DW_AT_location[DW_OP_addr nvMutex]
     304                            .dwattr $C$DW$39, DW_AT_decl_file("../Application/Services/nvoctp.c")
     305                            .dwattr $C$DW$39, DW_AT_decl_line(0x13b)
     306                            .dwattr $C$DW$39, DW_AT_decl_column(0x19)
     307                    
     308                    ;       C:\ti\ccsv7\tools\compiler\ti-cgt-arm_16.9.9.LTS\bin\armopt.exe C:/CCSWorkspace/ECG603/sensor_
     309 00000000                   .sect   ".text:NVOCTP_flashRead"
     310                            .clink
     311                            .thumbfunc NVOCTP_flashRead
     312 00000000                   .thumb
     313                    
     314                    $C$DW$40        .dwtag  DW_TAG_subprogram
     315                            .dwattr $C$DW$40, DW_AT_name("NVOCTP_flashRead")
     316                            .dwattr $C$DW$40, DW_AT_low_pc(NVOCTP_flashRead)
     317                            .dwattr $C$DW$40, DW_AT_high_pc(0x00)
     318                            .dwattr $C$DW$40, DW_AT_TI_symbol_name("NVOCTP_flashRead")
     319                            .dwattr $C$DW$40, DW_AT_TI_begin_file("../Application/Services/nvoctp.c")
     320                            .dwattr $C$DW$40, DW_AT_TI_begin_line(0x6e3)
     321                            .dwattr $C$DW$40, DW_AT_TI_begin_column(0x0d)
     322                            .dwattr $C$DW$40, DW_AT_decl_file("../Application/Services/nvoctp.c")
     323                            .dwattr $C$DW$40, DW_AT_decl_line(0x6e3)
     324                            .dwattr $C$DW$40, DW_AT_decl_column(0x0d)
     325                            .dwattr $C$DW$40, DW_AT_TI_max_frame_size(0x00)
     326                            .dwpsn  file "../Application/Services/nvoctp.c",line 1767,column 1,is_stmt,address NVOCTP_flas
     327                    
     328                            .dwfde $C$DW$CIE, NVOCTP_flashRead
     329                    $C$DW$41        .dwtag  DW_TAG_formal_parameter
     330                            .dwattr $C$DW$41, DW_AT_name("pg")
TI ARM Assembler PC v16.9.9 Sun Nov 25 19:10:06 2018

Tools Copyright (c) 1996-2017 Texas Instruments Incorporated
C:\Users\Stryd\AppData\Local\Temp\{6FE13B51-C70D-4DF2-8F05-648F609965C3} PAGE    7

     331                            .dwattr $C$DW$41, DW_AT_TI_symbol_name("pg")
     332                            .dwattr $C$DW$41, DW_AT_type(*$C$DW$T$10)
     333                            .dwattr $C$DW$41, DW_AT_location[DW_OP_reg0]
     334                    
     335                    $C$DW$42        .dwtag  DW_TAG_formal_parameter
     336                            .dwattr $C$DW$42, DW_AT_name("ofs")
     337                            .dwattr $C$DW$42, DW_AT_TI_symbol_name("ofs")
     338                            .dwattr $C$DW$42, DW_AT_type(*$C$DW$T$10)
     339                            .dwattr $C$DW$42, DW_AT_location[DW_OP_reg1]
     340                    
     341                    $C$DW$43        .dwtag  DW_TAG_formal_parameter
     342                            .dwattr $C$DW$43, DW_AT_name("num")
     343                            .dwattr $C$DW$43, DW_AT_TI_symbol_name("num")
     344                            .dwattr $C$DW$43, DW_AT_type(*$C$DW$T$10)
     345                            .dwattr $C$DW$43, DW_AT_location[DW_OP_reg2]
     346                    
     347                    $C$DW$44        .dwtag  DW_TAG_formal_parameter
     348                            .dwattr $C$DW$44, DW_AT_name("pBuf")
     349                            .dwattr $C$DW$44, DW_AT_TI_symbol_name("pBuf")
     350                            .dwattr $C$DW$44, DW_AT_type(*$C$DW$T$130)
     351                            .dwattr $C$DW$44, DW_AT_location[DW_OP_reg3]
     352                    
     353                    
     354                    ;*****************************************************************************
     355                    ;* FUNCTION NAME: NVOCTP_flashRead                                           *
     356                    ;*                                                                           *
     357                    ;*   Regs Modified     : A1,A2,A3,A4,SR                                      *
     358                    ;*   Regs Used         : A1,A2,A3,A4,LR,SR                                   *
     359                    ;*   Local Frame Size  : 0 Args + 0 Auto + 0 Save = 0 byte                   *
     360                    ;*****************************************************************************
     361                    NVOCTP_flashRead:
     362                    ;* --------------------------------------------------------------------------*
     363                    ;* A1    assigned to pg
     364                    $C$DW$45        .dwtag  DW_TAG_variable
     365                            .dwattr $C$DW$45, DW_AT_name("pg")
     366                            .dwattr $C$DW$45, DW_AT_TI_symbol_name("pg")
     367                            .dwattr $C$DW$45, DW_AT_type(*$C$DW$T$1061)
     368                            .dwattr $C$DW$45, DW_AT_location[DW_OP_reg0]
     369                    
     370                    ;* A2    assigned to ofs
     371                    $C$DW$46        .dwtag  DW_TAG_variable
     372                            .dwattr $C$DW$46, DW_AT_name("ofs")
     373                            .dwattr $C$DW$46, DW_AT_TI_symbol_name("ofs")
     374                            .dwattr $C$DW$46, DW_AT_type(*$C$DW$T$1092)
     375                            .dwattr $C$DW$46, DW_AT_location[DW_OP_reg1]
     376                    
     377                    ;* A3    assigned to num
     378                    $C$DW$47        .dwtag  DW_TAG_variable
     379                            .dwattr $C$DW$47, DW_AT_name("num")
     380                            .dwattr $C$DW$47, DW_AT_TI_symbol_name("num")
     381                            .dwattr $C$DW$47, DW_AT_type(*$C$DW$T$125)
     382                            .dwattr $C$DW$47, DW_AT_location[DW_OP_reg2]
     383                    
     384                    ;* A4    assigned to pBuf
     385                    $C$DW$48        .dwtag  DW_TAG_variable
TI ARM Assembler PC v16.9.9 Sun Nov 25 19:10:06 2018

Tools Copyright (c) 1996-2017 Texas Instruments Incorporated
C:\Users\Stryd\AppData\Local\Temp\{6FE13B51-C70D-4DF2-8F05-648F609965C3} PAGE    8

     386                            .dwattr $C$DW$48, DW_AT_name("pBuf")
     387                            .dwattr $C$DW$48, DW_AT_TI_symbol_name("pBuf")
     388                            .dwattr $C$DW$48, DW_AT_type(*$C$DW$T$130)
     389                            .dwattr $C$DW$48, DW_AT_location[DW_OP_reg3]
     390                    
     391                    ;* A2    assigned to addr
     392                    $C$DW$49        .dwtag  DW_TAG_variable
     393                            .dwattr $C$DW$49, DW_AT_name("addr")
     394                            .dwattr $C$DW$49, DW_AT_TI_symbol_name("addr")
     395                            .dwattr $C$DW$49, DW_AT_type(*$C$DW$T$1049)
     396                            .dwattr $C$DW$49, DW_AT_location[DW_OP_reg1]
     397                    
     398                            .dwcfi  cfa_offset, 0
     399                            .dwpsn  file "../Application/Services/nvoctp.c",line 1769,column 17,is_stmt,isa 1
     400 00000000 3100EB01          ADD       A2, A2, A1, LSL #12   ; [DPU_3_PIPE] |1769|  ; [KEEP 32-BIT INS]
     401                            .dwpsn  file "../Application/Services/nvoctp.c",line 1771,column 5,is_stmt,isa 1
     402 00000004 E003              B         ||$C$L2||             ; [DPU_3_PIPE] |1771|  ; [ORIG 16-BIT INS]
     403                            ; BRANCH OCCURS {||$C$L2||}      ; [] |1771| 
     404                    ;* --------------------------------------------------------------------------*
     405 00000006           ||$C$L1||:    
     406                            .dwpsn  file "../Application/Services/nvoctp.c",line 1773,column 9,is_stmt,isa 1
     407 00000006 0B01F811          LDRB      A1, [A2], #1          ; [DPU_3_PIPE] |1773|  ; [KEEP 32-BIT INS]
     408 0000000a 0B01F803          STRB      A1, [A4], #1          ; [DPU_3_PIPE] |1773|  ; [KEEP 32-BIT INS]
     409                    ;* --------------------------------------------------------------------------*
     410                    ;*   BEGIN LOOP ||$C$L2||
     411                    ;* --------------------------------------------------------------------------*
     412 0000000e           ||$C$L2||:    
     413                            .dwpsn  file "../Application/Services/nvoctp.c",line 1771,column 5,is_stmt,isa 1
     414 0000000e 4610              MOV       A1, A3                ; [DPU_3_PIPE] |1771|  ; [ORIG 16-BIT INS]
     415 00000010 1E42              SUBS      A3, A1, #1            ; [DPU_3_PIPE] |1771|  ; [ORIG 16-BIT INS]
     416 00000012 2800              CMP       A1, #0                ; [DPU_3_PIPE] |1771|  ; [ORIG 16-BIT INS]
     417 00000014 B292              UXTH      A3, A3                ; [DPU_3_PIPE] |1771|  ; [ORIG 16-BIT INS]
     418 00000016 D1F6              BNE       ||$C$L1||             ; [DPU_3_PIPE] |1771|  ; [ORIG 16-BIT INS]
     419                            ; BRANCHCC OCCURS {||$C$L1||}    ; [] |1771| 
     420                    ;* --------------------------------------------------------------------------*
     421                    $C$DW$50        .dwtag  DW_TAG_TI_branch
     422                            .dwattr $C$DW$50, DW_AT_low_pc(0x00)
     423                            .dwattr $C$DW$50, DW_AT_TI_return
     424                    
     425 00000018 4770              BX        LR                    ; [DPU_3_PIPE]  ; [ORIG 16-BIT INS]
     426                            ; BRANCH OCCURS                  ; [] 
     427                            .dwattr $C$DW$40, DW_AT_TI_end_file("../Application/Services/nvoctp.c")
     428                            .dwattr $C$DW$40, DW_AT_TI_end_line(0x6ef)
     429                            .dwattr $C$DW$40, DW_AT_TI_end_column(0x01)
     430                            .dwendentry
     431                            .dwendtag $C$DW$40
     432                    
     433 00000000                   .sect   ".text:NVOCTP_readHeader"
     434                            .clink
     435                            .thumbfunc NVOCTP_readHeader
     436 00000000                   .thumb
     437                    
     438                    $C$DW$51        .dwtag  DW_TAG_subprogram
     439                            .dwattr $C$DW$51, DW_AT_name("NVOCTP_readHeader")
     440                            .dwattr $C$DW$51, DW_AT_low_pc(NVOCTP_readHeader)
TI ARM Assembler PC v16.9.9 Sun Nov 25 19:10:06 2018

Tools Copyright (c) 1996-2017 Texas Instruments Incorporated
C:\Users\Stryd\AppData\Local\Temp\{6FE13B51-C70D-4DF2-8F05-648F609965C3} PAGE    9

     441                            .dwattr $C$DW$51, DW_AT_high_pc(0x00)
     442                            .dwattr $C$DW$51, DW_AT_TI_symbol_name("NVOCTP_readHeader")
     443                            .dwattr $C$DW$51, DW_AT_TI_begin_file("../Application/Services/nvoctp.c")
     444                            .dwattr $C$DW$51, DW_AT_TI_begin_line(0x4c3)
     445                            .dwattr $C$DW$51, DW_AT_TI_begin_column(0x0d)
     446                            .dwattr $C$DW$51, DW_AT_decl_file("../Application/Services/nvoctp.c")
     447                            .dwattr $C$DW$51, DW_AT_decl_line(0x4c3)
     448                            .dwattr $C$DW$51, DW_AT_decl_column(0x0d)
     449                            .dwattr $C$DW$51, DW_AT_TI_max_frame_size(0x18)
     450                            .dwpsn  file "../Application/Services/nvoctp.c",line 1222,column 1,is_stmt,address NVOCTP_read
     451                    
     452                            .dwfde $C$DW$CIE, NVOCTP_readHeader
     453                    $C$DW$52        .dwtag  DW_TAG_formal_parameter
     454                            .dwattr $C$DW$52, DW_AT_name("pg")
     455                            .dwattr $C$DW$52, DW_AT_TI_symbol_name("pg")
     456                            .dwattr $C$DW$52, DW_AT_type(*$C$DW$T$10)
     457                            .dwattr $C$DW$52, DW_AT_location[DW_OP_reg0]
     458                    
     459                    $C$DW$53        .dwtag  DW_TAG_formal_parameter
     460                            .dwattr $C$DW$53, DW_AT_name("ofs")
     461                            .dwattr $C$DW$53, DW_AT_TI_symbol_name("ofs")
     462                            .dwattr $C$DW$53, DW_AT_type(*$C$DW$T$10)
     463                            .dwattr $C$DW$53, DW_AT_location[DW_OP_reg1]
     464                    
     465                    $C$DW$54        .dwtag  DW_TAG_formal_parameter
     466                            .dwattr $C$DW$54, DW_AT_name("pHdr")
     467                            .dwattr $C$DW$54, DW_AT_TI_symbol_name("pHdr")
     468                            .dwattr $C$DW$54, DW_AT_type(*$C$DW$T$129)
     469                            .dwattr $C$DW$54, DW_AT_location[DW_OP_reg2]
     470                    
     471                    
     472                    ;*****************************************************************************
     473                    ;* FUNCTION NAME: NVOCTP_readHeader                                          *
     474                    ;*                                                                           *
     475                    ;*   Regs Modified     : A1,A2,A3,A4,V1,V2,V9,SP,LR,SR                       *
     476                    ;*   Regs Used         : A1,A2,A3,A4,V1,V2,V9,SP,LR,SR                       *
     477                    ;*   Local Frame Size  : 0 Args + 8 Auto + 12 Save = 20 byte                 *
     478                    ;*****************************************************************************
     479                    NVOCTP_readHeader:
     480                    ;* --------------------------------------------------------------------------*
     481                    $C$DW$55        .dwtag  DW_TAG_variable
     482                            .dwattr $C$DW$55, DW_AT_name("cHdr")
     483                            .dwattr $C$DW$55, DW_AT_TI_symbol_name("cHdr")
     484                            .dwattr $C$DW$55, DW_AT_type(*$C$DW$T$1057)
     485                            .dwattr $C$DW$55, DW_AT_location[DW_OP_breg13 0]
     486                    
     487                    ;* A4    assigned to $O$C1
     488                    ;* A3    assigned to $O$v3
     489                    ;* A2    assigned to $O$v2
     490                    ;* A1    assigned to $O$v1
     491                    ;* V2    assigned to ofs
     492                    $C$DW$56        .dwtag  DW_TAG_variable
     493                            .dwattr $C$DW$56, DW_AT_name("ofs")
     494                            .dwattr $C$DW$56, DW_AT_TI_symbol_name("ofs")
     495                            .dwattr $C$DW$56, DW_AT_type(*$C$DW$T$1092)
TI ARM Assembler PC v16.9.9 Sun Nov 25 19:10:06 2018

Tools Copyright (c) 1996-2017 Texas Instruments Incorporated
C:\Users\Stryd\AppData\Local\Temp\{6FE13B51-C70D-4DF2-8F05-648F609965C3} PAGE   10

     496                            .dwattr $C$DW$56, DW_AT_location[DW_OP_reg5]
     497                    
     498                    ;* V1    assigned to pHdr
     499                    $C$DW$57        .dwtag  DW_TAG_variable
     500                            .dwattr $C$DW$57, DW_AT_name("pHdr")
     501                            .dwattr $C$DW$57, DW_AT_TI_symbol_name("pHdr")
     502                            .dwattr $C$DW$57, DW_AT_type(*$C$DW$T$668)
     503                            .dwattr $C$DW$57, DW_AT_location[DW_OP_reg4]
     504                    
     505                            .dwcfi  cfa_offset, 0
     506 00000000 B53E              PUSH      {A2, A3, A4, V1, V2, LR} ; [DPU_3_PIPE]  ; [ORIG 16-BIT INS]
     507                            .dwcfi  cfa_offset, 24
     508                            .dwcfi  save_reg_to_mem, 14, -4
     509                            .dwcfi  save_reg_to_mem, 5, -8
     510                            .dwcfi  save_reg_to_mem, 4, -12
     511                            .dwcfi  save_reg_to_mem, 3, -16
     512                            .dwcfi  save_reg_to_mem, 2, -20
     513                            .dwcfi  save_reg_to_mem, 1, -24
     514 00000002 4614              MOV       V1, A3                ; [DPU_3_PIPE] |1222|  ; [ORIG 16-BIT INS]
     515 00000004 460D              MOV       V2, A2                ; [DPU_3_PIPE] |1222|  ; [ORIG 16-BIT INS]
     516                            .dwpsn  file "../Application/Services/nvoctp.c",line 1226,column 5,is_stmt,isa 1
     517 00000006 2205              MOVS      A3, #5                ; [DPU_3_PIPE] |1226|  ; [ORIG 16-BIT INS]
     518 00000008 466B              MOV       A4, SP                ; [DPU_3_PIPE] |1226|  ; [ORIG 16-BIT INS]
     519                    $C$DW$58        .dwtag  DW_TAG_TI_branch
     520                            .dwattr $C$DW$58, DW_AT_low_pc(0x00)
     521                            .dwattr $C$DW$58, DW_AT_name("NVOCTP_flashRead")
     522                            .dwattr $C$DW$58, DW_AT_TI_call
     523                    
     524 0000000a FFFEF7FF!         BL        NVOCTP_flashRead      ; [DPU_3_PIPE] |1226|  ; [KEEP 32-BIT INS]
     525                            ; CALL OCCURS {NVOCTP_flashRead }  ; [] |1226| 
     526                            .dwpsn  file "../Application/Services/nvoctp.c",line 1235,column 5,is_stmt,isa 1
     527 0000000e 1003F89D          LDRB      A2, [SP, #3]          ; [DPU_3_PIPE] |1235|  ; [KEEP 32-BIT INS]
     528 00000012 0004F89D          LDRB      A1, [SP, #4]          ; [DPU_3_PIPE] |1235|  ; [KEEP 32-BIT INS]
     529                            .dwpsn  file "../Application/Services/nvoctp.c",line 1234,column 5,is_stmt,isa 1
     530 00000016 3004F89D          LDRB      A4, [SP, #4]          ; [DPU_3_PIPE] |1234|  ; [KEEP 32-BIT INS]
     531                            .dwpsn  file "../Application/Services/nvoctp.c",line 1229,column 5,is_stmt,isa 1
     532 0000001a 8165              STRH      V2, [V1, #10]         ; [DPU_3_PIPE] |1229|  ; [ORIG 16-BIT INS]
     533                            .dwpsn  file "../Application/Services/nvoctp.c",line 1235,column 5,is_stmt,isa 1
     534 0000001c 010FF001          AND       A2, A2, #15           ; [DPU_3_PIPE] |1235|  ; [KEEP 32-BIT INS]
     535 00000020 1080              ASRS      A1, A1, #2            ; [DPU_3_PIPE] |1235|  ; [ORIG 16-BIT INS]
     536 00000022 1081EA40          ORR       A1, A1, A2, LSL #6    ; [DPU_3_PIPE] |1235|  ; [KEEP 32-BIT INS]
     537                            .dwpsn  file "../Application/Services/nvoctp.c",line 1237,column 5,is_stmt,isa 1
     538 00000026 5001F89D          LDRB      V2, [SP, #1]          ; [DPU_3_PIPE] |1237|  ; [KEEP 32-BIT INS]
     539                            .dwpsn  file "../Application/Services/nvoctp.c",line 1235,column 5,is_stmt,isa 1
     540 0000002a 81A0              STRH      A1, [V1, #12]         ; [DPU_3_PIPE] |1235|  ; [ORIG 16-BIT INS]
     541                            .dwpsn  file "../Application/Services/nvoctp.c",line 1236,column 5,is_stmt,isa 1
     542 0000002c 1003F89D          LDRB      A2, [SP, #3]          ; [DPU_3_PIPE] |1236|  ; [KEEP 32-BIT INS]
     543 00000030 0002F89D          LDRB      A1, [SP, #2]          ; [DPU_3_PIPE] |1236|  ; [KEEP 32-BIT INS]
     544                            .dwpsn  file "../Application/Services/nvoctp.c",line 1234,column 5,is_stmt,isa 1
     545 00000034 0303F003          AND       A4, A4, #3            ; [DPU_3_PIPE] |1234|  ; [KEEP 32-BIT INS]
     546                            .dwpsn  file "../Application/Services/nvoctp.c",line 1236,column 5,is_stmt,isa 1
     547 00000038 110A              ASRS      A3, A2, #4            ; [DPU_3_PIPE] |1236|  ; [ORIG 16-BIT INS]
     548 0000003a 0680              LSLS      A1, A1, #26           ; [DPU_3_PIPE] |1236|  ; [ORIG 16-BIT INS]
     549 0000003c 5290EA42          ORR       A3, A3, A1, LSR #22   ; [DPU_3_PIPE] |1236|  ; [KEEP 32-BIT INS]
     550                            .dwpsn  file "../Application/Services/nvoctp.c",line 1237,column 5,is_stmt,isa 1
TI ARM Assembler PC v16.9.9 Sun Nov 25 19:10:06 2018

Tools Copyright (c) 1996-2017 Texas Instruments Incorporated
C:\Users\Stryd\AppData\Local\Temp\{6FE13B51-C70D-4DF2-8F05-648F609965C3} PAGE   11

     551 00000040 0002F89D          LDRB      A1, [SP, #2]          ; [DPU_3_PIPE] |1237|  ; [KEEP 32-BIT INS]
     552                            .dwpsn  file "../Application/Services/nvoctp.c",line 1234,column 5,is_stmt,isa 1
     553 00000044 7263              STRB      A4, [V1, #9]          ; [DPU_3_PIPE] |1234|  ; [ORIG 16-BIT INS]
     554                            .dwpsn  file "../Application/Services/nvoctp.c",line 1237,column 5,is_stmt,isa 1
     555 00000046 1181              ASRS      A2, A1, #6            ; [DPU_3_PIPE] |1237|  ; [ORIG 16-BIT INS]
     556                            .dwpsn  file "../Application/Services/nvoctp.c",line 1236,column 5,is_stmt,isa 1
     557 00000048 80A2              STRH      A3, [V1, #4]          ; [DPU_3_PIPE] |1236|  ; [ORIG 16-BIT INS]
     558                            .dwpsn  file "../Application/Services/nvoctp.c",line 1237,column 5,is_stmt,isa 1
     559 0000004a 0185EA41          ORR       A2, A2, V2, LSL #2    ; [DPU_3_PIPE] |1237|  ; [KEEP 32-BIT INS]
     560                            .dwpsn  file "../Application/Services/nvoctp.c",line 1238,column 5,is_stmt,isa 1
     561 0000004e 0000F89D          LDRB      A1, [SP, #0]          ; [DPU_3_PIPE] |1238|  ; [KEEP 32-BIT INS]
     562                            .dwpsn  file "../Application/Services/nvoctp.c",line 1239,column 5,is_stmt,isa 1
     563 00000052 5000F89D          LDRB      V2, [SP, #0]          ; [DPU_3_PIPE] |1239|  ; [KEEP 32-BIT INS]
     564                            .dwpsn  file "../Application/Services/nvoctp.c",line 1237,column 5,is_stmt,isa 1
     565 00000056 80E1              STRH      A2, [V1, #6]          ; [DPU_3_PIPE] |1237|  ; [ORIG 16-BIT INS]
     566                            .dwpsn  file "../Application/Services/nvoctp.c",line 1238,column 5,is_stmt,isa 1
     567 00000058 003FF000          AND       A1, A1, #63           ; [DPU_3_PIPE] |1238|  ; [KEEP 32-BIT INS]
     568                            .dwpsn  file "../Application/Services/nvoctp.c",line 1241,column 5,is_stmt,isa 1
     569 0000005c 3100EA41          ORR       A2, A2, A1, LSL #12   ; [DPU_3_PIPE] |1241|  ; [KEEP 32-BIT INS]
     570                            .dwpsn  file "../Application/Services/nvoctp.c",line 1239,column 5,is_stmt,isa 1
     571 00000060 05C0F005          AND       V2, V2, #192          ; [DPU_3_PIPE] |1239|  ; [KEEP 32-BIT INS]
     572                            .dwpsn  file "../Application/Services/nvoctp.c",line 1238,column 5,is_stmt,isa 1
     573 00000064 7220              STRB      A1, [V1, #8]          ; [DPU_3_PIPE] |1238|  ; [ORIG 16-BIT INS]
     574                            .dwpsn  file "../Application/Services/nvoctp.c",line 1241,column 5,is_stmt,isa 1
     575 00000066 3201EA42          ORR       A3, A3, A2, LSL #12   ; [DPU_3_PIPE] |1241|  ; [KEEP 32-BIT INS]
     576 0000006a 6022              STR       A3, [V1, #0]          ; [DPU_3_PIPE] |1241|  ; [ORIG 16-BIT INS]
     577                            .dwpsn  file "../Application/Services/nvoctp.c",line 1239,column 5,is_stmt,isa 1
     578 0000006c 432B              ORRS      A4, A4, V2            ; [DPU_3_PIPE] |1239|  ; [ORIG 16-BIT INS]
     579 0000006e 7263              STRB      A4, [V1, #9]          ; [DPU_3_PIPE] |1239|  ; [ORIG 16-BIT INS]
     580                    $C$DW$59        .dwtag  DW_TAG_TI_branch
     581                            .dwattr $C$DW$59, DW_AT_low_pc(0x00)
     582                            .dwattr $C$DW$59, DW_AT_TI_return
     583                    
     584 00000070 BD3E              POP       {A2, A3, A4, V1, V2, PC} ; [DPU_3_PIPE]  ; [ORIG 16-BIT INS]
     585                            .dwcfi  cfa_offset, 0
     586                            .dwcfi  restore_reg, 5
     587                            .dwcfi  restore_reg, 4
     588                            .dwcfi  restore_reg, 3
     589                            .dwcfi  restore_reg, 2
     590                            .dwcfi  restore_reg, 1
     591                            ; BRANCH OCCURS                  ; [] 
     592                            .dwattr $C$DW$51, DW_AT_TI_end_file("../Application/Services/nvoctp.c")
     593                            .dwattr $C$DW$51, DW_AT_TI_end_line(0x4da)
     594                            .dwattr $C$DW$51, DW_AT_TI_end_column(0x01)
     595                            .dwendentry
     596                            .dwendtag $C$DW$51
     597                    
     598 00000000                   .sect   ".text:NVOCTP_findOffset"
     599                            .clink
     600                            .thumbfunc NVOCTP_findOffset
     601 00000000                   .thumb
     602                    
     603                    $C$DW$60        .dwtag  DW_TAG_subprogram
     604                            .dwattr $C$DW$60, DW_AT_name("NVOCTP_findOffset")
     605                            .dwattr $C$DW$60, DW_AT_low_pc(NVOCTP_findOffset)
TI ARM Assembler PC v16.9.9 Sun Nov 25 19:10:06 2018

Tools Copyright (c) 1996-2017 Texas Instruments Incorporated
C:\Users\Stryd\AppData\Local\Temp\{6FE13B51-C70D-4DF2-8F05-648F609965C3} PAGE   12

     606                            .dwattr $C$DW$60, DW_AT_high_pc(0x00)
     607                            .dwattr $C$DW$60, DW_AT_TI_symbol_name("NVOCTP_findOffset")
     608                            .dwattr $C$DW$60, DW_AT_type(*$C$DW$T$125)
     609                            .dwattr $C$DW$60, DW_AT_TI_begin_file("../Application/Services/nvoctp.c")
     610                            .dwattr $C$DW$60, DW_AT_TI_begin_line(0x51e)
     611                            .dwattr $C$DW$60, DW_AT_TI_begin_column(0x11)
     612                            .dwattr $C$DW$60, DW_AT_decl_file("../Application/Services/nvoctp.c")
     613                            .dwattr $C$DW$60, DW_AT_decl_line(0x51e)
     614                            .dwattr $C$DW$60, DW_AT_decl_column(0x11)
     615                            .dwattr $C$DW$60, DW_AT_TI_max_frame_size(0x10)
     616                            .dwpsn  file "../Application/Services/nvoctp.c",line 1312,column 1,is_stmt,address NVOCTP_find
     617                    
     618                            .dwfde $C$DW$CIE, NVOCTP_findOffset
     619                    $C$DW$61        .dwtag  DW_TAG_formal_parameter
     620                            .dwattr $C$DW$61, DW_AT_name("pg")
     621                            .dwattr $C$DW$61, DW_AT_TI_symbol_name("pg")
     622                            .dwattr $C$DW$61, DW_AT_type(*$C$DW$T$10)
     623                            .dwattr $C$DW$61, DW_AT_location[DW_OP_reg0]
     624                    
     625                    $C$DW$62        .dwtag  DW_TAG_formal_parameter
     626                            .dwattr $C$DW$62, DW_AT_name("bOfs")
     627                            .dwattr $C$DW$62, DW_AT_TI_symbol_name("bOfs")
     628                            .dwattr $C$DW$62, DW_AT_type(*$C$DW$T$10)
     629                            .dwattr $C$DW$62, DW_AT_location[DW_OP_reg1]
     630                    
     631                    
     632                    ;*****************************************************************************
     633                    ;* FUNCTION NAME: NVOCTP_findOffset                                          *
     634                    ;*                                                                           *
     635                    ;*   Regs Modified     : A1,A2,A3,A4,V1,V2,V9,SP,LR,SR                       *
     636                    ;*   Regs Used         : A1,A2,A3,A4,V1,V2,V9,SP,LR,SR                       *
     637                    ;*   Local Frame Size  : 0 Args + 4 Auto + 12 Save = 16 byte                 *
     638                    ;*****************************************************************************
     639                    NVOCTP_findOffset:
     640                    ;* --------------------------------------------------------------------------*
     641                    $C$DW$63        .dwtag  DW_TAG_variable
     642                            .dwattr $C$DW$63, DW_AT_name("tmp")
     643                            .dwattr $C$DW$63, DW_AT_TI_symbol_name("tmp")
     644                            .dwattr $C$DW$63, DW_AT_type(*$C$DW$T$124)
     645                            .dwattr $C$DW$63, DW_AT_location[DW_OP_breg13 0]
     646                    
     647                    ;* A2    assigned to i
     648                    $C$DW$64        .dwtag  DW_TAG_variable
     649                            .dwattr $C$DW$64, DW_AT_name("i")
     650                            .dwattr $C$DW$64, DW_AT_TI_symbol_name("i")
     651                            .dwattr $C$DW$64, DW_AT_type(*$C$DW$T$10)
     652                            .dwattr $C$DW$64, DW_AT_location[DW_OP_reg1]
     653                    
     654                    ;* V2    assigned to pg
     655                    $C$DW$65        .dwtag  DW_TAG_variable
     656                            .dwattr $C$DW$65, DW_AT_name("pg")
     657                            .dwattr $C$DW$65, DW_AT_TI_symbol_name("pg")
     658                            .dwattr $C$DW$65, DW_AT_type(*$C$DW$T$1061)
     659                            .dwattr $C$DW$65, DW_AT_location[DW_OP_reg5]
     660                    
TI ARM Assembler PC v16.9.9 Sun Nov 25 19:10:06 2018

Tools Copyright (c) 1996-2017 Texas Instruments Incorporated
C:\Users\Stryd\AppData\Local\Temp\{6FE13B51-C70D-4DF2-8F05-648F609965C3} PAGE   13

     661                    ;* V1    assigned to bOfs
     662                    $C$DW$66        .dwtag  DW_TAG_variable
     663                            .dwattr $C$DW$66, DW_AT_name("bOfs")
     664                            .dwattr $C$DW$66, DW_AT_TI_symbol_name("bOfs")
     665                            .dwattr $C$DW$66, DW_AT_type(*$C$DW$T$125)
     666                            .dwattr $C$DW$66, DW_AT_location[DW_OP_reg4]
     667                    
     668                    ;* A3    assigned to j
     669                    $C$DW$67        .dwtag  DW_TAG_variable
     670                            .dwattr $C$DW$67, DW_AT_name("j")
     671                            .dwattr $C$DW$67, DW_AT_TI_symbol_name("j")
     672                            .dwattr $C$DW$67, DW_AT_type(*$C$DW$T$10)
     673                            .dwattr $C$DW$67, DW_AT_location[DW_OP_reg2]
     674                    
     675                            .dwcfi  cfa_offset, 0
     676 00000000 B538              PUSH      {A4, V1, V2, LR}      ; [DPU_3_PIPE]  ; [ORIG 16-BIT INS]
     677                            .dwcfi  cfa_offset, 16
     678                            .dwcfi  save_reg_to_mem, 14, -4
     679                            .dwcfi  save_reg_to_mem, 5, -8
     680                            .dwcfi  save_reg_to_mem, 4, -12
     681                            .dwcfi  save_reg_to_mem, 3, -16
     682 00000002 4605              MOV       V2, A1                ; [DPU_3_PIPE] |1312|  ; [ORIG 16-BIT INS]
     683 00000004 460C              MOV       V1, A2                ; [DPU_3_PIPE] |1312|  ; [ORIG 16-BIT INS]
     684                            .dwpsn  file "../Application/Services/nvoctp.c",line 1314,column 18,is_stmt,isa 1
     685 00000006 2000              MOVS      A1, #0                ; [DPU_3_PIPE] |1314|  ; [ORIG 16-BIT INS]
     686 00000008 9000              STR       A1, [SP, #0]          ; [DPU_3_PIPE] |1314|  ; [ORIG 16-BIT INS]
     687                    ;* --------------------------------------------------------------------------*
     688                    ;*   BEGIN LOOP ||$C$L3||
     689                    ;*
     690                    ;*   Loop source line                : 1317
     691                    ;*   Loop closing brace source line  : 1325
     692                    ;*   Known Minimum Trip Count        : 1
     693                    ;*   Known Maximum Trip Count        : 65536
     694                    ;*   Known Max Trip Count Factor     : 1
     695                    ;* --------------------------------------------------------------------------*
     696 0000000a           ||$C$L3||:    
     697                            .dwpsn  file "../Application/Services/nvoctp.c",line 1317,column 11,is_stmt,isa 1
     698 0000000a 2C04              CMP       V1, #4                ; [DPU_3_PIPE] |1317|  ; [ORIG 16-BIT INS]
     699 0000000c D30B              BCC       ||$C$L4||             ; [DPU_3_PIPE] |1317|  ; [ORIG 16-BIT INS]
     700                            ; BRANCHCC OCCURS {||$C$L4||}    ; [] |1317| 
     701                    ;* --------------------------------------------------------------------------*
     702                            .dwpsn  file "../Application/Services/nvoctp.c",line 1320,column 9,is_stmt,isa 1
     703 0000000e 1F24              SUBS      V1, V1, #4            ; [DPU_3_PIPE] |1320|  ; [ORIG 16-BIT INS]
     704 00000010 4628              MOV       A1, V2                ; [DPU_3_PIPE] |1320|  ; [ORIG 16-BIT INS]
     705 00000012 2204              MOVS      A3, #4                ; [DPU_3_PIPE] |1320|  ; [ORIG 16-BIT INS]
     706 00000014 466B              MOV       A4, SP                ; [DPU_3_PIPE] |1320|  ; [ORIG 16-BIT INS]
     707 00000016 B2A4              UXTH      V1, V1                ; [DPU_3_PIPE] |1320|  ; [ORIG 16-BIT INS]
     708 00000018 4621              MOV       A2, V1                ; [DPU_3_PIPE] |1320|  ; [ORIG 16-BIT INS]
     709                    $C$DW$68        .dwtag  DW_TAG_TI_branch
     710                            .dwattr $C$DW$68, DW_AT_low_pc(0x00)
     711                            .dwattr $C$DW$68, DW_AT_name("NVOCTP_flashRead")
     712                            .dwattr $C$DW$68, DW_AT_TI_call
     713                    
     714 0000001a FFFEF7FF!         BL        NVOCTP_flashRead      ; [DPU_3_PIPE] |1320|  ; [KEEP 32-BIT INS]
     715                            ; CALL OCCURS {NVOCTP_flashRead }  ; [] |1320| 
TI ARM Assembler PC v16.9.9 Sun Nov 25 19:10:06 2018

Tools Copyright (c) 1996-2017 Texas Instruments Incorporated
C:\Users\Stryd\AppData\Local\Temp\{6FE13B51-C70D-4DF2-8F05-648F609965C3} PAGE   14

     716                            .dwpsn  file "../Application/Services/nvoctp.c",line 1323,column 13,is_stmt,isa 1
     717 0000001e 9800              LDR       A1, [SP, #0]          ; [DPU_3_PIPE] |1323|  ; [ORIG 16-BIT INS]
     718 00000020 3FFFF1B0          CMP       A1, #-1               ; [DPU_3_PIPE] |1323|  ; [KEEP 32-BIT INS]
     719 00000024 D0F1              BEQ       ||$C$L3||             ; [DPU_3_PIPE] |1323|  ; [ORIG 16-BIT INS]
     720                            ; BRANCHCC OCCURS {||$C$L3||}    ; [] |1323| 
     721                    ;* --------------------------------------------------------------------------*
     722 00000026           ||$C$L4||:    
     723                            .dwpsn  file "../Application/Services/nvoctp.c",line 1328,column 9,is_stmt,isa 1
     724 00000026 2201              MOVS      A3, #1                ; [DPU_3_PIPE] |1328|  ; [ORIG 16-BIT INS]
     725 00000028 4611              MOV       A2, A3                ; [DPU_3_PIPE] |1328|  ; [ORIG 16-BIT INS]
     726                    ;* --------------------------------------------------------------------------*
     727                    ;*   BEGIN LOOP ||$C$L5||
     728                    ;*
     729                    ;*   Loop source line                : 1328
     730                    ;*   Loop closing brace source line  : 1336
     731                    ;*   Known Minimum Trip Count        : 4
     732                    ;*   Known Maximum Trip Count        : 4
     733                    ;*   Known Max Trip Count Factor     : 4
     734                    ;* --------------------------------------------------------------------------*
     735 0000002a           ||$C$L5||:    
     736                            .dwpsn  file "../Application/Services/nvoctp.c",line 1330,column 9,is_stmt,isa 1
     737 0000002a 03FFF000          AND       A4, A1, #255          ; [DPU_3_PIPE] |1330|  ; [KEEP 32-BIT INS]
     738 0000002e 2BFF              CMP       A4, #255              ; [DPU_3_PIPE] |1330|  ; [ORIG 16-BIT INS]
     739 00000030 BF18              IT        NE                    ; [DPU_3_PIPE]  ; [ORIG 16-BIT INS]
     740                            .dwpsn  file "../Application/Services/nvoctp.c",line 1333,column 13,is_stmt,isa 1
     741 00000032 1C0A              MOVNE     A3, A2                ; [DPU_3_PIPE] |1333|  ; [ORIG 16-BIT INS]
     742                            .dwpsn  file "../Application/Services/nvoctp.c",line 1335,column 9,is_stmt,isa 1
     743 00000034 0A00              LSRS      A1, A1, #8            ; [DPU_3_PIPE] |1335|  ; [ORIG 16-BIT INS]
     744                            .dwpsn  file "../Application/Services/nvoctp.c",line 1328,column 20,is_stmt,isa 1
     745 00000036 1C49              ADDS      A2, A2, #1            ; [DPU_3_PIPE] |1328|  ; [ORIG 16-BIT INS]
     746                            .dwpsn  file "../Application/Services/nvoctp.c",line 1335,column 9,is_stmt,isa 1
     747 00000038 9000              STR       A1, [SP, #0]          ; [DPU_3_PIPE] |1335|  ; [ORIG 16-BIT INS]
     748                            .dwpsn  file "../Application/Services/nvoctp.c",line 1328,column 20,is_stmt,isa 1
     749 0000003a 2904              CMP       A2, #4                ; [DPU_3_PIPE] |1328|  ; [ORIG 16-BIT INS]
     750 0000003c DDF5              BLE       ||$C$L5||             ; [DPU_3_PIPE] |1328|  ; [ORIG 16-BIT INS]
     751                            ; BRANCHCC OCCURS {||$C$L5||}    ; [] |1328| 
     752                    ;* --------------------------------------------------------------------------*
     753                            .dwpsn  file "../Application/Services/nvoctp.c",line 1338,column 5,is_stmt,isa 1
     754 0000003e 18A4              ADDS      V1, V1, A3            ; [DPU_3_PIPE] |1338|  ; [ORIG 16-BIT INS]
     755 00000040 B2A0              UXTH      A1, V1                ; [DPU_3_PIPE] |1338|  ; [ORIG 16-BIT INS]
     756                    $C$DW$69        .dwtag  DW_TAG_TI_branch
     757                            .dwattr $C$DW$69, DW_AT_low_pc(0x00)
     758                            .dwattr $C$DW$69, DW_AT_TI_return
     759                    
     760 00000042 BD38              POP       {A4, V1, V2, PC}      ; [DPU_3_PIPE]  ; [ORIG 16-BIT INS]
     761                            .dwcfi  cfa_offset, 0
     762                            .dwcfi  restore_reg, 5
     763                            .dwcfi  restore_reg, 4
     764                            .dwcfi  restore_reg, 3
     765                            ; BRANCH OCCURS                  ; [] 
     766                            .dwattr $C$DW$60, DW_AT_TI_end_file("../Application/Services/nvoctp.c")
     767                            .dwattr $C$DW$60, DW_AT_TI_end_line(0x53b)
     768                            .dwattr $C$DW$60, DW_AT_TI_end_column(0x01)
     769                            .dwendentry
     770                            .dwendtag $C$DW$60
TI ARM Assembler PC v16.9.9 Sun Nov 25 19:10:06 2018

Tools Copyright (c) 1996-2017 Texas Instruments Incorporated
C:\Users\Stryd\AppData\Local\Temp\{6FE13B51-C70D-4DF2-8F05-648F609965C3} PAGE   15

     771                    
     772 00000000                   .sect   ".text:NVOCTP_findItem"
     773                            .clink
     774                            .thumbfunc NVOCTP_findItem
     775 00000000                   .thumb
     776                    
     777                    $C$DW$70        .dwtag  DW_TAG_subprogram
     778                            .dwattr $C$DW$70, DW_AT_name("NVOCTP_findItem")
     779                            .dwattr $C$DW$70, DW_AT_low_pc(NVOCTP_findItem)
     780                            .dwattr $C$DW$70, DW_AT_high_pc(0x00)
     781                            .dwattr $C$DW$70, DW_AT_TI_symbol_name("NVOCTP_findItem")
     782                            .dwattr $C$DW$70, DW_AT_type(*$C$DW$T$1073)
     783                            .dwattr $C$DW$70, DW_AT_TI_begin_file("../Application/Services/nvoctp.c")
     784                            .dwattr $C$DW$70, DW_AT_TI_begin_line(0x54a)
     785                            .dwattr $C$DW$70, DW_AT_TI_begin_column(0x10)
     786                            .dwattr $C$DW$70, DW_AT_decl_file("../Application/Services/nvoctp.c")
     787                            .dwattr $C$DW$70, DW_AT_decl_line(0x54a)
     788                            .dwattr $C$DW$70, DW_AT_decl_column(0x10)
     789                            .dwattr $C$DW$70, DW_AT_TI_max_frame_size(0x28)
     790                            .dwpsn  file "../Application/Services/nvoctp.c",line 1357,column 1,is_stmt,address NVOCTP_find
     791                    
     792                            .dwfde $C$DW$CIE, NVOCTP_findItem
     793                    $C$DW$71        .dwtag  DW_TAG_formal_parameter
     794                            .dwattr $C$DW$71, DW_AT_name("pg")
     795                            .dwattr $C$DW$71, DW_AT_TI_symbol_name("pg")
     796                            .dwattr $C$DW$71, DW_AT_type(*$C$DW$T$10)
     797                            .dwattr $C$DW$71, DW_AT_location[DW_OP_reg0]
     798                    
     799                    $C$DW$72        .dwtag  DW_TAG_formal_parameter
     800                            .dwattr $C$DW$72, DW_AT_name("ofs")
     801                            .dwattr $C$DW$72, DW_AT_TI_symbol_name("ofs")
     802                            .dwattr $C$DW$72, DW_AT_type(*$C$DW$T$10)
     803                            .dwattr $C$DW$72, DW_AT_location[DW_OP_reg1]
     804                    
     805                    $C$DW$73        .dwtag  DW_TAG_formal_parameter
     806                            .dwattr $C$DW$73, DW_AT_name("cid")
     807                            .dwattr $C$DW$73, DW_AT_TI_symbol_name("cid")
     808                            .dwattr $C$DW$73, DW_AT_type(*$C$DW$T$124)
     809                            .dwattr $C$DW$73, DW_AT_location[DW_OP_reg2]
     810                    
     811                    
     812                    ;*****************************************************************************
     813                    ;* FUNCTION NAME: NVOCTP_findItem                                            *
     814                    ;*                                                                           *
     815                    ;*   Regs Modified     : A1,A2,A3,A4,V1,V2,V3,V4,V9,SP,LR,SR                 *
     816                    ;*   Regs Used         : A1,A2,A3,A4,V1,V2,V3,V4,V9,SP,LR,SR                 *
     817                    ;*   Local Frame Size  : 0 Args + 16 Auto + 20 Save = 36 byte                *
     818                    ;*****************************************************************************
     819                    NVOCTP_findItem:
     820                    ;* --------------------------------------------------------------------------*
     821                    $C$DW$74        .dwtag  DW_TAG_variable
     822                            .dwattr $C$DW$74, DW_AT_name("iHdr")
     823                            .dwattr $C$DW$74, DW_AT_TI_symbol_name("iHdr")
     824                            .dwattr $C$DW$74, DW_AT_type(*$C$DW$T$128)
     825                            .dwattr $C$DW$74, DW_AT_location[DW_OP_breg13 0]
TI ARM Assembler PC v16.9.9 Sun Nov 25 19:10:06 2018

Tools Copyright (c) 1996-2017 Texas Instruments Incorporated
C:\Users\Stryd\AppData\Local\Temp\{6FE13B51-C70D-4DF2-8F05-648F609965C3} PAGE   16

     826                    
     827                    ;* A2    assigned to $O$C31
     828                    ;* A1    assigned to $O$C32
     829                    ;* A1    assigned to $O$v2
     830                    ;* A2    assigned to $O$v1
     831                    ;* V4    assigned to pg
     832                    $C$DW$75        .dwtag  DW_TAG_variable
     833                            .dwattr $C$DW$75, DW_AT_name("pg")
     834                            .dwattr $C$DW$75, DW_AT_TI_symbol_name("pg")
     835                            .dwattr $C$DW$75, DW_AT_type(*$C$DW$T$1061)
     836                            .dwattr $C$DW$75, DW_AT_location[DW_OP_reg7]
     837                    
     838                    ;* V1    assigned to ofs
     839                    $C$DW$76        .dwtag  DW_TAG_variable
     840                            .dwattr $C$DW$76, DW_AT_name("ofs")
     841                            .dwattr $C$DW$76, DW_AT_TI_symbol_name("ofs")
     842                            .dwattr $C$DW$76, DW_AT_type(*$C$DW$T$125)
     843                            .dwattr $C$DW$76, DW_AT_location[DW_OP_reg4]
     844                    
     845                    ;* V3    assigned to cid
     846                    $C$DW$77        .dwtag  DW_TAG_variable
     847                            .dwattr $C$DW$77, DW_AT_name("cid")
     848                            .dwattr $C$DW$77, DW_AT_TI_symbol_name("cid")
     849                            .dwattr $C$DW$77, DW_AT_type(*$C$DW$T$1276)
     850                            .dwattr $C$DW$77, DW_AT_location[DW_OP_reg6]
     851                    
     852                    ;* V2    assigned to items
     853                    $C$DW$78        .dwtag  DW_TAG_variable
     854                            .dwattr $C$DW$78, DW_AT_name("items")
     855                            .dwattr $C$DW$78, DW_AT_TI_symbol_name("items")
     856                            .dwattr $C$DW$78, DW_AT_type(*$C$DW$T$1090)
     857                            .dwattr $C$DW$78, DW_AT_location[DW_OP_reg5]
     858                    
     859                            .dwcfi  cfa_offset, 0
     860 00000000 B5F0              PUSH      {V1, V2, V3, V4, LR}  ; [DPU_3_PIPE]  ; [ORIG 16-BIT INS]
     861                            .dwcfi  cfa_offset, 20
     862                            .dwcfi  save_reg_to_mem, 14, -4
     863                            .dwcfi  save_reg_to_mem, 7, -8
     864                            .dwcfi  save_reg_to_mem, 6, -12
     865                            .dwcfi  save_reg_to_mem, 5, -16
     866                            .dwcfi  save_reg_to_mem, 4, -20
     867 00000002 4616              MOV       V3, A3                ; [DPU_3_PIPE] |1357|  ; [ORIG 16-BIT INS]
     868 00000004 460C              MOV       V1, A2                ; [DPU_3_PIPE] |1357|  ; [ORIG 16-BIT INS]
     869 00000006 4607              MOV       V4, A1                ; [DPU_3_PIPE] |1357|  ; [ORIG 16-BIT INS]
     870                            .dwpsn  file "../Application/Services/nvoctp.c",line 1358,column 18,is_stmt,isa 1
     871 00000008 2500              MOVS      V2, #0                ; [DPU_3_PIPE] |1358|  ; [ORIG 16-BIT INS]
     872 0000000a 0D14F1AD          SUB       SP, SP, #20           ; [DPU_3_PIPE]  ; [KEEP 32-BIT INS]
     873                            .dwcfi  cfa_offset, 40
     874                            .dwpsn  file "../Application/Services/nvoctp.c",line 1360,column 11,is_stmt,isa 1
     875 0000000e E00A              B         ||$C$L9||             ; [DPU_3_PIPE] |1360|  ; [ORIG 16-BIT INS]
     876                            ; BRANCH OCCURS {||$C$L9||}      ; [] |1360| 
     877                    ;* --------------------------------------------------------------------------*
     878 00000010           ||$C$L6||:    
     879                            .dwpsn  file "../Application/Services/nvoctp.c",line 1383,column 17,is_stmt,isa 1
     880 00000010 1A24              SUBS      V1, V1, A1            ; [DPU_3_PIPE] |1383|  ; [ORIG 16-BIT INS]
TI ARM Assembler PC v16.9.9 Sun Nov 25 19:10:06 2018

Tools Copyright (c) 1996-2017 Texas Instruments Incorporated
C:\Users\Stryd\AppData\Local\Temp\{6FE13B51-C70D-4DF2-8F05-648F609965C3} PAGE   17

     881 00000012 B2A4              UXTH      V1, V1                ; [DPU_3_PIPE] |1383|  ; [ORIG 16-BIT INS]
     882                            .dwpsn  file "../Application/Services/nvoctp.c",line 1384,column 13,is_stmt,isa 1
     883 00000014 E005              B         ||$C$L8||             ; [DPU_3_PIPE] |1384|  ; [ORIG 16-BIT INS]
     884                            ; BRANCH OCCURS {||$C$L8||}      ; [] |1384| 
     885                    ;* --------------------------------------------------------------------------*
     886 00000016           ||$C$L7||:    
     887                            .dwpsn  file "../Application/Services/nvoctp.c",line 1396,column 13,is_stmt,isa 1
     888 00000016 1E64              SUBS      V1, V1, #1            ; [DPU_3_PIPE] |1396|  ; [ORIG 16-BIT INS]
     889 00000018 4638              MOV       A1, V4                ; [DPU_3_PIPE] |1396|  ; [ORIG 16-BIT INS]
     890 0000001a B2A1              UXTH      A2, V1                ; [DPU_3_PIPE] |1396|  ; [ORIG 16-BIT INS]
     891                    $C$DW$79        .dwtag  DW_TAG_TI_branch
     892                            .dwattr $C$DW$79, DW_AT_low_pc(0x00)
     893                            .dwattr $C$DW$79, DW_AT_name("NVOCTP_findOffset")
     894                            .dwattr $C$DW$79, DW_AT_TI_call
     895                    
     896 0000001c FFFEF7FF!         BL        NVOCTP_findOffset     ; [DPU_3_PIPE] |1396|  ; [KEEP 32-BIT INS]
     897                            ; CALL OCCURS {NVOCTP_findOffset }  ; [] |1396| 
     898 00000020 4604              MOV       V1, A1                ; [DPU_3_PIPE] |1396|  ; [ORIG 16-BIT INS]
     899                    ;* --------------------------------------------------------------------------*
     900 00000022           ||$C$L8||:    
     901                            .dwpsn  file "../Application/Services/nvoctp.c",line 1400,column 9,is_stmt,isa 1
     902 00000022 1C6D              ADDS      V2, V2, #1            ; [DPU_3_PIPE] |1400|  ; [ORIG 16-BIT INS]
     903 00000024 B2AD              UXTH      V2, V2                ; [DPU_3_PIPE] |1400|  ; [ORIG 16-BIT INS]
     904                    ;* --------------------------------------------------------------------------*
     905                    ;*   BEGIN LOOP ||$C$L9||
     906                    ;* --------------------------------------------------------------------------*
     907 00000026           ||$C$L9||:    
     908                            .dwpsn  file "../Application/Services/nvoctp.c",line 1360,column 11,is_stmt,isa 1
     909 00000026 2C09              CMP       V1, #9                ; [DPU_3_PIPE] |1360|  ; [ORIG 16-BIT INS]
     910 00000028 D31D              BCC       ||$C$L12||            ; [DPU_3_PIPE] |1360|  ; [ORIG 16-BIT INS]
     911                            ; BRANCHCC OCCURS {||$C$L12||}   ; [] |1360| 
     912                    ;* --------------------------------------------------------------------------*
     913                            .dwpsn  file "../Application/Services/nvoctp.c",line 1368,column 9,is_stmt,isa 1
     914 0000002a 1F64              SUBS      V1, V1, #5            ; [DPU_3_PIPE] |1368|  ; [ORIG 16-BIT INS]
     915 0000002c 4638              MOV       A1, V4                ; [DPU_3_PIPE] |1368|  ; [ORIG 16-BIT INS]
     916 0000002e 466A              MOV       A3, SP                ; [DPU_3_PIPE] |1368|  ; [ORIG 16-BIT INS]
     917 00000030 B2A4              UXTH      V1, V1                ; [DPU_3_PIPE] |1368|  ; [ORIG 16-BIT INS]
     918 00000032 4621              MOV       A2, V1                ; [DPU_3_PIPE] |1368|  ; [ORIG 16-BIT INS]
     919                    $C$DW$80        .dwtag  DW_TAG_TI_branch
     920                            .dwattr $C$DW$80, DW_AT_low_pc(0x00)
     921                            .dwattr $C$DW$80, DW_AT_name("NVOCTP_readHeader")
     922                            .dwattr $C$DW$80, DW_AT_TI_call
     923                    
     924 00000034 FFFEF7FF!         BL        NVOCTP_readHeader     ; [DPU_3_PIPE] |1368|  ; [KEEP 32-BIT INS]
     925                            ; CALL OCCURS {NVOCTP_readHeader }  ; [] |1368| 
     926                            .dwpsn  file "../Application/Services/nvoctp.c",line 1370,column 9,is_stmt,isa 1
     927 00000038 9800              LDR       A1, [SP, #0]          ; [DPU_3_PIPE] |1370|  ; [ORIG 16-BIT INS]
     928 0000003a 42B0              CMP       A1, V3                ; [DPU_3_PIPE] |1370|  ; [ORIG 16-BIT INS]
     929 0000003c D107              BNE       ||$C$L10||            ; [DPU_3_PIPE] |1370|  ; [ORIG 16-BIT INS]
     930                            ; BRANCHCC OCCURS {||$C$L10||}   ; [] |1370| 
     931                    ;* --------------------------------------------------------------------------*
     932 0000003e 1009F89D          LDRB      A2, [SP, #9]          ; [DPU_3_PIPE] |1370|  ; [KEEP 32-BIT INS]
     933 00000042 007FF031          BICS      A1, A2, #127          ; [DPU_3_PIPE] |1370|  ; [KEEP 32-BIT INS]
     934 00000046 D004              BEQ       ||$C$L11||            ; [DPU_3_PIPE] |1370|  ; [ORIG 16-BIT INS]
     935                            ; BRANCHCC OCCURS {||$C$L11||}   ; [] |1370| 
TI ARM Assembler PC v16.9.9 Sun Nov 25 19:10:06 2018

Tools Copyright (c) 1996-2017 Texas Instruments Incorporated
C:\Users\Stryd\AppData\Local\Temp\{6FE13B51-C70D-4DF2-8F05-648F609965C3} PAGE   18

     936                    ;* --------------------------------------------------------------------------*
     937 00000048 09C8              LSRS      A1, A2, #7            ; [DPU_3_PIPE] |1370|  ; [ORIG 16-BIT INS]
     938 0000004a D202              BCS       ||$C$L11||            ; [DPU_3_PIPE] |1370|  ; [ORIG 16-BIT INS]
     939                            ; BRANCHCC OCCURS {||$C$L11||}   ; [] |1370| 
     940                    ;* --------------------------------------------------------------------------*
     941                            .dwpsn  file "../Application/Services/nvoctp.c",line 1375,column 13,is_stmt,isa 1
     942 0000004c E00C              B         ||$C$L13||            ; [DPU_3_PIPE] |1375|  ; [ORIG 16-BIT INS]
     943                            ; BRANCH OCCURS {||$C$L13||}     ; [] |1375| 
     944                    ;* --------------------------------------------------------------------------*
     945 0000004e           ||$C$L10||:    
     946 0000004e 1009F89D          LDRB      A2, [SP, #9]          ; [DPU_3_PIPE]  ; [KEEP 32-BIT INS]
     947                    ;* --------------------------------------------------------------------------*
     948 00000052           ||$C$L11||:    
     949                            .dwpsn  file "../Application/Services/nvoctp.c",line 1377,column 14,is_stmt,isa 1
     950 00000052 0888              LSRS      A1, A2, #2            ; [DPU_3_PIPE] |1377|  ; [ORIG 16-BIT INS]
     951 00000054 D2DF              BCS       ||$C$L7||             ; [DPU_3_PIPE] |1377|  ; [ORIG 16-BIT INS]
     952                            ; BRANCHCC OCCURS {||$C$L7||}    ; [] |1377| 
     953                    ;* --------------------------------------------------------------------------*
     954                            .dwpsn  file "../Application/Services/nvoctp.c",line 1380,column 13,is_stmt,isa 1
     955 00000056 000CF8BD          LDRH      A1, [SP, #12]         ; [DPU_3_PIPE] |1380|  ; [KEEP 32-BIT INS]
     956 0000005a 4284              CMP       V1, A1                ; [DPU_3_PIPE] |1380|  ; [ORIG 16-BIT INS]
     957 0000005c DCD8              BGT       ||$C$L6||             ; [DPU_3_PIPE] |1380|  ; [ORIG 16-BIT INS]
     958                            ; BRANCHCC OCCURS {||$C$L6||}    ; [] |1380| 
     959                    ;* --------------------------------------------------------------------------*
     960                            .dwpsn  file "../Application/Services/nvoctp.c",line 1388,column 17,is_stmt,isa 1
     961 0000005e 4904              LDR       A2, $C$CON1           ; [DPU_3_PIPE] |1388|  ; [ORIG 16-BIT INS]
     962 00000060 2005              MOVS      A1, #5                ; [DPU_3_PIPE] |1388|  ; [ORIG 16-BIT INS]
     963 00000062 7148              STRB      A1, [A2, #5]          ; [DPU_3_PIPE] |1388|  ; [ORIG 16-BIT INS]
     964 00000064 7108              STRB      A1, [A2, #4]          ; [DPU_3_PIPE] |1388|  ; [ORIG 16-BIT INS]
     965                    ;* --------------------------------------------------------------------------*
     966 00000066           ||$C$L12||:    
     967                            .dwpsn  file "../Application/Services/nvoctp.c",line 1404,column 5,is_stmt,isa 1
     968 00000066 426C              RSBS      V1, V2, #0            ; [DPU_3_PIPE] |1404|  ; [ORIG 16-BIT INS]
     969                    ;* --------------------------------------------------------------------------*
     970 00000068           ||$C$L13||:    
     971 00000068 B220              SXTH      A1, V1                ; [DPU_3_PIPE] |1404|  ; [ORIG 16-BIT INS]
     972 0000006a B005              ADD       SP, SP, #20           ; [DPU_3_PIPE]  ; [ORIG 16-BIT INS]
     973                            .dwcfi  cfa_offset, 20
     974                    $C$DW$81        .dwtag  DW_TAG_TI_branch
     975                            .dwattr $C$DW$81, DW_AT_low_pc(0x00)
     976                            .dwattr $C$DW$81, DW_AT_TI_return
     977                    
     978 0000006c BDF0              POP       {V1, V2, V3, V4, PC}  ; [DPU_3_PIPE]  ; [ORIG 16-BIT INS]
     979                            .dwcfi  cfa_offset, 0
     980                            .dwcfi  restore_reg, 7
     981                            .dwcfi  restore_reg, 6
     982                            .dwcfi  restore_reg, 5
     983                            .dwcfi  restore_reg, 4
     984                            ; BRANCH OCCURS                  ; [] 
     985                            .dwattr $C$DW$70, DW_AT_TI_end_file("../Application/Services/nvoctp.c")
     986                            .dwattr $C$DW$70, DW_AT_TI_end_line(0x57d)
     987                            .dwattr $C$DW$70, DW_AT_TI_end_column(0x01)
     988                            .dwendentry
     989                            .dwendtag $C$DW$70
     990                    
TI ARM Assembler PC v16.9.9 Sun Nov 25 19:10:06 2018

Tools Copyright (c) 1996-2017 Texas Instruments Incorporated
C:\Users\Stryd\AppData\Local\Temp\{6FE13B51-C70D-4DF2-8F05-648F609965C3} PAGE   19

     991 00000000                   .sect   ".text:NVOCTP_checkItem"
     992                            .clink
     993                            .thumbfunc NVOCTP_checkItem
     994 00000000                   .thumb
     995                    
     996                    $C$DW$82        .dwtag  DW_TAG_subprogram
     997                            .dwattr $C$DW$82, DW_AT_name("NVOCTP_checkItem")
     998                            .dwattr $C$DW$82, DW_AT_low_pc(NVOCTP_checkItem)
     999                            .dwattr $C$DW$82, DW_AT_high_pc(0x00)
    1000                            .dwattr $C$DW$82, DW_AT_TI_symbol_name("NVOCTP_checkItem")
    1001                            .dwattr $C$DW$82, DW_AT_type(*$C$DW$T$126)
    1002                            .dwattr $C$DW$82, DW_AT_TI_begin_file("../Application/Services/nvoctp.c")
    1003                            .dwattr $C$DW$82, DW_AT_TI_begin_line(0x397)
    1004                            .dwattr $C$DW$82, DW_AT_TI_begin_column(0x10)
    1005                            .dwattr $C$DW$82, DW_AT_decl_file("../Application/Services/nvoctp.c")
    1006                            .dwattr $C$DW$82, DW_AT_decl_line(0x397)
    1007                            .dwattr $C$DW$82, DW_AT_decl_column(0x10)
    1008                            .dwattr $C$DW$82, DW_AT_TI_max_frame_size(0x30)
    1009                            .dwpsn  file "../Application/Services/nvoctp.c",line 922,column 1,is_stmt,address NVOCTP_check
    1010                    
    1011                            .dwfde $C$DW$CIE, NVOCTP_checkItem
    1012                    $C$DW$83        .dwtag  DW_TAG_formal_parameter
    1013                            .dwattr $C$DW$83, DW_AT_name("id")
    1014                            .dwattr $C$DW$83, DW_AT_TI_symbol_name("id")
    1015                            .dwattr $C$DW$83, DW_AT_type(*$C$DW$T$303)
    1016                            .dwattr $C$DW$83, DW_AT_location[DW_OP_breg13 40]
    1017                    
    1018                    $C$DW$84        .dwtag  DW_TAG_formal_parameter
    1019                            .dwattr $C$DW$84, DW_AT_name("bLen")
    1020                            .dwattr $C$DW$84, DW_AT_TI_symbol_name("bLen")
    1021                            .dwattr $C$DW$84, DW_AT_type(*$C$DW$T$10)
    1022                            .dwattr $C$DW$84, DW_AT_location[DW_OP_reg2]
    1023                    
    1024                    $C$DW$85        .dwtag  DW_TAG_formal_parameter
    1025                            .dwattr $C$DW$85, DW_AT_name("pHdr")
    1026                            .dwattr $C$DW$85, DW_AT_TI_symbol_name("pHdr")
    1027                            .dwattr $C$DW$85, DW_AT_type(*$C$DW$T$129)
    1028                            .dwattr $C$DW$85, DW_AT_location[DW_OP_reg3]
    1029                    
    1030                    
    1031                    ;*****************************************************************************
    1032                    ;* FUNCTION NAME: NVOCTP_checkItem                                           *
    1033                    ;*                                                                           *
    1034                    ;*   Regs Modified     : A1,A2,A3,A4,V1,V2,V3,V4,V5,V6,V7,V8,V9,SP,LR,SR     *
    1035                    ;*   Regs Used         : A1,A2,A3,A4,V1,V2,V3,V4,V5,V6,V7,V8,V9,SP,LR,SR     *
    1036                    ;*   Local Frame Size  : 0 Args + 0 Auto + 36 Save = 36 byte                 *
    1037                    ;*****************************************************************************
    1038                    NVOCTP_checkItem:
    1039                    ;* --------------------------------------------------------------------------*
    1040                    ;* V6    assigned to $O$C16
    1041                    ;* V5    assigned to $O$C17
    1042                    ;* V4    assigned to $O$C18
    1043                    ;* V2    assigned to $O$C19
    1044                    ;* V1    assigned to $O$C20
    1045                    ;* V1    assigned to $O$K26
TI ARM Assembler PC v16.9.9 Sun Nov 25 19:10:06 2018

Tools Copyright (c) 1996-2017 Texas Instruments Incorporated
C:\Users\Stryd\AppData\Local\Temp\{6FE13B51-C70D-4DF2-8F05-648F609965C3} PAGE   20

    1046                    ;* V8    assigned to $O$K33
    1047                    ;* V7    assigned to bLen
    1048                    $C$DW$86        .dwtag  DW_TAG_variable
    1049                            .dwattr $C$DW$86, DW_AT_name("bLen")
    1050                            .dwattr $C$DW$86, DW_AT_TI_symbol_name("bLen")
    1051                            .dwattr $C$DW$86, DW_AT_type(*$C$DW$T$1092)
    1052                            .dwattr $C$DW$86, DW_AT_location[DW_OP_reg10]
    1053                    
    1054                    ;* V3    assigned to pHdr
    1055                    $C$DW$87        .dwtag  DW_TAG_variable
    1056                            .dwattr $C$DW$87, DW_AT_name("pHdr")
    1057                            .dwattr $C$DW$87, DW_AT_TI_symbol_name("pHdr")
    1058                            .dwattr $C$DW$87, DW_AT_type(*$C$DW$T$668)
    1059                            .dwattr $C$DW$87, DW_AT_location[DW_OP_reg6]
    1060                    
    1061                    ;* A2    assigned to ofs
    1062                    $C$DW$88        .dwtag  DW_TAG_variable
    1063                            .dwattr $C$DW$88, DW_AT_name("ofs")
    1064                            .dwattr $C$DW$88, DW_AT_TI_symbol_name("ofs")
    1065                            .dwattr $C$DW$88, DW_AT_type(*$C$DW$T$10)
    1066                            .dwattr $C$DW$88, DW_AT_location[DW_OP_reg1]
    1067                    
    1068                            .dwcfi  cfa_offset, 0
    1069 00000000 B403              PUSH      {A1, A2}              ; [DPU_3_PIPE]  ; [ORIG 16-BIT INS]
    1070                            .dwcfi  cfa_offset, 8
    1071                            .dwcfi  save_reg_to_mem, 1, -4
    1072                            .dwcfi  save_reg_to_mem, 0, -8
    1073 00000002 4FF0E92D          PUSH      {V1, V2, V3, V4, V5, V6, V7, V8, LR} ; [DPU_3_PIPE]  ; [KEEP 32-BIT INS]
    1074                            .dwcfi  cfa_offset, 44
    1075                            .dwcfi  save_reg_to_mem, 14, -12
    1076                            .dwcfi  save_reg_to_mem, 11, -16
    1077                            .dwcfi  save_reg_to_mem, 10, -20
    1078                            .dwcfi  save_reg_to_mem, 9, -24
    1079                            .dwcfi  save_reg_to_mem, 8, -28
    1080                            .dwcfi  save_reg_to_mem, 7, -32
    1081                            .dwcfi  save_reg_to_mem, 6, -36
    1082                            .dwcfi  save_reg_to_mem, 5, -40
    1083                            .dwcfi  save_reg_to_mem, 4, -44
    1084 00000006 4692              MOV       V7, A3                ; [DPU_3_PIPE] |922|  ; [ORIG 16-BIT INS]
    1085 00000008 461E              MOV       V3, A4                ; [DPU_3_PIPE] |922|  ; [ORIG 16-BIT INS]
    1086 0000000a AF09              ADD       V4, SP, #36           ; [DPU_3_PIPE]  ; [ORIG 16-BIT INS]
    1087                            .dwpsn  file "../Application/Services/nvoctp.c",line 927,column 5,is_stmt,isa 1
    1088 0000000c 6F80F5BA          CMP       V7, #1024             ; [DPU_3_PIPE] |927|  ; [KEEP 32-BIT INS]
    1089 00000010 0D04F1AD          SUB       SP, SP, #4            ; [DPU_3_PIPE]  ; [KEEP 32-BIT INS]
    1090                            .dwcfi  cfa_offset, 48
    1091 00000014 BFA8              IT        GE                    ; [DPU_3_PIPE]  ; [ORIG 16-BIT INS]
    1092                            .dwpsn  file "../Application/Services/nvoctp.c",line 930,column 9,is_stmt,isa 1
    1093 00000016 2005              MOVGE     A1, #5                ; [DPU_3_PIPE] |930|  ; [ORIG 16-BIT INS]
    1094 00000018 DA41              BGE       ||$C$L15||            ; [DPU_3_PIPE] |930|  ; [ORIG 16-BIT INS]
    1095                            ; BRANCHCC OCCURS {||$C$L15||}   ; [] |930| 
    1096                    ;* --------------------------------------------------------------------------*
    1097                            .dwpsn  file "../Application/Services/nvoctp.c",line 932,column 5,is_stmt,isa 1
    1098 0000001a 9000F897          LDRB      V6, [V4, #0]          ; [DPU_3_PIPE] |932|  ; [KEEP 32-BIT INS]
    1099 0000001e 0F40F1B9          CMP       V6, #64               ; [DPU_3_PIPE] |932|  ; [KEEP 32-BIT INS]
    1100 00000022 BFA8              IT        GE                    ; [DPU_3_PIPE]  ; [ORIG 16-BIT INS]
TI ARM Assembler PC v16.9.9 Sun Nov 25 19:10:06 2018

Tools Copyright (c) 1996-2017 Texas Instruments Incorporated
C:\Users\Stryd\AppData\Local\Temp\{6FE13B51-C70D-4DF2-8F05-648F609965C3} PAGE   21

    1101                            .dwpsn  file "../Application/Services/nvoctp.c",line 935,column 9,is_stmt,isa 1
    1102 00000024 2009              MOVGE     A1, #9                ; [DPU_3_PIPE] |935|  ; [ORIG 16-BIT INS]
    1103 00000026 DA3A              BGE       ||$C$L15||            ; [DPU_3_PIPE] |935|  ; [ORIG 16-BIT INS]
    1104                            ; BRANCHCC OCCURS {||$C$L15||}   ; [] |935| 
    1105                    ;* --------------------------------------------------------------------------*
    1106                            .dwpsn  file "../Application/Services/nvoctp.c",line 937,column 5,is_stmt,isa 1
    1107 00000028 8002F8B7          LDRH      V5, [V4, #2]          ; [DPU_3_PIPE] |937|  ; [KEEP 32-BIT INS]
    1108 0000002c 6F80F5B8          CMP       V5, #1024             ; [DPU_3_PIPE] |937|  ; [KEEP 32-BIT INS]
    1109 00000030 BFA8              IT        GE                    ; [DPU_3_PIPE]  ; [ORIG 16-BIT INS]
    1110                            .dwpsn  file "../Application/Services/nvoctp.c",line 940,column 9,is_stmt,isa 1
    1111 00000032 2007              MOVGE     A1, #7                ; [DPU_3_PIPE] |940|  ; [ORIG 16-BIT INS]
    1112 00000034 DA33              BGE       ||$C$L15||            ; [DPU_3_PIPE] |940|  ; [ORIG 16-BIT INS]
    1113                            ; BRANCHCC OCCURS {||$C$L15||}   ; [] |940| 
    1114                    ;* --------------------------------------------------------------------------*
    1115                            .dwpsn  file "../Application/Services/nvoctp.c",line 942,column 5,is_stmt,isa 1
    1116 00000036 88BF              LDRH      V4, [V4, #4]          ; [DPU_3_PIPE] |942|  ; [ORIG 16-BIT INS]
    1117 00000038 6F80F5B7          CMP       V4, #1024             ; [DPU_3_PIPE] |942|  ; [KEEP 32-BIT INS]
    1118 0000003c BFA8              IT        GE                    ; [DPU_3_PIPE]  ; [ORIG 16-BIT INS]
    1119                            .dwpsn  file "../Application/Services/nvoctp.c",line 945,column 9,is_stmt,isa 1
    1120 0000003e 2008              MOVGE     A1, #8                ; [DPU_3_PIPE] |945|  ; [ORIG 16-BIT INS]
    1121 00000040 DA2D              BGE       ||$C$L15||            ; [DPU_3_PIPE] |945|  ; [ORIG 16-BIT INS]
    1122                            ; BRANCHCC OCCURS {||$C$L15||}   ; [] |945| 
    1123                    ;* --------------------------------------------------------------------------*
    1124                            .dwpsn  file "../Application/Services/nvoctp.c",line 949,column 5,is_stmt,isa 1
    1125 00000042 4C19              LDR       V1, $C$CON3           ; [DPU_3_PIPE] |949|  ; [ORIG 16-BIT INS]
    1126 00000044 7920              LDRB      A1, [V1, #4]          ; [DPU_3_PIPE] |949|  ; [ORIG 16-BIT INS]
    1127 00000046 2803              CMP       A1, #3                ; [DPU_3_PIPE] |949|  ; [ORIG 16-BIT INS]
    1128 00000048 BF08              IT        EQ                    ; [DPU_3_PIPE]  ; [ORIG 16-BIT INS]
    1129                            .dwpsn  file "../Application/Services/nvoctp.c",line 952,column 9,is_stmt,isa 1
    1130 0000004a 2003              MOVEQ     A1, #3                ; [DPU_3_PIPE] |952|  ; [ORIG 16-BIT INS]
    1131 0000004c D027              BEQ       ||$C$L15||            ; [DPU_3_PIPE] |952|  ; [ORIG 16-BIT INS]
    1132                            ; BRANCHCC OCCURS {||$C$L15||}   ; [] |952| 
    1133                    ;* --------------------------------------------------------------------------*
    1134                            .dwpsn  file "../Application/Services/nvoctp.c",line 956,column 5,is_stmt,isa 1
    1135 0000004e 0B00F04F          MOV       V8, #0                ; [DPU_3_PIPE] |956|  ; [KEEP 32-BIT INS]
    1136                            .dwpsn  file "../Application/Services/nvoctp.c",line 960,column 5,is_stmt,isa 1
    1137 00000052 013FF009          AND       A2, V6, #63           ; [DPU_3_PIPE] |960|  ; [KEEP 32-BIT INS]
    1138 00000056 0009F3C8          UBFX      A1, V5, #0, #10       ; [DPU_3_PIPE] |960|  ; [KEEP 32-BIT INS]
    1139 0000005a 0509F3C7          UBFX      V2, V4, #0, #10       ; [DPU_3_PIPE] |960|  ; [KEEP 32-BIT INS]
    1140                            .dwpsn  file "../Application/Services/nvoctp.c",line 956,column 5,is_stmt,isa 1
    1141 0000005e B005F884          STRB      V8, [V1, #5]          ; [DPU_3_PIPE] |956|  ; [KEEP 32-BIT INS]
    1142                            .dwpsn  file "../Application/Services/nvoctp.c",line 960,column 5,is_stmt,isa 1
    1143 00000062 3001EA40          ORR       A1, A1, A2, LSL #12   ; [DPU_3_PIPE] |960|  ; [KEEP 32-BIT INS]
    1144 00000066 3500EA45          ORR       V2, V2, A1, LSL #12   ; [DPU_3_PIPE] |960|  ; [KEEP 32-BIT INS]
    1145 0000006a 88E1              LDRH      A2, [V1, #6]          ; [DPU_3_PIPE] |960|  ; [ORIG 16-BIT INS]
    1146 0000006c 78A0              LDRB      A1, [V1, #2]          ; [DPU_3_PIPE] |960|  ; [ORIG 16-BIT INS]
    1147 0000006e 462A              MOV       A3, V2                ; [DPU_3_PIPE] |960|  ; [ORIG 16-BIT INS]
    1148                    $C$DW$89        .dwtag  DW_TAG_TI_branch
    1149                            .dwattr $C$DW$89, DW_AT_low_pc(0x00)
    1150                            .dwattr $C$DW$89, DW_AT_name("NVOCTP_findItem")
    1151                            .dwattr $C$DW$89, DW_AT_TI_call
    1152                    
    1153 00000070 FFFEF7FF!         BL        NVOCTP_findItem       ; [DPU_3_PIPE] |960|  ; [KEEP 32-BIT INS]
    1154                            ; CALL OCCURS {NVOCTP_findItem }  ; [] |960| 
    1155 00000074 4601              MOV       A2, A1                ; [DPU_3_PIPE] |960|  ; [ORIG 16-BIT INS]
TI ARM Assembler PC v16.9.9 Sun Nov 25 19:10:06 2018

Tools Copyright (c) 1996-2017 Texas Instruments Incorporated
C:\Users\Stryd\AppData\Local\Temp\{6FE13B51-C70D-4DF2-8F05-648F609965C3} PAGE   22

    1156 00000076 2900              CMP       A2, #0                ; [DPU_3_PIPE] |960|  ; [ORIG 16-BIT INS]
    1157 00000078 DC0B              BGT       ||$C$L14||            ; [DPU_3_PIPE] |960|  ; [ORIG 16-BIT INS]
    1158                            ; BRANCHCC OCCURS {||$C$L14||}   ; [] |960| 
    1159                    ;* --------------------------------------------------------------------------*
    1160                            .dwpsn  file "../Application/Services/nvoctp.c",line 964,column 9,is_stmt,isa 1
    1161 0000007a A00CF8A6          STRH      V7, [V3, #12]         ; [DPU_3_PIPE] |964|  ; [KEEP 32-BIT INS]
    1162                            .dwpsn  file "../Application/Services/nvoctp.c",line 965,column 9,is_stmt,isa 1
    1163 0000007e B00AF8A6          STRH      V8, [V3, #10]         ; [DPU_3_PIPE] |965|  ; [KEEP 32-BIT INS]
    1164                            .dwpsn  file "../Application/Services/nvoctp.c",line 966,column 9,is_stmt,isa 1
    1165 00000082 6035              STR       V2, [V3, #0]          ; [DPU_3_PIPE] |966|  ; [ORIG 16-BIT INS]
    1166                            .dwpsn  file "../Application/Services/nvoctp.c",line 967,column 9,is_stmt,isa 1
    1167 00000084 80B7              STRH      V4, [V3, #4]          ; [DPU_3_PIPE] |967|  ; [ORIG 16-BIT INS]
    1168                            .dwpsn  file "../Application/Services/nvoctp.c",line 968,column 9,is_stmt,isa 1
    1169 00000086 8006F8A6          STRH      V5, [V3, #6]          ; [DPU_3_PIPE] |968|  ; [KEEP 32-BIT INS]
    1170                            .dwpsn  file "../Application/Services/nvoctp.c",line 969,column 9,is_stmt,isa 1
    1171 0000008a 9008F886          STRB      V6, [V3, #8]          ; [DPU_3_PIPE] |969|  ; [KEEP 32-BIT INS]
    1172                            .dwpsn  file "../Application/Services/nvoctp.c",line 970,column 9,is_stmt,isa 1
    1173 0000008e 200A              MOVS      A1, #10               ; [DPU_3_PIPE] |970|  ; [ORIG 16-BIT INS]
    1174 00000090 E005              B         ||$C$L15||            ; [DPU_3_PIPE] |970|  ; [ORIG 16-BIT INS]
    1175                            ; BRANCH OCCURS {||$C$L15||}     ; [] |970| 
    1176                    ;* --------------------------------------------------------------------------*
    1177 00000092           ||$C$L14||:    
    1178                            .dwpsn  file "../Application/Services/nvoctp.c",line 974,column 5,is_stmt,isa 1
    1179 00000092 78A0              LDRB      A1, [V1, #2]          ; [DPU_3_PIPE] |974|  ; [ORIG 16-BIT INS]
    1180 00000094 B289              UXTH      A2, A2                ; [DPU_3_PIPE] |974|  ; [ORIG 16-BIT INS]
    1181 00000096 4632              MOV       A3, V3                ; [DPU_3_PIPE] |974|  ; [ORIG 16-BIT INS]
    1182                    $C$DW$90        .dwtag  DW_TAG_TI_branch
    1183                            .dwattr $C$DW$90, DW_AT_low_pc(0x00)
    1184                            .dwattr $C$DW$90, DW_AT_name("NVOCTP_readHeader")
    1185                            .dwattr $C$DW$90, DW_AT_TI_call
    1186                    
    1187 00000098 FFFEF7FF!         BL        NVOCTP_readHeader     ; [DPU_3_PIPE] |974|  ; [KEEP 32-BIT INS]
    1188                            ; CALL OCCURS {NVOCTP_readHeader }  ; [] |974| 
    1189                            .dwpsn  file "../Application/Services/nvoctp.c",line 976,column 5,is_stmt,isa 1
    1190 0000009c 7960              LDRB      A1, [V1, #5]          ; [DPU_3_PIPE] |976|  ; [ORIG 16-BIT INS]
    1191                    ;* --------------------------------------------------------------------------*
    1192 0000009e           ||$C$L15||:    
    1193 0000009e B001              ADD       SP, SP, #4            ; [DPU_3_PIPE]  ; [ORIG 16-BIT INS]
    1194                            .dwcfi  cfa_offset, 44
    1195 000000a0 4FF0E8BD          POP       {V1, V2, V3, V4, V5, V6, V7, V8, LR} ; [DPU_3_PIPE]  ; [KEEP 32-BIT INS]
    1196                            .dwcfi  cfa_offset, 8
    1197                            .dwcfi  restore_reg, 14
    1198                            .dwcfi  restore_reg, 11
    1199                            .dwcfi  restore_reg, 10
    1200                            .dwcfi  restore_reg, 9
    1201                            .dwcfi  restore_reg, 8
    1202                            .dwcfi  restore_reg, 7
    1203                            .dwcfi  restore_reg, 6
    1204                            .dwcfi  restore_reg, 5
    1205                            .dwcfi  restore_reg, 4
    1206 000000a4 B002              ADD       SP, SP, #8            ; [DPU_3_PIPE]  ; [ORIG 16-BIT INS]
    1207                            .dwcfi  cfa_offset, 0
    1208                    $C$DW$91        .dwtag  DW_TAG_TI_branch
    1209                            .dwattr $C$DW$91, DW_AT_low_pc(0x00)
    1210                            .dwattr $C$DW$91, DW_AT_TI_return
TI ARM Assembler PC v16.9.9 Sun Nov 25 19:10:06 2018

Tools Copyright (c) 1996-2017 Texas Instruments Incorporated
C:\Users\Stryd\AppData\Local\Temp\{6FE13B51-C70D-4DF2-8F05-648F609965C3} PAGE   23

    1211                    
    1212 000000a6 4770              BX        LR                    ; [DPU_3_PIPE]  ; [ORIG 16-BIT INS]
    1213                            ; BRANCH OCCURS                  ; [] 
    1214                            .dwattr $C$DW$82, DW_AT_TI_end_file("../Application/Services/nvoctp.c")
    1215                            .dwattr $C$DW$82, DW_AT_TI_end_line(0x3d1)
    1216                            .dwattr $C$DW$82, DW_AT_TI_end_column(0x01)
    1217                            .dwendentry
    1218                            .dwendtag $C$DW$82
    1219                    
    1220 00000000                   .sect   ".text:NVOCTP_readByte"
    1221                            .clink
    1222                            .thumbfunc NVOCTP_readByte
    1223 00000000                   .thumb
    1224                    
    1225                    $C$DW$92        .dwtag  DW_TAG_subprogram
    1226                            .dwattr $C$DW$92, DW_AT_name("NVOCTP_readByte")
    1227                            .dwattr $C$DW$92, DW_AT_low_pc(NVOCTP_readByte)
    1228                            .dwattr $C$DW$92, DW_AT_high_pc(0x00)
    1229                            .dwattr $C$DW$92, DW_AT_TI_symbol_name("NVOCTP_readByte")
    1230                            .dwattr $C$DW$92, DW_AT_type(*$C$DW$T$126)
    1231                            .dwattr $C$DW$92, DW_AT_TI_begin_file("../Application/Services/nvoctp.c")
    1232                            .dwattr $C$DW$92, DW_AT_TI_begin_line(0x6ce)
    1233                            .dwattr $C$DW$92, DW_AT_TI_begin_column(0x10)
    1234                            .dwattr $C$DW$92, DW_AT_decl_file("../Application/Services/nvoctp.c")
    1235                            .dwattr $C$DW$92, DW_AT_decl_line(0x6ce)
    1236                            .dwattr $C$DW$92, DW_AT_decl_column(0x10)
    1237                            .dwattr $C$DW$92, DW_AT_TI_max_frame_size(0x00)
    1238                            .dwpsn  file "../Application/Services/nvoctp.c",line 1744,column 1,is_stmt,address NVOCTP_read
    1239                    
    1240                            .dwfde $C$DW$CIE, NVOCTP_readByte
    1241                    $C$DW$93        .dwtag  DW_TAG_formal_parameter
    1242                            .dwattr $C$DW$93, DW_AT_name("pg")
    1243                            .dwattr $C$DW$93, DW_AT_TI_symbol_name("pg")
    1244                            .dwattr $C$DW$93, DW_AT_type(*$C$DW$T$10)
    1245                            .dwattr $C$DW$93, DW_AT_location[DW_OP_reg0]
    1246                    
    1247                    $C$DW$94        .dwtag  DW_TAG_formal_parameter
    1248                            .dwattr $C$DW$94, DW_AT_name("ofs")
    1249                            .dwattr $C$DW$94, DW_AT_TI_symbol_name("ofs")
    1250                            .dwattr $C$DW$94, DW_AT_type(*$C$DW$T$10)
    1251                            .dwattr $C$DW$94, DW_AT_location[DW_OP_reg1]
    1252                    
    1253                    
    1254                    ;*****************************************************************************
    1255                    ;* FUNCTION NAME: NVOCTP_readByte                                            *
    1256                    ;*                                                                           *
    1257                    ;*   Regs Modified     : A1,SR                                               *
    1258                    ;*   Regs Used         : A1,A2,LR,SR                                         *
    1259                    ;*   Local Frame Size  : 0 Args + 0 Auto + 0 Save = 0 byte                   *
    1260                    ;*****************************************************************************
    1261                    NVOCTP_readByte:
    1262                    ;* --------------------------------------------------------------------------*
    1263                    ;* A1    assigned to pg
    1264                    $C$DW$95        .dwtag  DW_TAG_variable
    1265                            .dwattr $C$DW$95, DW_AT_name("pg")
TI ARM Assembler PC v16.9.9 Sun Nov 25 19:10:06 2018

Tools Copyright (c) 1996-2017 Texas Instruments Incorporated
C:\Users\Stryd\AppData\Local\Temp\{6FE13B51-C70D-4DF2-8F05-648F609965C3} PAGE   24

    1266                            .dwattr $C$DW$95, DW_AT_TI_symbol_name("pg")
    1267                            .dwattr $C$DW$95, DW_AT_type(*$C$DW$T$1061)
    1268                            .dwattr $C$DW$95, DW_AT_location[DW_OP_reg0]
    1269                    
    1270                    ;* A2    assigned to ofs
    1271                    $C$DW$96        .dwtag  DW_TAG_variable
    1272                            .dwattr $C$DW$96, DW_AT_name("ofs")
    1273                            .dwattr $C$DW$96, DW_AT_TI_symbol_name("ofs")
    1274                            .dwattr $C$DW$96, DW_AT_type(*$C$DW$T$1092)
    1275                            .dwattr $C$DW$96, DW_AT_location[DW_OP_reg1]
    1276                    
    1277                            .dwcfi  cfa_offset, 0
    1278                            .dwpsn  file "../Application/Services/nvoctp.c",line 1748,column 5,is_stmt,isa 1
    1279 00000000 0300              LSLS      A1, A1, #12           ; [DPU_3_PIPE] |1748|  ; [ORIG 16-BIT INS]
    1280 00000002 5C08              LDRB      A1, [A2, +A1]         ; [DPU_3_PIPE] |1748|  ; [ORIG 16-BIT INS]
    1281                    $C$DW$97        .dwtag  DW_TAG_TI_branch
    1282                            .dwattr $C$DW$97, DW_AT_low_pc(0x00)
    1283                            .dwattr $C$DW$97, DW_AT_TI_return
    1284                    
    1285 00000004 4770              BX        LR                    ; [DPU_3_PIPE]  ; [ORIG 16-BIT INS]
    1286                            ; BRANCH OCCURS                  ; [] 
    1287                            .dwattr $C$DW$92, DW_AT_TI_end_file("../Application/Services/nvoctp.c")
    1288                            .dwattr $C$DW$92, DW_AT_TI_end_line(0x6d5)
    1289                            .dwattr $C$DW$92, DW_AT_TI_end_column(0x01)
    1290                            .dwendentry
    1291                            .dwendtag $C$DW$92
    1292                    
    1293 00000000                   .sect   ".text:NVOCTP_isErased"
    1294                            .clink
    1295                            .thumbfunc NVOCTP_isErased
    1296 00000000                   .thumb
    1297                    
    1298                    $C$DW$98        .dwtag  DW_TAG_subprogram
    1299                            .dwattr $C$DW$98, DW_AT_name("NVOCTP_isErased")
    1300                            .dwattr $C$DW$98, DW_AT_low_pc(NVOCTP_isErased)
    1301                            .dwattr $C$DW$98, DW_AT_high_pc(0x00)
    1302                            .dwattr $C$DW$98, DW_AT_TI_symbol_name("NVOCTP_isErased")
    1303                            .dwattr $C$DW$98, DW_AT_type(*$C$DW$T$242)
    1304                            .dwattr $C$DW$98, DW_AT_TI_begin_file("../Application/Services/nvoctp.c")
    1305                            .dwattr $C$DW$98, DW_AT_TI_begin_line(0x77d)
    1306                            .dwattr $C$DW$98, DW_AT_TI_begin_column(0x0d)
    1307                            .dwattr $C$DW$98, DW_AT_decl_file("../Application/Services/nvoctp.c")
    1308                            .dwattr $C$DW$98, DW_AT_decl_line(0x77d)
    1309                            .dwattr $C$DW$98, DW_AT_decl_column(0x0d)
    1310                            .dwattr $C$DW$98, DW_AT_TI_max_frame_size(0x00)
    1311                            .dwpsn  file "../Application/Services/nvoctp.c",line 1920,column 1,is_stmt,address NVOCTP_isEr
    1312                    
    1313                            .dwfde $C$DW$CIE, NVOCTP_isErased
    1314                    $C$DW$99        .dwtag  DW_TAG_formal_parameter
    1315                            .dwattr $C$DW$99, DW_AT_name("pg")
    1316                            .dwattr $C$DW$99, DW_AT_TI_symbol_name("pg")
    1317                            .dwattr $C$DW$99, DW_AT_type(*$C$DW$T$10)
    1318                            .dwattr $C$DW$99, DW_AT_location[DW_OP_reg0]
    1319                    
    1320                    $C$DW$100       .dwtag  DW_TAG_formal_parameter
TI ARM Assembler PC v16.9.9 Sun Nov 25 19:10:06 2018

Tools Copyright (c) 1996-2017 Texas Instruments Incorporated
C:\Users\Stryd\AppData\Local\Temp\{6FE13B51-C70D-4DF2-8F05-648F609965C3} PAGE   25

    1321                            .dwattr $C$DW$100, DW_AT_name("ofs")
    1322                            .dwattr $C$DW$100, DW_AT_TI_symbol_name("ofs")
    1323                            .dwattr $C$DW$100, DW_AT_type(*$C$DW$T$10)
    1324                            .dwattr $C$DW$100, DW_AT_location[DW_OP_reg1]
    1325                    
    1326                    $C$DW$101       .dwtag  DW_TAG_formal_parameter
    1327                            .dwattr $C$DW$101, DW_AT_name("num")
    1328                            .dwattr $C$DW$101, DW_AT_TI_symbol_name("num")
    1329                            .dwattr $C$DW$101, DW_AT_type(*$C$DW$T$10)
    1330                            .dwattr $C$DW$101, DW_AT_location[DW_OP_reg2]
    1331                    
    1332                    
    1333                    ;*****************************************************************************
    1334                    ;* FUNCTION NAME: NVOCTP_isErased                                            *
    1335                    ;*                                                                           *
    1336                    ;*   Regs Modified     : A1,A2,A3,SR                                         *
    1337                    ;*   Regs Used         : A1,A2,A3,LR,SR                                      *
    1338                    ;*   Local Frame Size  : 0 Args + 0 Auto + 0 Save = 0 byte                   *
    1339                    ;*****************************************************************************
    1340                    NVOCTP_isErased:
    1341                    ;* --------------------------------------------------------------------------*
    1342                    ;* A1    assigned to pg
    1343                    $C$DW$102       .dwtag  DW_TAG_variable
    1344                            .dwattr $C$DW$102, DW_AT_name("pg")
    1345                            .dwattr $C$DW$102, DW_AT_TI_symbol_name("pg")
    1346                            .dwattr $C$DW$102, DW_AT_type(*$C$DW$T$1061)
    1347                            .dwattr $C$DW$102, DW_AT_location[DW_OP_reg0]
    1348                    
    1349                    ;* A2    assigned to ofs
    1350                    $C$DW$103       .dwtag  DW_TAG_variable
    1351                            .dwattr $C$DW$103, DW_AT_name("ofs")
    1352                            .dwattr $C$DW$103, DW_AT_TI_symbol_name("ofs")
    1353                            .dwattr $C$DW$103, DW_AT_type(*$C$DW$T$1092)
    1354                            .dwattr $C$DW$103, DW_AT_location[DW_OP_reg1]
    1355                    
    1356                    ;* A3    assigned to num
    1357                    $C$DW$104       .dwtag  DW_TAG_variable
    1358                            .dwattr $C$DW$104, DW_AT_name("num")
    1359                            .dwattr $C$DW$104, DW_AT_TI_symbol_name("num")
    1360                            .dwattr $C$DW$104, DW_AT_type(*$C$DW$T$125)
    1361                            .dwattr $C$DW$104, DW_AT_location[DW_OP_reg2]
    1362                    
    1363                    ;* A2    assigned to addr
    1364                    $C$DW$105       .dwtag  DW_TAG_variable
    1365                            .dwattr $C$DW$105, DW_AT_name("addr")
    1366                            .dwattr $C$DW$105, DW_AT_TI_symbol_name("addr")
    1367                            .dwattr $C$DW$105, DW_AT_type(*$C$DW$T$130)
    1368                            .dwattr $C$DW$105, DW_AT_location[DW_OP_reg1]
    1369                    
    1370                            .dwcfi  cfa_offset, 0
    1371                            .dwpsn  file "../Application/Services/nvoctp.c",line 1922,column 19,is_stmt,isa 1
    1372 00000000 3100EB01          ADD       A2, A2, A1, LSL #12   ; [DPU_3_PIPE] |1922|  ; [KEEP 32-BIT INS]
    1373 00000004 1C49              ADDS      A2, A2, #1            ; [DPU_3_PIPE] |1922|  ; [ORIG 16-BIT INS]
    1374                    ;* --------------------------------------------------------------------------*
    1375                    ;*   BEGIN LOOP ||$C$L16||
TI ARM Assembler PC v16.9.9 Sun Nov 25 19:10:06 2018

Tools Copyright (c) 1996-2017 Texas Instruments Incorporated
C:\Users\Stryd\AppData\Local\Temp\{6FE13B51-C70D-4DF2-8F05-648F609965C3} PAGE   26

    1376                    ;*
    1377                    ;*   Loop source line                : 1925
    1378                    ;*   Loop closing brace source line  : 1932
    1379                    ;*   Known Minimum Trip Count        : 1
    1380                    ;*   Known Maximum Trip Count        : 4294967295
    1381                    ;*   Known Max Trip Count Factor     : 1
    1382                    ;* --------------------------------------------------------------------------*
    1383 00000006           ||$C$L16||:    
    1384                            .dwpsn  file "../Application/Services/nvoctp.c",line 1925,column 5,is_stmt,isa 1
    1385 00000006 4610              MOV       A1, A3                ; [DPU_3_PIPE] |1925|  ; [ORIG 16-BIT INS]
    1386 00000008 1E42              SUBS      A3, A1, #1            ; [DPU_3_PIPE] |1925|  ; [ORIG 16-BIT INS]
    1387 0000000a 2800              CMP       A1, #0                ; [DPU_3_PIPE] |1925|  ; [ORIG 16-BIT INS]
    1388 0000000c B292              UXTH      A3, A3                ; [DPU_3_PIPE] |1925|  ; [ORIG 16-BIT INS]
    1389 0000000e BF08              IT        EQ                    ; [DPU_3_PIPE]  ; [ORIG 16-BIT INS]
    1390                            .dwpsn  file "../Application/Services/nvoctp.c",line 1935,column 5,is_stmt,isa 1
    1391 00000010 2001              MOVEQ     A1, #1                ; [DPU_3_PIPE] |1935|  ; [ORIG 16-BIT INS]
    1392 00000012 D004              BEQ       ||$C$L17||            ; [DPU_3_PIPE] |1935|  ; [ORIG 16-BIT INS]
    1393                            ; BRANCHCC OCCURS {||$C$L17||}   ; [] |1935| 
    1394                    ;* --------------------------------------------------------------------------*
    1395                            .dwpsn  file "../Application/Services/nvoctp.c",line 1927,column 9,is_stmt,isa 1
    1396 00000014 0D01F811          LDRB      A1, [A2, #-1]!        ; [DPU_3_PIPE] |1927|  ; [KEEP 32-BIT INS]
    1397 00000018 28FF              CMP       A1, #255              ; [DPU_3_PIPE] |1927|  ; [ORIG 16-BIT INS]
    1398 0000001a D0F4              BEQ       ||$C$L16||            ; [DPU_3_PIPE] |1927|  ; [ORIG 16-BIT INS]
    1399                            ; BRANCHCC OCCURS {||$C$L16||}   ; [] |1927| 
    1400                    ;* --------------------------------------------------------------------------*
    1401                            .dwpsn  file "../Application/Services/nvoctp.c",line 1930,column 13,is_stmt,isa 1
    1402 0000001c 2000              MOVS      A1, #0                ; [DPU_3_PIPE] |1930|  ; [ORIG 16-BIT INS]
    1403                    ;* --------------------------------------------------------------------------*
    1404                    ||$C$L17||:    
    1405                    $C$DW$106       .dwtag  DW_TAG_TI_branch
    1406                            .dwattr $C$DW$106, DW_AT_low_pc(0x00)
    1407                            .dwattr $C$DW$106, DW_AT_TI_return
    1408                    
    1409 0000001e 4770              BX        LR                    ; [DPU_3_PIPE]  ; [ORIG 16-BIT INS]
    1410                            ; BRANCH OCCURS                  ; [] 
    1411                            .dwattr $C$DW$98, DW_AT_TI_end_file("../Application/Services/nvoctp.c")
    1412                            .dwattr $C$DW$98, DW_AT_TI_end_line(0x790)
    1413                            .dwattr $C$DW$98, DW_AT_TI_end_column(0x01)
    1414                            .dwendentry
    1415                            .dwendtag $C$DW$98
    1416                    
    1417 00000000                   .sect   ".text:NVOCTP_getItemLenApi"
    1418                            .clink
    1419                            .thumbfunc NVOCTP_getItemLenApi
    1420 00000000                   .thumb
    1421                    
    1422                    $C$DW$107       .dwtag  DW_TAG_subprogram
    1423                            .dwattr $C$DW$107, DW_AT_name("NVOCTP_getItemLenApi")
    1424                            .dwattr $C$DW$107, DW_AT_low_pc(NVOCTP_getItemLenApi)
    1425                            .dwattr $C$DW$107, DW_AT_high_pc(0x00)
    1426                            .dwattr $C$DW$107, DW_AT_TI_symbol_name("NVOCTP_getItemLenApi")
    1427                            .dwattr $C$DW$107, DW_AT_type(*$C$DW$T$124)
    1428                            .dwattr $C$DW$107, DW_AT_TI_begin_file("../Application/Services/nvoctp.c")
    1429                            .dwattr $C$DW$107, DW_AT_TI_begin_line(0x2e1)
    1430                            .dwattr $C$DW$107, DW_AT_TI_begin_column(0x11)
TI ARM Assembler PC v16.9.9 Sun Nov 25 19:10:06 2018

Tools Copyright (c) 1996-2017 Texas Instruments Incorporated
C:\Users\Stryd\AppData\Local\Temp\{6FE13B51-C70D-4DF2-8F05-648F609965C3} PAGE   27

    1431                            .dwattr $C$DW$107, DW_AT_decl_file("../Application/Services/nvoctp.c")
    1432                            .dwattr $C$DW$107, DW_AT_decl_line(0x2e1)
    1433                            .dwattr $C$DW$107, DW_AT_decl_column(0x11)
    1434                            .dwattr $C$DW$107, DW_AT_TI_max_frame_size(0x30)
    1435                            .dwpsn  file "../Application/Services/nvoctp.c",line 738,column 1,is_stmt,address NVOCTP_getIt
    1436                    
    1437                            .dwfde $C$DW$CIE, NVOCTP_getItemLenApi
    1438                    $C$DW$108       .dwtag  DW_TAG_formal_parameter
    1439                            .dwattr $C$DW$108, DW_AT_name("id")
    1440                            .dwattr $C$DW$108, DW_AT_TI_symbol_name("id")
    1441                            .dwattr $C$DW$108, DW_AT_type(*$C$DW$T$303)
    1442                            .dwattr $C$DW$108, DW_AT_location[DW_OP_breg13 40]
    1443                    
    1444                    
    1445                    ;*****************************************************************************
    1446                    ;* FUNCTION NAME: NVOCTP_getItemLenApi                                       *
    1447                    ;*                                                                           *
    1448                    ;*   Regs Modified     : A1,A2,A3,A4,V1,V2,V4,V9,SP,LR,SR                    *
    1449                    ;*   Regs Used         : A1,A2,A3,A4,V1,V2,V4,V9,SP,LR,SR                    *
    1450                    ;*   Local Frame Size  : 0 Args + 24 Auto + 16 Save = 40 byte                *
    1451                    ;*****************************************************************************
    1452                    NVOCTP_getItemLenApi:
    1453                    ;* --------------------------------------------------------------------------*
    1454                    $C$DW$109       .dwtag  DW_TAG_variable
    1455                            .dwattr $C$DW$109, DW_AT_name("iHdr")
    1456                            .dwattr $C$DW$109, DW_AT_TI_symbol_name("iHdr")
    1457                            .dwattr $C$DW$109, DW_AT_type(*$C$DW$T$128)
    1458                            .dwattr $C$DW$109, DW_AT_location[DW_OP_breg13 0]
    1459                    
    1460                    ;* V1    assigned to $O$K5
    1461                    ;* V2    assigned to len
    1462                    $C$DW$110       .dwtag  DW_TAG_variable
    1463                            .dwattr $C$DW$110, DW_AT_name("len")
    1464                            .dwattr $C$DW$110, DW_AT_TI_symbol_name("len")
    1465                            .dwattr $C$DW$110, DW_AT_type(*$C$DW$T$124)
    1466                            .dwattr $C$DW$110, DW_AT_location[DW_OP_reg5]
    1467                    
    1468                            .dwcfi  cfa_offset, 0
    1469 00000000 B403              PUSH      {A1, A2}              ; [DPU_3_PIPE]  ; [ORIG 16-BIT INS]
    1470                            .dwcfi  cfa_offset, 8
    1471                            .dwcfi  save_reg_to_mem, 1, -4
    1472                            .dwcfi  save_reg_to_mem, 0, -8
    1473 00000002 B5B0              PUSH      {V1, V2, V4, LR}      ; [DPU_3_PIPE]  ; [ORIG 16-BIT INS]
    1474                            .dwcfi  cfa_offset, 24
    1475                            .dwcfi  save_reg_to_mem, 14, -12
    1476                            .dwcfi  save_reg_to_mem, 7, -16
    1477                            .dwcfi  save_reg_to_mem, 5, -20
    1478                            .dwcfi  save_reg_to_mem, 4, -24
    1479                            .dwpsn  file "../Application/Services/nvoctp.c",line 744,column 5,is_stmt,isa 1
    1480 00000004 4C11              LDR       V1, $C$CON6           ; [DPU_3_PIPE] |744|  ; [ORIG 16-BIT INS]
    1481 00000006 0008F104          ADD       A1, V1, #8            ; [DPU_3_PIPE]  ; [KEEP 32-BIT INS]
    1482 0000000a 6800              LDR       A1, [A1, #0]          ; [DPU_3_PIPE] |744|  ; [ORIG 16-BIT INS]
    1483 0000000c 31FFF04F          MOV       A2, #-1               ; [DPU_3_PIPE] |744|  ; [KEEP 32-BIT INS]
    1484 00000010 AF04              ADD       V4, SP, #16           ; [DPU_3_PIPE]  ; [ORIG 16-BIT INS]
    1485 00000012 0D18F1AD          SUB       SP, SP, #24           ; [DPU_3_PIPE]  ; [KEEP 32-BIT INS]
TI ARM Assembler PC v16.9.9 Sun Nov 25 19:10:06 2018

Tools Copyright (c) 1996-2017 Texas Instruments Incorporated
C:\Users\Stryd\AppData\Local\Temp\{6FE13B51-C70D-4DF2-8F05-648F609965C3} PAGE   28

    1486                            .dwcfi  cfa_offset, 48
    1487                    $C$DW$111       .dwtag  DW_TAG_TI_branch
    1488                            .dwattr $C$DW$111, DW_AT_low_pc(0x00)
    1489                            .dwattr $C$DW$111, DW_AT_name("ti_sysbios_knl_Semaphore_pend__E")
    1490                            .dwattr $C$DW$111, DW_AT_TI_call
    1491                    
    1492 00000016 FFFEF7FF!         BL        ti_sysbios_knl_Semaphore_pend__E ; [DPU_3_PIPE] |744|  ; [KEEP 32-BIT INS]
    1493                            ; CALL OCCURS {ti_sysbios_knl_Semaphore_pend__E }  ; [] |744| 
    1494                            .dwpsn  file "../Application/Services/nvoctp.c",line 746,column 5,is_stmt,isa 1
    1495 0000001a 6839              LDR       A2, [V4, #0]          ; [DPU_3_PIPE] |746|  ; [ORIG 16-BIT INS]
    1496 0000001c A804              ADD       A1, SP, #16           ; [DPU_3_PIPE] |746|  ; [ORIG 16-BIT INS]
    1497 0000001e 6001              STR       A2, [A1, #0]          ; [DPU_3_PIPE] |746|  ; [ORIG 16-BIT INS]
    1498 00000020 88B9              LDRH      A2, [V4, #4]          ; [DPU_3_PIPE] |746|  ; [ORIG 16-BIT INS]
    1499 00000022 8081              STRH      A2, [A1, #4]          ; [DPU_3_PIPE] |746|  ; [ORIG 16-BIT INS]
    1500 00000024 A804              ADD       A1, SP, #16           ; [DPU_3_PIPE] |746|  ; [ORIG 16-BIT INS]
    1501 00000026 C803              LDMIA     A1, {A1,A2}           ; [DPU_3_PIPE] |746|  ; [ORIG 16-BIT INS]
    1502 00000028 2200              MOVS      A3, #0                ; [DPU_3_PIPE] |746|  ; [ORIG 16-BIT INS]
    1503 0000002a 466B              MOV       A4, SP                ; [DPU_3_PIPE] |746|  ; [ORIG 16-BIT INS]
    1504                    $C$DW$112       .dwtag  DW_TAG_TI_branch
    1505                            .dwattr $C$DW$112, DW_AT_low_pc(0x00)
    1506                            .dwattr $C$DW$112, DW_AT_name("NVOCTP_checkItem")
    1507                            .dwattr $C$DW$112, DW_AT_TI_call
    1508                    
    1509 0000002c FFFEF7FF!         BL        NVOCTP_checkItem      ; [DPU_3_PIPE] |746|  ; [KEEP 32-BIT INS]
    1510                            ; CALL OCCURS {NVOCTP_checkItem }  ; [] |746| 
    1511 00000030 2800              CMP       A1, #0                ; [DPU_3_PIPE] |746|  ; [ORIG 16-BIT INS]
    1512 00000032 BF0C              ITE       EQ                    ; [DPU_3_PIPE]  ; [ORIG 16-BIT INS]
    1513                            .dwpsn  file "../Application/Services/nvoctp.c",line 749,column 5,is_stmt,isa 1
    1514 00000034 500CF8BD          LDRHEQ    V2, [SP, #12]         ; [DPU_3_PIPE] |749|  ; [KEEP 32-BIT INS]
    1515 00000038 2500              MOVNE     V2, #0                ; [DPU_3_PIPE] |749|  ; [ORIG 16-BIT INS]
    1516                            .dwpsn  file "../Application/Services/nvoctp.c",line 751,column 5,is_stmt,isa 1
    1517 0000003a 68A0              LDR       A1, [V1, #8]          ; [DPU_3_PIPE] |751|  ; [ORIG 16-BIT INS]
    1518                    $C$DW$113       .dwtag  DW_TAG_TI_branch
    1519                            .dwattr $C$DW$113, DW_AT_low_pc(0x00)
    1520                            .dwattr $C$DW$113, DW_AT_name("ti_sysbios_knl_Semaphore_post__E")
    1521                            .dwattr $C$DW$113, DW_AT_TI_call
    1522                    
    1523 0000003c FFFEF7FF!         BL        ti_sysbios_knl_Semaphore_post__E ; [DPU_3_PIPE] |751|  ; [KEEP 32-BIT INS]
    1524                            ; CALL OCCURS {ti_sysbios_knl_Semaphore_post__E }  ; [] |751| 
    1525 00000040 4628              MOV       A1, V2                ; [DPU_3_PIPE] |751|  ; [ORIG 16-BIT INS]
    1526 00000042 B006              ADD       SP, SP, #24           ; [DPU_3_PIPE]  ; [ORIG 16-BIT INS]
    1527                            .dwcfi  cfa_offset, 24
    1528 00000044 40B0E8BD          POP       {V1, V2, V4, LR}      ; [DPU_3_PIPE]  ; [KEEP 32-BIT INS]
    1529                            .dwcfi  cfa_offset, 8
    1530                            .dwcfi  restore_reg, 14
    1531                            .dwcfi  restore_reg, 7
    1532                            .dwcfi  restore_reg, 5
    1533                            .dwcfi  restore_reg, 4
    1534 00000048 B002              ADD       SP, SP, #8            ; [DPU_3_PIPE]  ; [ORIG 16-BIT INS]
    1535                            .dwcfi  cfa_offset, 0
    1536                    $C$DW$114       .dwtag  DW_TAG_TI_branch
    1537                            .dwattr $C$DW$114, DW_AT_low_pc(0x00)
    1538                            .dwattr $C$DW$114, DW_AT_TI_return
    1539                    
    1540 0000004a 4770              BX        LR                    ; [DPU_3_PIPE]  ; [ORIG 16-BIT INS]
TI ARM Assembler PC v16.9.9 Sun Nov 25 19:10:06 2018

Tools Copyright (c) 1996-2017 Texas Instruments Incorporated
C:\Users\Stryd\AppData\Local\Temp\{6FE13B51-C70D-4DF2-8F05-648F609965C3} PAGE   29

    1541                            ; BRANCH OCCURS                  ; [] 
    1542                            .dwattr $C$DW$107, DW_AT_TI_end_file("../Application/Services/nvoctp.c")
    1543                            .dwattr $C$DW$107, DW_AT_TI_end_line(0x2f0)
    1544                            .dwattr $C$DW$107, DW_AT_TI_end_column(0x01)
    1545                            .dwendentry
    1546                            .dwendtag $C$DW$107
    1547                    
    1548 00000000                   .sect   ".text:NVOCTP_readItemApi"
    1549                            .clink
    1550                            .thumbfunc NVOCTP_readItemApi
    1551 00000000                   .thumb
    1552                    
    1553                    $C$DW$115       .dwtag  DW_TAG_subprogram
    1554                            .dwattr $C$DW$115, DW_AT_name("NVOCTP_readItemApi")
    1555                            .dwattr $C$DW$115, DW_AT_low_pc(NVOCTP_readItemApi)
    1556                            .dwattr $C$DW$115, DW_AT_high_pc(0x00)
    1557                            .dwattr $C$DW$115, DW_AT_TI_symbol_name("NVOCTP_readItemApi")
    1558                            .dwattr $C$DW$115, DW_AT_type(*$C$DW$T$126)
    1559                            .dwattr $C$DW$115, DW_AT_TI_begin_file("../Application/Services/nvoctp.c")
    1560                            .dwattr $C$DW$115, DW_AT_TI_begin_line(0x2fe)
    1561                            .dwattr $C$DW$115, DW_AT_TI_begin_column(0x10)
    1562                            .dwattr $C$DW$115, DW_AT_decl_file("../Application/Services/nvoctp.c")
    1563                            .dwattr $C$DW$115, DW_AT_decl_line(0x2fe)
    1564                            .dwattr $C$DW$115, DW_AT_decl_column(0x10)
    1565                            .dwattr $C$DW$115, DW_AT_TI_max_frame_size(0x40)
    1566                            .dwpsn  file "../Application/Services/nvoctp.c",line 770,column 1,is_stmt,address NVOCTP_readI
    1567                    
    1568                            .dwfde $C$DW$CIE, NVOCTP_readItemApi
    1569                    $C$DW$116       .dwtag  DW_TAG_formal_parameter
    1570                            .dwattr $C$DW$116, DW_AT_name("id")
    1571                            .dwattr $C$DW$116, DW_AT_TI_symbol_name("id")
    1572                            .dwattr $C$DW$116, DW_AT_type(*$C$DW$T$303)
    1573                            .dwattr $C$DW$116, DW_AT_location[DW_OP_breg13 56]
    1574                    
    1575                    $C$DW$117       .dwtag  DW_TAG_formal_parameter
    1576                            .dwattr $C$DW$117, DW_AT_name("bOfs")
    1577                            .dwattr $C$DW$117, DW_AT_TI_symbol_name("bOfs")
    1578                            .dwattr $C$DW$117, DW_AT_type(*$C$DW$T$10)
    1579                            .dwattr $C$DW$117, DW_AT_location[DW_OP_reg2]
    1580                    
    1581                    $C$DW$118       .dwtag  DW_TAG_formal_parameter
    1582                            .dwattr $C$DW$118, DW_AT_name("bLen")
    1583                            .dwattr $C$DW$118, DW_AT_TI_symbol_name("bLen")
    1584                            .dwattr $C$DW$118, DW_AT_type(*$C$DW$T$10)
    1585                            .dwattr $C$DW$118, DW_AT_location[DW_OP_reg3]
    1586                    
    1587                    $C$DW$119       .dwtag  DW_TAG_formal_parameter
    1588                            .dwattr $C$DW$119, DW_AT_name("pBuf")
    1589                            .dwattr $C$DW$119, DW_AT_TI_symbol_name("pBuf")
    1590                            .dwattr $C$DW$119, DW_AT_type(*$C$DW$T$3)
    1591                            .dwattr $C$DW$119, DW_AT_location[DW_OP_breg13 64]
    1592                    
    1593                    
    1594                    ;*****************************************************************************
    1595                    ;* FUNCTION NAME: NVOCTP_readItemApi                                         *
TI ARM Assembler PC v16.9.9 Sun Nov 25 19:10:06 2018

Tools Copyright (c) 1996-2017 Texas Instruments Incorporated
C:\Users\Stryd\AppData\Local\Temp\{6FE13B51-C70D-4DF2-8F05-648F609965C3} PAGE   30

    1596                    ;*                                                                           *
    1597                    ;*   Regs Modified     : A1,A2,A3,A4,V1,V2,V3,V4,V5,V6,V9,SP,LR,SR           *
    1598                    ;*   Regs Used         : A1,A2,A3,A4,V1,V2,V3,V4,V5,V6,V9,SP,LR,SR           *
    1599                    ;*   Local Frame Size  : 0 Args + 24 Auto + 28 Save = 52 byte                *
    1600                    ;*****************************************************************************
    1601                    NVOCTP_readItemApi:
    1602                    ;* --------------------------------------------------------------------------*
    1603                    $C$DW$120       .dwtag  DW_TAG_variable
    1604                            .dwattr $C$DW$120, DW_AT_name("iHdr")
    1605                            .dwattr $C$DW$120, DW_AT_TI_symbol_name("iHdr")
    1606                            .dwattr $C$DW$120, DW_AT_type(*$C$DW$T$128)
    1607                            .dwattr $C$DW$120, DW_AT_location[DW_OP_breg13 0]
    1608                    
    1609                    ;* A4    assigned to $O$C16
    1610                    ;* A3    assigned to $O$C17
    1611                    ;* V2    assigned to $O$C18
    1612                    ;* V5    assigned to $O$K8
    1613                    ;* A1    assigned to $O$v3
    1614                    ;* V6    assigned to bOfs
    1615                    $C$DW$121       .dwtag  DW_TAG_variable
    1616                            .dwattr $C$DW$121, DW_AT_name("bOfs")
    1617                            .dwattr $C$DW$121, DW_AT_TI_symbol_name("bOfs")
    1618                            .dwattr $C$DW$121, DW_AT_type(*$C$DW$T$1092)
    1619                            .dwattr $C$DW$121, DW_AT_location[DW_OP_reg9]
    1620                    
    1621                    ;* V1    assigned to bLen
    1622                    $C$DW$122       .dwtag  DW_TAG_variable
    1623                            .dwattr $C$DW$122, DW_AT_name("bLen")
    1624                            .dwattr $C$DW$122, DW_AT_TI_symbol_name("bLen")
    1625                            .dwattr $C$DW$122, DW_AT_type(*$C$DW$T$1092)
    1626                            .dwattr $C$DW$122, DW_AT_location[DW_OP_reg4]
    1627                    
    1628                    ;* V3    assigned to err
    1629                    $C$DW$123       .dwtag  DW_TAG_variable
    1630                            .dwattr $C$DW$123, DW_AT_name("err")
    1631                            .dwattr $C$DW$123, DW_AT_TI_symbol_name("err")
    1632                            .dwattr $C$DW$123, DW_AT_type(*$C$DW$T$10)
    1633                            .dwattr $C$DW$123, DW_AT_location[DW_OP_reg6]
    1634                    
    1635                    ;* A2    assigned to dOfs
    1636                    $C$DW$124       .dwtag  DW_TAG_variable
    1637                            .dwattr $C$DW$124, DW_AT_name("dOfs")
    1638                            .dwattr $C$DW$124, DW_AT_TI_symbol_name("dOfs")
    1639                            .dwattr $C$DW$124, DW_AT_type(*$C$DW$T$10)
    1640                            .dwattr $C$DW$124, DW_AT_location[DW_OP_reg1]
    1641                    
    1642                            .dwcfi  cfa_offset, 0
    1643 00000000 B403              PUSH      {A1, A2}              ; [DPU_3_PIPE]  ; [ORIG 16-BIT INS]
    1644                            .dwcfi  cfa_offset, 8
    1645                            .dwcfi  save_reg_to_mem, 1, -4
    1646                            .dwcfi  save_reg_to_mem, 0, -8
    1647 00000002 43F0E92D          PUSH      {V1, V2, V3, V4, V5, V6, LR} ; [DPU_3_PIPE]  ; [KEEP 32-BIT INS]
    1648                            .dwcfi  cfa_offset, 36
    1649                            .dwcfi  save_reg_to_mem, 14, -12
    1650                            .dwcfi  save_reg_to_mem, 9, -16
TI ARM Assembler PC v16.9.9 Sun Nov 25 19:10:06 2018

Tools Copyright (c) 1996-2017 Texas Instruments Incorporated
C:\Users\Stryd\AppData\Local\Temp\{6FE13B51-C70D-4DF2-8F05-648F609965C3} PAGE   31

    1651                            .dwcfi  save_reg_to_mem, 8, -20
    1652                            .dwcfi  save_reg_to_mem, 7, -24
    1653                            .dwcfi  save_reg_to_mem, 6, -28
    1654                            .dwcfi  save_reg_to_mem, 5, -32
    1655                            .dwcfi  save_reg_to_mem, 4, -36
    1656                            .dwpsn  file "../Application/Services/nvoctp.c",line 776,column 5,is_stmt,isa 1
    1657 00000006 4D1C              LDR       V2, $C$CON7           ; [DPU_3_PIPE] |776|  ; [ORIG 16-BIT INS]
    1658 00000008 68A8              LDR       A1, [V2, #8]          ; [DPU_3_PIPE] |776|  ; [ORIG 16-BIT INS]
    1659 0000000a 31FFF04F          MOV       A2, #-1               ; [DPU_3_PIPE] |776|  ; [KEEP 32-BIT INS]
    1660 0000000e AF07              ADD       V4, SP, #28           ; [DPU_3_PIPE]  ; [ORIG 16-BIT INS]
    1661                            .dwpsn  file "../Application/Services/nvoctp.c",line 770,column 1,is_stmt,isa 1
    1662 00000010 461C              MOV       V1, A4                ; [DPU_3_PIPE] |770|  ; [ORIG 16-BIT INS]
    1663 00000012 4691              MOV       V6, A3                ; [DPU_3_PIPE] |770|  ; [ORIG 16-BIT INS]
    1664 00000014 0D1CF1AD          SUB       SP, SP, #28           ; [DPU_3_PIPE]  ; [KEEP 32-BIT INS]
    1665                            .dwcfi  cfa_offset, 64
    1666                            .dwpsn  file "../Application/Services/nvoctp.c",line 776,column 5,is_stmt,isa 1
    1667                    $C$DW$125       .dwtag  DW_TAG_TI_branch
    1668                            .dwattr $C$DW$125, DW_AT_low_pc(0x00)
    1669                            .dwattr $C$DW$125, DW_AT_name("ti_sysbios_knl_Semaphore_pend__E")
    1670                            .dwattr $C$DW$125, DW_AT_TI_call
    1671                    
    1672 00000018 FFFEF7FF!         BL        ti_sysbios_knl_Semaphore_pend__E ; [DPU_3_PIPE] |776|  ; [KEEP 32-BIT INS]
    1673                            ; CALL OCCURS {ti_sysbios_knl_Semaphore_pend__E }  ; [] |776| 
    1674                            .dwpsn  file "../Application/Services/nvoctp.c",line 778,column 5,is_stmt,isa 1
    1675 0000001c 6839              LDR       A2, [V4, #0]          ; [DPU_3_PIPE] |778|  ; [ORIG 16-BIT INS]
    1676 0000001e A804              ADD       A1, SP, #16           ; [DPU_3_PIPE] |778|  ; [ORIG 16-BIT INS]
    1677 00000020 6001              STR       A2, [A1, #0]          ; [DPU_3_PIPE] |778|  ; [ORIG 16-BIT INS]
    1678 00000022 88B9              LDRH      A2, [V4, #4]          ; [DPU_3_PIPE] |778|  ; [ORIG 16-BIT INS]
    1679 00000024 8081              STRH      A2, [A1, #4]          ; [DPU_3_PIPE] |778|  ; [ORIG 16-BIT INS]
    1680 00000026 A804              ADD       A1, SP, #16           ; [DPU_3_PIPE] |778|  ; [ORIG 16-BIT INS]
    1681 00000028 C803              LDMIA     A1, {A1,A2}           ; [DPU_3_PIPE] |778|  ; [ORIG 16-BIT INS]
    1682 0000002a 4622              MOV       A3, V1                ; [DPU_3_PIPE] |778|  ; [ORIG 16-BIT INS]
    1683 0000002c 466B              MOV       A4, SP                ; [DPU_3_PIPE] |778|  ; [ORIG 16-BIT INS]
    1684                    $C$DW$126       .dwtag  DW_TAG_TI_branch
    1685                            .dwattr $C$DW$126, DW_AT_low_pc(0x00)
    1686                            .dwattr $C$DW$126, DW_AT_name("NVOCTP_checkItem")
    1687                            .dwattr $C$DW$126, DW_AT_TI_call
    1688                    
    1689 0000002e FFFEF7FF!         BL        NVOCTP_checkItem      ; [DPU_3_PIPE] |778|  ; [KEEP 32-BIT INS]
    1690                            ; CALL OCCURS {NVOCTP_checkItem }  ; [] |778| 
    1691                            .dwpsn  file "../Application/Services/nvoctp.c",line 776,column 5,is_stmt,isa 1
    1692 00000032 46A8              MOV       V5, V2                ; [DPU_3_PIPE] |776|  ; [ORIG 16-BIT INS]
    1693                            .dwpsn  file "../Application/Services/nvoctp.c",line 779,column 5,is_stmt,isa 1
    1694 00000034 1C06              MOVS      V3, A1                ; [DPU_3_PIPE] |779|  ; [ORIG 16-BIT INS]
    1695 00000036 D114              BNE       ||$C$L19||            ; [DPU_3_PIPE] |779|  ; [ORIG 16-BIT INS]
    1696                            ; BRANCHCC OCCURS {||$C$L19||}   ; [] |779| 
    1697                    ;* --------------------------------------------------------------------------*
    1698                            .dwpsn  file "../Application/Services/nvoctp.c",line 782,column 9,is_stmt,isa 1
    1699 00000038 300CF8BD          LDRH      A4, [SP, #12]         ; [DPU_3_PIPE] |782|  ; [KEEP 32-BIT INS]
    1700 0000003c 200AF8BD          LDRH      A3, [SP, #10]         ; [DPU_3_PIPE] |782|  ; [KEEP 32-BIT INS]
    1701 00000040 1AD0              SUBS      A1, A3, A4            ; [DPU_3_PIPE] |782|  ; [ORIG 16-BIT INS]
    1702 00000042 4448              ADD       A1, A1, V6            ; [DPU_3_PIPE] |782|  ; [ORIG 16-BIT INS]
    1703 00000044 B281              UXTH      A2, A1                ; [DPU_3_PIPE] |782|  ; [ORIG 16-BIT INS]
    1704                            .dwpsn  file "../Application/Services/nvoctp.c",line 783,column 9,is_stmt,isa 1
    1705 00000046 0002F898          LDRB      A1, [V5, #2]          ; [DPU_3_PIPE] |783|  ; [KEEP 32-BIT INS]
TI ARM Assembler PC v16.9.9 Sun Nov 25 19:10:06 2018

Tools Copyright (c) 1996-2017 Texas Instruments Incorporated
C:\Users\Stryd\AppData\Local\Temp\{6FE13B51-C70D-4DF2-8F05-648F609965C3} PAGE   32

    1706 0000004a 190D              ADDS      V2, A2, V1            ; [DPU_3_PIPE] |783|  ; [ORIG 16-BIT INS]
    1707 0000004c 42AA              CMP       A3, V2                ; [DPU_3_PIPE] |783|  ; [ORIG 16-BIT INS]
    1708 0000004e DA04              BGE       ||$C$L18||            ; [DPU_3_PIPE] |783|  ; [ORIG 16-BIT INS]
    1709                            ; BRANCHCC OCCURS {||$C$L18||}   ; [] |783| 
    1710                    ;* --------------------------------------------------------------------------*
    1711                            .dwpsn  file "../Application/Services/nvoctp.c",line 791,column 13,is_stmt,isa 1
    1712 00000050 42A3              CMP       A4, V1                ; [DPU_3_PIPE] |791|  ; [ORIG 16-BIT INS]
    1713 00000052 BFB4              ITE       LT                    ; [DPU_3_PIPE]  ; [ORIG 16-BIT INS]
    1714 00000054 2605              MOVLT     V3, #5                ; [DPU_3_PIPE] |791|  ; [ORIG 16-BIT INS]
    1715 00000056 2606              MOVGE     V3, #6                ; [DPU_3_PIPE] |791|  ; [ORIG 16-BIT INS]
    1716 00000058 E003              B         ||$C$L19||            ; [DPU_3_PIPE] |791|  ; [ORIG 16-BIT INS]
    1717                            ; BRANCH OCCURS {||$C$L19||}     ; [] |791| 
    1718                    ;* --------------------------------------------------------------------------*
    1719 0000005a           ||$C$L18||:    
    1720                            .dwpsn  file "../Application/Services/nvoctp.c",line 786,column 13,is_stmt,isa 1
    1721 0000005a 68BB              LDR       A4, [V4, #8]          ; [DPU_3_PIPE] |786|  ; [ORIG 16-BIT INS]
    1722 0000005c 4622              MOV       A3, V1                ; [DPU_3_PIPE] |786|  ; [ORIG 16-BIT INS]
    1723                    $C$DW$127       .dwtag  DW_TAG_TI_branch
    1724                            .dwattr $C$DW$127, DW_AT_low_pc(0x00)
    1725                            .dwattr $C$DW$127, DW_AT_name("NVOCTP_flashRead")
    1726                            .dwattr $C$DW$127, DW_AT_TI_call
    1727                    
    1728 0000005e FFFEF7FF!         BL        NVOCTP_flashRead      ; [DPU_3_PIPE] |786|  ; [KEEP 32-BIT INS]
    1729                            ; CALL OCCURS {NVOCTP_flashRead }  ; [] |786| 
    1730                    ;* --------------------------------------------------------------------------*
    1731 00000062           ||$C$L19||:    
    1732                            .dwpsn  file "../Application/Services/nvoctp.c",line 795,column 5,is_stmt,isa 1
    1733 00000062 0008F8D8          LDR       A1, [V5, #8]          ; [DPU_3_PIPE] |795|  ; [KEEP 32-BIT INS]
    1734                    $C$DW$128       .dwtag  DW_TAG_TI_branch
    1735                            .dwattr $C$DW$128, DW_AT_low_pc(0x00)
    1736                            .dwattr $C$DW$128, DW_AT_name("ti_sysbios_knl_Semaphore_post__E")
    1737                            .dwattr $C$DW$128, DW_AT_TI_call
    1738                    
    1739 00000066 FFFEF7FF!         BL        ti_sysbios_knl_Semaphore_post__E ; [DPU_3_PIPE] |795|  ; [KEEP 32-BIT INS]
    1740                            ; CALL OCCURS {ti_sysbios_knl_Semaphore_post__E }  ; [] |795| 
    1741 0000006a 4630              MOV       A1, V3                ; [DPU_3_PIPE] |795|  ; [ORIG 16-BIT INS]
    1742 0000006c B007              ADD       SP, SP, #28           ; [DPU_3_PIPE]  ; [ORIG 16-BIT INS]
    1743                            .dwcfi  cfa_offset, 36
    1744 0000006e 43F0E8BD          POP       {V1, V2, V3, V4, V5, V6, LR} ; [DPU_3_PIPE]  ; [KEEP 32-BIT INS]
    1745                            .dwcfi  cfa_offset, 8
    1746                            .dwcfi  restore_reg, 14
    1747                            .dwcfi  restore_reg, 9
    1748                            .dwcfi  restore_reg, 8
    1749                            .dwcfi  restore_reg, 7
    1750                            .dwcfi  restore_reg, 6
    1751                            .dwcfi  restore_reg, 5
    1752                            .dwcfi  restore_reg, 4
    1753 00000072 B002              ADD       SP, SP, #8            ; [DPU_3_PIPE]  ; [ORIG 16-BIT INS]
    1754                            .dwcfi  cfa_offset, 0
    1755                    $C$DW$129       .dwtag  DW_TAG_TI_branch
    1756                            .dwattr $C$DW$129, DW_AT_low_pc(0x00)
    1757                            .dwattr $C$DW$129, DW_AT_TI_return
    1758                    
    1759 00000074 4770              BX        LR                    ; [DPU_3_PIPE]  ; [ORIG 16-BIT INS]
    1760                            ; BRANCH OCCURS                  ; [] 
TI ARM Assembler PC v16.9.9 Sun Nov 25 19:10:06 2018

Tools Copyright (c) 1996-2017 Texas Instruments Incorporated
C:\Users\Stryd\AppData\Local\Temp\{6FE13B51-C70D-4DF2-8F05-648F609965C3} PAGE   33

    1761                            .dwattr $C$DW$115, DW_AT_TI_end_file("../Application/Services/nvoctp.c")
    1762                            .dwattr $C$DW$115, DW_AT_TI_end_line(0x31c)
    1763                            .dwattr $C$DW$115, DW_AT_TI_end_column(0x01)
    1764                            .dwendentry
    1765                            .dwendtag $C$DW$115
    1766                    
    1767 00000000                   .sect   ".text:NVOCTP_setItemInactive"
    1768                            .clink
    1769                            .thumbfunc NVOCTP_setItemInactive
    1770 00000000                   .thumb
    1771                    
    1772                    $C$DW$130       .dwtag  DW_TAG_subprogram
    1773                            .dwattr $C$DW$130, DW_AT_name("NVOCTP_setItemInactive")
    1774                            .dwattr $C$DW$130, DW_AT_low_pc(NVOCTP_setItemInactive)
    1775                            .dwattr $C$DW$130, DW_AT_high_pc(0x00)
    1776                            .dwattr $C$DW$130, DW_AT_TI_symbol_name("NVOCTP_setItemInactive")
    1777                            .dwattr $C$DW$130, DW_AT_TI_begin_file("../Application/Services/nvoctp.c")
    1778                            .dwattr $C$DW$130, DW_AT_TI_begin_line(0x4e5)
    1779                            .dwattr $C$DW$130, DW_AT_TI_begin_column(0x0d)
    1780                            .dwattr $C$DW$130, DW_AT_decl_file("../Application/Services/nvoctp.c")
    1781                            .dwattr $C$DW$130, DW_AT_decl_line(0x4e5)
    1782                            .dwattr $C$DW$130, DW_AT_decl_column(0x0d)
    1783                            .dwattr $C$DW$130, DW_AT_TI_max_frame_size(0x08)
    1784                            .dwpsn  file "../Application/Services/nvoctp.c",line 1254,column 1,is_stmt,address NVOCTP_setI
    1785                    
    1786                            .dwfde $C$DW$CIE, NVOCTP_setItemInactive
    1787                    $C$DW$131       .dwtag  DW_TAG_formal_parameter
    1788                            .dwattr $C$DW$131, DW_AT_name("iOfs")
    1789                            .dwattr $C$DW$131, DW_AT_TI_symbol_name("iOfs")
    1790                            .dwattr $C$DW$131, DW_AT_type(*$C$DW$T$10)
    1791                            .dwattr $C$DW$131, DW_AT_location[DW_OP_reg0]
    1792                    
    1793                    
    1794                    ;*****************************************************************************
    1795                    ;* FUNCTION NAME: NVOCTP_setItemInactive                                     *
    1796                    ;*                                                                           *
    1797                    ;*   Regs Modified     : A1,A2,A3,A4,V9,SP,LR,SR                             *
    1798                    ;*   Regs Used         : A1,A2,A3,A4,V9,SP,LR,SR                             *
    1799                    ;*   Local Frame Size  : 0 Args + 0 Auto + 4 Save = 4 byte                   *
    1800                    ;*****************************************************************************
    1801                    NVOCTP_setItemInactive:
    1802                    ;* --------------------------------------------------------------------------*
    1803                    ;* A1    assigned to $O$C1
    1804                    ;* A4    assigned to $O$v1
    1805                    ;* A1    assigned to tmp
    1806                    $C$DW$132       .dwtag  DW_TAG_variable
    1807                            .dwattr $C$DW$132, DW_AT_name("tmp")
    1808                            .dwattr $C$DW$132, DW_AT_TI_symbol_name("tmp")
    1809                            .dwattr $C$DW$132, DW_AT_type(*$C$DW$T$10)
    1810                            .dwattr $C$DW$132, DW_AT_location[DW_OP_reg0]
    1811                    
    1812                            .dwcfi  cfa_offset, 0
    1813 00000000 4601              MOV       A2, A1                ; [DPU_3_PIPE] |1254|  ; [ORIG 16-BIT INS]
    1814                            .dwpsn  file "../Application/Services/nvoctp.c",line 1258,column 5,is_stmt,isa 1
    1815 00000002 4807              LDR       A1, $C$CON9           ; [DPU_3_PIPE] |1258|  ; [ORIG 16-BIT INS]
TI ARM Assembler PC v16.9.9 Sun Nov 25 19:10:06 2018

Tools Copyright (c) 1996-2017 Texas Instruments Incorporated
C:\Users\Stryd\AppData\Local\Temp\{6FE13B51-C70D-4DF2-8F05-648F609965C3} PAGE   34

    1816 00000004 B508              PUSH      {A4, LR}              ; [DPU_3_PIPE]  ; [ORIG 16-BIT INS]
    1817                            .dwcfi  cfa_offset, 8
    1818                            .dwcfi  save_reg_to_mem, 14, -4
    1819                            .dwcfi  save_reg_to_mem, 3, -8
    1820 00000006 1C80              ADDS      A1, A1, #2            ; [DPU_3_PIPE]  ; [ORIG 16-BIT INS]
    1821 00000008 7800              LDRB      A1, [A1, #0]          ; [DPU_3_PIPE] |1258|  ; [ORIG 16-BIT INS]
    1822 0000000a 4603              MOV       A4, A1                ; [DPU_3_PIPE] |1258|  ; [ORIG 16-BIT INS]
    1823                    $C$DW$133       .dwtag  DW_TAG_TI_branch
    1824                            .dwattr $C$DW$133, DW_AT_low_pc(0x00)
    1825                            .dwattr $C$DW$133, DW_AT_name("NVOCTP_readByte")
    1826                            .dwattr $C$DW$133, DW_AT_TI_call
    1827                    
    1828 0000000c FFFEF7FF!         BL        NVOCTP_readByte       ; [DPU_3_PIPE] |1258|  ; [KEEP 32-BIT INS]
    1829                            ; CALL OCCURS {NVOCTP_readByte }  ; [] |1258| 
    1830                            .dwpsn  file "../Application/Services/nvoctp.c",line 1264,column 5,is_stmt,isa 1
    1831 00000010 007FF000          AND       A1, A1, #127          ; [DPU_3_PIPE] |1264|  ; [KEEP 32-BIT INS]
    1832 00000014 4602              MOV       A3, A1                ; [DPU_3_PIPE] |1264|  ; [ORIG 16-BIT INS]
    1833 00000016 4618              MOV       A1, A4                ; [DPU_3_PIPE] |1264|  ; [ORIG 16-BIT INS]
    1834                    $C$DW$134       .dwtag  DW_TAG_TI_branch
    1835                            .dwattr $C$DW$134, DW_AT_low_pc(0x00)
    1836                            .dwattr $C$DW$134, DW_AT_name("NVOCTP_writeByte")
    1837                            .dwattr $C$DW$134, DW_AT_TI_call
    1838                    
    1839 00000018 FFFEF7FF!         BL        NVOCTP_writeByte      ; [DPU_3_PIPE] |1264|  ; [KEEP 32-BIT INS]
    1840                            ; CALL OCCURS {NVOCTP_writeByte }  ; [] |1264| 
    1841                    $C$DW$135       .dwtag  DW_TAG_TI_branch
    1842                            .dwattr $C$DW$135, DW_AT_low_pc(0x00)
    1843                            .dwattr $C$DW$135, DW_AT_TI_return
    1844                    
    1845 0000001c BD08              POP       {A4, PC}              ; [DPU_3_PIPE]  ; [ORIG 16-BIT INS]
    1846                            .dwcfi  cfa_offset, 0
    1847                            .dwcfi  restore_reg, 3
    1848                            ; BRANCH OCCURS                  ; [] 
    1849                            .dwattr $C$DW$130, DW_AT_TI_end_file("../Application/Services/nvoctp.c")
    1850                            .dwattr $C$DW$130, DW_AT_TI_end_line(0x4f1)
    1851                            .dwattr $C$DW$130, DW_AT_TI_end_column(0x01)
    1852                            .dwendentry
    1853                            .dwendtag $C$DW$130
    1854                    
    1855 00000000                   .sect   ".text:NVOCTP_deleteItemApi"
    1856                            .clink
    1857                            .thumbfunc NVOCTP_deleteItemApi
    1858 00000000                   .thumb
    1859                    
    1860                    $C$DW$136       .dwtag  DW_TAG_subprogram
    1861                            .dwattr $C$DW$136, DW_AT_name("NVOCTP_deleteItemApi")
    1862                            .dwattr $C$DW$136, DW_AT_low_pc(NVOCTP_deleteItemApi)
    1863                            .dwattr $C$DW$136, DW_AT_high_pc(0x00)
    1864                            .dwattr $C$DW$136, DW_AT_TI_symbol_name("NVOCTP_deleteItemApi")
    1865                            .dwattr $C$DW$136, DW_AT_type(*$C$DW$T$126)
    1866                            .dwattr $C$DW$136, DW_AT_TI_begin_file("../Application/Services/nvoctp.c")
    1867                            .dwattr $C$DW$136, DW_AT_TI_begin_line(0x2b6)
    1868                            .dwattr $C$DW$136, DW_AT_TI_begin_column(0x10)
    1869                            .dwattr $C$DW$136, DW_AT_decl_file("../Application/Services/nvoctp.c")
    1870                            .dwattr $C$DW$136, DW_AT_decl_line(0x2b6)
TI ARM Assembler PC v16.9.9 Sun Nov 25 19:10:06 2018

Tools Copyright (c) 1996-2017 Texas Instruments Incorporated
C:\Users\Stryd\AppData\Local\Temp\{6FE13B51-C70D-4DF2-8F05-648F609965C3} PAGE   35

    1871                            .dwattr $C$DW$136, DW_AT_decl_column(0x10)
    1872                            .dwattr $C$DW$136, DW_AT_TI_max_frame_size(0x30)
    1873                            .dwpsn  file "../Application/Services/nvoctp.c",line 695,column 1,is_stmt,address NVOCTP_delet
    1874                    
    1875                            .dwfde $C$DW$CIE, NVOCTP_deleteItemApi
    1876                    $C$DW$137       .dwtag  DW_TAG_formal_parameter
    1877                            .dwattr $C$DW$137, DW_AT_name("id")
    1878                            .dwattr $C$DW$137, DW_AT_TI_symbol_name("id")
    1879                            .dwattr $C$DW$137, DW_AT_type(*$C$DW$T$303)
    1880                            .dwattr $C$DW$137, DW_AT_location[DW_OP_breg13 40]
    1881                    
    1882                    
    1883                    ;*****************************************************************************
    1884                    ;* FUNCTION NAME: NVOCTP_deleteItemApi                                       *
    1885                    ;*                                                                           *
    1886                    ;*   Regs Modified     : A1,A2,A3,A4,V1,V2,V4,V9,SP,LR,SR                    *
    1887                    ;*   Regs Used         : A1,A2,A3,A4,V1,V2,V4,V9,SP,LR,SR                    *
    1888                    ;*   Local Frame Size  : 0 Args + 24 Auto + 16 Save = 40 byte                *
    1889                    ;*****************************************************************************
    1890                    NVOCTP_deleteItemApi:
    1891                    ;* --------------------------------------------------------------------------*
    1892                    $C$DW$138       .dwtag  DW_TAG_variable
    1893                            .dwattr $C$DW$138, DW_AT_name("iHdr")
    1894                            .dwattr $C$DW$138, DW_AT_TI_symbol_name("iHdr")
    1895                            .dwattr $C$DW$138, DW_AT_type(*$C$DW$T$128)
    1896                            .dwattr $C$DW$138, DW_AT_location[DW_OP_breg13 0]
    1897                    
    1898                    ;* V1    assigned to $O$C19
    1899                    ;* V2    assigned to $O$K11
    1900                    ;* V1    assigned to $O$v2
    1901                    ;* V4    assigned to err
    1902                    $C$DW$139       .dwtag  DW_TAG_variable
    1903                            .dwattr $C$DW$139, DW_AT_name("err")
    1904                            .dwattr $C$DW$139, DW_AT_TI_symbol_name("err")
    1905                            .dwattr $C$DW$139, DW_AT_type(*$C$DW$T$10)
    1906                            .dwattr $C$DW$139, DW_AT_location[DW_OP_reg7]
    1907                    
    1908                    ;* A1    assigned to hOfs
    1909                    $C$DW$140       .dwtag  DW_TAG_variable
    1910                            .dwattr $C$DW$140, DW_AT_name("hOfs")
    1911                            .dwattr $C$DW$140, DW_AT_TI_symbol_name("hOfs")
    1912                            .dwattr $C$DW$140, DW_AT_type(*$C$DW$T$10)
    1913                            .dwattr $C$DW$140, DW_AT_location[DW_OP_reg0]
    1914                    
    1915                            .dwcfi  cfa_offset, 0
    1916 00000000 B403              PUSH      {A1, A2}              ; [DPU_3_PIPE]  ; [ORIG 16-BIT INS]
    1917                            .dwcfi  cfa_offset, 8
    1918                            .dwcfi  save_reg_to_mem, 1, -4
    1919                            .dwcfi  save_reg_to_mem, 0, -8
    1920 00000002 B5B0              PUSH      {V1, V2, V4, LR}      ; [DPU_3_PIPE]  ; [ORIG 16-BIT INS]
    1921                            .dwcfi  cfa_offset, 24
    1922                            .dwcfi  save_reg_to_mem, 14, -12
    1923                            .dwcfi  save_reg_to_mem, 7, -16
    1924                            .dwcfi  save_reg_to_mem, 5, -20
    1925                            .dwcfi  save_reg_to_mem, 4, -24
TI ARM Assembler PC v16.9.9 Sun Nov 25 19:10:06 2018

Tools Copyright (c) 1996-2017 Texas Instruments Incorporated
C:\Users\Stryd\AppData\Local\Temp\{6FE13B51-C70D-4DF2-8F05-648F609965C3} PAGE   36

    1926 00000004 AF04              ADD       V4, SP, #16           ; [DPU_3_PIPE]  ; [ORIG 16-BIT INS]
    1927                            .dwpsn  file "../Application/Services/nvoctp.c",line 700,column 5,is_stmt,isa 1
    1928 00000006 7838              LDRB      A1, [V4, #0]          ; [DPU_3_PIPE] |700|  ; [ORIG 16-BIT INS]
    1929 00000008 0D18F1AD          SUB       SP, SP, #24           ; [DPU_3_PIPE]  ; [KEEP 32-BIT INS]
    1930                            .dwcfi  cfa_offset, 48
    1931 0000000c 2800              CMP       A1, #0                ; [DPU_3_PIPE] |700|  ; [ORIG 16-BIT INS]
    1932 0000000e BF08              IT        EQ                    ; [DPU_3_PIPE]  ; [ORIG 16-BIT INS]
    1933                            .dwpsn  file "../Application/Services/nvoctp.c",line 703,column 9,is_stmt,isa 1
    1934 00000010 2009              MOVEQ     A1, #9                ; [DPU_3_PIPE] |703|  ; [ORIG 16-BIT INS]
    1935 00000012 D027              BEQ       ||$C$L21||            ; [DPU_3_PIPE] |703|  ; [ORIG 16-BIT INS]
    1936                            ; BRANCHCC OCCURS {||$C$L21||}   ; [] |703| 
    1937                    ;* --------------------------------------------------------------------------*
    1938                            .dwpsn  file "../Application/Services/nvoctp.c",line 708,column 5,is_stmt,isa 1
    1939 00000014 4D16              LDR       V2, $C$CON11          ; [DPU_3_PIPE] |708|  ; [ORIG 16-BIT INS]
    1940 00000016 462C              MOV       V1, V2                ; [DPU_3_PIPE] |708|  ; [ORIG 16-BIT INS]
    1941 00000018 68A0              LDR       A1, [V1, #8]          ; [DPU_3_PIPE] |708|  ; [ORIG 16-BIT INS]
    1942 0000001a 31FFF04F          MOV       A2, #-1               ; [DPU_3_PIPE] |708|  ; [KEEP 32-BIT INS]
    1943                    $C$DW$141       .dwtag  DW_TAG_TI_branch
    1944                            .dwattr $C$DW$141, DW_AT_low_pc(0x00)
    1945                            .dwattr $C$DW$141, DW_AT_name("ti_sysbios_knl_Semaphore_pend__E")
    1946                            .dwattr $C$DW$141, DW_AT_TI_call
    1947                    
    1948 0000001e FFFEF7FF!         BL        ti_sysbios_knl_Semaphore_pend__E ; [DPU_3_PIPE] |708|  ; [KEEP 32-BIT INS]
    1949                            ; CALL OCCURS {ti_sysbios_knl_Semaphore_pend__E }  ; [] |708| 
    1950                            .dwpsn  file "../Application/Services/nvoctp.c",line 710,column 5,is_stmt,isa 1
    1951 00000022 A804              ADD       A1, SP, #16           ; [DPU_3_PIPE] |710|  ; [ORIG 16-BIT INS]
    1952 00000024 6839              LDR       A2, [V4, #0]          ; [DPU_3_PIPE] |710|  ; [ORIG 16-BIT INS]
    1953 00000026 88BD              LDRH      V2, [V4, #4]          ; [DPU_3_PIPE] |710|  ; [ORIG 16-BIT INS]
    1954 00000028 6001              STR       A2, [A1, #0]          ; [DPU_3_PIPE] |710|  ; [ORIG 16-BIT INS]
    1955 0000002a AB04              ADD       A4, SP, #16           ; [DPU_3_PIPE] |710|  ; [ORIG 16-BIT INS]
    1956 0000002c 8085              STRH      V2, [A1, #4]          ; [DPU_3_PIPE] |710|  ; [ORIG 16-BIT INS]
    1957 0000002e 0003E893          LDMIA     A4, {A1,A2}           ; [DPU_3_PIPE] |710|  ; [KEEP 32-BIT INS]
    1958 00000032 2200              MOVS      A3, #0                ; [DPU_3_PIPE] |710|  ; [ORIG 16-BIT INS]
    1959 00000034 466B              MOV       A4, SP                ; [DPU_3_PIPE] |710|  ; [ORIG 16-BIT INS]
    1960                    $C$DW$142       .dwtag  DW_TAG_TI_branch
    1961                            .dwattr $C$DW$142, DW_AT_low_pc(0x00)
    1962                            .dwattr $C$DW$142, DW_AT_name("NVOCTP_checkItem")
    1963                            .dwattr $C$DW$142, DW_AT_TI_call
    1964                    
    1965 00000036 FFFEF7FF!         BL        NVOCTP_checkItem      ; [DPU_3_PIPE] |710|  ; [KEEP 32-BIT INS]
    1966                            ; CALL OCCURS {NVOCTP_checkItem }  ; [] |710| 
    1967                            .dwpsn  file "../Application/Services/nvoctp.c",line 708,column 5,is_stmt,isa 1
    1968 0000003a 4625              MOV       V2, V1                ; [DPU_3_PIPE] |708|  ; [ORIG 16-BIT INS]
    1969                            .dwpsn  file "../Application/Services/nvoctp.c",line 711,column 5,is_stmt,isa 1
    1970 0000003c 1C07              MOVS      V4, A1                ; [DPU_3_PIPE] |711|  ; [ORIG 16-BIT INS]
    1971 0000003e D10D              BNE       ||$C$L20||            ; [DPU_3_PIPE] |711|  ; [ORIG 16-BIT INS]
    1972                            ; BRANCHCC OCCURS {||$C$L20||}   ; [] |711| 
    1973                    ;* --------------------------------------------------------------------------*
    1974                            .dwpsn  file "../Application/Services/nvoctp.c",line 716,column 9,is_stmt,isa 1
    1975 00000040 000AF8BD          LDRH      A1, [SP, #10]         ; [DPU_3_PIPE] |716|  ; [KEEP 32-BIT INS]
    1976                    $C$DW$143       .dwtag  DW_TAG_TI_branch
    1977                            .dwattr $C$DW$143, DW_AT_low_pc(0x00)
    1978                            .dwattr $C$DW$143, DW_AT_name("NVOCTP_setItemInactive")
    1979                            .dwattr $C$DW$143, DW_AT_TI_call
    1980                    
TI ARM Assembler PC v16.9.9 Sun Nov 25 19:10:06 2018

Tools Copyright (c) 1996-2017 Texas Instruments Incorporated
C:\Users\Stryd\AppData\Local\Temp\{6FE13B51-C70D-4DF2-8F05-648F609965C3} PAGE   37

    1981 00000044 FFFEF7FF!         BL        NVOCTP_setItemInactive ; [DPU_3_PIPE] |716|  ; [KEEP 32-BIT INS]
    1982                            ; CALL OCCURS {NVOCTP_setItemInactive }  ; [] |716| 
    1983                            .dwpsn  file "../Application/Services/nvoctp.c",line 719,column 9,is_stmt,isa 1
    1984 00000048 78A8              LDRB      A1, [V2, #2]          ; [DPU_3_PIPE] |719|  ; [ORIG 16-BIT INS]
    1985 0000004a 88E9              LDRH      A2, [V2, #6]          ; [DPU_3_PIPE] |719|  ; [ORIG 16-BIT INS]
    1986 0000004c 9A00              LDR       A3, [SP, #0]          ; [DPU_3_PIPE] |719|  ; [ORIG 16-BIT INS]
    1987                    $C$DW$144       .dwtag  DW_TAG_TI_branch
    1988                            .dwattr $C$DW$144, DW_AT_low_pc(0x00)
    1989                            .dwattr $C$DW$144, DW_AT_name("NVOCTP_findItem")
    1990                            .dwattr $C$DW$144, DW_AT_TI_call
    1991                    
    1992 0000004e FFFEF7FF!         BL        NVOCTP_findItem       ; [DPU_3_PIPE] |719|  ; [KEEP 32-BIT INS]
    1993                            ; CALL OCCURS {NVOCTP_findItem }  ; [] |719| 
    1994                            .dwpsn  file "../Application/Services/nvoctp.c",line 722,column 9,is_stmt,isa 1
    1995 00000052 796C              LDRB      V1, [V2, #5]          ; [DPU_3_PIPE] |722|  ; [ORIG 16-BIT INS]
    1996 00000054 2800              CMP       A1, #0                ; [DPU_3_PIPE] |722|  ; [ORIG 16-BIT INS]
    1997 00000056 BFD4              ITE       LE                    ; [DPU_3_PIPE]  ; [ORIG 16-BIT INS]
    1998 00000058 1C27              MOVLE     V4, V1                ; [DPU_3_PIPE] |722|  ; [ORIG 16-BIT INS]
    1999 0000005a 2702              MOVGT     V4, #2                ; [DPU_3_PIPE] |722|  ; [ORIG 16-BIT INS]
    2000                    ;* --------------------------------------------------------------------------*
    2001 0000005c           ||$C$L20||:    
    2002                            .dwpsn  file "../Application/Services/nvoctp.c",line 725,column 5,is_stmt,isa 1
    2003 0000005c 68A8              LDR       A1, [V2, #8]          ; [DPU_3_PIPE] |725|  ; [ORIG 16-BIT INS]
    2004                    $C$DW$145       .dwtag  DW_TAG_TI_branch
    2005                            .dwattr $C$DW$145, DW_AT_low_pc(0x00)
    2006                            .dwattr $C$DW$145, DW_AT_name("ti_sysbios_knl_Semaphore_post__E")
    2007                            .dwattr $C$DW$145, DW_AT_TI_call
    2008                    
    2009 0000005e FFFEF7FF!         BL        ti_sysbios_knl_Semaphore_post__E ; [DPU_3_PIPE] |725|  ; [KEEP 32-BIT INS]
    2010                            ; CALL OCCURS {ti_sysbios_knl_Semaphore_post__E }  ; [] |725| 
    2011 00000062 4638              MOV       A1, V4                ; [DPU_3_PIPE] |725|  ; [ORIG 16-BIT INS]
    2012                    ;* --------------------------------------------------------------------------*
    2013 00000064           ||$C$L21||:    
    2014 00000064 B006              ADD       SP, SP, #24           ; [DPU_3_PIPE]  ; [ORIG 16-BIT INS]
    2015                            .dwcfi  cfa_offset, 24
    2016 00000066 40B0E8BD          POP       {V1, V2, V4, LR}      ; [DPU_3_PIPE]  ; [KEEP 32-BIT INS]
    2017                            .dwcfi  cfa_offset, 8
    2018                            .dwcfi  restore_reg, 14
    2019                            .dwcfi  restore_reg, 7
    2020                            .dwcfi  restore_reg, 5
    2021                            .dwcfi  restore_reg, 4
    2022 0000006a B002              ADD       SP, SP, #8            ; [DPU_3_PIPE]  ; [ORIG 16-BIT INS]
    2023                            .dwcfi  cfa_offset, 0
    2024                    $C$DW$146       .dwtag  DW_TAG_TI_branch
    2025                            .dwattr $C$DW$146, DW_AT_low_pc(0x00)
    2026                            .dwattr $C$DW$146, DW_AT_TI_return
    2027                    
    2028 0000006c 4770              BX        LR                    ; [DPU_3_PIPE]  ; [ORIG 16-BIT INS]
    2029                            ; BRANCH OCCURS                  ; [] 
    2030                            .dwattr $C$DW$136, DW_AT_TI_end_file("../Application/Services/nvoctp.c")
    2031                            .dwattr $C$DW$136, DW_AT_TI_end_line(0x2d6)
    2032                            .dwattr $C$DW$136, DW_AT_TI_end_column(0x01)
    2033                            .dwendentry
    2034                            .dwendtag $C$DW$136
    2035                    
TI ARM Assembler PC v16.9.9 Sun Nov 25 19:10:06 2018

Tools Copyright (c) 1996-2017 Texas Instruments Incorporated
C:\Users\Stryd\AppData\Local\Temp\{6FE13B51-C70D-4DF2-8F05-648F609965C3} PAGE   38

    2036 00000000                   .sect   ".text:NVOCTP_createItemApi"
    2037                            .clink
    2038                            .thumbfunc NVOCTP_createItemApi
    2039 00000000                   .thumb
    2040                    
    2041                    $C$DW$147       .dwtag  DW_TAG_subprogram
    2042                            .dwattr $C$DW$147, DW_AT_name("NVOCTP_createItemApi")
    2043                            .dwattr $C$DW$147, DW_AT_low_pc(NVOCTP_createItemApi)
    2044                            .dwattr $C$DW$147, DW_AT_high_pc(0x00)
    2045                            .dwattr $C$DW$147, DW_AT_TI_symbol_name("NVOCTP_createItemApi")
    2046                            .dwattr $C$DW$147, DW_AT_type(*$C$DW$T$126)
    2047                            .dwattr $C$DW$147, DW_AT_TI_begin_file("../Application/Services/nvoctp.c")
    2048                            .dwattr $C$DW$147, DW_AT_TI_begin_line(0x291)
    2049                            .dwattr $C$DW$147, DW_AT_TI_begin_column(0x10)
    2050                            .dwattr $C$DW$147, DW_AT_decl_file("../Application/Services/nvoctp.c")
    2051                            .dwattr $C$DW$147, DW_AT_decl_line(0x291)
    2052                            .dwattr $C$DW$147, DW_AT_decl_column(0x10)
    2053                            .dwattr $C$DW$147, DW_AT_TI_max_frame_size(0x38)
    2054                            .dwpsn  file "../Application/Services/nvoctp.c",line 660,column 1,is_stmt,address NVOCTP_creat
    2055                    
    2056                            .dwfde $C$DW$CIE, NVOCTP_createItemApi
    2057                    $C$DW$148       .dwtag  DW_TAG_formal_parameter
    2058                            .dwattr $C$DW$148, DW_AT_name("id")
    2059                            .dwattr $C$DW$148, DW_AT_TI_symbol_name("id")
    2060                            .dwattr $C$DW$148, DW_AT_type(*$C$DW$T$303)
    2061                            .dwattr $C$DW$148, DW_AT_location[DW_OP_breg13 48]
    2062                    
    2063                    $C$DW$149       .dwtag  DW_TAG_formal_parameter
    2064                            .dwattr $C$DW$149, DW_AT_name("bLen")
    2065                            .dwattr $C$DW$149, DW_AT_TI_symbol_name("bLen")
    2066                            .dwattr $C$DW$149, DW_AT_type(*$C$DW$T$124)
    2067                            .dwattr $C$DW$149, DW_AT_location[DW_OP_reg2]
    2068                    
    2069                    $C$DW$150       .dwtag  DW_TAG_formal_parameter
    2070                            .dwattr $C$DW$150, DW_AT_name("pBuf")
    2071                            .dwattr $C$DW$150, DW_AT_TI_symbol_name("pBuf")
    2072                            .dwattr $C$DW$150, DW_AT_type(*$C$DW$T$3)
    2073                            .dwattr $C$DW$150, DW_AT_location[DW_OP_reg3]
    2074                    
    2075                    
    2076                    ;*****************************************************************************
    2077                    ;* FUNCTION NAME: NVOCTP_createItemApi                                       *
    2078                    ;*                                                                           *
    2079                    ;*   Regs Modified     : A1,A2,A3,A4,V1,V2,V3,V4,V9,SP,LR,SR                 *
    2080                    ;*   Regs Used         : A1,A2,A3,A4,V1,V2,V3,V4,V9,SP,LR,SR                 *
    2081                    ;*   Local Frame Size  : 0 Args + 24 Auto + 20 Save = 44 byte                *
    2082                    ;*****************************************************************************
    2083                    NVOCTP_createItemApi:
    2084                    ;* --------------------------------------------------------------------------*
    2085                    $C$DW$151       .dwtag  DW_TAG_variable
    2086                            .dwattr $C$DW$151, DW_AT_name("iHdr")
    2087                            .dwattr $C$DW$151, DW_AT_TI_symbol_name("iHdr")
    2088                            .dwattr $C$DW$151, DW_AT_type(*$C$DW$T$128)
    2089                            .dwattr $C$DW$151, DW_AT_location[DW_OP_breg13 0]
    2090                    
TI ARM Assembler PC v16.9.9 Sun Nov 25 19:10:06 2018

Tools Copyright (c) 1996-2017 Texas Instruments Incorporated
C:\Users\Stryd\AppData\Local\Temp\{6FE13B51-C70D-4DF2-8F05-648F609965C3} PAGE   39

    2091                    ;* V1    assigned to $O$C16
    2092                    ;* V1    assigned to $O$K7
    2093                    ;* V3    assigned to bLen
    2094                    $C$DW$152       .dwtag  DW_TAG_variable
    2095                            .dwattr $C$DW$152, DW_AT_name("bLen")
    2096                            .dwattr $C$DW$152, DW_AT_TI_symbol_name("bLen")
    2097                            .dwattr $C$DW$152, DW_AT_type(*$C$DW$T$1276)
    2098                            .dwattr $C$DW$152, DW_AT_location[DW_OP_reg6]
    2099                    
    2100                    ;* V2    assigned to pBuf
    2101                    $C$DW$153       .dwtag  DW_TAG_variable
    2102                            .dwattr $C$DW$153, DW_AT_name("pBuf")
    2103                            .dwattr $C$DW$153, DW_AT_TI_symbol_name("pBuf")
    2104                            .dwattr $C$DW$153, DW_AT_type(*$C$DW$T$700)
    2105                            .dwattr $C$DW$153, DW_AT_location[DW_OP_reg5]
    2106                    
    2107                    ;* V4    assigned to err
    2108                    $C$DW$154       .dwtag  DW_TAG_variable
    2109                            .dwattr $C$DW$154, DW_AT_name("err")
    2110                            .dwattr $C$DW$154, DW_AT_TI_symbol_name("err")
    2111                            .dwattr $C$DW$154, DW_AT_type(*$C$DW$T$10)
    2112                            .dwattr $C$DW$154, DW_AT_location[DW_OP_reg7]
    2113                    
    2114                            .dwcfi  cfa_offset, 0
    2115 00000000 B403              PUSH      {A1, A2}              ; [DPU_3_PIPE]  ; [ORIG 16-BIT INS]
    2116                            .dwcfi  cfa_offset, 8
    2117                            .dwcfi  save_reg_to_mem, 1, -4
    2118                            .dwcfi  save_reg_to_mem, 0, -8
    2119 00000002 B5F0              PUSH      {V1, V2, V3, V4, LR}  ; [DPU_3_PIPE]  ; [ORIG 16-BIT INS]
    2120                            .dwcfi  cfa_offset, 28
    2121                            .dwcfi  save_reg_to_mem, 14, -12
    2122                            .dwcfi  save_reg_to_mem, 7, -16
    2123                            .dwcfi  save_reg_to_mem, 6, -20
    2124                            .dwcfi  save_reg_to_mem, 5, -24
    2125                            .dwcfi  save_reg_to_mem, 4, -28
    2126                            .dwpsn  file "../Application/Services/nvoctp.c",line 665,column 5,is_stmt,isa 1
    2127 00000004 4C14              LDR       V1, $C$CON13          ; [DPU_3_PIPE] |665|  ; [ORIG 16-BIT INS]
    2128 00000006 68A0              LDR       A1, [V1, #8]          ; [DPU_3_PIPE] |665|  ; [ORIG 16-BIT INS]
    2129 00000008 31FFF04F          MOV       A2, #-1               ; [DPU_3_PIPE] |665|  ; [KEEP 32-BIT INS]
    2130 0000000c AF05              ADD       V4, SP, #20           ; [DPU_3_PIPE]  ; [ORIG 16-BIT INS]
    2131                            .dwpsn  file "../Application/Services/nvoctp.c",line 660,column 1,is_stmt,isa 1
    2132 0000000e 461D              MOV       V2, A4                ; [DPU_3_PIPE] |660|  ; [ORIG 16-BIT INS]
    2133 00000010 4616              MOV       V3, A3                ; [DPU_3_PIPE] |660|  ; [ORIG 16-BIT INS]
    2134 00000012 0D1CF1AD          SUB       SP, SP, #28           ; [DPU_3_PIPE]  ; [KEEP 32-BIT INS]
    2135                            .dwcfi  cfa_offset, 56
    2136                            .dwpsn  file "../Application/Services/nvoctp.c",line 665,column 5,is_stmt,isa 1
    2137                    $C$DW$155       .dwtag  DW_TAG_TI_branch
    2138                            .dwattr $C$DW$155, DW_AT_low_pc(0x00)
    2139                            .dwattr $C$DW$155, DW_AT_name("ti_sysbios_knl_Semaphore_pend__E")
    2140                            .dwattr $C$DW$155, DW_AT_TI_call
    2141                    
    2142 00000016 FFFEF7FF!         BL        ti_sysbios_knl_Semaphore_pend__E ; [DPU_3_PIPE] |665|  ; [KEEP 32-BIT INS]
    2143                            ; CALL OCCURS {ti_sysbios_knl_Semaphore_pend__E }  ; [] |665| 
    2144                            .dwpsn  file "../Application/Services/nvoctp.c",line 667,column 5,is_stmt,isa 1
    2145 0000001a 6839              LDR       A2, [V4, #0]          ; [DPU_3_PIPE] |667|  ; [ORIG 16-BIT INS]
TI ARM Assembler PC v16.9.9 Sun Nov 25 19:10:06 2018

Tools Copyright (c) 1996-2017 Texas Instruments Incorporated
C:\Users\Stryd\AppData\Local\Temp\{6FE13B51-C70D-4DF2-8F05-648F609965C3} PAGE   40

    2146 0000001c A804              ADD       A1, SP, #16           ; [DPU_3_PIPE] |667|  ; [ORIG 16-BIT INS]
    2147 0000001e 6001              STR       A2, [A1, #0]          ; [DPU_3_PIPE] |667|  ; [ORIG 16-BIT INS]
    2148 00000020 88B9              LDRH      A2, [V4, #4]          ; [DPU_3_PIPE] |667|  ; [ORIG 16-BIT INS]
    2149 00000022 8081              STRH      A2, [A1, #4]          ; [DPU_3_PIPE] |667|  ; [ORIG 16-BIT INS]
    2150 00000024 A804              ADD       A1, SP, #16           ; [DPU_3_PIPE] |667|  ; [ORIG 16-BIT INS]
    2151 00000026 C803              LDMIA     A1, {A1,A2}           ; [DPU_3_PIPE] |667|  ; [ORIG 16-BIT INS]
    2152 00000028 B2B2              UXTH      A3, V3                ; [DPU_3_PIPE] |667|  ; [ORIG 16-BIT INS]
    2153 0000002a 466B              MOV       A4, SP                ; [DPU_3_PIPE] |667|  ; [ORIG 16-BIT INS]
    2154                    $C$DW$156       .dwtag  DW_TAG_TI_branch
    2155                            .dwattr $C$DW$156, DW_AT_low_pc(0x00)
    2156                            .dwattr $C$DW$156, DW_AT_name("NVOCTP_checkItem")
    2157                            .dwattr $C$DW$156, DW_AT_TI_call
    2158                    
    2159 0000002c FFFEF7FF!         BL        NVOCTP_checkItem      ; [DPU_3_PIPE] |667|  ; [KEEP 32-BIT INS]
    2160                            ; CALL OCCURS {NVOCTP_checkItem }  ; [] |667| 
    2161 00000030 4607              MOV       V4, A1                ; [DPU_3_PIPE] |667|  ; [ORIG 16-BIT INS]
    2162                            .dwpsn  file "../Application/Services/nvoctp.c",line 668,column 5,is_stmt,isa 1
    2163 00000032 2F0A              CMP       V4, #10               ; [DPU_3_PIPE] |668|  ; [ORIG 16-BIT INS]
    2164 00000034 D002              BEQ       ||$C$L23||            ; [DPU_3_PIPE] |668|  ; [ORIG 16-BIT INS]
    2165                            ; BRANCHCC OCCURS {||$C$L23||}   ; [] |668| 
    2166                    ;* --------------------------------------------------------------------------*
    2167 00000036 B907              CBNZ      V4, ||$C$L22||        ; []  ; [ORIG 16-BIT INS]
    2168                            .dwpsn  file "../Application/Services/nvoctp.c",line 678,column 13,is_stmt,isa 1
    2169 00000038 2701              MOVS      V4, #1                ; [DPU_3_PIPE] |678|  ; [ORIG 16-BIT INS]
    2170                    ;* --------------------------------------------------------------------------*
    2171 0000003a           ||$C$L22||:    
    2172 0000003a E004              B         ||$C$L24||            ; [DPU_3_PIPE] |678|  ; [ORIG 16-BIT INS]
    2173                            ; BRANCH OCCURS {||$C$L24||}     ; [] |678| 
    2174                    ;* --------------------------------------------------------------------------*
    2175 0000003c           ||$C$L23||:    
    2176                            .dwpsn  file "../Application/Services/nvoctp.c",line 671,column 9,is_stmt,isa 1
    2177 0000003c 4668              MOV       A1, SP                ; [DPU_3_PIPE] |671|  ; [ORIG 16-BIT INS]
    2178 0000003e 4629              MOV       A2, V2                ; [DPU_3_PIPE] |671|  ; [ORIG 16-BIT INS]
    2179                    $C$DW$157       .dwtag  DW_TAG_TI_branch
    2180                            .dwattr $C$DW$157, DW_AT_low_pc(0x00)
    2181                            .dwattr $C$DW$157, DW_AT_name("NVOCTP_newItem")
    2182                            .dwattr $C$DW$157, DW_AT_TI_call
    2183                    
    2184 00000040 FFFEF7FF!         BL        NVOCTP_newItem        ; [DPU_3_PIPE] |671|  ; [KEEP 32-BIT INS]
    2185                            ; CALL OCCURS {NVOCTP_newItem }  ; [] |671| 
    2186 00000044 4607              MOV       V4, A1                ; [DPU_3_PIPE] |671|  ; [ORIG 16-BIT INS]
    2187                    ;* --------------------------------------------------------------------------*
    2188 00000046           ||$C$L24||:    
    2189                            .dwpsn  file "../Application/Services/nvoctp.c",line 682,column 5,is_stmt,isa 1
    2190 00000046 68A0              LDR       A1, [V1, #8]          ; [DPU_3_PIPE] |682|  ; [ORIG 16-BIT INS]
    2191                    $C$DW$158       .dwtag  DW_TAG_TI_branch
    2192                            .dwattr $C$DW$158, DW_AT_low_pc(0x00)
    2193                            .dwattr $C$DW$158, DW_AT_name("ti_sysbios_knl_Semaphore_post__E")
    2194                            .dwattr $C$DW$158, DW_AT_TI_call
    2195                    
    2196 00000048 FFFEF7FF!         BL        ti_sysbios_knl_Semaphore_post__E ; [DPU_3_PIPE] |682|  ; [KEEP 32-BIT INS]
    2197                            ; CALL OCCURS {ti_sysbios_knl_Semaphore_post__E }  ; [] |682| 
    2198 0000004c 4638              MOV       A1, V4                ; [DPU_3_PIPE] |682|  ; [ORIG 16-BIT INS]
    2199 0000004e B007              ADD       SP, SP, #28           ; [DPU_3_PIPE]  ; [ORIG 16-BIT INS]
    2200                            .dwcfi  cfa_offset, 28
TI ARM Assembler PC v16.9.9 Sun Nov 25 19:10:06 2018

Tools Copyright (c) 1996-2017 Texas Instruments Incorporated
C:\Users\Stryd\AppData\Local\Temp\{6FE13B51-C70D-4DF2-8F05-648F609965C3} PAGE   41

    2201 00000050 40F0E8BD          POP       {V1, V2, V3, V4, LR}  ; [DPU_3_PIPE]  ; [KEEP 32-BIT INS]
    2202                            .dwcfi  cfa_offset, 8
    2203                            .dwcfi  restore_reg, 14
    2204                            .dwcfi  restore_reg, 7
    2205                            .dwcfi  restore_reg, 6
    2206                            .dwcfi  restore_reg, 5
    2207                            .dwcfi  restore_reg, 4
    2208 00000054 B002              ADD       SP, SP, #8            ; [DPU_3_PIPE]  ; [ORIG 16-BIT INS]
    2209                            .dwcfi  cfa_offset, 0
    2210                    $C$DW$159       .dwtag  DW_TAG_TI_branch
    2211                            .dwattr $C$DW$159, DW_AT_low_pc(0x00)
    2212                            .dwattr $C$DW$159, DW_AT_TI_return
    2213                    
    2214 00000056 4770              BX        LR                    ; [DPU_3_PIPE]  ; [ORIG 16-BIT INS]
    2215                            ; BRANCH OCCURS                  ; [] 
    2216                            .dwattr $C$DW$147, DW_AT_TI_end_file("../Application/Services/nvoctp.c")
    2217                            .dwattr $C$DW$147, DW_AT_TI_end_line(0x2ab)
    2218                            .dwattr $C$DW$147, DW_AT_TI_end_column(0x01)
    2219                            .dwendentry
    2220                            .dwendtag $C$DW$147
    2221                    
    2222 00000000                   .sect   ".text:NVOCTP_compactNvApi"
    2223                            .clink
    2224                            .thumbfunc NVOCTP_compactNvApi
    2225 00000000                   .thumb
    2226                    
    2227                    $C$DW$160       .dwtag  DW_TAG_subprogram
    2228                            .dwattr $C$DW$160, DW_AT_name("NVOCTP_compactNvApi")
    2229                            .dwattr $C$DW$160, DW_AT_low_pc(NVOCTP_compactNvApi)
    2230                            .dwattr $C$DW$160, DW_AT_high_pc(0x00)
    2231                            .dwattr $C$DW$160, DW_AT_TI_symbol_name("NVOCTP_compactNvApi")
    2232                            .dwattr $C$DW$160, DW_AT_type(*$C$DW$T$126)
    2233                            .dwattr $C$DW$160, DW_AT_TI_begin_file("../Application/Services/nvoctp.c")
    2234                            .dwattr $C$DW$160, DW_AT_TI_begin_line(0x262)
    2235                            .dwattr $C$DW$160, DW_AT_TI_begin_column(0x10)
    2236                            .dwattr $C$DW$160, DW_AT_decl_file("../Application/Services/nvoctp.c")
    2237                            .dwattr $C$DW$160, DW_AT_decl_line(0x262)
    2238                            .dwattr $C$DW$160, DW_AT_decl_column(0x10)
    2239                            .dwattr $C$DW$160, DW_AT_TI_max_frame_size(0x10)
    2240                            .dwpsn  file "../Application/Services/nvoctp.c",line 611,column 1,is_stmt,address NVOCTP_compa
    2241                    
    2242                            .dwfde $C$DW$CIE, NVOCTP_compactNvApi
    2243                    $C$DW$161       .dwtag  DW_TAG_formal_parameter
    2244                            .dwattr $C$DW$161, DW_AT_name("minAvail")
    2245                            .dwattr $C$DW$161, DW_AT_TI_symbol_name("minAvail")
    2246                            .dwattr $C$DW$161, DW_AT_type(*$C$DW$T$10)
    2247                            .dwattr $C$DW$161, DW_AT_location[DW_OP_reg0]
    2248                    
    2249                    
    2250                    ;*****************************************************************************
    2251                    ;* FUNCTION NAME: NVOCTP_compactNvApi                                        *
    2252                    ;*                                                                           *
    2253                    ;*   Regs Modified     : A1,A2,A3,A4,V1,V3,V4,V9,SP,LR,SR                    *
    2254                    ;*   Regs Used         : A1,A2,A3,A4,V1,V3,V4,V9,SP,LR,SR                    *
    2255                    ;*   Local Frame Size  : 0 Args + 0 Auto + 16 Save = 16 byte                 *
TI ARM Assembler PC v16.9.9 Sun Nov 25 19:10:06 2018

Tools Copyright (c) 1996-2017 Texas Instruments Incorporated
C:\Users\Stryd\AppData\Local\Temp\{6FE13B51-C70D-4DF2-8F05-648F609965C3} PAGE   42

    2256                    ;*****************************************************************************
    2257                    NVOCTP_compactNvApi:
    2258                    ;* --------------------------------------------------------------------------*
    2259                    ;* V1    assigned to $O$C16
    2260                    ;* V1    assigned to $O$K4
    2261                    ;* V3    assigned to minAvail
    2262                    $C$DW$162       .dwtag  DW_TAG_variable
    2263                            .dwattr $C$DW$162, DW_AT_name("minAvail")
    2264                            .dwattr $C$DW$162, DW_AT_TI_symbol_name("minAvail")
    2265                            .dwattr $C$DW$162, DW_AT_type(*$C$DW$T$1092)
    2266                            .dwattr $C$DW$162, DW_AT_location[DW_OP_reg6]
    2267                    
    2268                    ;* V4    assigned to err
    2269                    $C$DW$163       .dwtag  DW_TAG_variable
    2270                            .dwattr $C$DW$163, DW_AT_name("err")
    2271                            .dwattr $C$DW$163, DW_AT_TI_symbol_name("err")
    2272                            .dwattr $C$DW$163, DW_AT_type(*$C$DW$T$10)
    2273                            .dwattr $C$DW$163, DW_AT_location[DW_OP_reg7]
    2274                    
    2275                            .dwcfi  cfa_offset, 0
    2276 00000000 B5D0              PUSH      {V1, V3, V4, LR}      ; [DPU_3_PIPE]  ; [ORIG 16-BIT INS]
    2277                            .dwcfi  cfa_offset, 16
    2278                            .dwcfi  save_reg_to_mem, 14, -4
    2279                            .dwcfi  save_reg_to_mem, 7, -8
    2280                            .dwcfi  save_reg_to_mem, 6, -12
    2281                            .dwcfi  save_reg_to_mem, 4, -16
    2282                            .dwpsn  file "../Application/Services/nvoctp.c",line 615,column 5,is_stmt,isa 1
    2283 00000002 4C0E              LDR       V1, $C$CON14          ; [DPU_3_PIPE] |615|  ; [ORIG 16-BIT INS]
    2284                            .dwpsn  file "../Application/Services/nvoctp.c",line 611,column 1,is_stmt,isa 1
    2285 00000004 4606              MOV       V3, A1                ; [DPU_3_PIPE] |611|  ; [ORIG 16-BIT INS]
    2286                            .dwpsn  file "../Application/Services/nvoctp.c",line 615,column 5,is_stmt,isa 1
    2287 00000006 68A0              LDR       A1, [V1, #8]          ; [DPU_3_PIPE] |615|  ; [ORIG 16-BIT INS]
    2288 00000008 31FFF04F          MOV       A2, #-1               ; [DPU_3_PIPE] |615|  ; [KEEP 32-BIT INS]
    2289                    $C$DW$164       .dwtag  DW_TAG_TI_branch
    2290                            .dwattr $C$DW$164, DW_AT_low_pc(0x00)
    2291                            .dwattr $C$DW$164, DW_AT_name("ti_sysbios_knl_Semaphore_pend__E")
    2292                            .dwattr $C$DW$164, DW_AT_TI_call
    2293                    
    2294 0000000c FFFEF7FF!         BL        ti_sysbios_knl_Semaphore_pend__E ; [DPU_3_PIPE] |615|  ; [KEEP 32-BIT INS]
    2295                            ; CALL OCCURS {ti_sysbios_knl_Semaphore_pend__E }  ; [] |615| 
    2296                            .dwpsn  file "../Application/Services/nvoctp.c",line 617,column 5,is_stmt,isa 1
    2297 00000010 7927              LDRB      V4, [V1, #4]          ; [DPU_3_PIPE] |617|  ; [ORIG 16-BIT INS]
    2298 00000012 B977              CBNZ      V4, ||$C$L26||        ; []  ; [ORIG 16-BIT INS]
    2299                            .dwpsn  file "../Application/Services/nvoctp.c",line 618,column 5,is_stmt,isa 1
    2300                            ; BRANCHCC OCCURS {||$C$L26||}   ; [] |618| 
    2301                    ;* --------------------------------------------------------------------------*
    2302                            .dwpsn  file "../Application/Services/nvoctp.c",line 626,column 7,is_stmt,isa 1
    2303 00000014 88E0              LDRH      A1, [V1, #6]          ; [DPU_3_PIPE] |626|  ; [ORIG 16-BIT INS]
    2304 00000016 5080F5C0          RSB       A1, A1, #4096         ; [DPU_3_PIPE] |626|  ; [KEEP 32-BIT INS]
    2305 0000001a B200              SXTH      A1, A1                ; [DPU_3_PIPE] |626|  ; [ORIG 16-BIT INS]
    2306 0000001c 4286              CMP       V3, A1                ; [DPU_3_PIPE] |626|  ; [ORIG 16-BIT INS]
    2307 0000001e DC03              BGT       ||$C$L25||            ; [DPU_3_PIPE] |626|  ; [ORIG 16-BIT INS]
    2308                            ; BRANCHCC OCCURS {||$C$L25||}   ; [] |626| 
    2309                    ;* --------------------------------------------------------------------------*
    2310 00000020 2E00              CMP       V3, #0                ; [DPU_3_PIPE] |626|  ; [ORIG 16-BIT INS]
TI ARM Assembler PC v16.9.9 Sun Nov 25 19:10:06 2018

Tools Copyright (c) 1996-2017 Texas Instruments Incorporated
C:\Users\Stryd\AppData\Local\Temp\{6FE13B51-C70D-4DF2-8F05-648F609965C3} PAGE   43

    2311 00000022 BF18              IT        NE                    ; [DPU_3_PIPE]  ; [ORIG 16-BIT INS]
    2312                            .dwpsn  file "../Application/Services/nvoctp.c",line 636,column 11,is_stmt,isa 1
    2313 00000024 2704              MOVNE     V4, #4                ; [DPU_3_PIPE] |636|  ; [ORIG 16-BIT INS]
    2314 00000026 D104              BNE       ||$C$L26||            ; [DPU_3_PIPE] |636|  ; [ORIG 16-BIT INS]
    2315                            ; BRANCHCC OCCURS {||$C$L26||}   ; [] |636| 
    2316                    ;* --------------------------------------------------------------------------*
    2317 00000028           ||$C$L25||:    
    2318                            .dwpsn  file "../Application/Services/nvoctp.c",line 629,column 11,is_stmt,isa 1
    2319 00000028 78A0              LDRB      A1, [V1, #2]          ; [DPU_3_PIPE] |629|  ; [ORIG 16-BIT INS]
    2320 0000002a 2100              MOVS      A2, #0                ; [DPU_3_PIPE] |629|  ; [ORIG 16-BIT INS]
    2321                    $C$DW$165       .dwtag  DW_TAG_TI_branch
    2322                            .dwattr $C$DW$165, DW_AT_low_pc(0x00)
    2323                            .dwattr $C$DW$165, DW_AT_name("NVOCTP_compactPage")
    2324                            .dwattr $C$DW$165, DW_AT_TI_call
    2325                    
    2326 0000002c FFFEF7FF!         BL        NVOCTP_compactPage    ; [DPU_3_PIPE] |629|  ; [KEEP 32-BIT INS]
    2327                            ; CALL OCCURS {NVOCTP_compactPage }  ; [] |629| 
    2328                            .dwpsn  file "../Application/Services/nvoctp.c",line 631,column 11,is_stmt,isa 1
    2329 00000030 7967              LDRB      V4, [V1, #5]          ; [DPU_3_PIPE] |631|  ; [ORIG 16-BIT INS]
    2330                    ;* --------------------------------------------------------------------------*
    2331 00000032           ||$C$L26||:    
    2332                            .dwpsn  file "../Application/Services/nvoctp.c",line 639,column 3,is_stmt,isa 1
    2333 00000032 68A0              LDR       A1, [V1, #8]          ; [DPU_3_PIPE] |639|  ; [ORIG 16-BIT INS]
    2334                    $C$DW$166       .dwtag  DW_TAG_TI_branch
    2335                            .dwattr $C$DW$166, DW_AT_low_pc(0x00)
    2336                            .dwattr $C$DW$166, DW_AT_name("ti_sysbios_knl_Semaphore_post__E")
    2337                            .dwattr $C$DW$166, DW_AT_TI_call
    2338                    
    2339 00000034 FFFEF7FF!         BL        ti_sysbios_knl_Semaphore_post__E ; [DPU_3_PIPE] |639|  ; [KEEP 32-BIT INS]
    2340                            ; CALL OCCURS {ti_sysbios_knl_Semaphore_post__E }  ; [] |639| 
    2341 00000038 4638              MOV       A1, V4                ; [DPU_3_PIPE] |639|  ; [ORIG 16-BIT INS]
    2342                    $C$DW$167       .dwtag  DW_TAG_TI_branch
    2343                            .dwattr $C$DW$167, DW_AT_low_pc(0x00)
    2344                            .dwattr $C$DW$167, DW_AT_TI_return
    2345                    
    2346 0000003a BDD0              POP       {V1, V3, V4, PC}      ; [DPU_3_PIPE]  ; [ORIG 16-BIT INS]
    2347                            .dwcfi  cfa_offset, 0
    2348                            .dwcfi  restore_reg, 7
    2349                            .dwcfi  restore_reg, 6
    2350                            .dwcfi  restore_reg, 4
    2351                            ; BRANCH OCCURS                  ; [] 
    2352                            .dwattr $C$DW$160, DW_AT_TI_end_file("../Application/Services/nvoctp.c")
    2353                            .dwattr $C$DW$160, DW_AT_TI_end_line(0x280)
    2354                            .dwattr $C$DW$160, DW_AT_TI_end_column(0x01)
    2355                            .dwendentry
    2356                            .dwendtag $C$DW$160
    2357                    
    2358 00000000                   .sect   ".text:NVOCTP_setPageActive"
    2359                            .clink
    2360                            .thumbfunc NVOCTP_setPageActive
    2361 00000000                   .thumb
    2362                    
    2363                    $C$DW$168       .dwtag  DW_TAG_subprogram
    2364                            .dwattr $C$DW$168, DW_AT_name("NVOCTP_setPageActive")
    2365                            .dwattr $C$DW$168, DW_AT_low_pc(NVOCTP_setPageActive)
TI ARM Assembler PC v16.9.9 Sun Nov 25 19:10:06 2018

Tools Copyright (c) 1996-2017 Texas Instruments Incorporated
C:\Users\Stryd\AppData\Local\Temp\{6FE13B51-C70D-4DF2-8F05-648F609965C3} PAGE   44

    2366                            .dwattr $C$DW$168, DW_AT_high_pc(0x00)
    2367                            .dwattr $C$DW$168, DW_AT_TI_symbol_name("NVOCTP_setPageActive")
    2368                            .dwattr $C$DW$168, DW_AT_TI_begin_file("../Application/Services/nvoctp.c")
    2369                            .dwattr $C$DW$168, DW_AT_TI_begin_line(0x4fc)
    2370                            .dwattr $C$DW$168, DW_AT_TI_begin_column(0x0d)
    2371                            .dwattr $C$DW$168, DW_AT_decl_file("../Application/Services/nvoctp.c")
    2372                            .dwattr $C$DW$168, DW_AT_decl_line(0x4fc)
    2373                            .dwattr $C$DW$168, DW_AT_decl_column(0x0d)
    2374                            .dwattr $C$DW$168, DW_AT_TI_max_frame_size(0x10)
    2375                            .dwpsn  file "../Application/Services/nvoctp.c",line 1277,column 1,is_stmt,address NVOCTP_setP
    2376                    
    2377                            .dwfde $C$DW$CIE, NVOCTP_setPageActive
    2378                    $C$DW$169       .dwtag  DW_TAG_formal_parameter
    2379                            .dwattr $C$DW$169, DW_AT_name("pg")
    2380                            .dwattr $C$DW$169, DW_AT_TI_symbol_name("pg")
    2381                            .dwattr $C$DW$169, DW_AT_type(*$C$DW$T$10)
    2382                            .dwattr $C$DW$169, DW_AT_location[DW_OP_reg0]
    2383                    
    2384                    
    2385                    ;*****************************************************************************
    2386                    ;* FUNCTION NAME: NVOCTP_setPageActive                                       *
    2387                    ;*                                                                           *
    2388                    ;*   Regs Modified     : A1,A2,A3,A4,V1,V2,V3,V9,SP,LR,SR                    *
    2389                    ;*   Regs Used         : A1,A2,A3,A4,V1,V2,V3,V9,SP,LR,SR                    *
    2390                    ;*   Local Frame Size  : 0 Args + 0 Auto + 16 Save = 16 byte                 *
    2391                    ;*****************************************************************************
    2392                    NVOCTP_setPageActive:
    2393                    ;* --------------------------------------------------------------------------*
    2394                    ;* V1    assigned to $O$K3
    2395                    ;* A1    assigned to $O$v1
    2396                    ;* V2    assigned to pg
    2397                    $C$DW$170       .dwtag  DW_TAG_variable
    2398                            .dwattr $C$DW$170, DW_AT_name("pg")
    2399                            .dwattr $C$DW$170, DW_AT_TI_symbol_name("pg")
    2400                            .dwattr $C$DW$170, DW_AT_type(*$C$DW$T$1061)
    2401                            .dwattr $C$DW$170, DW_AT_location[DW_OP_reg5]
    2402                    
    2403                    ;* V3    assigned to cycle
    2404                    $C$DW$171       .dwtag  DW_TAG_variable
    2405                            .dwattr $C$DW$171, DW_AT_name("cycle")
    2406                            .dwattr $C$DW$171, DW_AT_TI_symbol_name("cycle")
    2407                            .dwattr $C$DW$171, DW_AT_type(*$C$DW$T$10)
    2408                            .dwattr $C$DW$171, DW_AT_location[DW_OP_reg6]
    2409                    
    2410                            .dwcfi  cfa_offset, 0
    2411 00000000 B570              PUSH      {V1, V2, V3, LR}      ; [DPU_3_PIPE]  ; [ORIG 16-BIT INS]
    2412                            .dwcfi  cfa_offset, 16
    2413                            .dwcfi  save_reg_to_mem, 14, -4
    2414                            .dwcfi  save_reg_to_mem, 6, -8
    2415                            .dwcfi  save_reg_to_mem, 5, -12
    2416                            .dwcfi  save_reg_to_mem, 4, -16
    2417                            .dwpsn  file "../Application/Services/nvoctp.c",line 1281,column 5,is_stmt,isa 1
    2418 00000002 4C11              LDR       V1, $C$CON17          ; [DPU_3_PIPE] |1281|  ; [ORIG 16-BIT INS]
    2419                            .dwpsn  file "../Application/Services/nvoctp.c",line 1277,column 1,is_stmt,isa 1
    2420 00000004 4605              MOV       V2, A1                ; [DPU_3_PIPE] |1277|  ; [ORIG 16-BIT INS]
TI ARM Assembler PC v16.9.9 Sun Nov 25 19:10:06 2018

Tools Copyright (c) 1996-2017 Texas Instruments Incorporated
C:\Users\Stryd\AppData\Local\Temp\{6FE13B51-C70D-4DF2-8F05-648F609965C3} PAGE   45

    2421 00000006 1CE0              ADDS      A1, V1, #3            ; [DPU_3_PIPE]  ; [ORIG 16-BIT INS]
    2422                            .dwpsn  file "../Application/Services/nvoctp.c",line 1281,column 5,is_stmt,isa 1
    2423 00000008 7800              LDRB      A1, [A1, #0]          ; [DPU_3_PIPE] |1281|  ; [ORIG 16-BIT INS]
    2424 0000000a 28FE              CMP       A1, #254              ; [DPU_3_PIPE] |1281|  ; [ORIG 16-BIT INS]
    2425 0000000c BFAE              ITEE      GE                    ; [DPU_3_PIPE]  ; [ORIG 16-BIT INS]
    2426 0000000e 2601              MOVGE     V3, #1                ; [DPU_3_PIPE] |1281|  ; [ORIG 16-BIT INS]
    2427 00000010 1C40              ADDLT     A1, A1, #1            ; [DPU_3_PIPE] |1281|  ; [ORIG 16-BIT INS]
    2428 00000012 B2C6              UXTBLT    V3, A1                ; [DPU_3_PIPE] |1281|  ; [ORIG 16-BIT INS]
    2429                            .dwpsn  file "../Application/Services/nvoctp.c",line 1284,column 5,is_stmt,isa 1
    2430 00000014 2103              MOVS      A2, #3                ; [DPU_3_PIPE] |1284|  ; [ORIG 16-BIT INS]
    2431 00000016 2296              MOVS      A3, #150              ; [DPU_3_PIPE] |1284|  ; [ORIG 16-BIT INS]
    2432 00000018 4628              MOV       A1, V2                ; [DPU_3_PIPE] |1284|  ; [ORIG 16-BIT INS]
    2433                    $C$DW$172       .dwtag  DW_TAG_TI_branch
    2434                            .dwattr $C$DW$172, DW_AT_low_pc(0x00)
    2435                            .dwattr $C$DW$172, DW_AT_name("NVOCTP_writeByte")
    2436                            .dwattr $C$DW$172, DW_AT_TI_call
    2437                    
    2438 0000001a FFFEF7FF!         BL        NVOCTP_writeByte      ; [DPU_3_PIPE] |1284|  ; [KEEP 32-BIT INS]
    2439                            ; CALL OCCURS {NVOCTP_writeByte }  ; [] |1284| 
    2440                            .dwpsn  file "../Application/Services/nvoctp.c",line 1286,column 5,is_stmt,isa 1
    2441 0000001e 2102              MOVS      A2, #2                ; [DPU_3_PIPE] |1286|  ; [ORIG 16-BIT INS]
    2442 00000020 2201              MOVS      A3, #1                ; [DPU_3_PIPE] |1286|  ; [ORIG 16-BIT INS]
    2443 00000022 4628              MOV       A1, V2                ; [DPU_3_PIPE] |1286|  ; [ORIG 16-BIT INS]
    2444                    $C$DW$173       .dwtag  DW_TAG_TI_branch
    2445                            .dwattr $C$DW$173, DW_AT_low_pc(0x00)
    2446                            .dwattr $C$DW$173, DW_AT_name("NVOCTP_writeByte")
    2447                            .dwattr $C$DW$173, DW_AT_TI_call
    2448                    
    2449 00000024 FFFEF7FF!         BL        NVOCTP_writeByte      ; [DPU_3_PIPE] |1286|  ; [KEEP 32-BIT INS]
    2450                            ; CALL OCCURS {NVOCTP_writeByte }  ; [] |1286| 
    2451                            .dwpsn  file "../Application/Services/nvoctp.c",line 1288,column 5,is_stmt,isa 1
    2452 00000028 2101              MOVS      A2, #1                ; [DPU_3_PIPE] |1288|  ; [ORIG 16-BIT INS]
    2453 0000002a 4628              MOV       A1, V2                ; [DPU_3_PIPE] |1288|  ; [ORIG 16-BIT INS]
    2454 0000002c 4632              MOV       A3, V3                ; [DPU_3_PIPE] |1288|  ; [ORIG 16-BIT INS]
    2455                    $C$DW$174       .dwtag  DW_TAG_TI_branch
    2456                            .dwattr $C$DW$174, DW_AT_low_pc(0x00)
    2457                            .dwattr $C$DW$174, DW_AT_name("NVOCTP_writeByte")
    2458                            .dwattr $C$DW$174, DW_AT_TI_call
    2459                    
    2460 0000002e FFFEF7FF!         BL        NVOCTP_writeByte      ; [DPU_3_PIPE] |1288|  ; [KEEP 32-BIT INS]
    2461                            ; CALL OCCURS {NVOCTP_writeByte }  ; [] |1288| 
    2462                            .dwpsn  file "../Application/Services/nvoctp.c",line 1290,column 5,is_stmt,isa 1
    2463 00000032 2100              MOVS      A2, #0                ; [DPU_3_PIPE] |1290|  ; [ORIG 16-BIT INS]
    2464 00000034 22A5              MOVS      A3, #165              ; [DPU_3_PIPE] |1290|  ; [ORIG 16-BIT INS]
    2465 00000036 4628              MOV       A1, V2                ; [DPU_3_PIPE] |1290|  ; [ORIG 16-BIT INS]
    2466                    $C$DW$175       .dwtag  DW_TAG_TI_branch
    2467                            .dwattr $C$DW$175, DW_AT_low_pc(0x00)
    2468                            .dwattr $C$DW$175, DW_AT_name("NVOCTP_writeByte")
    2469                            .dwattr $C$DW$175, DW_AT_TI_call
    2470                    
    2471 00000038 FFFEF7FF!         BL        NVOCTP_writeByte      ; [DPU_3_PIPE] |1290|  ; [KEEP 32-BIT INS]
    2472                            ; CALL OCCURS {NVOCTP_writeByte }  ; [] |1290| 
    2473                            .dwpsn  file "../Application/Services/nvoctp.c",line 1292,column 5,is_stmt,isa 1
    2474 0000003c 7960              LDRB      A1, [V1, #5]          ; [DPU_3_PIPE] |1292|  ; [ORIG 16-BIT INS]
    2475 0000003e B908              CBNZ      A1, ||$C$L27||        ; []  ; [ORIG 16-BIT INS]
TI ARM Assembler PC v16.9.9 Sun Nov 25 19:10:06 2018

Tools Copyright (c) 1996-2017 Texas Instruments Incorporated
C:\Users\Stryd\AppData\Local\Temp\{6FE13B51-C70D-4DF2-8F05-648F609965C3} PAGE   46

    2476                            .dwpsn  file "../Application/Services/nvoctp.c",line 1295,column 9,is_stmt,isa 1
    2477 00000040 70A5              STRB      V2, [V1, #2]          ; [DPU_3_PIPE] |1295|  ; [ORIG 16-BIT INS]
    2478                            .dwpsn  file "../Application/Services/nvoctp.c",line 1296,column 9,is_stmt,isa 1
    2479 00000042 70E6              STRB      V3, [V1, #3]          ; [DPU_3_PIPE] |1296|  ; [ORIG 16-BIT INS]
    2480                    ;* --------------------------------------------------------------------------*
    2481                    ||$C$L27||:    
    2482                    $C$DW$176       .dwtag  DW_TAG_TI_branch
    2483                            .dwattr $C$DW$176, DW_AT_low_pc(0x00)
    2484                            .dwattr $C$DW$176, DW_AT_TI_return
    2485                    
    2486 00000044 BD70              POP       {V1, V2, V3, PC}      ; [DPU_3_PIPE]  ; [ORIG 16-BIT INS]
    2487                            .dwcfi  cfa_offset, 0
    2488                            .dwcfi  restore_reg, 6
    2489                            .dwcfi  restore_reg, 5
    2490                            .dwcfi  restore_reg, 4
    2491                            ; BRANCH OCCURS                  ; [] 
    2492                            .dwattr $C$DW$168, DW_AT_TI_end_file("../Application/Services/nvoctp.c")
    2493                            .dwattr $C$DW$168, DW_AT_TI_end_line(0x512)
    2494                            .dwattr $C$DW$168, DW_AT_TI_end_column(0x01)
    2495                            .dwendentry
    2496                            .dwendtag $C$DW$168
    2497                    
    2498 00000000                   .sect   ".text:NVOCTP_initNvApi"
    2499                            .clink
    2500                            .thumbfunc NVOCTP_initNvApi
    2501 00000000                   .thumb
    2502                    
    2503                    $C$DW$177       .dwtag  DW_TAG_subprogram
    2504                            .dwattr $C$DW$177, DW_AT_name("NVOCTP_initNvApi")
    2505                            .dwattr $C$DW$177, DW_AT_low_pc(NVOCTP_initNvApi)
    2506                            .dwattr $C$DW$177, DW_AT_high_pc(0x00)
    2507                            .dwattr $C$DW$177, DW_AT_TI_symbol_name("NVOCTP_initNvApi")
    2508                            .dwattr $C$DW$177, DW_AT_type(*$C$DW$T$126)
    2509                            .dwattr $C$DW$177, DW_AT_TI_begin_file("../Application/Services/nvoctp.c")
    2510                            .dwattr $C$DW$177, DW_AT_TI_begin_line(0x1d0)
    2511                            .dwattr $C$DW$177, DW_AT_TI_begin_column(0x10)
    2512                            .dwattr $C$DW$177, DW_AT_decl_file("../Application/Services/nvoctp.c")
    2513                            .dwattr $C$DW$177, DW_AT_decl_line(0x1d0)
    2514                            .dwattr $C$DW$177, DW_AT_decl_column(0x10)
    2515                            .dwattr $C$DW$177, DW_AT_TI_max_frame_size(0x58)
    2516                            .dwpsn  file "../Application/Services/nvoctp.c",line 465,column 1,is_stmt,address NVOCTP_initN
    2517                    
    2518                            .dwfde $C$DW$CIE, NVOCTP_initNvApi
    2519                    $C$DW$178       .dwtag  DW_TAG_formal_parameter
    2520                            .dwattr $C$DW$178, DW_AT_name("param")
    2521                            .dwattr $C$DW$178, DW_AT_TI_symbol_name("param")
    2522                            .dwattr $C$DW$178, DW_AT_type(*$C$DW$T$3)
    2523                            .dwattr $C$DW$178, DW_AT_location[DW_OP_reg0]
    2524                    
    2525                    
    2526                    ;*****************************************************************************
    2527                    ;* FUNCTION NAME: NVOCTP_initNvApi                                           *
    2528                    ;*                                                                           *
    2529                    ;*   Regs Modified     : A1,A2,A3,A4,V1,V2,V3,V4,V5,V9,SP,LR,SR              *
    2530                    ;*   Regs Used         : A1,A2,A3,A4,V1,V2,V3,V4,V5,V9,SP,LR,SR              *
TI ARM Assembler PC v16.9.9 Sun Nov 25 19:10:06 2018

Tools Copyright (c) 1996-2017 Texas Instruments Incorporated
C:\Users\Stryd\AppData\Local\Temp\{6FE13B51-C70D-4DF2-8F05-648F609965C3} PAGE   47

    2531                    ;*   Local Frame Size  : 4 Args + 60 Auto + 24 Save = 88 byte                *
    2532                    ;*****************************************************************************
    2533                    NVOCTP_initNvApi:
    2534                    ;* --------------------------------------------------------------------------*
    2535                    ;* V4    assigned to $O$C16
    2536                    ;* V2    assigned to $O$C17
    2537                    ;* V1    assigned to $O$C18
    2538                    ;* V3    assigned to $O$v6
    2539                    ;* A1    assigned to $O$v6
    2540                    ;* A1    assigned to $O$v6
    2541                    ;* V1    assigned to $O$K2
    2542                    ;* V4    assigned to pg
    2543                    $C$DW$179       .dwtag  DW_TAG_variable
    2544                            .dwattr $C$DW$179, DW_AT_name("pg")
    2545                            .dwattr $C$DW$179, DW_AT_TI_symbol_name("pg")
    2546                            .dwattr $C$DW$179, DW_AT_type(*$C$DW$T$10)
    2547                            .dwattr $C$DW$179, DW_AT_location[DW_OP_reg7]
    2548                    
    2549                    ;* A1    assigned to $O$v7
    2550                    ;* A1    assigned to $O$v5
    2551                    ;* A2    assigned to $O$v4
    2552                    ;* A4    assigned to $O$v3
    2553                    ;* V2    assigned to $O$v2
    2554                    ;* V3    assigned to xferPg
    2555                    $C$DW$180       .dwtag  DW_TAG_variable
    2556                            .dwattr $C$DW$180, DW_AT_name("xferPg")
    2557                            .dwattr $C$DW$180, DW_AT_TI_symbol_name("xferPg")
    2558                            .dwattr $C$DW$180, DW_AT_type(*$C$DW$T$10)
    2559                            .dwattr $C$DW$180, DW_AT_location[DW_OP_reg6]
    2560                    
    2561                    ;* A1    assigned to err
    2562                    $C$DW$181       .dwtag  DW_TAG_variable
    2563                            .dwattr $C$DW$181, DW_AT_name("err")
    2564                            .dwattr $C$DW$181, DW_AT_TI_symbol_name("err")
    2565                            .dwattr $C$DW$181, DW_AT_type(*$C$DW$T$10)
    2566                            .dwattr $C$DW$181, DW_AT_location[DW_OP_reg0]
    2567                    
    2568                            .dwcfi  cfa_offset, 0
    2569 00000000 41F0E92D          PUSH      {V1, V2, V3, V4, V5, LR} ; [DPU_3_PIPE]  ; [KEEP 32-BIT INS]
    2570                            .dwcfi  cfa_offset, 24
    2571                            .dwcfi  save_reg_to_mem, 14, -4
    2572                            .dwcfi  save_reg_to_mem, 8, -8
    2573                            .dwcfi  save_reg_to_mem, 7, -12
    2574                            .dwcfi  save_reg_to_mem, 6, -16
    2575                            .dwcfi  save_reg_to_mem, 5, -20
    2576                            .dwcfi  save_reg_to_mem, 4, -24
    2577                            .dwpsn  file "../Application/Services/nvoctp.c",line 466,column 5,is_stmt,isa 1
    2578 00000004 4C55              LDR       V1, $C$CON20          ; [DPU_3_PIPE] |466|  ; [ORIG 16-BIT INS]
    2579 00000006 7920              LDRB      A1, [V1, #4]          ; [DPU_3_PIPE] |466|  ; [ORIG 16-BIT INS]
    2580 00000008 0D40F1AD          SUB       SP, SP, #64           ; [DPU_3_PIPE]  ; [KEEP 32-BIT INS]
    2581                            .dwcfi  cfa_offset, 88
    2582                            .dwpsn  file "../Application/Services/nvoctp.c",line 468,column 5,is_stmt,isa 1
    2583 0000000c 2803              CMP       A1, #3                ; [DPU_3_PIPE] |468|  ; [ORIG 16-BIT INS]
    2584 0000000e BF18              IT        NE                    ; [DPU_3_PIPE]  ; [ORIG 16-BIT INS]
    2585 00000010 7160              STRBNE    A1, [V1, #5]          ; [DPU_3_PIPE]  ; [ORIG 16-BIT INS]
TI ARM Assembler PC v16.9.9 Sun Nov 25 19:10:06 2018

Tools Copyright (c) 1996-2017 Texas Instruments Incorporated
C:\Users\Stryd\AppData\Local\Temp\{6FE13B51-C70D-4DF2-8F05-648F609965C3} PAGE   48

    2586 00000012 AFFEF47F!         BNE       ||$C$L44||            ; [DPU_3_PIPE]  ; [KEEP 32-BIT INS]
    2587                            ; BRANCHCC OCCURS {||$C$L44||}   ; [] 
    2588                    ;* --------------------------------------------------------------------------*
    2589                            .dwpsn  file "../Application/Services/nvoctp.c",line 475,column 9,is_stmt,isa 1
    2590 00000016 2500              MOVS      V2, #0                ; [DPU_3_PIPE] |475|  ; [ORIG 16-BIT INS]
    2591 00000018 7165              STRB      V2, [V1, #5]          ; [DPU_3_PIPE] |475|  ; [ORIG 16-BIT INS]
    2592 0000001a 46A8              MOV       V5, V2                ; [DPU_3_PIPE] |475|  ; [ORIG 16-BIT INS]
    2593                            .dwpsn  file "C:/ti/simplelink_cc13x0_sdk_2_30_00_20/kernel/tirtos/packages/ti/sysbios/knl/Sem
    2594 0000001c A801              ADD       A1, SP, #4            ; [DPU_3_PIPE] |547|  ; [ORIG 16-BIT INS]
    2595 0000001e 2224              MOVS      A3, #36               ; [DPU_3_PIPE] |547|  ; [ORIG 16-BIT INS]
    2596 00000020 2308              MOVS      A4, #8                ; [DPU_3_PIPE] |547|  ; [ORIG 16-BIT INS]
    2597 00000022 4629              MOV       A2, V2                ; [DPU_3_PIPE] |547|  ; [ORIG 16-BIT INS]
    2598                            .dwpsn  file "../Application/Services/nvoctp.c",line 475,column 9,is_stmt,isa 1
    2599 00000024 8004F884          STRB      V5, [V1, #4]          ; [DPU_3_PIPE] |475|  ; [KEEP 32-BIT INS]
    2600                            .dwpsn  file "C:/ti/simplelink_cc13x0_sdk_2_30_00_20/kernel/tirtos/packages/ti/sysbios/knl/Sem
    2601                    $C$DW$182       .dwtag  DW_TAG_TI_branch
    2602                            .dwattr $C$DW$182, DW_AT_low_pc(0x00)
    2603                            .dwattr $C$DW$182, DW_AT_name("ti_sysbios_knl_Semaphore_Params__init__S")
    2604                            .dwattr $C$DW$182, DW_AT_TI_call
    2605                    
    2606 00000028 FFFEF7FF!         BL        ti_sysbios_knl_Semaphore_Params__init__S ; [DPU_3_PIPE] |547|  ; [KEEP 32-BIT INS]
    2607                            ; CALL OCCURS {ti_sysbios_knl_Semaphore_Params__init__S }  ; [] |547| 
    2608                            .dwpsn  file "../Application/Services/nvoctp.c",line 479,column 9,is_stmt,isa 1
    2609 0000002c 2003              MOVS      A1, #3                ; [DPU_3_PIPE] |479|  ; [ORIG 16-BIT INS]
    2610                            .dwpsn  file "../Application/Services/nvoctp.c",line 480,column 9,is_stmt,isa 1
    2611 0000002e A901              ADD       A2, SP, #4            ; [DPU_3_PIPE] |480|  ; [ORIG 16-BIT INS]
    2612                            .dwpsn  file "../Application/Services/nvoctp.c",line 479,column 9,is_stmt,isa 1
    2613 00000030 001CF88D          STRB      A1, [SP, #28]         ; [DPU_3_PIPE] |479|  ; [KEEP 32-BIT INS]
    2614                            .dwpsn  file "../Application/Services/nvoctp.c",line 480,column 9,is_stmt,isa 1
    2615 00000034 462A              MOV       A3, V2                ; [DPU_3_PIPE] |480|  ; [ORIG 16-BIT INS]
    2616 00000036 2001              MOVS      A1, #1                ; [DPU_3_PIPE] |480|  ; [ORIG 16-BIT INS]
    2617                    $C$DW$183       .dwtag  DW_TAG_TI_branch
    2618                            .dwattr $C$DW$183, DW_AT_low_pc(0x00)
    2619                            .dwattr $C$DW$183, DW_AT_name("ti_sysbios_knl_Semaphore_create")
    2620                            .dwattr $C$DW$183, DW_AT_TI_call
    2621                    
    2622 00000038 FFFEF7FF!         BL        ti_sysbios_knl_Semaphore_create ; [DPU_3_PIPE] |480|  ; [KEEP 32-BIT INS]
    2623                            ; CALL OCCURS {ti_sysbios_knl_Semaphore_create }  ; [] |480| 
    2624 0000003c 271D              MOVS      V4, #29               ; [DPU_3_PIPE]  ; [ORIG 16-BIT INS]
    2625 0000003e 60A0              STR       A1, [V1, #8]          ; [DPU_3_PIPE] |480|  ; [ORIG 16-BIT INS]
    2626                            .dwpsn  file "../Application/Services/nvoctp.c",line 483,column 9,is_stmt,isa 1
    2627 00000040 462E              MOV       V3, V2                ; [DPU_3_PIPE] |483|  ; [ORIG 16-BIT INS]
    2628 00000042 70A5              STRB      V2, [V1, #2]          ; [DPU_3_PIPE] |483|  ; [ORIG 16-BIT INS]
    2629                    ;* --------------------------------------------------------------------------*
    2630                    ;*   BEGIN LOOP ||$C$L28||
    2631                    ;*
    2632                    ;*   Loop source line                : 486
    2633                    ;*   Loop closing brace source line  : 545
    2634                    ;*   Known Minimum Trip Count        : 2
    2635                    ;*   Known Maximum Trip Count        : 2
    2636                    ;*   Known Max Trip Count Factor     : 2
    2637                    ;* --------------------------------------------------------------------------*
    2638 00000044           ||$C$L28||:    
    2639                            .dwpsn  file "../Application/Services/nvoctp.c",line 490,column 13,is_stmt,isa 1
    2640 00000044 AB0A              ADD       A4, SP, #40           ; [DPU_3_PIPE] |490|  ; [ORIG 16-BIT INS]
TI ARM Assembler PC v16.9.9 Sun Nov 25 19:10:06 2018

Tools Copyright (c) 1996-2017 Texas Instruments Incorporated
C:\Users\Stryd\AppData\Local\Temp\{6FE13B51-C70D-4DF2-8F05-648F609965C3} PAGE   49

    2641 00000046 4638              MOV       A1, V4                ; [DPU_3_PIPE] |490|  ; [ORIG 16-BIT INS]
    2642 00000048 4641              MOV       A2, V5                ; [DPU_3_PIPE] |490|  ; [ORIG 16-BIT INS]
    2643 0000004a 2204              MOVS      A3, #4                ; [DPU_3_PIPE] |490|  ; [ORIG 16-BIT INS]
    2644                    $C$DW$184       .dwtag  DW_TAG_TI_branch
    2645                            .dwattr $C$DW$184, DW_AT_low_pc(0x00)
    2646                            .dwattr $C$DW$184, DW_AT_name("NVOCTP_flashRead")
    2647                            .dwattr $C$DW$184, DW_AT_TI_call
    2648                    
    2649 0000004c FFFEF7FF!         BL        NVOCTP_flashRead      ; [DPU_3_PIPE] |490|  ; [KEEP 32-BIT INS]
    2650                            ; CALL OCCURS {NVOCTP_flashRead }  ; [] |490| 
    2651                            .dwpsn  file "../Application/Services/nvoctp.c",line 492,column 13,is_stmt,isa 1
    2652 00000050 1028F89D          LDRB      A2, [SP, #40]         ; [DPU_3_PIPE] |492|  ; [KEEP 32-BIT INS]
    2653 00000054 78E3              LDRB      A4, [V1, #3]          ; [DPU_3_PIPE] |492|  ; [ORIG 16-BIT INS]
    2654 00000056 29A5              CMP       A2, #165              ; [DPU_3_PIPE] |492|  ; [ORIG 16-BIT INS]
    2655 00000058 D107              BNE       ||$C$L29||            ; [DPU_3_PIPE] |492|  ; [ORIG 16-BIT INS]
    2656                            ; BRANCHCC OCCURS {||$C$L29||}   ; [] |492| 
    2657                    ;* --------------------------------------------------------------------------*
    2658 0000005a 0029F89D          LDRB      A1, [SP, #41]         ; [DPU_3_PIPE] |492|  ; [KEEP 32-BIT INS]
    2659 0000005e 28FE              CMP       A1, #254              ; [DPU_3_PIPE] |492|  ; [ORIG 16-BIT INS]
    2660 00000060 DC03              BGT       ||$C$L29||            ; [DPU_3_PIPE] |492|  ; [ORIG 16-BIT INS]
    2661                            ; BRANCHCC OCCURS {||$C$L29||}   ; [] |492| 
    2662                    ;* --------------------------------------------------------------------------*
    2663 00000062 202BF89D          LDRB      A3, [SP, #43]         ; [DPU_3_PIPE] |492|  ; [KEEP 32-BIT INS]
    2664 00000066 2A96              CMP       A3, #150              ; [DPU_3_PIPE] |492|  ; [ORIG 16-BIT INS]
    2665 00000068 D009              BEQ       ||$C$L31||            ; [DPU_3_PIPE] |492|  ; [ORIG 16-BIT INS]
    2666                            ; BRANCHCC OCCURS {||$C$L31||}   ; [] |492| 
    2667                    ;* --------------------------------------------------------------------------*
    2668 0000006a           ||$C$L29||:    
    2669                            .dwpsn  file "../Application/Services/nvoctp.c",line 531,column 18,is_stmt,isa 1
    2670 0000006a 2924              CMP       A2, #36               ; [DPU_3_PIPE] |531|  ; [ORIG 16-BIT INS]
    2671 0000006c D002              BEQ       ||$C$L30||            ; [DPU_3_PIPE] |531|  ; [ORIG 16-BIT INS]
    2672                            ; BRANCHCC OCCURS {||$C$L30||}   ; [] |531| 
    2673                    ;* --------------------------------------------------------------------------*
    2674                            .dwpsn  file "../Application/Services/nvoctp.c",line 540,column 18,is_stmt,isa 1
    2675 0000006e 29B7              CMP       A2, #183              ; [DPU_3_PIPE] |540|  ; [ORIG 16-BIT INS]
    2676 00000070 D118              BNE       ||$C$L34||            ; [DPU_3_PIPE] |540|  ; [ORIG 16-BIT INS]
    2677                            ; BRANCHCC OCCURS {||$C$L34||}   ; [] |540| 
    2678                    ;* --------------------------------------------------------------------------*
    2679 00000072 E01F              B         ||$C$L37||            ; [DPU_3_PIPE] |540|  ; [ORIG 16-BIT INS]
    2680                            ; BRANCH OCCURS {||$C$L37||}     ; [] |540| 
    2681                    ;* --------------------------------------------------------------------------*
    2682 00000074           ||$C$L30||:    
    2683                            .dwpsn  file "../Application/Services/nvoctp.c",line 533,column 17,is_stmt,isa 1
    2684 00000074 463E              MOV       V3, V4                ; [DPU_3_PIPE] |533|  ; [ORIG 16-BIT INS]
    2685 00000076 B9EB              CBNZ      A4, ||$C$L37||        ; []  ; [ORIG 16-BIT INS]
    2686                            .dwpsn  file "../Application/Services/nvoctp.c",line 534,column 17,is_stmt,isa 1
    2687                            ; BRANCHCC OCCURS {||$C$L37||}   ; [] |534| 
    2688                    ;* --------------------------------------------------------------------------*
    2689                            .dwpsn  file "../Application/Services/nvoctp.c",line 537,column 21,is_stmt,isa 1
    2690 00000078 0029F89D          LDRB      A1, [SP, #41]         ; [DPU_3_PIPE] |537|  ; [KEEP 32-BIT INS]
    2691 0000007c E019              B         ||$C$L36||            ; [DPU_3_PIPE] |537|  ; [ORIG 16-BIT INS]
    2692                            ; BRANCH OCCURS {||$C$L36||}     ; [] |537| 
    2693                    ;* --------------------------------------------------------------------------*
    2694 0000007e           ||$C$L31||:    
    2695 0000007e B1B5              CBZ       V2, ||$C$L35||        ; []  ; [ORIG 16-BIT INS]
TI ARM Assembler PC v16.9.9 Sun Nov 25 19:10:06 2018

Tools Copyright (c) 1996-2017 Texas Instruments Incorporated
C:\Users\Stryd\AppData\Local\Temp\{6FE13B51-C70D-4DF2-8F05-648F609965C3} PAGE   50

    2696                            .dwpsn  file "../Application/Services/nvoctp.c",line 503,column 17,is_stmt,isa 1
    2697                            ; BRANCHCC OCCURS {||$C$L35||}   ; [] |503| 
    2698                    ;* --------------------------------------------------------------------------*
    2699                            .dwpsn  file "../Application/Services/nvoctp.c",line 512,column 21,is_stmt,isa 1
    2700 00000080 4298              CMP       A1, A4                ; [DPU_3_PIPE] |512|  ; [ORIG 16-BIT INS]
    2701 00000082 DA03              BGE       ||$C$L32||            ; [DPU_3_PIPE] |512|  ; [ORIG 16-BIT INS]
    2702                            ; BRANCHCC OCCURS {||$C$L32||}   ; [] |512| 
    2703                    ;* --------------------------------------------------------------------------*
    2704 00000084 2BFE              CMP       A4, #254              ; [DPU_3_PIPE] |512|  ; [ORIG 16-BIT INS]
    2705 00000086 BF18              IT        NE                    ; [DPU_3_PIPE]  ; [ORIG 16-BIT INS]
    2706 00000088 2801              CMPNE     A1, #1                ; [DPU_3_PIPE] |512|  ; [ORIG 16-BIT INS]
    2707 0000008a D10B              BNE       ||$C$L34||            ; [DPU_3_PIPE] |512|  ; [ORIG 16-BIT INS]
    2708                            ; BRANCHCC OCCURS {||$C$L34||}   ; [] |512| 
    2709                    ;* --------------------------------------------------------------------------*
    2710 0000008c           ||$C$L32||:    
    2711 0000008c 4298              CMP       A1, A4                ; [DPU_3_PIPE] |512|  ; [ORIG 16-BIT INS]
    2712 0000008e DD03              BLE       ||$C$L33||            ; [DPU_3_PIPE] |512|  ; [ORIG 16-BIT INS]
    2713                            ; BRANCHCC OCCURS {||$C$L33||}   ; [] |512| 
    2714                    ;* --------------------------------------------------------------------------*
    2715 00000090 2B01              CMP       A4, #1                ; [DPU_3_PIPE] |512|  ; [ORIG 16-BIT INS]
    2716 00000092 BF08              IT        EQ                    ; [DPU_3_PIPE]  ; [ORIG 16-BIT INS]
    2717 00000094 28FE              CMPEQ     A1, #254              ; [DPU_3_PIPE] |512|  ; [ORIG 16-BIT INS]
    2718 00000096 D005              BEQ       ||$C$L34||            ; [DPU_3_PIPE] |512|  ; [ORIG 16-BIT INS]
    2719                            ; BRANCHCC OCCURS {||$C$L34||}   ; [] |512| 
    2720                    ;* --------------------------------------------------------------------------*
    2721 00000098           ||$C$L33||:    
    2722                            .dwpsn  file "../Application/Services/nvoctp.c",line 525,column 25,is_stmt,isa 1
    2723 00000098 4628              MOV       A1, V2                ; [DPU_3_PIPE] |525|  ; [ORIG 16-BIT INS]
    2724                    $C$DW$185       .dwtag  DW_TAG_TI_branch
    2725                            .dwattr $C$DW$185, DW_AT_low_pc(0x00)
    2726                            .dwattr $C$DW$185, DW_AT_name("NVOCTP_erasePage")
    2727                            .dwattr $C$DW$185, DW_AT_TI_call
    2728                    
    2729 0000009a FFFEF7FF!         BL        NVOCTP_erasePage      ; [DPU_3_PIPE] |525|  ; [KEEP 32-BIT INS]
    2730                            ; CALL OCCURS {NVOCTP_erasePage }  ; [] |525| 
    2731                            .dwpsn  file "../Application/Services/nvoctp.c",line 527,column 25,is_stmt,isa 1
    2732 0000009e 0029F89D          LDRB      A1, [SP, #41]         ; [DPU_3_PIPE] |527|  ; [KEEP 32-BIT INS]
    2733 000000a2 E004              B         ||$C$L35||            ; [DPU_3_PIPE] |527|  ; [ORIG 16-BIT INS]
    2734                            ; BRANCH OCCURS {||$C$L35||}     ; [] |527| 
    2735                    ;* --------------------------------------------------------------------------*
    2736 000000a4           ||$C$L34||:    
    2737                            .dwpsn  file "../Application/Services/nvoctp.c",line 520,column 25,is_stmt,isa 1
    2738 000000a4 4638              MOV       A1, V4                ; [DPU_3_PIPE] |520|  ; [ORIG 16-BIT INS]
    2739                    $C$DW$186       .dwtag  DW_TAG_TI_branch
    2740                            .dwattr $C$DW$186, DW_AT_low_pc(0x00)
    2741                            .dwattr $C$DW$186, DW_AT_name("NVOCTP_erasePage")
    2742                            .dwattr $C$DW$186, DW_AT_TI_call
    2743                    
    2744 000000a6 FFFEF7FF!         BL        NVOCTP_erasePage      ; [DPU_3_PIPE] |520|  ; [KEEP 32-BIT INS]
    2745                            ; CALL OCCURS {NVOCTP_erasePage }  ; [] |520| 
    2746                            .dwpsn  file "../Application/Services/nvoctp.c",line 521,column 21,is_stmt,isa 1
    2747 000000aa 78A5              LDRB      V2, [V1, #2]          ; [DPU_3_PIPE] |521|  ; [ORIG 16-BIT INS]
    2748 000000ac E002              B         ||$C$L37||            ; [DPU_3_PIPE] |521|  ; [ORIG 16-BIT INS]
    2749                            ; BRANCH OCCURS {||$C$L37||}     ; [] |521| 
    2750                    ;* --------------------------------------------------------------------------*
TI ARM Assembler PC v16.9.9 Sun Nov 25 19:10:06 2018

Tools Copyright (c) 1996-2017 Texas Instruments Incorporated
C:\Users\Stryd\AppData\Local\Temp\{6FE13B51-C70D-4DF2-8F05-648F609965C3} PAGE   51

    2751 000000ae           ||$C$L35||:    
    2752                            .dwpsn  file "../Application/Services/nvoctp.c",line 506,column 21,is_stmt,isa 1
    2753 000000ae 463D              MOV       V2, V4                ; [DPU_3_PIPE] |506|  ; [ORIG 16-BIT INS]
    2754 000000b0 70A5              STRB      V2, [V1, #2]          ; [DPU_3_PIPE] |506|  ; [ORIG 16-BIT INS]
    2755                    ;* --------------------------------------------------------------------------*
    2756 000000b2           ||$C$L36||:    
    2757                            .dwpsn  file "../Application/Services/nvoctp.c",line 507,column 21,is_stmt,isa 1
    2758 000000b2 70E0              STRB      A1, [V1, #3]          ; [DPU_3_PIPE] |507|  ; [ORIG 16-BIT INS]
    2759                    ;* --------------------------------------------------------------------------*
    2760 000000b4           ||$C$L37||:    
    2761                            .dwpsn  file "../Application/Services/nvoctp.c",line 486,column 46,is_stmt,isa 1
    2762 000000b4 1C7F              ADDS      V4, V4, #1            ; [DPU_3_PIPE] |486|  ; [ORIG 16-BIT INS]
    2763 000000b6 2F1E              CMP       V4, #30               ; [DPU_3_PIPE] |486|  ; [ORIG 16-BIT INS]
    2764 000000b8 DDC4              BLE       ||$C$L28||            ; [DPU_3_PIPE] |486|  ; [ORIG 16-BIT INS]
    2765                            ; BRANCHCC OCCURS {||$C$L28||}   ; [] |486| 
    2766                    ;* --------------------------------------------------------------------------*
    2767 000000ba B98D              CBNZ      V2, ||$C$L39||        ; []  ; [ORIG 16-BIT INS]
    2768                            .dwpsn  file "../Application/Services/nvoctp.c",line 547,column 9,is_stmt,isa 1
    2769                            ; BRANCHCC OCCURS {||$C$L39||}   ; [] |547| 
    2770                    ;* --------------------------------------------------------------------------*
    2771 000000bc B926              CBNZ      V3, ||$C$L38||        ; []  ; [ORIG 16-BIT INS]
    2772                            .dwpsn  file "../Application/Services/nvoctp.c",line 549,column 13,is_stmt,isa 1
    2773                            ; BRANCHCC OCCURS {||$C$L38||}   ; [] |549| 
    2774                    ;* --------------------------------------------------------------------------*
    2775                            .dwpsn  file "../Application/Services/nvoctp.c",line 552,column 17,is_stmt,isa 1
    2776 000000be 201D              MOVS      A1, #29               ; [DPU_3_PIPE] |552|  ; [ORIG 16-BIT INS]
    2777                    $C$DW$187       .dwtag  DW_TAG_TI_branch
    2778                            .dwattr $C$DW$187, DW_AT_low_pc(0x00)
    2779                            .dwattr $C$DW$187, DW_AT_name("NVOCTP_setPageActive")
    2780                            .dwattr $C$DW$187, DW_AT_TI_call
    2781                    
    2782 000000c0 FFFEF7FF!         BL        NVOCTP_setPageActive  ; [DPU_3_PIPE] |552|  ; [KEEP 32-BIT INS]
    2783                            ; CALL OCCURS {NVOCTP_setPageActive }  ; [] |552| 
    2784                            .dwpsn  file "../Application/Services/nvoctp.c",line 553,column 17,is_stmt,isa 1
    2785 000000c4 2004              MOVS      A1, #4                ; [DPU_3_PIPE] |553|  ; [ORIG 16-BIT INS]
    2786                            .dwpsn  file "../Application/Services/nvoctp.c",line 554,column 13,is_stmt,isa 1
    2787 000000c6 E015              B         ||$C$L41||            ; [DPU_3_PIPE] |554|  ; [ORIG 16-BIT INS]
    2788                            ; BRANCH OCCURS {||$C$L41||}     ; [] |554| 
    2789                    ;* --------------------------------------------------------------------------*
    2790 000000c8           ||$C$L38||:    
    2791                            .dwpsn  file "../Application/Services/nvoctp.c",line 558,column 17,is_stmt,isa 1
    2792 000000c8 70A6              STRB      V3, [V1, #2]          ; [DPU_3_PIPE] |558|  ; [ORIG 16-BIT INS]
    2793                            .dwpsn  file "../Application/Services/nvoctp.c",line 559,column 17,is_stmt,isa 1
    2794 000000ca 4630              MOV       A1, V3                ; [DPU_3_PIPE] |559|  ; [ORIG 16-BIT INS]
    2795 000000cc 5180F44F          MOV       A2, #4096             ; [DPU_3_PIPE] |559|  ; [KEEP 32-BIT INS]
    2796                    $C$DW$188       .dwtag  DW_TAG_TI_branch
    2797                            .dwattr $C$DW$188, DW_AT_low_pc(0x00)
    2798                            .dwattr $C$DW$188, DW_AT_name("NVOCTP_findOffset")
    2799                            .dwattr $C$DW$188, DW_AT_TI_call
    2800                    
    2801 000000d0 FFFEF7FF!         BL        NVOCTP_findOffset     ; [DPU_3_PIPE] |559|  ; [KEEP 32-BIT INS]
    2802                            ; CALL OCCURS {NVOCTP_findOffset }  ; [] |559| 
    2803 000000d4 80E0              STRH      A1, [V1, #6]          ; [DPU_3_PIPE] |559|  ; [ORIG 16-BIT INS]
    2804                            .dwpsn  file "../Application/Services/nvoctp.c",line 560,column 17,is_stmt,isa 1
    2805 000000d6 4641              MOV       A2, V5                ; [DPU_3_PIPE] |560|  ; [ORIG 16-BIT INS]
TI ARM Assembler PC v16.9.9 Sun Nov 25 19:10:06 2018

Tools Copyright (c) 1996-2017 Texas Instruments Incorporated
C:\Users\Stryd\AppData\Local\Temp\{6FE13B51-C70D-4DF2-8F05-648F609965C3} PAGE   52

    2806 000000d8 4630              MOV       A1, V3                ; [DPU_3_PIPE] |560|  ; [ORIG 16-BIT INS]
    2807                    $C$DW$189       .dwtag  DW_TAG_TI_branch
    2808                            .dwattr $C$DW$189, DW_AT_low_pc(0x00)
    2809                            .dwattr $C$DW$189, DW_AT_name("NVOCTP_compactPage")
    2810                            .dwattr $C$DW$189, DW_AT_TI_call
    2811                    
    2812 000000da FFFEF7FF!         BL        NVOCTP_compactPage    ; [DPU_3_PIPE] |560|  ; [KEEP 32-BIT INS]
    2813                            ; CALL OCCURS {NVOCTP_compactPage }  ; [] |560| 
    2814 000000de E00A              B         ||$C$L42||            ; [DPU_3_PIPE] |560|  ; [ORIG 16-BIT INS]
    2815                            ; BRANCH OCCURS {||$C$L42||}     ; [] |560| 
    2816                    ;* --------------------------------------------------------------------------*
    2817 000000e0           ||$C$L39||:    
    2818 000000e0 B11E              CBZ       V3, ||$C$L40||        ; []  ; [ORIG 16-BIT INS]
    2819                            .dwpsn  file "../Application/Services/nvoctp.c",line 565,column 13,is_stmt,isa 1
    2820                            ; BRANCHCC OCCURS {||$C$L40||}   ; [] |565| 
    2821                    ;* --------------------------------------------------------------------------*
    2822                            .dwpsn  file "../Application/Services/nvoctp.c",line 568,column 17,is_stmt,isa 1
    2823 000000e2 4630              MOV       A1, V3                ; [DPU_3_PIPE] |568|  ; [ORIG 16-BIT INS]
    2824                    $C$DW$190       .dwtag  DW_TAG_TI_branch
    2825                            .dwattr $C$DW$190, DW_AT_low_pc(0x00)
    2826                            .dwattr $C$DW$190, DW_AT_name("NVOCTP_erasePage")
    2827                            .dwattr $C$DW$190, DW_AT_TI_call
    2828                    
    2829 000000e4 FFFEF7FF!         BL        NVOCTP_erasePage      ; [DPU_3_PIPE] |568|  ; [KEEP 32-BIT INS]
    2830                            ; CALL OCCURS {NVOCTP_erasePage }  ; [] |568| 
    2831 000000e8 78A5              LDRB      V2, [V1, #2]          ; [DPU_3_PIPE] |568|  ; [ORIG 16-BIT INS]
    2832                    ;* --------------------------------------------------------------------------*
    2833 000000ea           ||$C$L40||:    
    2834                            .dwpsn  file "../Application/Services/nvoctp.c",line 571,column 13,is_stmt,isa 1
    2835 000000ea 4628              MOV       A1, V2                ; [DPU_3_PIPE] |571|  ; [ORIG 16-BIT INS]
    2836 000000ec 5180F44F          MOV       A2, #4096             ; [DPU_3_PIPE] |571|  ; [KEEP 32-BIT INS]
    2837                    $C$DW$191       .dwtag  DW_TAG_TI_branch
    2838                            .dwattr $C$DW$191, DW_AT_low_pc(0x00)
    2839                            .dwattr $C$DW$191, DW_AT_name("NVOCTP_findOffset")
    2840                            .dwattr $C$DW$191, DW_AT_TI_call
    2841                    
    2842 000000f0 FFFEF7FF!         BL        NVOCTP_findOffset     ; [DPU_3_PIPE] |571|  ; [KEEP 32-BIT INS]
    2843                            ; CALL OCCURS {NVOCTP_findOffset }  ; [] |571| 
    2844                    ;* --------------------------------------------------------------------------*
    2845 000000f4           ||$C$L41||:    
    2846 000000f4 80E0              STRH      A1, [V1, #6]          ; [DPU_3_PIPE] |571|  ; [ORIG 16-BIT INS]
    2847                    ;* --------------------------------------------------------------------------*
    2848 000000f6           ||$C$L42||:    
    2849                            .dwpsn  file "../Application/Services/nvoctp.c",line 580,column 13,is_stmt,isa 1
    2850 000000f6 AF0A              ADD       V4, SP, #40           ; [DPU_3_PIPE] |580|  ; [ORIG 16-BIT INS]
    2851 000000f8 4D17              LDR       V2, $C$CON19          ; [DPU_3_PIPE] |580|  ; [ORIG 16-BIT INS]
    2852 000000fa 9700              STR       V4, [SP, #0]          ; [DPU_3_PIPE] |580|  ; [ORIG 16-BIT INS]
    2853 000000fc A80E              ADD       A1, SP, #56           ; [DPU_3_PIPE] |580|  ; [ORIG 16-BIT INS]
    2854 000000fe 6829              LDR       A2, [V2, #0]          ; [DPU_3_PIPE] |580|  ; [ORIG 16-BIT INS]
    2855 00000100 88AE              LDRH      V3, [V2, #4]          ; [DPU_3_PIPE] |580|  ; [ORIG 16-BIT INS]
    2856 00000102 6001              STR       A2, [A1, #0]          ; [DPU_3_PIPE] |580|  ; [ORIG 16-BIT INS]
    2857 00000104 AB0E              ADD       A4, SP, #56           ; [DPU_3_PIPE] |580|  ; [ORIG 16-BIT INS]
    2858 00000106 8086              STRH      V3, [A1, #4]          ; [DPU_3_PIPE] |580|  ; [ORIG 16-BIT INS]
    2859 00000108 0003E893          LDMIA     A4, {A1,A2}           ; [DPU_3_PIPE] |580|  ; [KEEP 32-BIT INS]
    2860 0000010c 4642              MOV       A3, V5                ; [DPU_3_PIPE] |580|  ; [ORIG 16-BIT INS]
TI ARM Assembler PC v16.9.9 Sun Nov 25 19:10:06 2018

Tools Copyright (c) 1996-2017 Texas Instruments Incorporated
C:\Users\Stryd\AppData\Local\Temp\{6FE13B51-C70D-4DF2-8F05-648F609965C3} PAGE   53

    2861 0000010e 230C              MOVS      A4, #12               ; [DPU_3_PIPE] |580|  ; [ORIG 16-BIT INS]
    2862                    $C$DW$192       .dwtag  DW_TAG_TI_branch
    2863                            .dwattr $C$DW$192, DW_AT_low_pc(0x00)
    2864                            .dwattr $C$DW$192, DW_AT_name("NVOCTP_readItemApi")
    2865                            .dwattr $C$DW$192, DW_AT_TI_call
    2866                    
    2867 00000110 FFFEF7FF!         BL        NVOCTP_readItemApi    ; [DPU_3_PIPE] |580|  ; [KEEP 32-BIT INS]
    2868                            ; CALL OCCURS {NVOCTP_readItemApi }  ; [] |580| 
    2869                            .dwpsn  file "../Application/Services/nvoctp.c",line 581,column 13,is_stmt,isa 1
    2870 00000114 88E6              LDRH      V3, [V1, #6]          ; [DPU_3_PIPE] |581|  ; [ORIG 16-BIT INS]
    2871 00000116 280A              CMP       A1, #10               ; [DPU_3_PIPE] |581|  ; [ORIG 16-BIT INS]
    2872 00000118 D109              BNE       ||$C$L43||            ; [DPU_3_PIPE] |581|  ; [ORIG 16-BIT INS]
    2873                            ; BRANCHCC OCCURS {||$C$L43||}   ; [] |581| 
    2874                    ;* --------------------------------------------------------------------------*
    2875                            .dwpsn  file "../Application/Services/nvoctp.c",line 584,column 17,is_stmt,isa 1
    2876 0000011a 4638              MOV       A1, V4                ; [DPU_3_PIPE] |584|  ; [ORIG 16-BIT INS]
    2877 0000011c 4641              MOV       A2, V5                ; [DPU_3_PIPE] |584|  ; [ORIG 16-BIT INS]
    2878 0000011e 220C              MOVS      A3, #12               ; [DPU_3_PIPE] |584|  ; [ORIG 16-BIT INS]
    2879                    $C$DW$193       .dwtag  DW_TAG_TI_branch
    2880                            .dwattr $C$DW$193, DW_AT_low_pc(0x00)
    2881                            .dwattr $C$DW$193, DW_AT_name("memset")
    2882                            .dwattr $C$DW$193, DW_AT_TI_call
    2883                    
    2884 00000120 FFFEF7FF!         BL        memset                ; [DPU_3_PIPE] |584|  ; [KEEP 32-BIT INS]
    2885                            ; CALL OCCURS {memset }          ; [] |584| 
    2886                            .dwpsn  file "../Application/Services/nvoctp.c",line 586,column 17,is_stmt,isa 1
    2887 00000124 70EFF640          MOV       A1, #4079             ; [DPU_3_PIPE] |586|  ; [KEEP 32-BIT INS]
    2888 00000128 1B80              SUBS      A1, A1, V3            ; [DPU_3_PIPE] |586|  ; [ORIG 16-BIT INS]
    2889 0000012a 002EF8AD          STRH      A1, [SP, #46]         ; [DPU_3_PIPE] |586|  ; [KEEP 32-BIT INS]
    2890                    ;* --------------------------------------------------------------------------*
    2891 0000012e           ||$C$L43||:    
    2892                            .dwpsn  file "../Application/Services/nvoctp.c",line 590,column 13,is_stmt,isa 1
    2893 0000012e 002CF8BD          LDRH      A1, [SP, #44]         ; [DPU_3_PIPE] |590|  ; [KEEP 32-BIT INS]
    2894                            .dwpsn  file "../Application/Services/nvoctp.c",line 592,column 13,is_stmt,isa 1
    2895 00000132 AF0E              ADD       V4, SP, #56           ; [DPU_3_PIPE] |592|  ; [ORIG 16-BIT INS]
    2896                            .dwpsn  file "../Application/Services/nvoctp.c",line 590,column 13,is_stmt,isa 1
    2897 00000134 1C40              ADDS      A1, A1, #1            ; [DPU_3_PIPE] |590|  ; [ORIG 16-BIT INS]
    2898 00000136 002CF8AD          STRH      A1, [SP, #44]         ; [DPU_3_PIPE] |590|  ; [KEEP 32-BIT INS]
    2899                            .dwpsn  file "../Application/Services/nvoctp.c",line 592,column 13,is_stmt,isa 1
    2900 0000013a 6829              LDR       A2, [V2, #0]          ; [DPU_3_PIPE] |592|  ; [ORIG 16-BIT INS]
    2901 0000013c 88AE              LDRH      V3, [V2, #4]          ; [DPU_3_PIPE] |592|  ; [ORIG 16-BIT INS]
    2902 0000013e 6039              STR       A2, [V4, #0]          ; [DPU_3_PIPE] |592|  ; [ORIG 16-BIT INS]
    2903 00000140 AB0E              ADD       A4, SP, #56           ; [DPU_3_PIPE] |592|  ; [ORIG 16-BIT INS]
    2904 00000142 80BE              STRH      V3, [V4, #4]          ; [DPU_3_PIPE] |592|  ; [ORIG 16-BIT INS]
    2905 00000144 0003E893          LDMIA     A4, {A1,A2}           ; [DPU_3_PIPE] |592|  ; [KEEP 32-BIT INS]
    2906 00000148 220C              MOVS      A3, #12               ; [DPU_3_PIPE] |592|  ; [ORIG 16-BIT INS]
