TI ARM Assembler PC v16.9.9 Sun Nov 25 17:19:51 2018

Tools Copyright (c) 1996-2017 Texas Instruments Incorporated
C:\Users\Stryd\AppData\Local\Temp\{7DA0ADB5-97D8-4466-9070-E3FE443B1FB8} PAGE    1

       1                    ;******************************************************************************
       2                    ;* TI ARM C/C++ Codegen                                        PC v16.9.9.LTS *
       3                    ;* Date/Time created: Sun Nov 25 17:19:51 2018                                *
       4                    ;******************************************************************************
       5                            .compiler_opts --abi=eabi --arm_vmrs_si_workaround=off --code_state=16 --diag_wrap=off --embed
       6 00000000                   .thumb
       7                    
       8                    $C$DW$CU        .dwtag  DW_TAG_compile_unit
       9                            .dwattr $C$DW$CU, DW_AT_name("../Application/LaunchPad/board_led.c")
      10                            .dwattr $C$DW$CU, DW_AT_producer("TI TI ARM C/C++ Codegen PC v16.9.9.LTS Copyright (c) 1996-20
      11                            .dwattr $C$DW$CU, DW_AT_TI_version(0x01)
      12                            .dwattr $C$DW$CU, DW_AT_comp_dir("C:\CCSWorkspace\ECG603\sensor_cc1350lp\sensor_cc1350lp")
      13                    
      14                    $C$DW$1 .dwtag  DW_TAG_subprogram
      15                            .dwattr $C$DW$1, DW_AT_name("PIN_open")
      16                            .dwattr $C$DW$1, DW_AT_TI_symbol_name("PIN_open")
      17                            .dwattr $C$DW$1, DW_AT_type(*$C$DW$T$222)
      18                            .dwattr $C$DW$1, DW_AT_declaration
      19                            .dwattr $C$DW$1, DW_AT_external
      20                            .dwattr $C$DW$1, DW_AT_decl_file("C:/ti/simplelink_cc13x0_sdk_2_30_00_20/source/ti/drivers/PIN
      21                            .dwattr $C$DW$1, DW_AT_decl_line(0x2f5)
      22                            .dwattr $C$DW$1, DW_AT_decl_column(0x13)
      23                    $C$DW$2 .dwtag  DW_TAG_formal_parameter
      24                            .dwattr $C$DW$2, DW_AT_type(*$C$DW$T$221)
      25                    
      26                    $C$DW$3 .dwtag  DW_TAG_formal_parameter
      27                            .dwattr $C$DW$3, DW_AT_type(*$C$DW$T$773)
      28                    
      29                            .dwendtag $C$DW$1
      30                    
      31                    
      32                    $C$DW$4 .dwtag  DW_TAG_subprogram
      33                            .dwattr $C$DW$4, DW_AT_name("PIN_setOutputValue")
      34                            .dwattr $C$DW$4, DW_AT_TI_symbol_name("PIN_setOutputValue")
      35                            .dwattr $C$DW$4, DW_AT_type(*$C$DW$T$681)
      36                            .dwattr $C$DW$4, DW_AT_declaration
      37                            .dwattr $C$DW$4, DW_AT_external
      38                            .dwattr $C$DW$4, DW_AT_decl_file("C:/ti/simplelink_cc13x0_sdk_2_30_00_20/source/ti/drivers/PIN
      39                            .dwattr $C$DW$4, DW_AT_decl_line(0x367)
      40                            .dwattr $C$DW$4, DW_AT_decl_column(0x13)
      41                    $C$DW$5 .dwtag  DW_TAG_formal_parameter
      42                            .dwattr $C$DW$5, DW_AT_type(*$C$DW$T$222)
      43                    
      44                    $C$DW$6 .dwtag  DW_TAG_formal_parameter
      45                            .dwattr $C$DW$6, DW_AT_type(*$C$DW$T$223)
      46                    
      47                    $C$DW$7 .dwtag  DW_TAG_formal_parameter
      48                            .dwattr $C$DW$7, DW_AT_type(*$C$DW$T$142)
      49                    
      50                            .dwendtag $C$DW$4
      51                    
      52                    
      53                    $C$DW$8 .dwtag  DW_TAG_subprogram
      54                            .dwattr $C$DW$8, DW_AT_name("HwiP_disable")
      55                            .dwattr $C$DW$8, DW_AT_TI_symbol_name("HwiP_disable")
TI ARM Assembler PC v16.9.9 Sun Nov 25 17:19:51 2018

Tools Copyright (c) 1996-2017 Texas Instruments Incorporated
C:\Users\Stryd\AppData\Local\Temp\{7DA0ADB5-97D8-4466-9070-E3FE443B1FB8} PAGE    2

      56                            .dwattr $C$DW$8, DW_AT_type(*$C$DW$T$214)
      57                            .dwattr $C$DW$8, DW_AT_declaration
      58                            .dwattr $C$DW$8, DW_AT_external
      59                            .dwattr $C$DW$8, DW_AT_decl_file("C:/ti/simplelink_cc13x0_sdk_2_30_00_20/source/ti/drivers/dpl
      60                            .dwattr $C$DW$8, DW_AT_decl_line(0xd1)
      61                            .dwattr $C$DW$8, DW_AT_decl_column(0x12)
      62                            .dwendtag $C$DW$8
      63                    
      64                    
      65                    $C$DW$9 .dwtag  DW_TAG_subprogram
      66                            .dwattr $C$DW$9, DW_AT_name("HwiP_restore")
      67                            .dwattr $C$DW$9, DW_AT_TI_symbol_name("HwiP_restore")
      68                            .dwattr $C$DW$9, DW_AT_declaration
      69                            .dwattr $C$DW$9, DW_AT_external
      70                            .dwattr $C$DW$9, DW_AT_decl_file("C:/ti/simplelink_cc13x0_sdk_2_30_00_20/source/ti/drivers/dpl
      71                            .dwattr $C$DW$9, DW_AT_decl_line(0x10f)
      72                            .dwattr $C$DW$9, DW_AT_decl_column(0x0d)
      73                    $C$DW$10        .dwtag  DW_TAG_formal_parameter
      74                            .dwattr $C$DW$10, DW_AT_type(*$C$DW$T$214)
      75                    
      76                            .dwendtag $C$DW$9
      77                    
      78                    
      79                    $C$DW$11        .dwtag  DW_TAG_subprogram
      80                            .dwattr $C$DW$11, DW_AT_name("Timer_construct")
      81                            .dwattr $C$DW$11, DW_AT_TI_symbol_name("Timer_construct")
      82                            .dwattr $C$DW$11, DW_AT_type(*$C$DW$T$1331)
      83                            .dwattr $C$DW$11, DW_AT_declaration
      84                            .dwattr $C$DW$11, DW_AT_external
      85                            .dwattr $C$DW$11, DW_AT_decl_file("C:/CCSWorkspace/ECG603/sensor_cc1350lp/Application/util_tim
      86                            .dwattr $C$DW$11, DW_AT_decl_line(0x5e)
      87                            .dwattr $C$DW$11, DW_AT_decl_column(0x15)
      88                    $C$DW$12        .dwtag  DW_TAG_formal_parameter
      89                            .dwattr $C$DW$12, DW_AT_type(*$C$DW$T$862)
      90                    
      91                    $C$DW$13        .dwtag  DW_TAG_formal_parameter
      92                            .dwattr $C$DW$13, DW_AT_type(*$C$DW$T$475)
      93                    
      94                    $C$DW$14        .dwtag  DW_TAG_formal_parameter
      95                            .dwattr $C$DW$14, DW_AT_type(*$C$DW$T$142)
      96                    
      97                    $C$DW$15        .dwtag  DW_TAG_formal_parameter
      98                            .dwattr $C$DW$15, DW_AT_type(*$C$DW$T$142)
      99                    
     100                    $C$DW$16        .dwtag  DW_TAG_formal_parameter
     101                            .dwattr $C$DW$16, DW_AT_type(*$C$DW$T$143)
     102                    
     103                    $C$DW$17        .dwtag  DW_TAG_formal_parameter
     104                            .dwattr $C$DW$17, DW_AT_type(*$C$DW$T$868)
     105                    
     106                            .dwendtag $C$DW$11
     107                    
     108                    
     109                    $C$DW$18        .dwtag  DW_TAG_subprogram
     110                            .dwattr $C$DW$18, DW_AT_name("Timer_start")
TI ARM Assembler PC v16.9.9 Sun Nov 25 17:19:51 2018

Tools Copyright (c) 1996-2017 Texas Instruments Incorporated
C:\Users\Stryd\AppData\Local\Temp\{7DA0ADB5-97D8-4466-9070-E3FE443B1FB8} PAGE    3

     111                            .dwattr $C$DW$18, DW_AT_TI_symbol_name("Timer_start")
     112                            .dwattr $C$DW$18, DW_AT_declaration
     113                            .dwattr $C$DW$18, DW_AT_external
     114                            .dwattr $C$DW$18, DW_AT_decl_file("C:/CCSWorkspace/ECG603/sensor_cc1350lp/Application/util_tim
     115                            .dwattr $C$DW$18, DW_AT_decl_line(0x6a)
     116                            .dwattr $C$DW$18, DW_AT_decl_column(0x0d)
     117                    $C$DW$19        .dwtag  DW_TAG_formal_parameter
     118                            .dwattr $C$DW$19, DW_AT_type(*$C$DW$T$862)
     119                    
     120                            .dwendtag $C$DW$18
     121                    
     122                    
     123                    $C$DW$20        .dwtag  DW_TAG_subprogram
     124                            .dwattr $C$DW$20, DW_AT_name("Timer_isActive")
     125                            .dwattr $C$DW$20, DW_AT_TI_symbol_name("Timer_isActive")
     126                            .dwattr $C$DW$20, DW_AT_type(*$C$DW$T$215)
     127                            .dwattr $C$DW$20, DW_AT_declaration
     128                            .dwattr $C$DW$20, DW_AT_external
     129                            .dwattr $C$DW$20, DW_AT_decl_file("C:/CCSWorkspace/ECG603/sensor_cc1350lp/Application/util_tim
     130                            .dwattr $C$DW$20, DW_AT_decl_line(0x73)
     131                            .dwattr $C$DW$20, DW_AT_decl_column(0x0d)
     132                    $C$DW$21        .dwtag  DW_TAG_formal_parameter
     133                            .dwattr $C$DW$21, DW_AT_type(*$C$DW$T$862)
     134                    
     135                            .dwendtag $C$DW$20
     136                    
     137                    
     138                    $C$DW$22        .dwtag  DW_TAG_subprogram
     139                            .dwattr $C$DW$22, DW_AT_name("Timer_stop")
     140                            .dwattr $C$DW$22, DW_AT_TI_symbol_name("Timer_stop")
     141                            .dwattr $C$DW$22, DW_AT_declaration
     142                            .dwattr $C$DW$22, DW_AT_external
     143                            .dwattr $C$DW$22, DW_AT_decl_file("C:/CCSWorkspace/ECG603/sensor_cc1350lp/Application/util_tim
     144                            .dwattr $C$DW$22, DW_AT_decl_line(0x7a)
     145                            .dwattr $C$DW$22, DW_AT_decl_column(0x0d)
     146                    $C$DW$23        .dwtag  DW_TAG_formal_parameter
     147                            .dwattr $C$DW$23, DW_AT_type(*$C$DW$T$862)
     148                    
     149                            .dwendtag $C$DW$22
     150                    
     151 00000000                   .sect   ".data:$O1$$", RW
     152                            .align  4
     153                            .elfsym ||$O1$$||,SYM_SIZE(68)
     154 00000000           ||$O1$$||:
     155 00000000                   .space  8
     156 00000008 80800806          .bits   -2139092986,32                  ; $O1$$.ledPinTable[0] @ 64
     157 0000000c 80800807          .bits   -2139092985,32                  ; $O1$$.ledPinTable[1] @ 96
     158 00000010 000000FE          .bits   254,32                  ; $O1$$.ledPinTable[2] @ 128
     159 00000014                   .space  48
     160                    
     161                    
     162                    ;*********************************************************************
     163                    ;* GROUPED GLOBALS FOR $O1$$                                         *
     164                    ;*********************************************************************
     165          00000000! ledStatus:      .set    ||$O1$$||+0
TI ARM Assembler PC v16.9.9 Sun Nov 25 17:19:51 2018

Tools Copyright (c) 1996-2017 Texas Instruments Incorporated
C:\Users\Stryd\AppData\Local\Temp\{7DA0ADB5-97D8-4466-9070-E3FE443B1FB8} PAGE    4

     166                    $C$DW$24        .dwtag  DW_TAG_variable
     167                            .dwattr $C$DW$24, DW_AT_name("ledStatus")
     168                            .dwattr $C$DW$24, DW_AT_TI_symbol_name("ledStatus")
     169                            .dwattr $C$DW$24, DW_AT_type(*$C$DW$T$729)
     170                            .dwattr $C$DW$24, DW_AT_location[DW_OP_addr ledStatus]
     171                            .dwattr $C$DW$24, DW_AT_decl_file("../Application/LaunchPad/board_led.c")
     172                            .dwattr $C$DW$24, DW_AT_decl_line(0x5c)
     173                            .dwattr $C$DW$24, DW_AT_decl_column(0x1b)
     174                    
     175          00000004! ledPinHandle:   .set    ||$O1$$||+4
     176                    $C$DW$25        .dwtag  DW_TAG_variable
     177                            .dwattr $C$DW$25, DW_AT_name("ledPinHandle")
     178                            .dwattr $C$DW$25, DW_AT_TI_symbol_name("ledPinHandle")
     179                            .dwattr $C$DW$25, DW_AT_type(*$C$DW$T$222)
     180                            .dwattr $C$DW$25, DW_AT_location[DW_OP_addr ledPinHandle]
     181                            .dwattr $C$DW$25, DW_AT_decl_file("../Application/LaunchPad/board_led.c")
     182                            .dwattr $C$DW$25, DW_AT_decl_line(0x6d)
     183                            .dwattr $C$DW$25, DW_AT_decl_column(0x13)
     184                    
     185          00000008! ledPinTable:    .set    ||$O1$$||+8
     186                    $C$DW$26        .dwtag  DW_TAG_variable
     187                            .dwattr $C$DW$26, DW_AT_name("ledPinTable")
     188                            .dwattr $C$DW$26, DW_AT_TI_symbol_name("ledPinTable")
     189                            .dwattr $C$DW$26, DW_AT_type(*$C$DW$T$1120)
     190                            .dwattr $C$DW$26, DW_AT_location[DW_OP_addr ledPinTable]
     191                            .dwattr $C$DW$26, DW_AT_decl_file("../Application/LaunchPad/board_led.c")
     192                            .dwattr $C$DW$26, DW_AT_decl_line(0x5e)
     193                            .dwattr $C$DW$26, DW_AT_decl_column(0x13)
     194                    
     195          00000014! ledPinState:    .set    ||$O1$$||+20
     196                    $C$DW$27        .dwtag  DW_TAG_variable
     197                            .dwattr $C$DW$27, DW_AT_name("ledPinState")
     198                            .dwattr $C$DW$27, DW_AT_TI_symbol_name("ledPinState")
     199                            .dwattr $C$DW$27, DW_AT_type(*$C$DW$T$220)
     200                            .dwattr $C$DW$27, DW_AT_location[DW_OP_addr ledPinState]
     201                            .dwattr $C$DW$27, DW_AT_decl_file("../Application/LaunchPad/board_led.c")
     202                            .dwattr $C$DW$27, DW_AT_decl_line(0x6a)
     203                            .dwattr $C$DW$27, DW_AT_decl_column(0x12)
     204                    
     205          00000020! blinkClkStruct: .set    ||$O1$$||+32
     206                    $C$DW$28        .dwtag  DW_TAG_variable
     207                            .dwattr $C$DW$28, DW_AT_name("blinkClkStruct")
     208                            .dwattr $C$DW$28, DW_AT_TI_symbol_name("blinkClkStruct")
     209                            .dwattr $C$DW$28, DW_AT_type(*$C$DW$T$861)
     210                            .dwattr $C$DW$28, DW_AT_location[DW_OP_addr blinkClkStruct]
     211                            .dwattr $C$DW$28, DW_AT_decl_file("../Application/LaunchPad/board_led.c")
     212                            .dwattr $C$DW$28, DW_AT_decl_line(0x5a)
     213                            .dwattr $C$DW$28, DW_AT_decl_column(0x15)
     214                    
     215                    ;       C:\ti\ccsv7\tools\compiler\ti-cgt-arm_16.9.9.LTS\bin\armopt.exe C:/CCSWorkspace/ECG603/sensor_
     216 00000000                   .sect   ".text:board_led_convertLedType"
     217                            .clink
     218                            .thumbfunc board_led_convertLedType
     219 00000000                   .thumb
     220                    
TI ARM Assembler PC v16.9.9 Sun Nov 25 17:19:51 2018

Tools Copyright (c) 1996-2017 Texas Instruments Incorporated
C:\Users\Stryd\AppData\Local\Temp\{7DA0ADB5-97D8-4466-9070-E3FE443B1FB8} PAGE    5

     221                    $C$DW$29        .dwtag  DW_TAG_subprogram
     222                            .dwattr $C$DW$29, DW_AT_name("board_led_convertLedType")
     223                            .dwattr $C$DW$29, DW_AT_low_pc(board_led_convertLedType)
     224                            .dwattr $C$DW$29, DW_AT_high_pc(0x00)
     225                            .dwattr $C$DW$29, DW_AT_TI_symbol_name("board_led_convertLedType")
     226                            .dwattr $C$DW$29, DW_AT_type(*$C$DW$T$11)
     227                            .dwattr $C$DW$29, DW_AT_TI_begin_file("../Application/LaunchPad/board_led.c")
     228                            .dwattr $C$DW$29, DW_AT_TI_begin_line(0x15b)
     229                            .dwattr $C$DW$29, DW_AT_TI_begin_column(0x15)
     230                            .dwattr $C$DW$29, DW_AT_decl_file("../Application/LaunchPad/board_led.c")
     231                            .dwattr $C$DW$29, DW_AT_decl_line(0x15b)
     232                            .dwattr $C$DW$29, DW_AT_decl_column(0x15)
     233                            .dwattr $C$DW$29, DW_AT_TI_max_frame_size(0x00)
     234                            .dwpsn  file "../Application/LaunchPad/board_led.c",line 348,column 1,is_stmt,address board_le
     235                    
     236                            .dwfde $C$DW$CIE, board_led_convertLedType
     237                    $C$DW$30        .dwtag  DW_TAG_formal_parameter
     238                            .dwattr $C$DW$30, DW_AT_name("led")
     239                            .dwattr $C$DW$30, DW_AT_TI_symbol_name("led")
     240                            .dwattr $C$DW$30, DW_AT_type(*$C$DW$T$10)
     241                            .dwattr $C$DW$30, DW_AT_location[DW_OP_reg0]
     242                    
     243                    
     244                    ;*****************************************************************************
     245                    ;* FUNCTION NAME: board_led_convertLedType                                   *
     246                    ;*                                                                           *
     247                    ;*   Regs Modified     : A1,SR                                               *
     248                    ;*   Regs Used         : A1,LR,SR                                            *
     249                    ;*   Local Frame Size  : 0 Args + 0 Auto + 0 Save = 0 byte                   *
     250                    ;*****************************************************************************
     251                    board_led_convertLedType:
     252                    ;* --------------------------------------------------------------------------*
     253                    ;* A1    assigned to led
     254                    $C$DW$31        .dwtag  DW_TAG_variable
     255                            .dwattr $C$DW$31, DW_AT_name("led")
     256                            .dwattr $C$DW$31, DW_AT_TI_symbol_name("led")
     257                            .dwattr $C$DW$31, DW_AT_type(*$C$DW$T$687)
     258                            .dwattr $C$DW$31, DW_AT_location[DW_OP_reg0]
     259                    
     260                            .dwcfi  cfa_offset, 0
     261                            .dwpsn  file "../Application/LaunchPad/board_led.c",line 353,column 5,is_stmt,isa 1
     262 00000000 2800              CMP       A1, #0                ; [DPU_3_PIPE] |353|  ; [ORIG 16-BIT INS]
     263 00000002 BF14              ITE       NE                    ; [DPU_3_PIPE]  ; [ORIG 16-BIT INS]
     264 00000004 2007              MOVNE     A1, #7                ; [DPU_3_PIPE] |353|  ; [ORIG 16-BIT INS]
     265 00000006 2006              MOVEQ     A1, #6                ; [DPU_3_PIPE] |353|  ; [ORIG 16-BIT INS]
     266                    $C$DW$32        .dwtag  DW_TAG_TI_branch
     267                            .dwattr $C$DW$32, DW_AT_low_pc(0x00)
     268                            .dwattr $C$DW$32, DW_AT_TI_return
     269                    
     270 00000008 4770              BX        LR                    ; [DPU_3_PIPE]  ; [ORIG 16-BIT INS]
     271                            ; BRANCH OCCURS                  ; [] 
     272                            .dwattr $C$DW$29, DW_AT_TI_end_file("../Application/LaunchPad/board_led.c")
     273                            .dwattr $C$DW$29, DW_AT_TI_end_line(0x162)
     274                            .dwattr $C$DW$29, DW_AT_TI_end_column(0x01)
     275                            .dwendentry
TI ARM Assembler PC v16.9.9 Sun Nov 25 17:19:51 2018

Tools Copyright (c) 1996-2017 Texas Instruments Incorporated
C:\Users\Stryd\AppData\Local\Temp\{7DA0ADB5-97D8-4466-9070-E3FE443B1FB8} PAGE    6

     276                            .dwendtag $C$DW$29
     277                    
     278 00000000                   .sect   ".text:board_led_convertLedValue"
     279                            .clink
     280                            .thumbfunc board_led_convertLedValue
     281 00000000                   .thumb
     282                    
     283                    $C$DW$33        .dwtag  DW_TAG_subprogram
     284                            .dwattr $C$DW$33, DW_AT_name("board_led_convertLedValue")
     285                            .dwattr $C$DW$33, DW_AT_low_pc(board_led_convertLedValue)
     286                            .dwattr $C$DW$33, DW_AT_high_pc(0x00)
     287                            .dwattr $C$DW$33, DW_AT_TI_symbol_name("board_led_convertLedValue")
     288                            .dwattr $C$DW$33, DW_AT_type(*$C$DW$T$142)
     289                            .dwattr $C$DW$33, DW_AT_TI_begin_file("../Application/LaunchPad/board_led.c")
     290                            .dwattr $C$DW$33, DW_AT_TI_begin_line(0x16b)
     291                            .dwattr $C$DW$33, DW_AT_TI_begin_column(0x11)
     292                            .dwattr $C$DW$33, DW_AT_decl_file("../Application/LaunchPad/board_led.c")
     293                            .dwattr $C$DW$33, DW_AT_decl_line(0x16b)
     294                            .dwattr $C$DW$33, DW_AT_decl_column(0x11)
     295                            .dwattr $C$DW$33, DW_AT_TI_max_frame_size(0x00)
     296                            .dwpsn  file "../Application/LaunchPad/board_led.c",line 364,column 1,is_stmt,address board_le
     297                    
     298                            .dwfde $C$DW$CIE, board_led_convertLedValue
     299                    $C$DW$34        .dwtag  DW_TAG_formal_parameter
     300                            .dwattr $C$DW$34, DW_AT_name("state")
     301                            .dwattr $C$DW$34, DW_AT_TI_symbol_name("state")
     302                            .dwattr $C$DW$34, DW_AT_type(*$C$DW$T$10)
     303                            .dwattr $C$DW$34, DW_AT_location[DW_OP_reg0]
     304                    
     305                    
     306                    ;*****************************************************************************
     307                    ;* FUNCTION NAME: board_led_convertLedValue                                  *
     308                    ;*                                                                           *
     309                    ;*   Regs Modified     : A1,SR                                               *
     310                    ;*   Regs Used         : A1,LR,SR                                            *
     311                    ;*   Local Frame Size  : 0 Args + 0 Auto + 0 Save = 0 byte                   *
     312                    ;*****************************************************************************
     313                    board_led_convertLedValue:
     314                    ;* --------------------------------------------------------------------------*
     315                    ;* A1    assigned to value
     316                    $C$DW$35        .dwtag  DW_TAG_variable
     317                            .dwattr $C$DW$35, DW_AT_name("value")
     318                            .dwattr $C$DW$35, DW_AT_TI_symbol_name("value")
     319                            .dwattr $C$DW$35, DW_AT_type(*$C$DW$T$142)
     320                            .dwattr $C$DW$35, DW_AT_location[DW_OP_reg0]
     321                    
     322                            .dwcfi  cfa_offset, 0
     323                            .dwpsn  file "../Application/LaunchPad/board_led.c",line 367,column 5,is_stmt,isa 1
     324 00000000 1E40              SUBS      A1, A1, #1            ; [DPU_3_PIPE] |367|  ; [ORIG 16-BIT INS]
     325 00000002 2802              CMP       A1, #2                ; [DPU_3_PIPE] |367|  ; [ORIG 16-BIT INS]
     326 00000004 BF8C              ITE       HI                    ; [DPU_3_PIPE]  ; [ORIG 16-BIT INS]
     327                            .dwpsn  file "../Application/LaunchPad/board_led.c",line 376,column 13,is_stmt,isa 1
     328 00000006 2000              MOVHI     A1, #0                ; [DPU_3_PIPE] |376|  ; [ORIG 16-BIT INS]
     329                            .dwpsn  file "../Application/LaunchPad/board_led.c",line 372,column 13,is_stmt,isa 1
     330 00000008 2001              MOVLS     A1, #1                ; [DPU_3_PIPE] |372|  ; [ORIG 16-BIT INS]
TI ARM Assembler PC v16.9.9 Sun Nov 25 17:19:51 2018

Tools Copyright (c) 1996-2017 Texas Instruments Incorporated
C:\Users\Stryd\AppData\Local\Temp\{7DA0ADB5-97D8-4466-9070-E3FE443B1FB8} PAGE    7

     331                    $C$DW$36        .dwtag  DW_TAG_TI_branch
     332                            .dwattr $C$DW$36, DW_AT_low_pc(0x00)
     333                            .dwattr $C$DW$36, DW_AT_TI_return
     334                    
     335 0000000a 4770              BX        LR                    ; [DPU_3_PIPE]  ; [ORIG 16-BIT INS]
     336                            ; BRANCH OCCURS                  ; [] 
     337                            .dwattr $C$DW$33, DW_AT_TI_end_file("../Application/LaunchPad/board_led.c")
     338                            .dwattr $C$DW$33, DW_AT_TI_end_line(0x17d)
     339                            .dwattr $C$DW$33, DW_AT_TI_end_column(0x01)
     340                            .dwendentry
     341                            .dwendtag $C$DW$33
     342                    
     343 00000000                   .sect   ".text:board_led_anyBlinking"
     344                            .clink
     345                            .thumbfunc board_led_anyBlinking
     346 00000000                   .thumb
     347                    
     348                    $C$DW$37        .dwtag  DW_TAG_subprogram
     349                            .dwattr $C$DW$37, DW_AT_name("board_led_anyBlinking")
     350                            .dwattr $C$DW$37, DW_AT_low_pc(board_led_anyBlinking)
     351                            .dwattr $C$DW$37, DW_AT_high_pc(0x00)
     352                            .dwattr $C$DW$37, DW_AT_TI_symbol_name("board_led_anyBlinking")
     353                            .dwattr $C$DW$37, DW_AT_type(*$C$DW$T$215)
     354                            .dwattr $C$DW$37, DW_AT_TI_begin_file("../Application/LaunchPad/board_led.c")
     355                            .dwattr $C$DW$37, DW_AT_TI_begin_line(0x10c)
     356                            .dwattr $C$DW$37, DW_AT_TI_begin_column(0x0d)
     357                            .dwattr $C$DW$37, DW_AT_decl_file("../Application/LaunchPad/board_led.c")
     358                            .dwattr $C$DW$37, DW_AT_decl_line(0x10c)
     359                            .dwattr $C$DW$37, DW_AT_decl_column(0x0d)
     360                            .dwattr $C$DW$37, DW_AT_TI_max_frame_size(0x00)
     361                            .dwpsn  file "../Application/LaunchPad/board_led.c",line 269,column 1,is_stmt,address board_le
     362                    
     363                            .dwfde $C$DW$CIE, board_led_anyBlinking
     364                    
     365                    ;*****************************************************************************
     366                    ;* FUNCTION NAME: board_led_anyBlinking                                      *
     367                    ;*                                                                           *
     368                    ;*   Regs Modified     : A1,A2,A3,SR                                         *
     369                    ;*   Regs Used         : A1,A2,A3,LR,SR                                      *
     370                    ;*   Local Frame Size  : 0 Args + 0 Auto + 0 Save = 0 byte                   *
     371                    ;*****************************************************************************
     372 00000000           board_led_anyBlinking:
     373                    ;* --------------------------------------------------------------------------*
     374                    ;* A3    assigned to $O$C1
     375                    ;* A1    assigned to $O$U11
     376                    ;* A2    assigned to $O$L1
     377                            .dwcfi  cfa_offset, 0
     378 00000000 4808              LDR       A1, $C$CON1           ; [DPU_3_PIPE]  ; [ORIG 16-BIT INS]
     379                            .dwpsn  file "../Application/LaunchPad/board_led.c",line 272,column 16,is_stmt,isa 1
     380 00000002 2102              MOVS      A2, #2                ; [DPU_3_PIPE] |272|  ; [ORIG 16-BIT INS]
     381 00000004 1E80              SUBS      A1, A1, #2            ; [DPU_3_PIPE]  ; [ORIG 16-BIT INS]
     382                    ;* --------------------------------------------------------------------------*
     383                    ;*   BEGIN LOOP ||$C$L1||
     384                    ;*
     385                    ;*   Loop source line                : 272
TI ARM Assembler PC v16.9.9 Sun Nov 25 17:19:51 2018

Tools Copyright (c) 1996-2017 Texas Instruments Incorporated
C:\Users\Stryd\AppData\Local\Temp\{7DA0ADB5-97D8-4466-9070-E3FE443B1FB8} PAGE    8

     386                    ;*   Loop closing brace source line  : 280
     387                    ;*   Known Minimum Trip Count        : 1
     388                    ;*   Known Maximum Trip Count        : 2
     389                    ;*   Known Max Trip Count Factor     : 1
     390                    ;* --------------------------------------------------------------------------*
     391 00000006           ||$C$L1||:    
     392                            .dwpsn  file "../Application/LaunchPad/board_led.c",line 274,column 9,is_stmt,isa 1
     393 00000006 2F02F810          LDRB      A3, [A1, #2]!         ; [DPU_3_PIPE] |274|  ; [KEEP 32-BIT INS]
     394 0000000a 2A03              CMP       A3, #3                ; [DPU_3_PIPE] |274|  ; [ORIG 16-BIT INS]
     395 0000000c D004              BEQ       ||$C$L2||             ; [DPU_3_PIPE] |274|  ; [ORIG 16-BIT INS]
     396                            ; BRANCHCC OCCURS {||$C$L2||}    ; [] |274| 
     397                    ;* --------------------------------------------------------------------------*
     398 0000000e 2A02              CMP       A3, #2                ; [DPU_3_PIPE] |274|  ; [ORIG 16-BIT INS]
     399 00000010 D104              BNE       ||$C$L3||             ; [DPU_3_PIPE] |274|  ; [ORIG 16-BIT INS]
     400                            ; BRANCHCC OCCURS {||$C$L3||}    ; [] |274| 
     401                    ;* --------------------------------------------------------------------------*
     402 00000012 7842              LDRB      A3, [A1, #1]          ; [DPU_3_PIPE] |274|  ; [ORIG 16-BIT INS]
     403 00000014 2A02              CMP       A3, #2                ; [DPU_3_PIPE] |274|  ; [ORIG 16-BIT INS]
     404 00000016 D001              BEQ       ||$C$L3||             ; [DPU_3_PIPE] |274|  ; [ORIG 16-BIT INS]
     405                            ; BRANCHCC OCCURS {||$C$L3||}    ; [] |274| 
     406                    ;* --------------------------------------------------------------------------*
     407 00000018           ||$C$L2||:    
     408                            .dwcfi  remember_state
     409                            .dwpsn  file "../Application/LaunchPad/board_led.c",line 278,column 13,is_stmt,isa 1
     410 00000018 2001              MOVS      A1, #1                ; [DPU_3_PIPE] |278|  ; [ORIG 16-BIT INS]
     411                    $C$DW$38        .dwtag  DW_TAG_TI_branch
     412                            .dwattr $C$DW$38, DW_AT_low_pc(0x00)
     413                            .dwattr $C$DW$38, DW_AT_TI_return
     414                    
     415 0000001a 4770              BX        LR                    ; [DPU_3_PIPE]  ; [ORIG 16-BIT INS]
     416                            ; BRANCH OCCURS                  ; [] 
     417                            .dwcfi  restore_state
     418                    ;* --------------------------------------------------------------------------*
     419 0000001c           ||$C$L3||:    
     420                            .dwpsn  file "../Application/LaunchPad/board_led.c",line 272,column 16,is_stmt,isa 1
     421 0000001c 1E49              SUBS      A2, A2, #1            ; [DPU_3_PIPE] |272|  ; [ORIG 16-BIT INS]
     422 0000001e D1F2              BNE       ||$C$L1||             ; [DPU_3_PIPE] |272|  ; [ORIG 16-BIT INS]
     423                            ; BRANCHCC OCCURS {||$C$L1||}    ; [] |272| 
     424                    ;* --------------------------------------------------------------------------*
     425                            .dwpsn  file "../Application/LaunchPad/board_led.c",line 282,column 5,is_stmt,isa 1
     426 00000020 2000              MOVS      A1, #0                ; [DPU_3_PIPE] |282|  ; [ORIG 16-BIT INS]
     427                    ;* --------------------------------------------------------------------------*
     428                    $C$DW$39        .dwtag  DW_TAG_TI_branch
     429                            .dwattr $C$DW$39, DW_AT_low_pc(0x00)
     430                            .dwattr $C$DW$39, DW_AT_TI_return
     431                    
     432 00000022 4770              BX        LR                    ; [DPU_3_PIPE]  ; [ORIG 16-BIT INS]
     433                            ; BRANCH OCCURS                  ; [] 
     434                            .dwattr $C$DW$37, DW_AT_TI_end_file("../Application/LaunchPad/board_led.c")
     435                            .dwattr $C$DW$37, DW_AT_TI_end_line(0x11b)
     436                            .dwattr $C$DW$37, DW_AT_TI_end_column(0x01)
     437                            .dwendentry
     438                            .dwendtag $C$DW$37
     439                    
     440 00000000                   .sect   ".text:board_led_blinkTimeoutCB"
TI ARM Assembler PC v16.9.9 Sun Nov 25 17:19:51 2018

Tools Copyright (c) 1996-2017 Texas Instruments Incorporated
C:\Users\Stryd\AppData\Local\Temp\{7DA0ADB5-97D8-4466-9070-E3FE443B1FB8} PAGE    9

     441                            .clink
     442                            .thumbfunc board_led_blinkTimeoutCB
     443 00000000                   .thumb
     444                    
     445                    $C$DW$40        .dwtag  DW_TAG_subprogram
     446                            .dwattr $C$DW$40, DW_AT_name("board_led_blinkTimeoutCB")
     447                            .dwattr $C$DW$40, DW_AT_low_pc(board_led_blinkTimeoutCB)
     448                            .dwattr $C$DW$40, DW_AT_high_pc(0x00)
     449                            .dwattr $C$DW$40, DW_AT_TI_symbol_name("board_led_blinkTimeoutCB")
     450                            .dwattr $C$DW$40, DW_AT_TI_begin_file("../Application/LaunchPad/board_led.c")
     451                            .dwattr $C$DW$40, DW_AT_TI_begin_line(0xfb)
     452                            .dwattr $C$DW$40, DW_AT_TI_begin_column(0x0d)
     453                            .dwattr $C$DW$40, DW_AT_decl_file("../Application/LaunchPad/board_led.c")
     454                            .dwattr $C$DW$40, DW_AT_decl_line(0xfb)
     455                            .dwattr $C$DW$40, DW_AT_decl_column(0x0d)
     456                            .dwattr $C$DW$40, DW_AT_TI_max_frame_size(0x28)
     457                            .dwpsn  file "../Application/LaunchPad/board_led.c",line 252,column 1,is_stmt,address board_le
     458                    
     459                            .dwfde $C$DW$CIE, board_led_blinkTimeoutCB
     460                    $C$DW$41        .dwtag  DW_TAG_formal_parameter
     461                            .dwattr $C$DW$41, DW_AT_name("a0")
     462                            .dwattr $C$DW$41, DW_AT_TI_symbol_name("a0")
     463                            .dwattr $C$DW$41, DW_AT_type(*$C$DW$T$868)
     464                            .dwattr $C$DW$41, DW_AT_location[DW_OP_reg0]
     465                    
     466                    
     467                    ;*****************************************************************************
     468                    ;* FUNCTION NAME: board_led_blinkTimeoutCB                                   *
     469                    ;*                                                                           *
     470                    ;*   Regs Modified     : A1,A2,A3,A4,V1,V2,V3,V4,V5,V6,V7,V8,V9,SP,LR,SR     *
     471                    ;*   Regs Used         : A1,A2,A3,A4,V1,V2,V3,V4,V5,V6,V7,V8,V9,SP,LR,SR     *
     472                    ;*   Local Frame Size  : 0 Args + 4 Auto + 36 Save = 40 byte                 *
     473                    ;*****************************************************************************
     474                    board_led_blinkTimeoutCB:
     475                    ;* --------------------------------------------------------------------------*
     476                    ;* A1    assigned to $O$C1
     477                    ;* V8    assigned to key
     478                    $C$DW$42        .dwtag  DW_TAG_variable
     479                            .dwattr $C$DW$42, DW_AT_name("key")
     480                            .dwattr $C$DW$42, DW_AT_TI_symbol_name("key")
     481                            .dwattr $C$DW$42, DW_AT_type(*$C$DW$T$142)
     482                            .dwattr $C$DW$42, DW_AT_location[DW_OP_reg11]
     483                    
     484                    ;* V5    assigned to index
     485                    $C$DW$43        .dwtag  DW_TAG_variable
     486                            .dwattr $C$DW$43, DW_AT_name("index")
     487                            .dwattr $C$DW$43, DW_AT_TI_symbol_name("index")
     488                            .dwattr $C$DW$43, DW_AT_type(*$C$DW$T$11)
     489                            .dwattr $C$DW$43, DW_AT_location[DW_OP_reg8]
     490                    
     491                    ;* V5    assigned to index
     492                    $C$DW$44        .dwtag  DW_TAG_variable
     493                            .dwattr $C$DW$44, DW_AT_name("index")
     494                            .dwattr $C$DW$44, DW_AT_TI_symbol_name("index")
     495                            .dwattr $C$DW$44, DW_AT_type(*$C$DW$T$11)
TI ARM Assembler PC v16.9.9 Sun Nov 25 17:19:51 2018

Tools Copyright (c) 1996-2017 Texas Instruments Incorporated
C:\Users\Stryd\AppData\Local\Temp\{7DA0ADB5-97D8-4466-9070-E3FE443B1FB8} PAGE   10

     496                            .dwattr $C$DW$44, DW_AT_location[DW_OP_reg8]
     497                    
     498                    $C$DW$45        .dwtag  DW_TAG_variable
     499                            .dwattr $C$DW$45, DW_AT_name("value")
     500                            .dwattr $C$DW$45, DW_AT_TI_symbol_name("value")
     501                            .dwattr $C$DW$45, DW_AT_type(*$C$DW$T$142)
     502                            .dwattr $C$DW$45, DW_AT_location[DW_OP_breg13 0]
     503                    
     504                    ;* V2    assigned to $O$U11
     505                    ;* V1    assigned to $O$K7
     506                    ;* V3    assigned to x
     507                    $C$DW$46        .dwtag  DW_TAG_variable
     508                            .dwattr $C$DW$46, DW_AT_name("x")
     509                            .dwattr $C$DW$46, DW_AT_TI_symbol_name("x")
     510                            .dwattr $C$DW$46, DW_AT_type(*$C$DW$T$10)
     511                            .dwattr $C$DW$46, DW_AT_location[DW_OP_reg6]
     512                    
     513                            .dwcfi  cfa_offset, 0
     514 00000000 4FF8E92D          PUSH      {A4, V1, V2, V3, V4, V5, V6, V7, V8, LR} ; [DPU_3_PIPE]  ; [KEEP 32-BIT INS]
     515                            .dwcfi  cfa_offset, 40
     516                            .dwcfi  save_reg_to_mem, 14, -4
     517                            .dwcfi  save_reg_to_mem, 11, -8
     518                            .dwcfi  save_reg_to_mem, 10, -12
     519                            .dwcfi  save_reg_to_mem, 9, -16
     520                            .dwcfi  save_reg_to_mem, 8, -20
     521                            .dwcfi  save_reg_to_mem, 7, -24
     522                            .dwcfi  save_reg_to_mem, 6, -28
     523                            .dwcfi  save_reg_to_mem, 5, -32
     524                            .dwcfi  save_reg_to_mem, 4, -36
     525                            .dwcfi  save_reg_to_mem, 3, -40
     526 00000004 4C22              LDR       V1, $C$CON6           ; [DPU_3_PIPE]  ; [ORIG 16-BIT INS]
     527 00000006 2600              MOVS      V3, #0                ; [DPU_3_PIPE]  ; [ORIG 16-BIT INS]
     528                            .dwpsn  file "../Application/LaunchPad/board_led.c",line 310,column 17,is_stmt,isa 1
     529 00000008 0901F04F          MOV       V6, #1                ; [DPU_3_PIPE] |310|  ; [KEEP 32-BIT INS]
     530                            .dwpsn  file "../Application/LaunchPad/board_led.c",line 327,column 13,is_stmt,isa 1
     531 0000000c 0A02F04F          MOV       V7, #2                ; [DPU_3_PIPE] |327|  ; [KEEP 32-BIT INS]
     532                            .dwpsn  file "../Application/LaunchPad/board_led.c",line 310,column 17,is_stmt,isa 1
     533 00000010 4637              MOV       V4, V3                ; [DPU_3_PIPE] |310|  ; [ORIG 16-BIT INS]
     534 00000012 1EA5              SUBS      V2, V1, #2            ; [DPU_3_PIPE]  ; [ORIG 16-BIT INS]
     535                    ;* --------------------------------------------------------------------------*
     536                    ;*   BEGIN LOOP ||$C$L4||
     537                    ;*
     538                    ;*   Loop source line                : 293
     539                    ;*   Loop closing brace source line  : 337
     540                    ;*   Known Minimum Trip Count        : 2
     541                    ;*   Known Maximum Trip Count        : 2
     542                    ;*   Known Max Trip Count Factor     : 2
     543                    ;* --------------------------------------------------------------------------*
     544 00000014           ||$C$L4||:    
     545                            .dwpsn  file "../Application/LaunchPad/board_led.c",line 298,column 9,is_stmt,isa 1
     546 00000014 0F02F815          LDRB      A1, [V2, #2]!         ; [DPU_3_PIPE] |298|  ; [KEEP 32-BIT INS]
     547 00000018 2803              CMP       A1, #3                ; [DPU_3_PIPE] |298|  ; [ORIG 16-BIT INS]
     548 0000001a D00E              BEQ       ||$C$L5||             ; [DPU_3_PIPE] |298|  ; [ORIG 16-BIT INS]
     549                            ; BRANCHCC OCCURS {||$C$L5||}    ; [] |298| 
     550                    ;* --------------------------------------------------------------------------*
TI ARM Assembler PC v16.9.9 Sun Nov 25 17:19:51 2018

Tools Copyright (c) 1996-2017 Texas Instruments Incorporated
C:\Users\Stryd\AppData\Local\Temp\{7DA0ADB5-97D8-4466-9070-E3FE443B1FB8} PAGE   11

     551                            .dwpsn  file "../Application/LaunchPad/board_led.c",line 321,column 14,is_stmt,isa 1
     552 0000001c 2802              CMP       A1, #2                ; [DPU_3_PIPE] |321|  ; [ORIG 16-BIT INS]
     553 0000001e D12A              BNE       ||$C$L8||             ; [DPU_3_PIPE] |321|  ; [ORIG 16-BIT INS]
     554                            ; BRANCHCC OCCURS {||$C$L8||}    ; [] |321| 
     555                    ;* --------------------------------------------------------------------------*
     556 00000020 7868              LDRB      A1, [V2, #1]          ; [DPU_3_PIPE] |321|  ; [ORIG 16-BIT INS]
     557 00000022 2802              CMP       A1, #2                ; [DPU_3_PIPE] |321|  ; [ORIG 16-BIT INS]
     558 00000024 D027              BEQ       ||$C$L8||             ; [DPU_3_PIPE] |321|  ; [ORIG 16-BIT INS]
     559                            ; BRANCHCC OCCURS {||$C$L8||}    ; [] |321| 
     560                    ;* --------------------------------------------------------------------------*
     561                            .dwpsn  file "../Application/LaunchPad/board_led.c",line 325,column 13,is_stmt,isa 1
     562 00000026 4630              MOV       A1, V3                ; [DPU_3_PIPE] |325|  ; [ORIG 16-BIT INS]
     563                    $C$DW$47        .dwtag  DW_TAG_TI_branch
     564                            .dwattr $C$DW$47, DW_AT_low_pc(0x00)
     565                            .dwattr $C$DW$47, DW_AT_name("board_led_convertLedType")
     566                            .dwattr $C$DW$47, DW_AT_TI_call
     567                    
     568 00000028 FFFEF7FF!         BL        board_led_convertLedType ; [DPU_3_PIPE] |325|  ; [KEEP 32-BIT INS]
     569                            ; CALL OCCURS {board_led_convertLedType }  ; [] |325| 
     570 0000002c 4680              MOV       V5, A1                ; [DPU_3_PIPE] |325|  ; [ORIG 16-BIT INS]
     571 0000002e 4638              MOV       A1, V4                ; [DPU_3_PIPE] |325|  ; [ORIG 16-BIT INS]
     572                            .dwpsn  file "../Application/LaunchPad/board_led.c",line 326,column 13,is_stmt,isa 1
     573                    $C$DW$48        .dwtag  DW_TAG_TI_branch
     574                            .dwattr $C$DW$48, DW_AT_low_pc(0x00)
     575                            .dwattr $C$DW$48, DW_AT_name("board_led_convertLedValue")
     576                            .dwattr $C$DW$48, DW_AT_TI_call
     577                    
     578 00000030 FFFEF7FF!         BL        board_led_convertLedValue ; [DPU_3_PIPE] |326|  ; [KEEP 32-BIT INS]
     579                            ; CALL OCCURS {board_led_convertLedValue }  ; [] |326| 
     580                            .dwpsn  file "../Application/LaunchPad/board_led.c",line 327,column 13,is_stmt,isa 1
     581 00000034 A001F885          STRB      V7, [V2, #1]          ; [DPU_3_PIPE] |327|  ; [KEEP 32-BIT INS]
     582                            .dwpsn  file "../Application/LaunchPad/board_led.c",line 335,column 13,is_stmt,isa 1
     583 00000038 E010              B         ||$C$L7||             ; [DPU_3_PIPE] |335|  ; [ORIG 16-BIT INS]
     584                            ; BRANCH OCCURS {||$C$L7||}      ; [] |335| 
     585                    ;* --------------------------------------------------------------------------*
     586 0000003a           ||$C$L5||:    
     587                            .dwpsn  file "../Application/LaunchPad/board_led.c",line 300,column 13,is_stmt,isa 1
     588 0000003a 4630              MOV       A1, V3                ; [DPU_3_PIPE] |300|  ; [ORIG 16-BIT INS]
     589                    $C$DW$49        .dwtag  DW_TAG_TI_branch
     590                            .dwattr $C$DW$49, DW_AT_low_pc(0x00)
     591                            .dwattr $C$DW$49, DW_AT_name("board_led_convertLedType")
     592                            .dwattr $C$DW$49, DW_AT_TI_call
     593                    
     594 0000003c FFFEF7FF!         BL        board_led_convertLedType ; [DPU_3_PIPE] |300|  ; [KEEP 32-BIT INS]
     595                            ; CALL OCCURS {board_led_convertLedType }  ; [] |300| 
     596 00000040 4680              MOV       V5, A1                ; [DPU_3_PIPE] |300|  ; [ORIG 16-BIT INS]
     597                            .dwpsn  file "../Application/LaunchPad/board_led.c",line 302,column 13,is_stmt,isa 1
     598 00000042 7868              LDRB      A1, [V2, #1]          ; [DPU_3_PIPE] |302|  ; [ORIG 16-BIT INS]
     599 00000044 2801              CMP       A1, #1                ; [DPU_3_PIPE] |302|  ; [ORIG 16-BIT INS]
     600 00000046 D005              BEQ       ||$C$L6||             ; [DPU_3_PIPE] |302|  ; [ORIG 16-BIT INS]
     601                            ; BRANCHCC OCCURS {||$C$L6||}    ; [] |302| 
     602                    ;* --------------------------------------------------------------------------*
     603 00000048 4638              MOV       A1, V4                ; [DPU_3_PIPE]  ; [ORIG 16-BIT INS]
     604                            .dwpsn  file "../Application/LaunchPad/board_led.c",line 309,column 17,is_stmt,isa 1
     605                    $C$DW$50        .dwtag  DW_TAG_TI_branch
TI ARM Assembler PC v16.9.9 Sun Nov 25 17:19:51 2018

Tools Copyright (c) 1996-2017 Texas Instruments Incorporated
C:\Users\Stryd\AppData\Local\Temp\{7DA0ADB5-97D8-4466-9070-E3FE443B1FB8} PAGE   12

     606                            .dwattr $C$DW$50, DW_AT_low_pc(0x00)
     607                            .dwattr $C$DW$50, DW_AT_name("board_led_convertLedValue")
     608                            .dwattr $C$DW$50, DW_AT_TI_call
     609                    
     610 0000004a FFFEF7FF!         BL        board_led_convertLedValue ; [DPU_3_PIPE] |309|  ; [KEEP 32-BIT INS]
     611                            ; CALL OCCURS {board_led_convertLedValue }  ; [] |309| 
     612                            .dwpsn  file "../Application/LaunchPad/board_led.c",line 310,column 17,is_stmt,isa 1
     613 0000004e 9001F885          STRB      V6, [V2, #1]          ; [DPU_3_PIPE] |310|  ; [KEEP 32-BIT INS]
     614 00000052 E003              B         ||$C$L7||             ; [DPU_3_PIPE] |310|  ; [ORIG 16-BIT INS]
     615                            ; BRANCH OCCURS {||$C$L7||}      ; [] |310| 
     616                    ;* --------------------------------------------------------------------------*
     617 00000054           ||$C$L6||:    
     618 00000054 4648              MOV       A1, V6                ; [DPU_3_PIPE]  ; [ORIG 16-BIT INS]
     619                            .dwpsn  file "../Application/LaunchPad/board_led.c",line 304,column 17,is_stmt,isa 1
     620                    $C$DW$51        .dwtag  DW_TAG_TI_branch
     621                            .dwattr $C$DW$51, DW_AT_low_pc(0x00)
     622                            .dwattr $C$DW$51, DW_AT_name("board_led_convertLedValue")
     623                            .dwattr $C$DW$51, DW_AT_TI_call
     624                    
     625 00000056 FFFEF7FF!         BL        board_led_convertLedValue ; [DPU_3_PIPE] |304|  ; [KEEP 32-BIT INS]
     626                            ; CALL OCCURS {board_led_convertLedValue }  ; [] |304| 
     627                            .dwpsn  file "../Application/LaunchPad/board_led.c",line 305,column 17,is_stmt,isa 1
     628 0000005a 706F              STRB      V4, [V2, #1]          ; [DPU_3_PIPE] |305|  ; [ORIG 16-BIT INS]
     629                    ;* --------------------------------------------------------------------------*
     630 0000005c           ||$C$L7||:    
     631                            .dwpsn  file "../Application/LaunchPad/board_led.c",line 304,column 17,is_stmt,isa 1
     632 0000005c 9000              STR       A1, [SP, #0]          ; [DPU_3_PIPE] |304|  ; [ORIG 16-BIT INS]
     633                            .dwpsn  file "../Application/LaunchPad/board_led.c",line 314,column 13,is_stmt,isa 1
     634                    $C$DW$52        .dwtag  DW_TAG_TI_branch
     635                            .dwattr $C$DW$52, DW_AT_low_pc(0x00)
     636                            .dwattr $C$DW$52, DW_AT_name("HwiP_disable")
     637                            .dwattr $C$DW$52, DW_AT_TI_call
     638                    
     639 0000005e FFFEF7FF!         BL        HwiP_disable          ; [DPU_3_PIPE] |314|  ; [KEEP 32-BIT INS]
     640                            ; CALL OCCURS {HwiP_disable }    ; [] |314| 
     641 00000062 4683              MOV       V8, A1                ; [DPU_3_PIPE] |314|  ; [ORIG 16-BIT INS]
     642                            .dwpsn  file "../Application/LaunchPad/board_led.c",line 316,column 13,is_stmt,isa 1
     643 00000064 9A00              LDR       A3, [SP, #0]          ; [DPU_3_PIPE] |316|  ; [ORIG 16-BIT INS]
     644 00000066 6860              LDR       A1, [V1, #4]          ; [DPU_3_PIPE] |316|  ; [ORIG 16-BIT INS]
     645 00000068 F188FA5F          UXTB      A2, V5                ; [DPU_3_PIPE] |316|  ; [KEEP 32-BIT INS]
     646                    $C$DW$53        .dwtag  DW_TAG_TI_branch
     647                            .dwattr $C$DW$53, DW_AT_low_pc(0x00)
     648                            .dwattr $C$DW$53, DW_AT_name("PIN_setOutputValue")
     649                            .dwattr $C$DW$53, DW_AT_TI_call
     650                    
     651 0000006c FFFEF7FF!         BL        PIN_setOutputValue    ; [DPU_3_PIPE] |316|  ; [KEEP 32-BIT INS]
     652                            ; CALL OCCURS {PIN_setOutputValue }  ; [] |316| 
     653                            .dwpsn  file "../Application/LaunchPad/board_led.c",line 319,column 13,is_stmt,isa 1
     654 00000070 4658              MOV       A1, V8                ; [DPU_3_PIPE] |319|  ; [ORIG 16-BIT INS]
     655                    $C$DW$54        .dwtag  DW_TAG_TI_branch
     656                            .dwattr $C$DW$54, DW_AT_low_pc(0x00)
     657                            .dwattr $C$DW$54, DW_AT_name("HwiP_restore")
     658                            .dwattr $C$DW$54, DW_AT_TI_call
     659                    
     660 00000072 FFFEF7FF!         BL        HwiP_restore          ; [DPU_3_PIPE] |319|  ; [KEEP 32-BIT INS]
TI ARM Assembler PC v16.9.9 Sun Nov 25 17:19:51 2018

Tools Copyright (c) 1996-2017 Texas Instruments Incorporated
C:\Users\Stryd\AppData\Local\Temp\{7DA0ADB5-97D8-4466-9070-E3FE443B1FB8} PAGE   13

     661                            ; CALL OCCURS {HwiP_restore }    ; [] |319| 
     662                    ;* --------------------------------------------------------------------------*
     663 00000076           ||$C$L8||:    
     664                            .dwpsn  file "../Application/LaunchPad/board_led.c",line 293,column 16,is_stmt,isa 1
     665 00000076 1C76              ADDS      V3, V3, #1            ; [DPU_3_PIPE] |293|  ; [ORIG 16-BIT INS]
     666 00000078 2E02              CMP       V3, #2                ; [DPU_3_PIPE] |293|  ; [ORIG 16-BIT INS]
     667 0000007a DBCB              BLT       ||$C$L4||             ; [DPU_3_PIPE] |293|  ; [ORIG 16-BIT INS]
     668                            ; BRANCHCC OCCURS {||$C$L4||}    ; [] |293| 
     669                    ;* --------------------------------------------------------------------------*
     670                            .dwpsn  file "../Application/LaunchPad/board_led.c",line 256,column 5,is_stmt,isa 1
     671                    $C$DW$55        .dwtag  DW_TAG_TI_branch
     672                            .dwattr $C$DW$55, DW_AT_low_pc(0x00)
     673                            .dwattr $C$DW$55, DW_AT_name("board_led_anyBlinking")
     674                            .dwattr $C$DW$55, DW_AT_TI_call
     675                    
     676 0000007c FFFEF7FF!         BL        board_led_anyBlinking ; [DPU_3_PIPE] |256|  ; [KEEP 32-BIT INS]
     677                            ; CALL OCCURS {board_led_anyBlinking }  ; [] |256| 
     678 00000080 B118              CBZ       A1, ||$C$L9||         ; []  ; [ORIG 16-BIT INS]
     679                            ; BRANCHCC OCCURS {||$C$L9||}    ; [] |256| 
     680                    ;* --------------------------------------------------------------------------*
     681 00000082 0020F104          ADD       A1, V1, #32           ; [DPU_3_PIPE]  ; [KEEP 32-BIT INS]
     682                            .dwpsn  file "../Application/LaunchPad/board_led.c",line 259,column 9,is_stmt,isa 1
     683                    $C$DW$56        .dwtag  DW_TAG_TI_branch
     684                            .dwattr $C$DW$56, DW_AT_low_pc(0x00)
     685                            .dwattr $C$DW$56, DW_AT_name("Timer_start")
     686                            .dwattr $C$DW$56, DW_AT_TI_call
     687                    
     688 00000086 FFFEF7FF!         BL        Timer_start           ; [DPU_3_PIPE] |259|  ; [KEEP 32-BIT INS]
     689                            ; CALL OCCURS {Timer_start }     ; [] |259| 
     690                    ;* --------------------------------------------------------------------------*
     691                    ||$C$L9||:    
     692                    $C$DW$57        .dwtag  DW_TAG_TI_branch
     693                            .dwattr $C$DW$57, DW_AT_low_pc(0x00)
     694                            .dwattr $C$DW$57, DW_AT_TI_return
     695                    
     696 0000008a 8FF8E8BD          POP       {A4, V1, V2, V3, V4, V5, V6, V7, V8, PC} ; [DPU_3_PIPE]  ; [KEEP 32-BIT INS]
     697                            .dwcfi  cfa_offset, 0
     698                            .dwcfi  restore_reg, 11
     699                            .dwcfi  restore_reg, 10
     700                            .dwcfi  restore_reg, 9
     701                            .dwcfi  restore_reg, 8
     702                            .dwcfi  restore_reg, 7
     703                            .dwcfi  restore_reg, 6
     704                            .dwcfi  restore_reg, 5
     705                            .dwcfi  restore_reg, 4
     706                            .dwcfi  restore_reg, 3
     707                            ; BRANCH OCCURS                  ; [] 
     708                            .dwattr $C$DW$40, DW_AT_TI_end_file("../Application/LaunchPad/board_led.c")
     709                            .dwattr $C$DW$40, DW_AT_TI_end_line(0x105)
     710                            .dwattr $C$DW$40, DW_AT_TI_end_column(0x01)
     711                            .dwendentry
     712                            .dwendtag $C$DW$40
     713                    
     714 00000000                   .sect   ".text:Board_Led_control"
     715                            .clink
TI ARM Assembler PC v16.9.9 Sun Nov 25 17:19:51 2018

Tools Copyright (c) 1996-2017 Texas Instruments Incorporated
C:\Users\Stryd\AppData\Local\Temp\{7DA0ADB5-97D8-4466-9070-E3FE443B1FB8} PAGE   14

     716                            .thumbfunc Board_Led_control
     717 00000000                   .thumb
     718                            .global Board_Led_control
     719                    
     720                    $C$DW$58        .dwtag  DW_TAG_subprogram
     721                            .dwattr $C$DW$58, DW_AT_name("Board_Led_control")
     722                            .dwattr $C$DW$58, DW_AT_low_pc(Board_Led_control)
     723                            .dwattr $C$DW$58, DW_AT_high_pc(0x00)
     724                            .dwattr $C$DW$58, DW_AT_TI_symbol_name("Board_Led_control")
     725                            .dwattr $C$DW$58, DW_AT_external
     726                            .dwattr $C$DW$58, DW_AT_TI_begin_file("../Application/LaunchPad/board_led.c")
     727                            .dwattr $C$DW$58, DW_AT_TI_begin_line(0xa0)
     728                            .dwattr $C$DW$58, DW_AT_TI_begin_column(0x06)
     729                            .dwattr $C$DW$58, DW_AT_decl_file("../Application/LaunchPad/board_led.c")
     730                            .dwattr $C$DW$58, DW_AT_decl_line(0xa0)
     731                            .dwattr $C$DW$58, DW_AT_decl_column(0x06)
     732                            .dwattr $C$DW$58, DW_AT_TI_max_frame_size(0x18)
     733                            .dwpsn  file "../Application/LaunchPad/board_led.c",line 161,column 1,is_stmt,address Board_Le
     734                    
     735                            .dwfde $C$DW$CIE, Board_Led_control
     736                    $C$DW$59        .dwtag  DW_TAG_formal_parameter
     737                            .dwattr $C$DW$59, DW_AT_name("led")
     738                            .dwattr $C$DW$59, DW_AT_TI_symbol_name("led")
     739                            .dwattr $C$DW$59, DW_AT_type(*$C$DW$T$10)
     740                            .dwattr $C$DW$59, DW_AT_location[DW_OP_reg0]
     741                    
     742                    $C$DW$60        .dwtag  DW_TAG_formal_parameter
     743                            .dwattr $C$DW$60, DW_AT_name("state")
     744                            .dwattr $C$DW$60, DW_AT_TI_symbol_name("state")
     745                            .dwattr $C$DW$60, DW_AT_type(*$C$DW$T$10)
     746                            .dwattr $C$DW$60, DW_AT_location[DW_OP_reg1]
     747                    
     748                    
     749                    ;*****************************************************************************
     750                    ;* FUNCTION NAME: Board_Led_control                                          *
     751                    ;*                                                                           *
     752                    ;*   Regs Modified     : A1,A2,A3,A4,V1,V2,V3,V4,V9,SP,LR,SR                 *
     753                    ;*   Regs Used         : A1,A2,A3,A4,V1,V2,V3,V4,V9,SP,LR,SR                 *
     754                    ;*   Local Frame Size  : 0 Args + 0 Auto + 20 Save = 20 byte                 *
     755                    ;*****************************************************************************
     756                    Board_Led_control:
     757                    ;* --------------------------------------------------------------------------*
     758                    ;* A1    assigned to $O$C1
     759                    ;* A1    assigned to $O$C2
     760                    ;* A1    assigned to $O$C3
     761                    ;* V1    assigned to $O$C4
     762                    ;* V1    assigned to $O$K42
     763                    ;* V1    assigned to $O$K42
     764                    ;* V1    assigned to $O$K4
     765                    ;* A3    assigned to $O$K26
     766                    ;* A3    assigned to led
     767                    $C$DW$61        .dwtag  DW_TAG_variable
     768                            .dwattr $C$DW$61, DW_AT_name("led")
     769                            .dwattr $C$DW$61, DW_AT_TI_symbol_name("led")
     770                            .dwattr $C$DW$61, DW_AT_type(*$C$DW$T$688)
TI ARM Assembler PC v16.9.9 Sun Nov 25 17:19:51 2018

Tools Copyright (c) 1996-2017 Texas Instruments Incorporated
C:\Users\Stryd\AppData\Local\Temp\{7DA0ADB5-97D8-4466-9070-E3FE443B1FB8} PAGE   15

     771                            .dwattr $C$DW$61, DW_AT_location[DW_OP_reg2]
     772                    
     773                    ;* A2    assigned to state
     774                    $C$DW$62        .dwtag  DW_TAG_variable
     775                            .dwattr $C$DW$62, DW_AT_name("state")
     776                            .dwattr $C$DW$62, DW_AT_TI_symbol_name("state")
     777                            .dwattr $C$DW$62, DW_AT_type(*$C$DW$T$679)
     778                            .dwattr $C$DW$62, DW_AT_location[DW_OP_reg1]
     779                    
     780                    ;* V2    assigned to gpioType
     781                    $C$DW$63        .dwtag  DW_TAG_variable
     782                            .dwattr $C$DW$63, DW_AT_name("gpioType")
     783                            .dwattr $C$DW$63, DW_AT_TI_symbol_name("gpioType")
     784                            .dwattr $C$DW$63, DW_AT_type(*$C$DW$T$11)
     785                            .dwattr $C$DW$63, DW_AT_location[DW_OP_reg5]
     786                    
     787                    ;* V3    assigned to value
     788                    $C$DW$64        .dwtag  DW_TAG_variable
     789                            .dwattr $C$DW$64, DW_AT_name("value")
     790                            .dwattr $C$DW$64, DW_AT_TI_symbol_name("value")
     791                            .dwattr $C$DW$64, DW_AT_type(*$C$DW$T$142)
     792                            .dwattr $C$DW$64, DW_AT_location[DW_OP_reg6]
     793                    
     794                    ;* V4    assigned to key
     795                    $C$DW$65        .dwtag  DW_TAG_variable
     796                            .dwattr $C$DW$65, DW_AT_name("key")
     797                            .dwattr $C$DW$65, DW_AT_TI_symbol_name("key")
     798                            .dwattr $C$DW$65, DW_AT_type(*$C$DW$T$142)
     799                            .dwattr $C$DW$65, DW_AT_location[DW_OP_reg7]
     800                    
     801                            .dwcfi  cfa_offset, 0
     802 00000000 B5F8              PUSH      {A4, V1, V2, V3, V4, LR} ; [DPU_3_PIPE]  ; [ORIG 16-BIT INS]
     803                            .dwcfi  cfa_offset, 24
     804                            .dwcfi  save_reg_to_mem, 14, -4
     805                            .dwcfi  save_reg_to_mem, 7, -8
     806                            .dwcfi  save_reg_to_mem, 6, -12
     807                            .dwcfi  save_reg_to_mem, 5, -16
     808                            .dwcfi  save_reg_to_mem, 4, -20
     809                            .dwcfi  save_reg_to_mem, 3, -24
     810                            .dwpsn  file "../Application/LaunchPad/board_led.c",line 166,column 5,is_stmt,isa 1
     811 00000002 4C1E              LDR       V1, $C$CON9           ; [DPU_3_PIPE] |166|  ; [ORIG 16-BIT INS]
     812                            .dwpsn  file "../Application/LaunchPad/board_led.c",line 161,column 1,is_stmt,isa 1
     813 00000004 4602              MOV       A3, A1                ; [DPU_3_PIPE] |161|  ; [ORIG 16-BIT INS]
     814                            .dwpsn  file "../Application/LaunchPad/board_led.c",line 166,column 5,is_stmt,isa 1
     815 00000006 6860              LDR       A1, [V1, #4]          ; [DPU_3_PIPE] |166|  ; [ORIG 16-BIT INS]
     816 00000008 2800              CMP       A1, #0                ; [DPU_3_PIPE] |166|  ; [ORIG 16-BIT INS]
     817 0000000a D036              BEQ       ||$C$L11||            ; [DPU_3_PIPE] |166|  ; [ORIG 16-BIT INS]
     818                            ; BRANCHCC OCCURS {||$C$L11||}   ; [] |166| 
     819                    ;* --------------------------------------------------------------------------*
     820                            .dwpsn  file "../Application/LaunchPad/board_led.c",line 172,column 5,is_stmt,isa 1
     821 0000000c 4610              MOV       A1, A3                ; [DPU_3_PIPE] |172|  ; [ORIG 16-BIT INS]
     822                    $C$DW$66        .dwtag  DW_TAG_TI_branch
     823                            .dwattr $C$DW$66, DW_AT_low_pc(0x00)
     824                            .dwattr $C$DW$66, DW_AT_name("board_led_convertLedType")
     825                            .dwattr $C$DW$66, DW_AT_TI_call
TI ARM Assembler PC v16.9.9 Sun Nov 25 17:19:51 2018

Tools Copyright (c) 1996-2017 Texas Instruments Incorporated
C:\Users\Stryd\AppData\Local\Temp\{7DA0ADB5-97D8-4466-9070-E3FE443B1FB8} PAGE   16

     826                    
     827 0000000e FFFEF7FF!         BL        board_led_convertLedType ; [DPU_3_PIPE] |172|  ; [KEEP 32-BIT INS]
     828                            ; CALL OCCURS {board_led_convertLedType }  ; [] |172| 
     829 00000012 4605              MOV       V2, A1                ; [DPU_3_PIPE] |172|  ; [ORIG 16-BIT INS]
     830                            .dwpsn  file "../Application/LaunchPad/board_led.c",line 173,column 5,is_stmt,isa 1
     831 00000014 4608              MOV       A1, A2                ; [DPU_3_PIPE] |173|  ; [ORIG 16-BIT INS]
     832                    $C$DW$67        .dwtag  DW_TAG_TI_branch
     833                            .dwattr $C$DW$67, DW_AT_low_pc(0x00)
     834                            .dwattr $C$DW$67, DW_AT_name("board_led_convertLedValue")
     835                            .dwattr $C$DW$67, DW_AT_TI_call
     836                    
     837 00000016 FFFEF7FF!         BL        board_led_convertLedValue ; [DPU_3_PIPE] |173|  ; [KEEP 32-BIT INS]
     838                            ; CALL OCCURS {board_led_convertLedValue }  ; [] |173| 
     839 0000001a 4606              MOV       V3, A1                ; [DPU_3_PIPE] |173|  ; [ORIG 16-BIT INS]
     840                            .dwpsn  file "../Application/LaunchPad/board_led.c",line 176,column 5,is_stmt,isa 1
     841 0000001c 2A02              CMP       A3, #2                ; [DPU_3_PIPE] |176|  ; [ORIG 16-BIT INS]
     842 0000001e DA2C              BGE       ||$C$L11||            ; [DPU_3_PIPE] |176|  ; [ORIG 16-BIT INS]
     843                            ; BRANCHCC OCCURS {||$C$L11||}   ; [] |176| 
     844                    ;* --------------------------------------------------------------------------*
     845 00000020 2904              CMP       A2, #4                ; [DPU_3_PIPE] |176|  ; [ORIG 16-BIT INS]
     846 00000022 DA2A              BGE       ||$C$L11||            ; [DPU_3_PIPE] |176|  ; [ORIG 16-BIT INS]
     847                            ; BRANCHCC OCCURS {||$C$L11||}   ; [] |176| 
     848                    ;* --------------------------------------------------------------------------*
     849                            .dwpsn  file "../Application/LaunchPad/board_led.c",line 182,column 5,is_stmt,isa 1
     850 00000024 0050              LSLS      A1, A3, #1            ; [DPU_3_PIPE] |182|  ; [ORIG 16-BIT INS]
     851                            .dwpsn  file "../Application/LaunchPad/board_led.c",line 183,column 5,is_stmt,isa 1
     852 00000026 2902              CMP       A2, #2                ; [DPU_3_PIPE] |183|  ; [ORIG 16-BIT INS]
     853                            .dwpsn  file "../Application/LaunchPad/board_led.c",line 182,column 5,is_stmt,isa 1
     854 00000028 5501              STRB      A2, [A1, +V1]         ; [DPU_3_PIPE] |182|  ; [ORIG 16-BIT INS]
     855 0000002a 0200EB04          ADD       A3, V1, A1            ; [DPU_3_PIPE] |182|  ; [KEEP 32-BIT INS]
     856 0000002e BF12              ITEE      NE                    ; [DPU_3_PIPE]  ; [ORIG 16-BIT INS]
     857                            .dwpsn  file "../Application/LaunchPad/board_led.c",line 183,column 5,is_stmt,isa 1
     858 00000030 2903              CMPNE     A2, #3                ; [DPU_3_PIPE] |183|  ; [ORIG 16-BIT INS]
     859                            .dwpsn  file "../Application/LaunchPad/board_led.c",line 185,column 9,is_stmt,isa 1
     860 00000032 2000              MOVEQ     A1, #0                ; [DPU_3_PIPE] |185|  ; [ORIG 16-BIT INS]
     861 00000034 7050              STRBEQ    A1, [A3, #1]          ; [DPU_3_PIPE] |185|  ; [ORIG 16-BIT INS]
     862                            .dwpsn  file "../Application/LaunchPad/board_led.c",line 189,column 5,is_stmt,isa 1
     863                    $C$DW$68        .dwtag  DW_TAG_TI_branch
     864                            .dwattr $C$DW$68, DW_AT_low_pc(0x00)
     865                            .dwattr $C$DW$68, DW_AT_name("HwiP_disable")
     866                            .dwattr $C$DW$68, DW_AT_TI_call
     867                    
     868 00000036 FFFEF7FF!         BL        HwiP_disable          ; [DPU_3_PIPE] |189|  ; [KEEP 32-BIT INS]
     869                            ; CALL OCCURS {HwiP_disable }    ; [] |189| 
     870 0000003a 4607              MOV       V4, A1                ; [DPU_3_PIPE] |189|  ; [ORIG 16-BIT INS]
     871                            .dwpsn  file "../Application/LaunchPad/board_led.c",line 192,column 5,is_stmt,isa 1
     872 0000003c 6860              LDR       A1, [V1, #4]          ; [DPU_3_PIPE] |192|  ; [ORIG 16-BIT INS]
     873 0000003e B2E9              UXTB      A2, V2                ; [DPU_3_PIPE] |192|  ; [ORIG 16-BIT INS]
     874 00000040 4632              MOV       A3, V3                ; [DPU_3_PIPE] |192|  ; [ORIG 16-BIT INS]
     875                    $C$DW$69        .dwtag  DW_TAG_TI_branch
     876                            .dwattr $C$DW$69, DW_AT_low_pc(0x00)
     877                            .dwattr $C$DW$69, DW_AT_name("PIN_setOutputValue")
     878                            .dwattr $C$DW$69, DW_AT_TI_call
     879                    
     880 00000042 FFFEF7FF!         BL        PIN_setOutputValue    ; [DPU_3_PIPE] |192|  ; [KEEP 32-BIT INS]
TI ARM Assembler PC v16.9.9 Sun Nov 25 17:19:51 2018

Tools Copyright (c) 1996-2017 Texas Instruments Incorporated
C:\Users\Stryd\AppData\Local\Temp\{7DA0ADB5-97D8-4466-9070-E3FE443B1FB8} PAGE   17

     881                            ; CALL OCCURS {PIN_setOutputValue }  ; [] |192| 
     882                            .dwpsn  file "../Application/LaunchPad/board_led.c",line 195,column 5,is_stmt,isa 1
     883 00000046 4638              MOV       A1, V4                ; [DPU_3_PIPE] |195|  ; [ORIG 16-BIT INS]
     884                    $C$DW$70        .dwtag  DW_TAG_TI_branch
     885                            .dwattr $C$DW$70, DW_AT_low_pc(0x00)
     886                            .dwattr $C$DW$70, DW_AT_name("HwiP_restore")
     887                            .dwattr $C$DW$70, DW_AT_TI_call
     888                    
     889 00000048 FFFEF7FF!         BL        HwiP_restore          ; [DPU_3_PIPE] |195|  ; [KEEP 32-BIT INS]
     890                            ; CALL OCCURS {HwiP_restore }    ; [] |195| 
     891                            .dwpsn  file "../Application/LaunchPad/board_led.c",line 199,column 5,is_stmt,isa 1
     892                    $C$DW$71        .dwtag  DW_TAG_TI_branch
     893                            .dwattr $C$DW$71, DW_AT_low_pc(0x00)
     894                            .dwattr $C$DW$71, DW_AT_name("board_led_anyBlinking")
     895                            .dwattr $C$DW$71, DW_AT_TI_call
     896                    
     897 0000004c FFFEF7FF!         BL        board_led_anyBlinking ; [DPU_3_PIPE] |199|  ; [KEEP 32-BIT INS]
     898                            ; CALL OCCURS {board_led_anyBlinking }  ; [] |199| 
     899 00000050 B950              CBNZ      A1, ||$C$L10||        ; []  ; [ORIG 16-BIT INS]
     900                            ; BRANCHCC OCCURS {||$C$L10||}   ; [] |199| 
     901                    ;* --------------------------------------------------------------------------*
     902 00000052 0020F104          ADD       A1, V1, #32           ; [DPU_3_PIPE]  ; [KEEP 32-BIT INS]
     903                            .dwpsn  file "../Application/LaunchPad/board_led.c",line 208,column 9,is_stmt,isa 1
     904 00000056 4604              MOV       V1, A1                ; [DPU_3_PIPE] |208|  ; [ORIG 16-BIT INS]
     905                    $C$DW$72        .dwtag  DW_TAG_TI_branch
     906                            .dwattr $C$DW$72, DW_AT_low_pc(0x00)
     907                            .dwattr $C$DW$72, DW_AT_name("Timer_isActive")
     908                            .dwattr $C$DW$72, DW_AT_TI_call
     909                    
     910 00000058 FFFEF7FF!         BL        Timer_isActive        ; [DPU_3_PIPE] |208|  ; [KEEP 32-BIT INS]
     911                            ; CALL OCCURS {Timer_isActive }  ; [] |208| 
     912 0000005c 2801              CMP       A1, #1                ; [DPU_3_PIPE] |208|  ; [ORIG 16-BIT INS]
     913 0000005e D10C              BNE       ||$C$L11||            ; [DPU_3_PIPE] |208|  ; [ORIG 16-BIT INS]
     914                            ; BRANCHCC OCCURS {||$C$L11||}   ; [] |208| 
     915                    ;* --------------------------------------------------------------------------*
     916                            .dwcfi  remember_state
     917                            .dwpsn  file "../Application/LaunchPad/board_led.c",line 210,column 13,is_stmt,isa 1
     918 00000060 4620              MOV       A1, V1                ; [DPU_3_PIPE] |210|  ; [ORIG 16-BIT INS]
     919                    $C$DW$73        .dwtag  DW_TAG_TI_branch
     920                            .dwattr $C$DW$73, DW_AT_low_pc(0x00)
     921                            .dwattr $C$DW$73, DW_AT_name("Timer_stop")
     922                            .dwattr $C$DW$73, DW_AT_TI_call
     923                    
     924 00000062 FFFEF7FF!         BL        Timer_stop            ; [DPU_3_PIPE] |210|  ; [KEEP 32-BIT INS]
     925                            ; CALL OCCURS {Timer_stop }      ; [] |210| 
     926                    $C$DW$74        .dwtag  DW_TAG_TI_branch
     927                            .dwattr $C$DW$74, DW_AT_low_pc(0x00)
     928                            .dwattr $C$DW$74, DW_AT_TI_return
     929                    
     930 00000066 BDF8              POP       {A4, V1, V2, V3, V4, PC} ; [DPU_3_PIPE]  ; [ORIG 16-BIT INS]
     931                            .dwcfi  cfa_offset, 0
     932                            .dwcfi  restore_reg, 7
     933                            .dwcfi  restore_reg, 6
     934                            .dwcfi  restore_reg, 5
     935                            .dwcfi  restore_reg, 4
TI ARM Assembler PC v16.9.9 Sun Nov 25 17:19:51 2018

Tools Copyright (c) 1996-2017 Texas Instruments Incorporated
C:\Users\Stryd\AppData\Local\Temp\{7DA0ADB5-97D8-4466-9070-E3FE443B1FB8} PAGE   18

     936                            .dwcfi  restore_reg, 3
     937                            ; BRANCH OCCURS                  ; [] 
     938                            .dwcfi  restore_state
     939                    ;* --------------------------------------------------------------------------*
     940 00000068           ||$C$L10||:    
     941 00000068 0020F104          ADD       A1, V1, #32           ; [DPU_3_PIPE]  ; [KEEP 32-BIT INS]
     942                            .dwpsn  file "../Application/LaunchPad/board_led.c",line 201,column 9,is_stmt,isa 1
     943 0000006c 4604              MOV       V1, A1                ; [DPU_3_PIPE] |201|  ; [ORIG 16-BIT INS]
     944                    $C$DW$75        .dwtag  DW_TAG_TI_branch
     945                            .dwattr $C$DW$75, DW_AT_low_pc(0x00)
     946                            .dwattr $C$DW$75, DW_AT_name("Timer_isActive")
     947                            .dwattr $C$DW$75, DW_AT_TI_call
     948                    
     949 0000006e FFFEF7FF!         BL        Timer_isActive        ; [DPU_3_PIPE] |201|  ; [KEEP 32-BIT INS]
     950                            ; CALL OCCURS {Timer_isActive }  ; [] |201| 
     951 00000072 B910              CBNZ      A1, ||$C$L11||        ; []  ; [ORIG 16-BIT INS]
     952                            ; BRANCHCC OCCURS {||$C$L11||}   ; [] |201| 
     953                    ;* --------------------------------------------------------------------------*
     954                            .dwpsn  file "../Application/LaunchPad/board_led.c",line 203,column 13,is_stmt,isa 1
     955 00000074 4620              MOV       A1, V1                ; [DPU_3_PIPE] |203|  ; [ORIG 16-BIT INS]
     956                    $C$DW$76        .dwtag  DW_TAG_TI_branch
     957                            .dwattr $C$DW$76, DW_AT_low_pc(0x00)
     958                            .dwattr $C$DW$76, DW_AT_name("Timer_start")
     959                            .dwattr $C$DW$76, DW_AT_TI_call
     960                    
     961 00000076 FFFEF7FF!         BL        Timer_start           ; [DPU_3_PIPE] |203|  ; [KEEP 32-BIT INS]
     962                            ; CALL OCCURS {Timer_start }     ; [] |203| 
     963                    ;* --------------------------------------------------------------------------*
     964                    ||$C$L11||:    
     965                    $C$DW$77        .dwtag  DW_TAG_TI_branch
     966                            .dwattr $C$DW$77, DW_AT_low_pc(0x00)
     967                            .dwattr $C$DW$77, DW_AT_TI_return
     968                    
     969 0000007a BDF8              POP       {A4, V1, V2, V3, V4, PC} ; [DPU_3_PIPE]  ; [ORIG 16-BIT INS]
     970                            .dwcfi  cfa_offset, 0
     971                            .dwcfi  restore_reg, 7
     972                            .dwcfi  restore_reg, 6
     973                            .dwcfi  restore_reg, 5
     974                            .dwcfi  restore_reg, 4
     975                            .dwcfi  restore_reg, 3
     976                            ; BRANCH OCCURS                  ; [] 
     977                            .dwattr $C$DW$58, DW_AT_TI_end_file("../Application/LaunchPad/board_led.c")
     978                            .dwattr $C$DW$58, DW_AT_TI_end_line(0xd5)
     979                            .dwattr $C$DW$58, DW_AT_TI_end_column(0x01)
     980                            .dwendentry
     981                            .dwendtag $C$DW$58
     982                    
     983 00000000                   .sect   ".text:Board_Led_toggle"
     984                            .clink
     985                            .thumbfunc Board_Led_toggle
     986 00000000                   .thumb
     987                            .global Board_Led_toggle
     988                    
     989                    $C$DW$78        .dwtag  DW_TAG_subprogram
     990                            .dwattr $C$DW$78, DW_AT_name("Board_Led_toggle")
TI ARM Assembler PC v16.9.9 Sun Nov 25 17:19:51 2018

Tools Copyright (c) 1996-2017 Texas Instruments Incorporated
C:\Users\Stryd\AppData\Local\Temp\{7DA0ADB5-97D8-4466-9070-E3FE443B1FB8} PAGE   19

     991                            .dwattr $C$DW$78, DW_AT_low_pc(Board_Led_toggle)
     992                            .dwattr $C$DW$78, DW_AT_high_pc(0x00)
     993                            .dwattr $C$DW$78, DW_AT_TI_symbol_name("Board_Led_toggle")
     994                            .dwattr $C$DW$78, DW_AT_external
     995                            .dwattr $C$DW$78, DW_AT_TI_begin_file("../Application/LaunchPad/board_led.c")
     996                            .dwattr $C$DW$78, DW_AT_TI_begin_line(0xdc)
     997                            .dwattr $C$DW$78, DW_AT_TI_begin_column(0x06)
     998                            .dwattr $C$DW$78, DW_AT_decl_file("../Application/LaunchPad/board_led.c")
     999                            .dwattr $C$DW$78, DW_AT_decl_line(0xdc)
    1000                            .dwattr $C$DW$78, DW_AT_decl_column(0x06)
    1001                            .dwattr $C$DW$78, DW_AT_TI_max_frame_size(0x00)
    1002                            .dwpsn  file "../Application/LaunchPad/board_led.c",line 221,column 1,is_stmt,address Board_Le
    1003                    
    1004                            .dwfde $C$DW$CIE, Board_Led_toggle
    1005                    $C$DW$79        .dwtag  DW_TAG_formal_parameter
    1006                            .dwattr $C$DW$79, DW_AT_name("led")
    1007                            .dwattr $C$DW$79, DW_AT_TI_symbol_name("led")
    1008                            .dwattr $C$DW$79, DW_AT_type(*$C$DW$T$10)
    1009                            .dwattr $C$DW$79, DW_AT_location[DW_OP_reg0]
    1010                    
    1011                    
    1012                    ;*****************************************************************************
    1013                    ;* FUNCTION NAME: Board_Led_toggle                                           *
    1014                    ;*                                                                           *
    1015                    ;*   Regs Modified     : A1,A2,A3,A4,V9,LR,SR                                *
    1016                    ;*   Regs Used         : A1,A2,A3,A4,V9,SP,LR,SR                             *
    1017                    ;*   Local Frame Size  : 0 Args + 0 Auto + 0 Save = 0 byte                   *
    1018                    ;*****************************************************************************
    1019                    Board_Led_toggle:
    1020                    ;* --------------------------------------------------------------------------*
    1021                    ;* A3    assigned to $O$C1
    1022                    ;* A1    assigned to led
    1023                    $C$DW$80        .dwtag  DW_TAG_variable
    1024                            .dwattr $C$DW$80, DW_AT_name("led")
    1025                            .dwattr $C$DW$80, DW_AT_TI_symbol_name("led")
    1026                            .dwattr $C$DW$80, DW_AT_type(*$C$DW$T$689)
    1027                            .dwattr $C$DW$80, DW_AT_location[DW_OP_reg0]
    1028                    
    1029                            .dwcfi  cfa_offset, 0
    1030                            .dwpsn  file "../Application/LaunchPad/board_led.c",line 225,column 5,is_stmt,isa 1
    1031 00000000 2802              CMP       A1, #2                ; [DPU_3_PIPE] |225|  ; [ORIG 16-BIT INS]
    1032 00000002 DA0B              BGE       ||$C$L13||            ; [DPU_3_PIPE] |225|  ; [ORIG 16-BIT INS]
    1033                            ; BRANCHCC OCCURS {||$C$L13||}   ; [] |225| 
    1034                    ;* --------------------------------------------------------------------------*
    1035                            .dwpsn  file "../Application/LaunchPad/board_led.c",line 227,column 9,is_stmt,isa 1
    1036 00000004 4906              LDR       A2, $C$CON10          ; [DPU_3_PIPE] |227|  ; [ORIG 16-BIT INS]
    1037 00000006 2010F811          LDRB      A3, [A2, +A1, LSL #1] ; [DPU_3_PIPE] |227|  ; [KEEP 32-BIT INS]
    1038 0000000a 2A02              CMP       A3, #2                ; [DPU_3_PIPE] |227|  ; [ORIG 16-BIT INS]
    1039 0000000c D006              BEQ       ||$C$L13||            ; [DPU_3_PIPE] |227|  ; [ORIG 16-BIT INS]
    1040                            ; BRANCHCC OCCURS {||$C$L13||}   ; [] |227| 
    1041                    ;* --------------------------------------------------------------------------*
    1042 0000000e 2A03              CMP       A3, #3                ; [DPU_3_PIPE] |227|  ; [ORIG 16-BIT INS]
    1043 00000010 D004              BEQ       ||$C$L13||            ; [DPU_3_PIPE] |227|  ; [ORIG 16-BIT INS]
    1044                            ; BRANCHCC OCCURS {||$C$L13||}   ; [] |227| 
    1045                    ;* --------------------------------------------------------------------------*
TI ARM Assembler PC v16.9.9 Sun Nov 25 17:19:51 2018

Tools Copyright (c) 1996-2017 Texas Instruments Incorporated
C:\Users\Stryd\AppData\Local\Temp\{7DA0ADB5-97D8-4466-9070-E3FE443B1FB8} PAGE   20

    1046                            .dwpsn  file "../Application/LaunchPad/board_led.c",line 222,column 30,is_stmt,isa 1
    1047 00000012 2100              MOVS      A2, #0                ; [DPU_3_PIPE] |222|  ; [ORIG 16-BIT INS]
    1048 00000014 B902              CBNZ      A3, ||$C$L12||        ; []  ; [ORIG 16-BIT INS]
    1049 00000016 2101              MOVS      A2, #1                ; [DPU_3_PIPE] |222|  ; [ORIG 16-BIT INS]
    1050                    ;* --------------------------------------------------------------------------*
    1051 00000018           ||$C$L12||:    
    1052                            .dwpsn  file "../Application/LaunchPad/board_led.c",line 237,column 13,is_stmt,isa 1
    1053                    $C$DW$81        .dwtag  DW_TAG_TI_branch
    1054                            .dwattr $C$DW$81, DW_AT_low_pc(0x00)
    1055                            .dwattr $C$DW$81, DW_AT_name("Board_Led_control")
    1056                            .dwattr $C$DW$81, DW_AT_TI_call
    1057                            .dwattr $C$DW$81, DW_AT_TI_return
    1058                    
    1059 00000018 BFFEF7FF!         CRET      Board_Led_control     ; [DPU_3_PIPE] |237|  ; [KEEP 32-BIT INS]
    1060                            ; CALL OCCURS {Board_Led_control }  ; [] |237| 
    1061                    ;* --------------------------------------------------------------------------*
    1062                    ||$C$L13||:    
    1063                    $C$DW$82        .dwtag  DW_TAG_TI_branch
    1064                            .dwattr $C$DW$82, DW_AT_low_pc(0x00)
    1065                            .dwattr $C$DW$82, DW_AT_TI_return
    1066                    
    1067 0000001c 4770              BX        LR                    ; [DPU_3_PIPE]  ; [ORIG 16-BIT INS]
    1068                            ; BRANCH OCCURS                  ; [] 
    1069                            .dwattr $C$DW$78, DW_AT_TI_end_file("../Application/LaunchPad/board_led.c")
    1070                            .dwattr $C$DW$78, DW_AT_TI_end_line(0xf0)
    1071                            .dwattr $C$DW$78, DW_AT_TI_end_column(0x01)
    1072                            .dwendentry
    1073                            .dwendtag $C$DW$78
    1074                    
    1075 00000000                   .sect   ".text:Board_Led_initialize"
    1076                            .clink
    1077                            .thumbfunc Board_Led_initialize
    1078 00000000                   .thumb
    1079                            .global Board_Led_initialize
    1080                    
    1081                    $C$DW$83        .dwtag  DW_TAG_subprogram
    1082                            .dwattr $C$DW$83, DW_AT_name("Board_Led_initialize")
    1083                            .dwattr $C$DW$83, DW_AT_low_pc(Board_Led_initialize)
    1084                            .dwattr $C$DW$83, DW_AT_high_pc(0x00)
    1085                            .dwattr $C$DW$83, DW_AT_TI_symbol_name("Board_Led_initialize")
    1086                            .dwattr $C$DW$83, DW_AT_external
    1087                            .dwattr $C$DW$83, DW_AT_TI_begin_file("../Application/LaunchPad/board_led.c")
    1088                            .dwattr $C$DW$83, DW_AT_TI_begin_line(0x81)
    1089                            .dwattr $C$DW$83, DW_AT_TI_begin_column(0x06)
    1090                            .dwattr $C$DW$83, DW_AT_decl_file("../Application/LaunchPad/board_led.c")
    1091                            .dwattr $C$DW$83, DW_AT_decl_line(0x81)
    1092                            .dwattr $C$DW$83, DW_AT_decl_column(0x06)
    1093                            .dwattr $C$DW$83, DW_AT_TI_max_frame_size(0x28)
    1094                            .dwpsn  file "../Application/LaunchPad/board_led.c",line 130,column 1,is_stmt,address Board_Le
    1095                    
    1096                            .dwfde $C$DW$CIE, Board_Led_initialize
    1097                    
    1098                    ;*****************************************************************************
    1099                    ;* FUNCTION NAME: Board_Led_initialize                                       *
    1100                    ;*                                                                           *
TI ARM Assembler PC v16.9.9 Sun Nov 25 17:19:51 2018

Tools Copyright (c) 1996-2017 Texas Instruments Incorporated
C:\Users\Stryd\AppData\Local\Temp\{7DA0ADB5-97D8-4466-9070-E3FE443B1FB8} PAGE   21

    1101                    ;*   Regs Modified     : A1,A2,A3,A4,V1,V2,V3,V4,V5,V6,V9,SP,LR,SR           *
    1102                    ;*   Regs Used         : A1,A2,A3,A4,V1,V2,V3,V4,V5,V6,V9,SP,LR,SR           *
    1103                    ;*   Local Frame Size  : 8 Args + 0 Auto + 28 Save = 36 byte                 *
    1104                    ;*****************************************************************************
    1105                    Board_Led_initialize:
    1106                    ;* --------------------------------------------------------------------------*
    1107                    ;* V1    assigned to $O$C1
    1108                    ;* V4    assigned to $O$K15
    1109                    ;* V2    assigned to $O$U22
    1110                    ;* V5    assigned to $O$K25
    1111                    ;* V1    assigned to $O$K2
    1112                    ;* V3    assigned to x
    1113                    $C$DW$84        .dwtag  DW_TAG_variable
    1114                            .dwattr $C$DW$84, DW_AT_name("x")
    1115                            .dwattr $C$DW$84, DW_AT_TI_symbol_name("x")
    1116                            .dwattr $C$DW$84, DW_AT_type(*$C$DW$T$10)
    1117                            .dwattr $C$DW$84, DW_AT_location[DW_OP_reg6]
    1118                    
    1119                    ;* A2    assigned to index
    1120                    $C$DW$85        .dwtag  DW_TAG_variable
    1121                            .dwattr $C$DW$85, DW_AT_name("index")
    1122                            .dwattr $C$DW$85, DW_AT_TI_symbol_name("index")
    1123                            .dwattr $C$DW$85, DW_AT_type(*$C$DW$T$11)
    1124                            .dwattr $C$DW$85, DW_AT_location[DW_OP_reg1]
    1125                    
    1126                    ;* V6    assigned to value
    1127                    $C$DW$86        .dwtag  DW_TAG_variable
    1128                            .dwattr $C$DW$86, DW_AT_name("value")
    1129                            .dwattr $C$DW$86, DW_AT_TI_symbol_name("value")
    1130                            .dwattr $C$DW$86, DW_AT_type(*$C$DW$T$142)
    1131                            .dwattr $C$DW$86, DW_AT_location[DW_OP_reg9]
    1132                    
    1133                            .dwcfi  cfa_offset, 0
    1134 00000000 43FEE92D          PUSH      {A2, A3, A4, V1, V2, V3, V4, V5, V6, LR} ; [DPU_3_PIPE]  ; [KEEP 32-BIT INS]
    1135                            .dwcfi  cfa_offset, 40
    1136                            .dwcfi  save_reg_to_mem, 14, -4
    1137                            .dwcfi  save_reg_to_mem, 9, -8
    1138                            .dwcfi  save_reg_to_mem, 8, -12
    1139                            .dwcfi  save_reg_to_mem, 7, -16
    1140                            .dwcfi  save_reg_to_mem, 6, -20
    1141                            .dwcfi  save_reg_to_mem, 5, -24
    1142                            .dwcfi  save_reg_to_mem, 4, -28
    1143                            .dwcfi  save_reg_to_mem, 3, -32
    1144                            .dwcfi  save_reg_to_mem, 2, -36
    1145                            .dwcfi  save_reg_to_mem, 1, -40
    1146                            .dwpsn  file "../Application/LaunchPad/board_led.c",line 136,column 5,is_stmt,isa 1
    1147 00000004 4C17              LDR       V1, $C$CON17          ; [DPU_3_PIPE] |136|  ; [ORIG 16-BIT INS]
    1148 00000006 0014F104          ADD       A1, V1, #20           ; [DPU_3_PIPE]  ; [KEEP 32-BIT INS]
    1149 0000000a 0108F104          ADD       A2, V1, #8            ; [DPU_3_PIPE]  ; [KEEP 32-BIT INS]
    1150                    $C$DW$87        .dwtag  DW_TAG_TI_branch
    1151                            .dwattr $C$DW$87, DW_AT_low_pc(0x00)
    1152                            .dwattr $C$DW$87, DW_AT_name("PIN_open")
    1153                            .dwattr $C$DW$87, DW_AT_TI_call
    1154                    
    1155 0000000e FFFEF7FF!         BL        PIN_open              ; [DPU_3_PIPE] |136|  ; [KEEP 32-BIT INS]
TI ARM Assembler PC v16.9.9 Sun Nov 25 17:19:51 2018

Tools Copyright (c) 1996-2017 Texas Instruments Incorporated
C:\Users\Stryd\AppData\Local\Temp\{7DA0ADB5-97D8-4466-9070-E3FE443B1FB8} PAGE   22

    1156                            ; CALL OCCURS {PIN_open }        ; [] |136| 
    1157 00000012 6060              STR       A1, [V1, #4]          ; [DPU_3_PIPE] |136|  ; [ORIG 16-BIT INS]
    1158                            .dwpsn  file "../Application/LaunchPad/board_led.c",line 138,column 5,is_stmt,isa 1
    1159 00000014 2000              MOVS      A1, #0                ; [DPU_3_PIPE] |138|  ; [ORIG 16-BIT INS]
    1160                    $C$DW$88        .dwtag  DW_TAG_TI_branch
    1161                            .dwattr $C$DW$88, DW_AT_low_pc(0x00)
    1162                            .dwattr $C$DW$88, DW_AT_name("board_led_convertLedValue")
    1163                            .dwattr $C$DW$88, DW_AT_TI_call
    1164                    
    1165 00000016 FFFEF7FF!         BL        board_led_convertLedValue ; [DPU_3_PIPE] |138|  ; [KEEP 32-BIT INS]
    1166                            ; CALL OCCURS {board_led_convertLedValue }  ; [] |138| 
    1167 0000001a 2700              MOVS      V4, #0                ; [DPU_3_PIPE]  ; [ORIG 16-BIT INS]
    1168 0000001c 0802F04F          MOV       V5, #2                ; [DPU_3_PIPE]  ; [KEEP 32-BIT INS]
    1169 00000020 463E              MOV       V3, V4                ; [DPU_3_PIPE]  ; [ORIG 16-BIT INS]
    1170 00000022 1EA5              SUBS      V2, V1, #2            ; [DPU_3_PIPE]  ; [ORIG 16-BIT INS]
    1171 00000024 4681              MOV       V6, A1                ; [DPU_3_PIPE] |138|  ; [ORIG 16-BIT INS]
    1172                    ;* --------------------------------------------------------------------------*
    1173                    ;*   BEGIN LOOP ||$C$L14||
    1174                    ;*
    1175                    ;*   Loop source line                : 140
    1176                    ;*   Loop closing brace source line  : 148
    1177                    ;*   Known Minimum Trip Count        : 2
    1178                    ;*   Known Maximum Trip Count        : 2
    1179                    ;*   Known Max Trip Count Factor     : 2
    1180                    ;* --------------------------------------------------------------------------*
    1181 00000026           ||$C$L14||:    
    1182                            .dwpsn  file "../Application/LaunchPad/board_led.c",line 142,column 9,is_stmt,isa 1
    1183 00000026 7F02F805          STRB      V4, [V2, #2]!         ; [DPU_3_PIPE] |142|  ; [KEEP 32-BIT INS]
    1184                            .dwpsn  file "../Application/LaunchPad/board_led.c",line 145,column 9,is_stmt,isa 1
    1185 0000002a 4630              MOV       A1, V3                ; [DPU_3_PIPE] |145|  ; [ORIG 16-BIT INS]
    1186                            .dwpsn  file "../Application/LaunchPad/board_led.c",line 143,column 9,is_stmt,isa 1
    1187 0000002c 8001F885          STRB      V5, [V2, #1]          ; [DPU_3_PIPE] |143|  ; [KEEP 32-BIT INS]
    1188                            .dwpsn  file "../Application/LaunchPad/board_led.c",line 145,column 9,is_stmt,isa 1
    1189                    $C$DW$89        .dwtag  DW_TAG_TI_branch
    1190                            .dwattr $C$DW$89, DW_AT_low_pc(0x00)
    1191                            .dwattr $C$DW$89, DW_AT_name("board_led_convertLedType")
    1192                            .dwattr $C$DW$89, DW_AT_TI_call
    1193                    
    1194 00000030 FFFEF7FF!         BL        board_led_convertLedType ; [DPU_3_PIPE] |145|  ; [KEEP 32-BIT INS]
    1195                            ; CALL OCCURS {board_led_convertLedType }  ; [] |145| 
    1196 00000034 4601              MOV       A2, A1                ; [DPU_3_PIPE] |145|  ; [ORIG 16-BIT INS]
    1197                            .dwpsn  file "../Application/LaunchPad/board_led.c",line 147,column 9,is_stmt,isa 1
    1198 00000036 6860              LDR       A1, [V1, #4]          ; [DPU_3_PIPE] |147|  ; [ORIG 16-BIT INS]
    1199 00000038 464A              MOV       A3, V6                ; [DPU_3_PIPE] |147|  ; [ORIG 16-BIT INS]
    1200 0000003a B2C9              UXTB      A2, A2                ; [DPU_3_PIPE] |147|  ; [ORIG 16-BIT INS]
    1201                    $C$DW$90        .dwtag  DW_TAG_TI_branch
    1202                            .dwattr $C$DW$90, DW_AT_low_pc(0x00)
    1203                            .dwattr $C$DW$90, DW_AT_name("PIN_setOutputValue")
    1204                            .dwattr $C$DW$90, DW_AT_TI_call
    1205                    
    1206 0000003c FFFEF7FF!         BL        PIN_setOutputValue    ; [DPU_3_PIPE] |147|  ; [KEEP 32-BIT INS]
    1207                            ; CALL OCCURS {PIN_setOutputValue }  ; [] |147| 
    1208                            .dwpsn  file "../Application/LaunchPad/board_led.c",line 140,column 16,is_stmt,isa 1
    1209 00000040 1C76              ADDS      V3, V3, #1            ; [DPU_3_PIPE] |140|  ; [ORIG 16-BIT INS]
    1210 00000042 2E02              CMP       V3, #2                ; [DPU_3_PIPE] |140|  ; [ORIG 16-BIT INS]
TI ARM Assembler PC v16.9.9 Sun Nov 25 17:19:51 2018

Tools Copyright (c) 1996-2017 Texas Instruments Incorporated
C:\Users\Stryd\AppData\Local\Temp\{7DA0ADB5-97D8-4466-9070-E3FE443B1FB8} PAGE   23

    1211 00000044 DBEF              BLT       ||$C$L14||            ; [DPU_3_PIPE] |140|  ; [ORIG 16-BIT INS]
    1212                            ; BRANCHCC OCCURS {||$C$L14||}   ; [] |140| 
    1213                    ;* --------------------------------------------------------------------------*
    1214 00000046 463B              MOV       A4, V4                ; [DPU_3_PIPE]  ; [ORIG 16-BIT INS]
    1215                            .dwpsn  file "../Application/LaunchPad/board_led.c",line 150,column 5,is_stmt,isa 1
    1216 00000048 4905              LDR       A2, $C$CON12          ; [DPU_3_PIPE] |150|  ; [ORIG 16-BIT INS]
    1217 0000004a 9300              STR       A4, [SP, #0]          ; [DPU_3_PIPE] |150|  ; [ORIG 16-BIT INS]
    1218 0000004c 0020F104          ADD       A1, V1, #32           ; [DPU_3_PIPE]  ; [KEEP 32-BIT INS]
    1219 00000050 72FAF44F          MOV       A3, #500              ; [DPU_3_PIPE] |150|  ; [KEEP 32-BIT INS]
    1220 00000054 9301              STR       A4, [SP, #4]          ; [DPU_3_PIPE] |150|  ; [ORIG 16-BIT INS]
    1221                    $C$DW$91        .dwtag  DW_TAG_TI_branch
    1222                            .dwattr $C$DW$91, DW_AT_low_pc(0x00)
    1223                            .dwattr $C$DW$91, DW_AT_name("Timer_construct")
    1224                            .dwattr $C$DW$91, DW_AT_TI_call
    1225                    
    1226 00000056 FFFEF7FF!         BL        Timer_construct       ; [DPU_3_PIPE] |150|  ; [KEEP 32-BIT INS]
    1227                            ; CALL OCCURS {Timer_construct }  ; [] |150| 
    1228                    $C$DW$92        .dwtag  DW_TAG_TI_branch
    1229                            .dwattr $C$DW$92, DW_AT_low_pc(0x00)
    1230                            .dwattr $C$DW$92, DW_AT_TI_return
    1231                    
    1232 0000005a 83FEE8BD          POP       {A2, A3, A4, V1, V2, V3, V4, V5, V6, PC} ; [DPU_3_PIPE]  ; [KEEP 32-BIT INS]
    1233                            .dwcfi  cfa_offset, 0
    1234                            .dwcfi  restore_reg, 9
    1235                            .dwcfi  restore_reg, 8
    1236                            .dwcfi  restore_reg, 7
    1237                            .dwcfi  restore_reg, 6
    1238                            .dwcfi  restore_reg, 5
    1239                            .dwcfi  restore_reg, 4
    1240                            .dwcfi  restore_reg, 3
    1241                            .dwcfi  restore_reg, 2
    1242                            .dwcfi  restore_reg, 1
    1243                            ; BRANCH OCCURS                  ; [] 
    1244                            .dwattr $C$DW$83, DW_AT_TI_end_file("../Application/LaunchPad/board_led.c")
    1245                            .dwattr $C$DW$83, DW_AT_TI_end_line(0x99)
    1246                            .dwattr $C$DW$83, DW_AT_TI_end_column(0x01)
    1247                            .dwendentry
    1248                            .dwendtag $C$DW$83
    1249                    
    1250                    ;******************************************************************************
    1251                    ;* CONSTANT TABLE                                                             *
    1252                    ;******************************************************************************
    1253 00000024                   .sect   ".text:board_led_anyBlinking"
    1254                            .align  4
    1255 00000024 00000000! ||$C$CON1||:    .bits   ||$O1$$||,32
    1256                    ;******************************************************************************
    1257                    ;* CONSTANT TABLE                                                             *
    1258                    ;******************************************************************************
    1259 0000008e                   .sect   ".text:board_led_blinkTimeoutCB"
    1260                            .align  4
    1261 0000008e 000046C0! ||$C$CON6||:    .bits   ||$O1$$||,32
         00000092 00000000 
    1262                    ;******************************************************************************
    1263                    ;* CONSTANT TABLE                                                             *
    1264                    ;******************************************************************************
TI ARM Assembler PC v16.9.9 Sun Nov 25 17:19:51 2018

Tools Copyright (c) 1996-2017 Texas Instruments Incorporated
C:\Users\Stryd\AppData\Local\Temp\{7DA0ADB5-97D8-4466-9070-E3FE443B1FB8} PAGE   24

    1265 0000007c                   .sect   ".text:Board_Led_control"
    1266                            .align  4
    1267 0000007c 00000000! ||$C$CON9||:    .bits   ||$O1$$||,32
    1268                    ;******************************************************************************
    1269                    ;* CONSTANT TABLE                                                             *
    1270                    ;******************************************************************************
    1271 0000001e                   .sect   ".text:Board_Led_toggle"
    1272                            .align  4
    1273 0000001e 000046C0! ||$C$CON10||:   .bits   ||$O1$$||,32
         00000022 00000000 
    1274                    ;******************************************************************************
    1275                    ;* CONSTANT TABLE                                                             *
    1276                    ;******************************************************************************
    1277 0000005e                   .sect   ".text:Board_Led_initialize"
    1278                            .align  4
    1279 0000005e 000046C0! ||$C$CON12||:   .bits   board_led_blinkTimeoutCB,32
         00000062 00000000 
    1280                            .align  4
    1281 00000062 00000000! ||$C$CON17||:   .bits   ||$O1$$||,32
         00000066 00000000 
    1282                    ;*****************************************************************************
    1283                    ;* UNDEFINED EXTERNAL REFERENCES                                             *
    1284                    ;*****************************************************************************
    1285                            .global PIN_open
    1286                            .global PIN_setOutputValue
    1287                            .global HwiP_disable
    1288                            .global HwiP_restore
    1289                            .global Timer_construct
    1290                            .global Timer_start
    1291                            .global Timer_isActive
    1292                            .global Timer_stop
    1293                    
    1294                    ;******************************************************************************
    1295                    ;* BUILD ATTRIBUTES                                                           *
    1296                    ;******************************************************************************
    1297                            .battr "aeabi", Tag_File, 1, Tag_ABI_PCS_wchar_t(2)
    1298                            .battr "aeabi", Tag_File, 1, Tag_ABI_FP_rounding(0)
    1299                            .battr "aeabi", Tag_File, 1, Tag_ABI_FP_denormal(0)
    1300                            .battr "aeabi", Tag_File, 1, Tag_ABI_FP_exceptions(0)
    1301                            .battr "aeabi", Tag_File, 1, Tag_ABI_FP_number_model(1)
    1302                            .battr "aeabi", Tag_File, 1, Tag_ABI_enum_size(1)
    1303                            .battr "aeabi", Tag_File, 1, Tag_ABI_optimization_goals(0)
    1304                            .battr "aeabi", Tag_File, 1, Tag_ABI_FP_optimization_goals(0)
    1305                            .battr "TI", Tag_File, 1, Tag_Bitfield_layout(2)
    1306                            .battr "aeabi", Tag_File, 1, Tag_ABI_VFP_args(3)
    1307                            .battr "TI", Tag_File, 1, Tag_FP_interface(1)
    1308                    
    1309                    ;******************************************************************************
    1310                    ;* TYPE INFORMATION                                                           *
    1311                    ;******************************************************************************
    1312                    
    1313                    $C$DW$T$137     .dwtag  DW_TAG_enumeration_type
    1314                            .dwattr $C$DW$T$137, DW_AT_byte_size(0x01)
    1315                    $C$DW$93        .dwtag  DW_TAG_enumerator
    1316                            .dwattr $C$DW$93, DW_AT_name("board_led_state_OFF")
TI ARM Assembler PC v16.9.9 Sun Nov 25 17:19:51 2018

Tools Copyright (c) 1996-2017 Texas Instruments Incorporated
C:\Users\Stryd\AppData\Local\Temp\{7DA0ADB5-97D8-4466-9070-E3FE443B1FB8} PAGE   25

    1317                            .dwattr $C$DW$93, DW_AT_const_value(0x00)
    1318                            .dwattr $C$DW$93, DW_AT_decl_file("..\Application\LaunchPad\board_led.h")
    1319                            .dwattr $C$DW$93, DW_AT_decl_line(0x5d)
    1320                            .dwattr $C$DW$93, DW_AT_decl_column(0x05)
    1321                    
    1322                    $C$DW$94        .dwtag  DW_TAG_enumerator
    1323                            .dwattr $C$DW$94, DW_AT_name("board_led_state_ON")
    1324                            .dwattr $C$DW$94, DW_AT_const_value(0x01)
    1325                            .dwattr $C$DW$94, DW_AT_decl_file("..\Application\LaunchPad\board_led.h")
    1326                            .dwattr $C$DW$94, DW_AT_decl_line(0x5e)
    1327                            .dwattr $C$DW$94, DW_AT_decl_column(0x05)
    1328                    
    1329                    $C$DW$95        .dwtag  DW_TAG_enumerator
    1330                            .dwattr $C$DW$95, DW_AT_name("board_led_state_BLINK")
    1331                            .dwattr $C$DW$95, DW_AT_const_value(0x02)
    1332                            .dwattr $C$DW$95, DW_AT_decl_file("..\Application\LaunchPad\board_led.h")
    1333                            .dwattr $C$DW$95, DW_AT_decl_line(0x5f)
    1334                            .dwattr $C$DW$95, DW_AT_decl_column(0x05)
    1335                    
    1336                    $C$DW$96        .dwtag  DW_TAG_enumerator
    1337                            .dwattr $C$DW$96, DW_AT_name("board_led_state_BLINKING")
    1338                            .dwattr $C$DW$96, DW_AT_const_value(0x03)
    1339                            .dwattr $C$DW$96, DW_AT_decl_file("..\Application\LaunchPad\board_led.h")
    1340                            .dwattr $C$DW$96, DW_AT_decl_line(0x60)
    1341                            .dwattr $C$DW$96, DW_AT_decl_column(0x05)
    1342                    
    1343                            .dwattr $C$DW$T$137, DW_AT_decl_file("..\Application\LaunchPad\board_led.h")
    1344                            .dwattr $C$DW$T$137, DW_AT_decl_line(0x5c)
    1345                            .dwattr $C$DW$T$137, DW_AT_decl_column(0x01)
    1346                            .dwendtag $C$DW$T$137
    1347                    
    1348                    $C$DW$T$138     .dwtag  DW_TAG_typedef
    1349                            .dwattr $C$DW$T$138, DW_AT_name("board_led_state")
    1350                            .dwattr $C$DW$T$138, DW_AT_type(*$C$DW$T$137)
    1351                            .dwattr $C$DW$T$138, DW_AT_language(DW_LANG_C)
    1352                            .dwattr $C$DW$T$138, DW_AT_decl_file("..\Application\LaunchPad\board_led.h")
    1353                            .dwattr $C$DW$T$138, DW_AT_decl_line(0x61)
    1354                            .dwattr $C$DW$T$138, DW_AT_decl_column(0x03)
    1355                    
    1356                    $C$DW$T$679     .dwtag  DW_TAG_const_type
    1357                            .dwattr $C$DW$T$679, DW_AT_type(*$C$DW$T$138)
    1358                    
    1359                    
    1360                    $C$DW$T$139     .dwtag  DW_TAG_enumeration_type
    1361                            .dwattr $C$DW$T$139, DW_AT_byte_size(0x01)
    1362                    $C$DW$97        .dwtag  DW_TAG_enumerator
    1363                            .dwattr $C$DW$97, DW_AT_name("BLINKING_STATUS_ON")
    1364                            .dwattr $C$DW$97, DW_AT_const_value(0x00)
    1365                            .dwattr $C$DW$97, DW_AT_decl_file("../Application/LaunchPad/board_led.c")
    1366                            .dwattr $C$DW$97, DW_AT_decl_line(0x47)
    1367                            .dwattr $C$DW$97, DW_AT_decl_column(0x05)
    1368                    
    1369                    $C$DW$98        .dwtag  DW_TAG_enumerator
    1370                            .dwattr $C$DW$98, DW_AT_name("BLINKING_STATUS_OFF")
    1371                            .dwattr $C$DW$98, DW_AT_const_value(0x01)
TI ARM Assembler PC v16.9.9 Sun Nov 25 17:19:51 2018

Tools Copyright (c) 1996-2017 Texas Instruments Incorporated
C:\Users\Stryd\AppData\Local\Temp\{7DA0ADB5-97D8-4466-9070-E3FE443B1FB8} PAGE   26

    1372                            .dwattr $C$DW$98, DW_AT_decl_file("../Application/LaunchPad/board_led.c")
    1373                            .dwattr $C$DW$98, DW_AT_decl_line(0x48)
    1374                            .dwattr $C$DW$98, DW_AT_decl_column(0x05)
    1375                    
    1376                    $C$DW$99        .dwtag  DW_TAG_enumerator
    1377                            .dwattr $C$DW$99, DW_AT_name("BLINKING_STATUS_DONE")
    1378                            .dwattr $C$DW$99, DW_AT_const_value(0x02)
    1379                            .dwattr $C$DW$99, DW_AT_decl_file("../Application/LaunchPad/board_led.c")
    1380                            .dwattr $C$DW$99, DW_AT_decl_line(0x49)
    1381                            .dwattr $C$DW$99, DW_AT_decl_column(0x05)
    1382                    
    1383                            .dwattr $C$DW$T$139, DW_AT_decl_file("../Application/LaunchPad/board_led.c")
    1384                            .dwattr $C$DW$T$139, DW_AT_decl_line(0x46)
    1385                            .dwattr $C$DW$T$139, DW_AT_decl_column(0x01)
    1386                            .dwendtag $C$DW$T$139
    1387                    
    1388                    $C$DW$T$140     .dwtag  DW_TAG_typedef
    1389                            .dwattr $C$DW$T$140, DW_AT_name("blinkStatus")
    1390                            .dwattr $C$DW$T$140, DW_AT_type(*$C$DW$T$139)
    1391                            .dwattr $C$DW$T$140, DW_AT_language(DW_LANG_C)
    1392                            .dwattr $C$DW$T$140, DW_AT_decl_file("../Application/LaunchPad/board_led.c")
    1393                            .dwattr $C$DW$T$140, DW_AT_decl_line(0x4a)
    1394                            .dwattr $C$DW$T$140, DW_AT_decl_column(0x03)
    1395                    
    1396                    
    1397                    $C$DW$T$190     .dwtag  DW_TAG_enumeration_type
    1398                            .dwattr $C$DW$T$190, DW_AT_byte_size(0x01)
    1399                    $C$DW$100       .dwtag  DW_TAG_enumerator
    1400                            .dwattr $C$DW$100, DW_AT_name("ApiMac_addrType_none")
    1401                            .dwattr $C$DW$100, DW_AT_const_value(0x00)
    1402                            .dwattr $C$DW$100, DW_AT_decl_file("C:/CCSWorkspace/ECG603/sensor_cc1350lp/Application/api_mac
    1403                            .dwattr $C$DW$100, DW_AT_decl_line(0x1a9)
    1404                            .dwattr $C$DW$100, DW_AT_decl_column(0x05)
    1405                    
    1406                    $C$DW$101       .dwtag  DW_TAG_enumerator
    1407                            .dwattr $C$DW$101, DW_AT_name("ApiMac_addrType_short")
    1408                            .dwattr $C$DW$101, DW_AT_const_value(0x02)
    1409                            .dwattr $C$DW$101, DW_AT_decl_file("C:/CCSWorkspace/ECG603/sensor_cc1350lp/Application/api_mac
    1410                            .dwattr $C$DW$101, DW_AT_decl_line(0x1ab)
    1411                            .dwattr $C$DW$101, DW_AT_decl_column(0x05)
    1412                    
    1413                    $C$DW$102       .dwtag  DW_TAG_enumerator
    1414                            .dwattr $C$DW$102, DW_AT_name("ApiMac_addrType_extended")
    1415                            .dwattr $C$DW$102, DW_AT_const_value(0x03)
    1416                            .dwattr $C$DW$102, DW_AT_decl_file("C:/CCSWorkspace/ECG603/sensor_cc1350lp/Application/api_mac
    1417                            .dwattr $C$DW$102, DW_AT_decl_line(0x1ad)
    1418                            .dwattr $C$DW$102, DW_AT_decl_column(0x05)
    1419                    
    1420                            .dwattr $C$DW$T$190, DW_AT_decl_file("C:/CCSWorkspace/ECG603/sensor_cc1350lp/Application/api_m
    1421                            .dwattr $C$DW$T$190, DW_AT_decl_line(0x1a7)
    1422                            .dwattr $C$DW$T$190, DW_AT_decl_column(0x01)
    1423                            .dwendtag $C$DW$T$190
    1424                    
    1425                    $C$DW$T$191     .dwtag  DW_TAG_typedef
    1426                            .dwattr $C$DW$T$191, DW_AT_name("ApiMac_addrType_t")
TI ARM Assembler PC v16.9.9 Sun Nov 25 17:19:51 2018

Tools Copyright (c) 1996-2017 Texas Instruments Incorporated
C:\Users\Stryd\AppData\Local\Temp\{7DA0ADB5-97D8-4466-9070-E3FE443B1FB8} PAGE   27

    1427                            .dwattr $C$DW$T$191, DW_AT_type(*$C$DW$T$190)
    1428                            .dwattr $C$DW$T$191, DW_AT_language(DW_LANG_C)
    1429                            .dwattr $C$DW$T$191, DW_AT_decl_file("C:/CCSWorkspace/ECG603/sensor_cc1350lp/Application/api_m
    1430                            .dwattr $C$DW$T$191, DW_AT_decl_line(0x1ae)
    1431                            .dwattr $C$DW$T$191, DW_AT_decl_column(0x03)
    1432                    
    1433                    
    1434                    $C$DW$T$194     .dwtag  DW_TAG_enumeration_type
    1435                            .dwattr $C$DW$T$194, DW_AT_byte_size(0x01)
    1436                    $C$DW$103       .dwtag  DW_TAG_enumerator
    1437                            .dwattr $C$DW$103, DW_AT_name("ApiMac_beaconType_normal")
    1438                            .dwattr $C$DW$103, DW_AT_const_value(0x00)
    1439                            .dwattr $C$DW$103, DW_AT_decl_file("C:/CCSWorkspace/ECG603/sensor_cc1350lp/Application/api_mac
    1440                            .dwattr $C$DW$103, DW_AT_decl_line(0x1b4)
    1441                            .dwattr $C$DW$103, DW_AT_decl_column(0x05)
    1442                    
    1443                    $C$DW$104       .dwtag  DW_TAG_enumerator
    1444                            .dwattr $C$DW$104, DW_AT_name("ApiMac_beaconType_enhanced")
    1445                            .dwattr $C$DW$104, DW_AT_const_value(0x01)
    1446                            .dwattr $C$DW$104, DW_AT_decl_file("C:/CCSWorkspace/ECG603/sensor_cc1350lp/Application/api_mac
    1447                            .dwattr $C$DW$104, DW_AT_decl_line(0x1b6)
    1448                            .dwattr $C$DW$104, DW_AT_decl_column(0x05)
    1449                    
    1450                            .dwattr $C$DW$T$194, DW_AT_decl_file("C:/CCSWorkspace/ECG603/sensor_cc1350lp/Application/api_m
    1451                            .dwattr $C$DW$T$194, DW_AT_decl_line(0x1b2)
    1452                            .dwattr $C$DW$T$194, DW_AT_decl_column(0x01)
    1453                            .dwendtag $C$DW$T$194
    1454                    
    1455                    $C$DW$T$195     .dwtag  DW_TAG_typedef
    1456                            .dwattr $C$DW$T$195, DW_AT_name("ApiMac_beaconType_t")
    1457                            .dwattr $C$DW$T$195, DW_AT_type(*$C$DW$T$194)
    1458                            .dwattr $C$DW$T$195, DW_AT_language(DW_LANG_C)
    1459                            .dwattr $C$DW$T$195, DW_AT_decl_file("C:/CCSWorkspace/ECG603/sensor_cc1350lp/Application/api_m
    1460                            .dwattr $C$DW$T$195, DW_AT_decl_line(0x1b7)
    1461                            .dwattr $C$DW$T$195, DW_AT_decl_column(0x03)
    1462                    
    1463                    
    1464                    $C$DW$T$340     .dwtag  DW_TAG_enumeration_type
    1465                            .dwattr $C$DW$T$340, DW_AT_byte_size(0x01)
    1466                    $C$DW$105       .dwtag  DW_TAG_enumerator
    1467                            .dwattr $C$DW$105, DW_AT_name("ApiMac_status_success")
    1468                            .dwattr $C$DW$105, DW_AT_const_value(0x00)
    1469                            .dwattr $C$DW$105, DW_AT_decl_file("C:/CCSWorkspace/ECG603/sensor_cc1350lp/Application/api_mac
    1470                            .dwattr $C$DW$105, DW_AT_decl_line(0x1d7)
    1471                            .dwattr $C$DW$105, DW_AT_decl_column(0x05)
    1472                    
    1473                    $C$DW$106       .dwtag  DW_TAG_enumerator
    1474                            .dwattr $C$DW$106, DW_AT_name("ApiMac_status_subSystemError")
    1475                            .dwattr $C$DW$106, DW_AT_const_value(0x25)
    1476                            .dwattr $C$DW$106, DW_AT_decl_file("C:/CCSWorkspace/ECG603/sensor_cc1350lp/Application/api_mac
    1477                            .dwattr $C$DW$106, DW_AT_decl_line(0x1d9)
    1478                            .dwattr $C$DW$106, DW_AT_decl_column(0x05)
    1479                    
    1480                    $C$DW$107       .dwtag  DW_TAG_enumerator
    1481                            .dwattr $C$DW$107, DW_AT_name("ApiMac_status_commandIDError")
TI ARM Assembler PC v16.9.9 Sun Nov 25 17:19:51 2018

Tools Copyright (c) 1996-2017 Texas Instruments Incorporated
C:\Users\Stryd\AppData\Local\Temp\{7DA0ADB5-97D8-4466-9070-E3FE443B1FB8} PAGE   28

    1482                            .dwattr $C$DW$107, DW_AT_const_value(0x26)
    1483                            .dwattr $C$DW$107, DW_AT_decl_file("C:/CCSWorkspace/ECG603/sensor_cc1350lp/Application/api_mac
    1484                            .dwattr $C$DW$107, DW_AT_decl_line(0x1db)
    1485                            .dwattr $C$DW$107, DW_AT_decl_column(0x05)
    1486                    
    1487                    $C$DW$108       .dwtag  DW_TAG_enumerator
    1488                            .dwattr $C$DW$108, DW_AT_name("ApiMac_status_lengthError")
    1489                            .dwattr $C$DW$108, DW_AT_const_value(0x27)
    1490                            .dwattr $C$DW$108, DW_AT_decl_file("C:/CCSWorkspace/ECG603/sensor_cc1350lp/Application/api_mac
    1491                            .dwattr $C$DW$108, DW_AT_decl_line(0x1dd)
    1492                            .dwattr $C$DW$108, DW_AT_decl_column(0x05)
    1493                    
    1494                    $C$DW$109       .dwtag  DW_TAG_enumerator
    1495                            .dwattr $C$DW$109, DW_AT_name("ApiMac_status_unsupportedType")
    1496                            .dwattr $C$DW$109, DW_AT_const_value(0x28)
    1497                            .dwattr $C$DW$109, DW_AT_decl_file("C:/CCSWorkspace/ECG603/sensor_cc1350lp/Application/api_mac
    1498                            .dwattr $C$DW$109, DW_AT_decl_line(0x1df)
    1499                            .dwattr $C$DW$109, DW_AT_decl_column(0x05)
    1500                    
    1501                    $C$DW$110       .dwtag  DW_TAG_enumerator
    1502                            .dwattr $C$DW$110, DW_AT_name("ApiMac_status_autoAckPendingAllOn")
    1503                            .dwattr $C$DW$110, DW_AT_const_value(0xfe)
    1504                            .dwattr $C$DW$110, DW_AT_decl_file("C:/CCSWorkspace/ECG603/sensor_cc1350lp/Application/api_mac
    1505                            .dwattr $C$DW$110, DW_AT_decl_line(0x1e1)
    1506                            .dwattr $C$DW$110, DW_AT_decl_column(0x05)
    1507                    
    1508                    $C$DW$111       .dwtag  DW_TAG_enumerator
    1509                            .dwattr $C$DW$111, DW_AT_name("ApiMac_status_autoAckPendingAllOff")
    1510                            .dwattr $C$DW$111, DW_AT_const_value(0xff)
    1511                            .dwattr $C$DW$111, DW_AT_decl_file("C:/CCSWorkspace/ECG603/sensor_cc1350lp/Application/api_mac
    1512                            .dwattr $C$DW$111, DW_AT_decl_line(0x1e3)
    1513                            .dwattr $C$DW$111, DW_AT_decl_column(0x05)
    1514                    
    1515                    $C$DW$112       .dwtag  DW_TAG_enumerator
    1516                            .dwattr $C$DW$112, DW_AT_name("ApiMac_status_beaconLoss")
    1517                            .dwattr $C$DW$112, DW_AT_const_value(0xe0)
    1518                            .dwattr $C$DW$112, DW_AT_decl_file("C:/CCSWorkspace/ECG603/sensor_cc1350lp/Application/api_mac
    1519                            .dwattr $C$DW$112, DW_AT_decl_line(0x1e5)
    1520                            .dwattr $C$DW$112, DW_AT_decl_column(0x05)
    1521                    
    1522                    $C$DW$113       .dwtag  DW_TAG_enumerator
    1523                            .dwattr $C$DW$113, DW_AT_name("ApiMac_status_channelAccessFailure")
    1524                            .dwattr $C$DW$113, DW_AT_const_value(0xe1)
    1525                            .dwattr $C$DW$113, DW_AT_decl_file("C:/CCSWorkspace/ECG603/sensor_cc1350lp/Application/api_mac
    1526                            .dwattr $C$DW$113, DW_AT_decl_line(0x1e9)
    1527                            .dwattr $C$DW$113, DW_AT_decl_column(0x05)
    1528                    
    1529                    $C$DW$114       .dwtag  DW_TAG_enumerator
    1530                            .dwattr $C$DW$114, DW_AT_name("ApiMac_status_counterError")
    1531                            .dwattr $C$DW$114, DW_AT_const_value(0xdb)
    1532                            .dwattr $C$DW$114, DW_AT_decl_file("C:/CCSWorkspace/ECG603/sensor_cc1350lp/Application/api_mac
    1533                            .dwattr $C$DW$114, DW_AT_decl_line(0x1ee)
    1534                            .dwattr $C$DW$114, DW_AT_decl_column(0x05)
    1535                    
    1536                    $C$DW$115       .dwtag  DW_TAG_enumerator
TI ARM Assembler PC v16.9.9 Sun Nov 25 17:19:51 2018

Tools Copyright (c) 1996-2017 Texas Instruments Incorporated
C:\Users\Stryd\AppData\Local\Temp\{7DA0ADB5-97D8-4466-9070-E3FE443B1FB8} PAGE   29

    1537                            .dwattr $C$DW$115, DW_AT_name("ApiMac_status_denied")
    1538                            .dwattr $C$DW$115, DW_AT_const_value(0xe2)
    1539                            .dwattr $C$DW$115, DW_AT_decl_file("C:/CCSWorkspace/ECG603/sensor_cc1350lp/Application/api_mac
    1540                            .dwattr $C$DW$115, DW_AT_decl_line(0x1f0)
    1541                            .dwattr $C$DW$115, DW_AT_decl_column(0x05)
    1542                    
    1543                    $C$DW$116       .dwtag  DW_TAG_enumerator
    1544                            .dwattr $C$DW$116, DW_AT_name("ApiMac_status_disabledTrxFailure")
    1545                            .dwattr $C$DW$116, DW_AT_const_value(0xe3)
    1546                            .dwattr $C$DW$116, DW_AT_decl_file("C:/CCSWorkspace/ECG603/sensor_cc1350lp/Application/api_mac
    1547                            .dwattr $C$DW$116, DW_AT_decl_line(0x1f2)
    1548                            .dwattr $C$DW$116, DW_AT_decl_column(0x05)
    1549                    
    1550                    $C$DW$117       .dwtag  DW_TAG_enumerator
    1551                            .dwattr $C$DW$117, DW_AT_name("ApiMac_status_frameTooLong")
    1552                            .dwattr $C$DW$117, DW_AT_const_value(0xe5)
    1553                            .dwattr $C$DW$117, DW_AT_decl_file("C:/CCSWorkspace/ECG603/sensor_cc1350lp/Application/api_mac
    1554                            .dwattr $C$DW$117, DW_AT_decl_line(0x1f7)
    1555                            .dwattr $C$DW$117, DW_AT_decl_column(0x05)
    1556                    
    1557                    $C$DW$118       .dwtag  DW_TAG_enumerator
    1558                            .dwattr $C$DW$118, DW_AT_name("ApiMac_status_improperKeyType")
    1559                            .dwattr $C$DW$118, DW_AT_const_value(0xdc)
    1560                            .dwattr $C$DW$118, DW_AT_decl_file("C:/CCSWorkspace/ECG603/sensor_cc1350lp/Application/api_mac
    1561                            .dwattr $C$DW$118, DW_AT_decl_line(0x1fc)
    1562                            .dwattr $C$DW$118, DW_AT_decl_column(0x05)
    1563                    
    1564                    $C$DW$119       .dwtag  DW_TAG_enumerator
    1565                            .dwattr $C$DW$119, DW_AT_name("ApiMac_status_improperSecurityLevel")
    1566                            .dwattr $C$DW$119, DW_AT_const_value(0xdd)
    1567                            .dwattr $C$DW$119, DW_AT_decl_file("C:/CCSWorkspace/ECG603/sensor_cc1350lp/Application/api_mac
    1568                            .dwattr $C$DW$119, DW_AT_decl_line(0x201)
    1569                            .dwattr $C$DW$119, DW_AT_decl_column(0x05)
    1570                    
    1571                    $C$DW$120       .dwtag  DW_TAG_enumerator
    1572                            .dwattr $C$DW$120, DW_AT_name("ApiMac_status_invalidAddress")
    1573                            .dwattr $C$DW$120, DW_AT_const_value(0xf5)
    1574                            .dwattr $C$DW$120, DW_AT_decl_file("C:/CCSWorkspace/ECG603/sensor_cc1350lp/Application/api_mac
    1575                            .dwattr $C$DW$120, DW_AT_decl_line(0x206)
    1576                            .dwattr $C$DW$120, DW_AT_decl_column(0x05)
    1577                    
    1578                    $C$DW$121       .dwtag  DW_TAG_enumerator
    1579                            .dwattr $C$DW$121, DW_AT_name("ApiMac_status_invalidGts")
    1580                            .dwattr $C$DW$121, DW_AT_const_value(0xe6)
    1581                            .dwattr $C$DW$121, DW_AT_decl_file("C:/CCSWorkspace/ECG603/sensor_cc1350lp/Application/api_mac
    1582                            .dwattr $C$DW$121, DW_AT_decl_line(0x208)
    1583                            .dwattr $C$DW$121, DW_AT_decl_column(0x05)
    1584                    
    1585                    $C$DW$122       .dwtag  DW_TAG_enumerator
    1586                            .dwattr $C$DW$122, DW_AT_name("ApiMac_status_invalidHandle")
    1587                            .dwattr $C$DW$122, DW_AT_const_value(0xe7)
    1588                            .dwattr $C$DW$122, DW_AT_decl_file("C:/CCSWorkspace/ECG603/sensor_cc1350lp/Application/api_mac
    1589                            .dwattr $C$DW$122, DW_AT_decl_line(0x20a)
    1590                            .dwattr $C$DW$122, DW_AT_decl_column(0x05)
    1591                    
TI ARM Assembler PC v16.9.9 Sun Nov 25 17:19:51 2018

Tools Copyright (c) 1996-2017 Texas Instruments Incorporated
C:\Users\Stryd\AppData\Local\Temp\{7DA0ADB5-97D8-4466-9070-E3FE443B1FB8} PAGE   30

    1592                    $C$DW$123       .dwtag  DW_TAG_enumerator
    1593                            .dwattr $C$DW$123, DW_AT_name("ApiMac_status_invalidIndex")
    1594                            .dwattr $C$DW$123, DW_AT_const_value(0xf9)
    1595                            .dwattr $C$DW$123, DW_AT_decl_file("C:/CCSWorkspace/ECG603/sensor_cc1350lp/Application/api_mac
    1596                            .dwattr $C$DW$123, DW_AT_decl_line(0x20c)
    1597                            .dwattr $C$DW$123, DW_AT_decl_column(0x05)
    1598                    
    1599                    $C$DW$124       .dwtag  DW_TAG_enumerator
    1600                            .dwattr $C$DW$124, DW_AT_name("ApiMac_status_invalidParameter")
    1601                            .dwattr $C$DW$124, DW_AT_const_value(0xe8)
    1602                            .dwattr $C$DW$124, DW_AT_decl_file("C:/CCSWorkspace/ECG603/sensor_cc1350lp/Application/api_mac
    1603                            .dwattr $C$DW$124, DW_AT_decl_line(0x20e)
    1604                            .dwattr $C$DW$124, DW_AT_decl_column(0x05)
    1605                    
    1606                    $C$DW$125       .dwtag  DW_TAG_enumerator
    1607                            .dwattr $C$DW$125, DW_AT_name("ApiMac_status_limitReached")
    1608                            .dwattr $C$DW$125, DW_AT_const_value(0xfa)
    1609                            .dwattr $C$DW$125, DW_AT_decl_file("C:/CCSWorkspace/ECG603/sensor_cc1350lp/Application/api_mac
    1610                            .dwattr $C$DW$125, DW_AT_decl_line(0x213)
    1611                            .dwattr $C$DW$125, DW_AT_decl_column(0x05)
    1612                    
    1613                    $C$DW$126       .dwtag  DW_TAG_enumerator
    1614                            .dwattr $C$DW$126, DW_AT_name("ApiMac_status_noAck")
    1615                            .dwattr $C$DW$126, DW_AT_const_value(0xe9)
    1616                            .dwattr $C$DW$126, DW_AT_decl_file("C:/CCSWorkspace/ECG603/sensor_cc1350lp/Application/api_mac
    1617                            .dwattr $C$DW$126, DW_AT_decl_line(0x218)
    1618                            .dwattr $C$DW$126, DW_AT_decl_column(0x05)
    1619                    
    1620                    $C$DW$127       .dwtag  DW_TAG_enumerator
    1621                            .dwattr $C$DW$127, DW_AT_name("ApiMac_status_noBeacon")
    1622                            .dwattr $C$DW$127, DW_AT_const_value(0xea)
    1623                            .dwattr $C$DW$127, DW_AT_decl_file("C:/CCSWorkspace/ECG603/sensor_cc1350lp/Application/api_mac
    1624                            .dwattr $C$DW$127, DW_AT_decl_line(0x21d)
    1625                            .dwattr $C$DW$127, DW_AT_decl_column(0x05)
    1626                    
    1627                    $C$DW$128       .dwtag  DW_TAG_enumerator
    1628                            .dwattr $C$DW$128, DW_AT_name("ApiMac_status_noData")
    1629                            .dwattr $C$DW$128, DW_AT_const_value(0xeb)
    1630                            .dwattr $C$DW$128, DW_AT_decl_file("C:/CCSWorkspace/ECG603/sensor_cc1350lp/Application/api_mac
    1631                            .dwattr $C$DW$128, DW_AT_decl_line(0x222)
    1632                            .dwattr $C$DW$128, DW_AT_decl_column(0x05)
    1633                    
    1634                    $C$DW$129       .dwtag  DW_TAG_enumerator
    1635                            .dwattr $C$DW$129, DW_AT_name("ApiMac_status_noShortAddress")
    1636                            .dwattr $C$DW$129, DW_AT_const_value(0xec)
    1637                            .dwattr $C$DW$129, DW_AT_decl_file("C:/CCSWorkspace/ECG603/sensor_cc1350lp/Application/api_mac
    1638                            .dwattr $C$DW$129, DW_AT_decl_line(0x224)
    1639                            .dwattr $C$DW$129, DW_AT_decl_column(0x05)
    1640                    
    1641                    $C$DW$130       .dwtag  DW_TAG_enumerator
    1642                            .dwattr $C$DW$130, DW_AT_name("ApiMac_status_onTimeTooLong")
    1643                            .dwattr $C$DW$130, DW_AT_const_value(0xf6)
    1644                            .dwattr $C$DW$130, DW_AT_decl_file("C:/CCSWorkspace/ECG603/sensor_cc1350lp/Application/api_mac
    1645                            .dwattr $C$DW$130, DW_AT_decl_line(0x226)
    1646                            .dwattr $C$DW$130, DW_AT_decl_column(0x05)
TI ARM Assembler PC v16.9.9 Sun Nov 25 17:19:51 2018

Tools Copyright (c) 1996-2017 Texas Instruments Incorporated
C:\Users\Stryd\AppData\Local\Temp\{7DA0ADB5-97D8-4466-9070-E3FE443B1FB8} PAGE   31

    1647                    
    1648                    $C$DW$131       .dwtag  DW_TAG_enumerator
    1649                            .dwattr $C$DW$131, DW_AT_name("ApiMac_status_outOfCap")
    1650                            .dwattr $C$DW$131, DW_AT_const_value(0xed)
    1651                            .dwattr $C$DW$131, DW_AT_decl_file("C:/CCSWorkspace/ECG603/sensor_cc1350lp/Application/api_mac
    1652                            .dwattr $C$DW$131, DW_AT_decl_line(0x228)
    1653                            .dwattr $C$DW$131, DW_AT_decl_column(0x05)
    1654                    
    1655                    $C$DW$132       .dwtag  DW_TAG_enumerator
    1656                            .dwattr $C$DW$132, DW_AT_name("ApiMac_status_panIdConflict")
    1657                            .dwattr $C$DW$132, DW_AT_const_value(0xee)
    1658                            .dwattr $C$DW$132, DW_AT_decl_file("C:/CCSWorkspace/ECG603/sensor_cc1350lp/Application/api_mac
    1659                            .dwattr $C$DW$132, DW_AT_decl_line(0x22d)
    1660                            .dwattr $C$DW$132, DW_AT_decl_column(0x05)
    1661                    
    1662                    $C$DW$133       .dwtag  DW_TAG_enumerator
    1663                            .dwattr $C$DW$133, DW_AT_name("ApiMac_status_pastTime")
    1664                            .dwattr $C$DW$133, DW_AT_const_value(0xf7)
    1665                            .dwattr $C$DW$133, DW_AT_decl_file("C:/CCSWorkspace/ECG603/sensor_cc1350lp/Application/api_mac
    1666                            .dwattr $C$DW$133, DW_AT_decl_line(0x22f)
    1667                            .dwattr $C$DW$133, DW_AT_decl_column(0x05)
    1668                    
    1669                    $C$DW$134       .dwtag  DW_TAG_enumerator
    1670                            .dwattr $C$DW$134, DW_AT_name("ApiMac_status_readOnly")
    1671                            .dwattr $C$DW$134, DW_AT_const_value(0xfb)
    1672                            .dwattr $C$DW$134, DW_AT_decl_file("C:/CCSWorkspace/ECG603/sensor_cc1350lp/Application/api_mac
    1673                            .dwattr $C$DW$134, DW_AT_decl_line(0x231)
    1674                            .dwattr $C$DW$134, DW_AT_decl_column(0x05)
    1675                    
    1676                    $C$DW$135       .dwtag  DW_TAG_enumerator
    1677                            .dwattr $C$DW$135, DW_AT_name("ApiMac_status_realignment")
    1678                            .dwattr $C$DW$135, DW_AT_const_value(0xef)
    1679                            .dwattr $C$DW$135, DW_AT_decl_file("C:/CCSWorkspace/ECG603/sensor_cc1350lp/Application/api_mac
    1680                            .dwattr $C$DW$135, DW_AT_decl_line(0x233)
    1681                            .dwattr $C$DW$135, DW_AT_decl_column(0x05)
    1682                    
    1683                    $C$DW$136       .dwtag  DW_TAG_enumerator
    1684                            .dwattr $C$DW$136, DW_AT_name("ApiMac_status_scanInProgress")
    1685                            .dwattr $C$DW$136, DW_AT_const_value(0xfc)
    1686                            .dwattr $C$DW$136, DW_AT_decl_file("C:/CCSWorkspace/ECG603/sensor_cc1350lp/Application/api_mac
    1687                            .dwattr $C$DW$136, DW_AT_decl_line(0x235)
    1688                            .dwattr $C$DW$136, DW_AT_decl_column(0x05)
    1689                    
    1690                    $C$DW$137       .dwtag  DW_TAG_enumerator
    1691                            .dwattr $C$DW$137, DW_AT_name("ApiMac_status_securityError")
    1692                            .dwattr $C$DW$137, DW_AT_const_value(0xe4)
    1693                            .dwattr $C$DW$137, DW_AT_decl_file("C:/CCSWorkspace/ECG603/sensor_cc1350lp/Application/api_mac
    1694                            .dwattr $C$DW$137, DW_AT_decl_line(0x237)
    1695                            .dwattr $C$DW$137, DW_AT_decl_column(0x05)
    1696                    
    1697                    $C$DW$138       .dwtag  DW_TAG_enumerator
    1698                            .dwattr $C$DW$138, DW_AT_name("ApiMac_status_superframeOverlap")
    1699                            .dwattr $C$DW$138, DW_AT_const_value(0xfd)
    1700                            .dwattr $C$DW$138, DW_AT_decl_file("C:/CCSWorkspace/ECG603/sensor_cc1350lp/Application/api_mac
    1701                            .dwattr $C$DW$138, DW_AT_decl_line(0x239)
TI ARM Assembler PC v16.9.9 Sun Nov 25 17:19:51 2018

Tools Copyright (c) 1996-2017 Texas Instruments Incorporated
C:\Users\Stryd\AppData\Local\Temp\{7DA0ADB5-97D8-4466-9070-E3FE443B1FB8} PAGE   32

    1702                            .dwattr $C$DW$138, DW_AT_decl_column(0x05)
    1703                    
    1704                    $C$DW$139       .dwtag  DW_TAG_enumerator
    1705                            .dwattr $C$DW$139, DW_AT_name("ApiMac_status_trackingOff")
    1706                            .dwattr $C$DW$139, DW_AT_const_value(0xf8)
    1707                            .dwattr $C$DW$139, DW_AT_decl_file("C:/CCSWorkspace/ECG603/sensor_cc1350lp/Application/api_mac
    1708                            .dwattr $C$DW$139, DW_AT_decl_line(0x23e)
    1709                            .dwattr $C$DW$139, DW_AT_decl_column(0x05)
    1710                    
    1711                    $C$DW$140       .dwtag  DW_TAG_enumerator
    1712                            .dwattr $C$DW$140, DW_AT_name("ApiMac_status_transactionExpired")
    1713                            .dwattr $C$DW$140, DW_AT_const_value(0xf0)
    1714                            .dwattr $C$DW$140, DW_AT_decl_file("C:/CCSWorkspace/ECG603/sensor_cc1350lp/Application/api_mac
    1715                            .dwattr $C$DW$140, DW_AT_decl_line(0x244)
    1716                            .dwattr $C$DW$140, DW_AT_decl_column(0x05)
    1717                    
    1718                    $C$DW$141       .dwtag  DW_TAG_enumerator
    1719                            .dwattr $C$DW$141, DW_AT_name("ApiMac_status_transactionOverflow")
    1720                            .dwattr $C$DW$141, DW_AT_const_value(0xf1)
    1721                            .dwattr $C$DW$141, DW_AT_decl_file("C:/CCSWorkspace/ECG603/sensor_cc1350lp/Application/api_mac
    1722                            .dwattr $C$DW$141, DW_AT_decl_line(0x246)
    1723                            .dwattr $C$DW$141, DW_AT_decl_column(0x05)
    1724                    
    1725                    $C$DW$142       .dwtag  DW_TAG_enumerator
    1726                            .dwattr $C$DW$142, DW_AT_name("ApiMac_status_txActive")
    1727                            .dwattr $C$DW$142, DW_AT_const_value(0xf2)
    1728                            .dwattr $C$DW$142, DW_AT_decl_file("C:/CCSWorkspace/ECG603/sensor_cc1350lp/Application/api_mac
    1729                            .dwattr $C$DW$142, DW_AT_decl_line(0x248)
    1730                            .dwattr $C$DW$142, DW_AT_decl_column(0x05)
    1731                    
    1732                    $C$DW$143       .dwtag  DW_TAG_enumerator
    1733                            .dwattr $C$DW$143, DW_AT_name("ApiMac_status_unavailableKey")
    1734                            .dwattr $C$DW$143, DW_AT_const_value(0xf3)
    1735                            .dwattr $C$DW$143, DW_AT_decl_file("C:/CCSWorkspace/ECG603/sensor_cc1350lp/Application/api_mac
    1736                            .dwattr $C$DW$143, DW_AT_decl_line(0x24d)
    1737                            .dwattr $C$DW$143, DW_AT_decl_column(0x05)
    1738                    
    1739                    $C$DW$144       .dwtag  DW_TAG_enumerator
    1740                            .dwattr $C$DW$144, DW_AT_name("ApiMac_status_unsupportedAttribute")
    1741                            .dwattr $C$DW$144, DW_AT_const_value(0xf4)
    1742                            .dwattr $C$DW$144, DW_AT_decl_file("C:/CCSWorkspace/ECG603/sensor_cc1350lp/Application/api_mac
    1743                            .dwattr $C$DW$144, DW_AT_decl_line(0x24f)
    1744                            .dwattr $C$DW$144, DW_AT_decl_column(0x05)
    1745                    
    1746                    $C$DW$145       .dwtag  DW_TAG_enumerator
    1747                            .dwattr $C$DW$145, DW_AT_name("ApiMac_status_unsupportedLegacy")
    1748                            .dwattr $C$DW$145, DW_AT_const_value(0xde)
    1749                            .dwattr $C$DW$145, DW_AT_decl_file("C:/CCSWorkspace/ECG603/sensor_cc1350lp/Application/api_mac
    1750                            .dwattr $C$DW$145, DW_AT_decl_line(0x254)
    1751                            .dwattr $C$DW$145, DW_AT_decl_column(0x05)
    1752                    
    1753                    $C$DW$146       .dwtag  DW_TAG_enumerator
    1754                            .dwattr $C$DW$146, DW_AT_name("ApiMac_status_unsupportedSecurity")
    1755                            .dwattr $C$DW$146, DW_AT_const_value(0xdf)
    1756                            .dwattr $C$DW$146, DW_AT_decl_file("C:/CCSWorkspace/ECG603/sensor_cc1350lp/Application/api_mac
TI ARM Assembler PC v16.9.9 Sun Nov 25 17:19:51 2018

Tools Copyright (c) 1996-2017 Texas Instruments Incorporated
C:\Users\Stryd\AppData\Local\Temp\{7DA0ADB5-97D8-4466-9070-E3FE443B1FB8} PAGE   33

    1757                            .dwattr $C$DW$146, DW_AT_decl_line(0x256)
    1758                            .dwattr $C$DW$146, DW_AT_decl_column(0x05)
    1759                    
    1760                    $C$DW$147       .dwtag  DW_TAG_enumerator
    1761                            .dwattr $C$DW$147, DW_AT_name("ApiMac_status_unsupported")
    1762                            .dwattr $C$DW$147, DW_AT_const_value(0x18)
    1763                            .dwattr $C$DW$147, DW_AT_decl_file("C:/CCSWorkspace/ECG603/sensor_cc1350lp/Application/api_mac
    1764                            .dwattr $C$DW$147, DW_AT_decl_line(0x258)
    1765                            .dwattr $C$DW$147, DW_AT_decl_column(0x05)
    1766                    
    1767                    $C$DW$148       .dwtag  DW_TAG_enumerator
    1768                            .dwattr $C$DW$148, DW_AT_name("ApiMac_status_badState")
    1769                            .dwattr $C$DW$148, DW_AT_const_value(0x19)
    1770                            .dwattr $C$DW$148, DW_AT_decl_file("C:/CCSWorkspace/ECG603/sensor_cc1350lp/Application/api_mac
    1771                            .dwattr $C$DW$148, DW_AT_decl_line(0x25a)
    1772                            .dwattr $C$DW$148, DW_AT_decl_column(0x05)
    1773                    
    1774                    $C$DW$149       .dwtag  DW_TAG_enumerator
    1775                            .dwattr $C$DW$149, DW_AT_name("ApiMac_status_noResources")
    1776                            .dwattr $C$DW$149, DW_AT_const_value(0x1a)
    1777                            .dwattr $C$DW$149, DW_AT_decl_file("C:/CCSWorkspace/ECG603/sensor_cc1350lp/Application/api_mac
    1778                            .dwattr $C$DW$149, DW_AT_decl_line(0x25f)
    1779                            .dwattr $C$DW$149, DW_AT_decl_column(0x05)
    1780                    
    1781                    $C$DW$150       .dwtag  DW_TAG_enumerator
    1782                            .dwattr $C$DW$150, DW_AT_name("ApiMac_status_ackPending")
    1783                            .dwattr $C$DW$150, DW_AT_const_value(0x1b)
    1784                            .dwattr $C$DW$150, DW_AT_decl_file("C:/CCSWorkspace/ECG603/sensor_cc1350lp/Application/api_mac
    1785                            .dwattr $C$DW$150, DW_AT_decl_line(0x261)
    1786                            .dwattr $C$DW$150, DW_AT_decl_column(0x05)
    1787                    
    1788                    $C$DW$151       .dwtag  DW_TAG_enumerator
    1789                            .dwattr $C$DW$151, DW_AT_name("ApiMac_status_noTime")
    1790                            .dwattr $C$DW$151, DW_AT_const_value(0x1c)
    1791                            .dwattr $C$DW$151, DW_AT_decl_file("C:/CCSWorkspace/ECG603/sensor_cc1350lp/Application/api_mac
    1792                            .dwattr $C$DW$151, DW_AT_decl_line(0x263)
    1793                            .dwattr $C$DW$151, DW_AT_decl_column(0x05)
    1794                    
    1795                    $C$DW$152       .dwtag  DW_TAG_enumerator
    1796                            .dwattr $C$DW$152, DW_AT_name("ApiMac_status_txAborted")
    1797                            .dwattr $C$DW$152, DW_AT_const_value(0x1d)
    1798                            .dwattr $C$DW$152, DW_AT_decl_file("C:/CCSWorkspace/ECG603/sensor_cc1350lp/Application/api_mac
    1799                            .dwattr $C$DW$152, DW_AT_decl_line(0x265)
    1800                            .dwattr $C$DW$152, DW_AT_decl_column(0x05)
    1801                    
    1802                    $C$DW$153       .dwtag  DW_TAG_enumerator
    1803                            .dwattr $C$DW$153, DW_AT_name("ApiMac_status_duplicateEntry")
    1804                            .dwattr $C$DW$153, DW_AT_const_value(0x1e)
    1805                            .dwattr $C$DW$153, DW_AT_decl_file("C:/CCSWorkspace/ECG603/sensor_cc1350lp/Application/api_mac
    1806                            .dwattr $C$DW$153, DW_AT_decl_line(0x26a)
    1807                            .dwattr $C$DW$153, DW_AT_decl_column(0x05)
    1808                    
    1809                    $C$DW$154       .dwtag  DW_TAG_enumerator
    1810                            .dwattr $C$DW$154, DW_AT_name("ApiMac_status_fhError")
    1811                            .dwattr $C$DW$154, DW_AT_const_value(0x61)
TI ARM Assembler PC v16.9.9 Sun Nov 25 17:19:51 2018

Tools Copyright (c) 1996-2017 Texas Instruments Incorporated
C:\Users\Stryd\AppData\Local\Temp\{7DA0ADB5-97D8-4466-9070-E3FE443B1FB8} PAGE   34

    1812                            .dwattr $C$DW$154, DW_AT_decl_file("C:/CCSWorkspace/ECG603/sensor_cc1350lp/Application/api_mac
    1813                            .dwattr $C$DW$154, DW_AT_decl_line(0x26c)
    1814                            .dwattr $C$DW$154, DW_AT_decl_column(0x05)
    1815                    
    1816                    $C$DW$155       .dwtag  DW_TAG_enumerator
    1817                            .dwattr $C$DW$155, DW_AT_name("ApiMac_status_fhIeNotSupported")
    1818                            .dwattr $C$DW$155, DW_AT_const_value(0x62)
    1819                            .dwattr $C$DW$155, DW_AT_decl_file("C:/CCSWorkspace/ECG603/sensor_cc1350lp/Application/api_mac
    1820                            .dwattr $C$DW$155, DW_AT_decl_line(0x26e)
    1821                            .dwattr $C$DW$155, DW_AT_decl_column(0x05)
    1822                    
    1823                    $C$DW$156       .dwtag  DW_TAG_enumerator
    1824                            .dwattr $C$DW$156, DW_AT_name("ApiMac_status_fhNotInAsync")
    1825                            .dwattr $C$DW$156, DW_AT_const_value(0x63)
    1826                            .dwattr $C$DW$156, DW_AT_decl_file("C:/CCSWorkspace/ECG603/sensor_cc1350lp/Application/api_mac
    1827                            .dwattr $C$DW$156, DW_AT_decl_line(0x270)
    1828                            .dwattr $C$DW$156, DW_AT_decl_column(0x05)
    1829                    
    1830                    $C$DW$157       .dwtag  DW_TAG_enumerator
    1831                            .dwattr $C$DW$157, DW_AT_name("ApiMac_status_fhNotInNeighborTable")
    1832                            .dwattr $C$DW$157, DW_AT_const_value(0x64)
    1833                            .dwattr $C$DW$157, DW_AT_decl_file("C:/CCSWorkspace/ECG603/sensor_cc1350lp/Application/api_mac
    1834                            .dwattr $C$DW$157, DW_AT_decl_line(0x272)
    1835                            .dwattr $C$DW$157, DW_AT_decl_column(0x05)
    1836                    
    1837                    $C$DW$158       .dwtag  DW_TAG_enumerator
    1838                            .dwattr $C$DW$158, DW_AT_name("ApiMac_status_fhOutSlot")
    1839                            .dwattr $C$DW$158, DW_AT_const_value(0x65)
    1840                            .dwattr $C$DW$158, DW_AT_decl_file("C:/CCSWorkspace/ECG603/sensor_cc1350lp/Application/api_mac
    1841                            .dwattr $C$DW$158, DW_AT_decl_line(0x274)
    1842                            .dwattr $C$DW$158, DW_AT_decl_column(0x05)
    1843                    
    1844                    $C$DW$159       .dwtag  DW_TAG_enumerator
    1845                            .dwattr $C$DW$159, DW_AT_name("ApiMac_status_fhInvalidAddress")
    1846                            .dwattr $C$DW$159, DW_AT_const_value(0x66)
    1847                            .dwattr $C$DW$159, DW_AT_decl_file("C:/CCSWorkspace/ECG603/sensor_cc1350lp/Application/api_mac
    1848                            .dwattr $C$DW$159, DW_AT_decl_line(0x276)
    1849                            .dwattr $C$DW$159, DW_AT_decl_column(0x05)
    1850                    
    1851                    $C$DW$160       .dwtag  DW_TAG_enumerator
    1852                            .dwattr $C$DW$160, DW_AT_name("ApiMac_status_fhIeFormatInvalid")
    1853                            .dwattr $C$DW$160, DW_AT_const_value(0x67)
    1854                            .dwattr $C$DW$160, DW_AT_decl_file("C:/CCSWorkspace/ECG603/sensor_cc1350lp/Application/api_mac
    1855                            .dwattr $C$DW$160, DW_AT_decl_line(0x278)
    1856                            .dwattr $C$DW$160, DW_AT_decl_column(0x05)
    1857                    
    1858                    $C$DW$161       .dwtag  DW_TAG_enumerator
    1859                            .dwattr $C$DW$161, DW_AT_name("ApiMac_status_fhPibNotSupported")
    1860                            .dwattr $C$DW$161, DW_AT_const_value(0x68)
    1861                            .dwattr $C$DW$161, DW_AT_decl_file("C:/CCSWorkspace/ECG603/sensor_cc1350lp/Application/api_mac
    1862                            .dwattr $C$DW$161, DW_AT_decl_line(0x27a)
    1863                            .dwattr $C$DW$161, DW_AT_decl_column(0x05)
    1864                    
    1865                    $C$DW$162       .dwtag  DW_TAG_enumerator
    1866                            .dwattr $C$DW$162, DW_AT_name("ApiMac_status_fhPibReadOnly")
TI ARM Assembler PC v16.9.9 Sun Nov 25 17:19:51 2018

Tools Copyright (c) 1996-2017 Texas Instruments Incorporated
C:\Users\Stryd\AppData\Local\Temp\{7DA0ADB5-97D8-4466-9070-E3FE443B1FB8} PAGE   35

    1867                            .dwattr $C$DW$162, DW_AT_const_value(0x69)
    1868                            .dwattr $C$DW$162, DW_AT_decl_file("C:/CCSWorkspace/ECG603/sensor_cc1350lp/Application/api_mac
    1869                            .dwattr $C$DW$162, DW_AT_decl_line(0x27c)
    1870                            .dwattr $C$DW$162, DW_AT_decl_column(0x05)
    1871                    
    1872                    $C$DW$163       .dwtag  DW_TAG_enumerator
    1873                            .dwattr $C$DW$163, DW_AT_name("ApiMac_status_fhPibInvalidParameter")
    1874                            .dwattr $C$DW$163, DW_AT_const_value(0x6a)
    1875                            .dwattr $C$DW$163, DW_AT_decl_file("C:/CCSWorkspace/ECG603/sensor_cc1350lp/Application/api_mac
    1876                            .dwattr $C$DW$163, DW_AT_decl_line(0x27e)
    1877                            .dwattr $C$DW$163, DW_AT_decl_column(0x05)
    1878                    
    1879                    $C$DW$164       .dwtag  DW_TAG_enumerator
    1880                            .dwattr $C$DW$164, DW_AT_name("ApiMac_status_fhInvalidFrameType")
    1881                            .dwattr $C$DW$164, DW_AT_const_value(0x6b)
    1882                            .dwattr $C$DW$164, DW_AT_decl_file("C:/CCSWorkspace/ECG603/sensor_cc1350lp/Application/api_mac
    1883                            .dwattr $C$DW$164, DW_AT_decl_line(0x280)
    1884                            .dwattr $C$DW$164, DW_AT_decl_column(0x05)
    1885                    
    1886                    $C$DW$165       .dwtag  DW_TAG_enumerator
    1887                            .dwattr $C$DW$165, DW_AT_name("ApiMac_status_fhExpiredNode")
    1888                            .dwattr $C$DW$165, DW_AT_const_value(0x6c)
    1889                            .dwattr $C$DW$165, DW_AT_decl_file("C:/CCSWorkspace/ECG603/sensor_cc1350lp/Application/api_mac
    1890                            .dwattr $C$DW$165, DW_AT_decl_line(0x282)
    1891                            .dwattr $C$DW$165, DW_AT_decl_column(0x05)
    1892                    
    1893                    $C$DW$166       .dwtag  DW_TAG_enumerator
    1894                            .dwattr $C$DW$166, DW_AT_name("ApiMac_status_fhNoPatch")
    1895                            .dwattr $C$DW$166, DW_AT_const_value(0x6d)
    1896                            .dwattr $C$DW$166, DW_AT_decl_file("C:/CCSWorkspace/ECG603/sensor_cc1350lp/Application/api_mac
    1897                            .dwattr $C$DW$166, DW_AT_decl_line(0x284)
    1898                            .dwattr $C$DW$166, DW_AT_decl_column(0x05)
    1899                    
    1900                            .dwattr $C$DW$T$340, DW_AT_decl_file("C:/CCSWorkspace/ECG603/sensor_cc1350lp/Application/api_m
    1901                            .dwattr $C$DW$T$340, DW_AT_decl_line(0x1d5)
    1902                            .dwattr $C$DW$T$340, DW_AT_decl_column(0x01)
    1903                            .dwendtag $C$DW$T$340
    1904                    
    1905                    $C$DW$T$341     .dwtag  DW_TAG_typedef
    1906                            .dwattr $C$DW$T$341, DW_AT_name("ApiMac_status_t")
    1907                            .dwattr $C$DW$T$341, DW_AT_type(*$C$DW$T$340)
    1908                            .dwattr $C$DW$T$341, DW_AT_language(DW_LANG_C)
    1909                            .dwattr $C$DW$T$341, DW_AT_decl_file("C:/CCSWorkspace/ECG603/sensor_cc1350lp/Application/api_m
    1910                            .dwattr $C$DW$T$341, DW_AT_decl_line(0x285)
    1911                            .dwattr $C$DW$T$341, DW_AT_decl_column(0x03)
    1912                    
    1913                    
    1914                    $C$DW$T$344     .dwtag  DW_TAG_enumeration_type
    1915                            .dwattr $C$DW$T$344, DW_AT_byte_size(0x01)
    1916                    $C$DW$167       .dwtag  DW_TAG_enumerator
    1917                            .dwattr $C$DW$167, DW_AT_name("ApiMac_fhFrameType_panAdvert")
    1918                            .dwattr $C$DW$167, DW_AT_const_value(0x00)
    1919                            .dwattr $C$DW$167, DW_AT_decl_file("C:/CCSWorkspace/ECG603/sensor_cc1350lp/Application/api_mac
    1920                            .dwattr $C$DW$167, DW_AT_decl_line(0x44a)
    1921                            .dwattr $C$DW$167, DW_AT_decl_column(0x05)
TI ARM Assembler PC v16.9.9 Sun Nov 25 17:19:51 2018

Tools Copyright (c) 1996-2017 Texas Instruments Incorporated
C:\Users\Stryd\AppData\Local\Temp\{7DA0ADB5-97D8-4466-9070-E3FE443B1FB8} PAGE   36

    1922                    
    1923                    $C$DW$168       .dwtag  DW_TAG_enumerator
    1924                            .dwattr $C$DW$168, DW_AT_name("ApiMac_fhFrameType_panAdvertSolicit")
    1925                            .dwattr $C$DW$168, DW_AT_const_value(0x01)
    1926                            .dwattr $C$DW$168, DW_AT_decl_file("C:/CCSWorkspace/ECG603/sensor_cc1350lp/Application/api_mac
    1927                            .dwattr $C$DW$168, DW_AT_decl_line(0x44c)
    1928                            .dwattr $C$DW$168, DW_AT_decl_column(0x05)
    1929                    
    1930                    $C$DW$169       .dwtag  DW_TAG_enumerator
    1931                            .dwattr $C$DW$169, DW_AT_name("ApiMac_fhFrameType_config")
    1932                            .dwattr $C$DW$169, DW_AT_const_value(0x02)
    1933                            .dwattr $C$DW$169, DW_AT_decl_file("C:/CCSWorkspace/ECG603/sensor_cc1350lp/Application/api_mac
    1934                            .dwattr $C$DW$169, DW_AT_decl_line(0x44e)
    1935                            .dwattr $C$DW$169, DW_AT_decl_column(0x05)
    1936                    
    1937                    $C$DW$170       .dwtag  DW_TAG_enumerator
    1938                            .dwattr $C$DW$170, DW_AT_name("ApiMac_fhFrameType_configSolicit")
    1939                            .dwattr $C$DW$170, DW_AT_const_value(0x03)
    1940                            .dwattr $C$DW$170, DW_AT_decl_file("C:/CCSWorkspace/ECG603/sensor_cc1350lp/Application/api_mac
    1941                            .dwattr $C$DW$170, DW_AT_decl_line(0x450)
    1942                            .dwattr $C$DW$170, DW_AT_decl_column(0x05)
    1943                    
    1944                    $C$DW$171       .dwtag  DW_TAG_enumerator
    1945                            .dwattr $C$DW$171, DW_AT_name("ApiMac_fhFrameType_data")
    1946                            .dwattr $C$DW$171, DW_AT_const_value(0x04)
    1947                            .dwattr $C$DW$171, DW_AT_decl_file("C:/CCSWorkspace/ECG603/sensor_cc1350lp/Application/api_mac
    1948                            .dwattr $C$DW$171, DW_AT_decl_line(0x452)
    1949                            .dwattr $C$DW$171, DW_AT_decl_column(0x05)
    1950                    
    1951                    $C$DW$172       .dwtag  DW_TAG_enumerator
    1952                            .dwattr $C$DW$172, DW_AT_name("ApiMac_fhFrameType_ack")
    1953                            .dwattr $C$DW$172, DW_AT_const_value(0x05)
    1954                            .dwattr $C$DW$172, DW_AT_decl_file("C:/CCSWorkspace/ECG603/sensor_cc1350lp/Application/api_mac
    1955                            .dwattr $C$DW$172, DW_AT_decl_line(0x454)
    1956                            .dwattr $C$DW$172, DW_AT_decl_column(0x05)
    1957                    
    1958                    $C$DW$173       .dwtag  DW_TAG_enumerator
    1959                            .dwattr $C$DW$173, DW_AT_name("ApiMac_fhFrameType_eapol")
    1960                            .dwattr $C$DW$173, DW_AT_const_value(0x06)
    1961                            .dwattr $C$DW$173, DW_AT_decl_file("C:/CCSWorkspace/ECG603/sensor_cc1350lp/Application/api_mac
    1962                            .dwattr $C$DW$173, DW_AT_decl_line(0x456)
    1963                            .dwattr $C$DW$173, DW_AT_decl_column(0x05)
    1964                    
    1965                    $C$DW$174       .dwtag  DW_TAG_enumerator
    1966                            .dwattr $C$DW$174, DW_AT_name("ApiMac_fhFrameType_invalid")
    1967                            .dwattr $C$DW$174, DW_AT_const_value(0xff)
    1968                            .dwattr $C$DW$174, DW_AT_decl_file("C:/CCSWorkspace/ECG603/sensor_cc1350lp/Application/api_mac
    1969                            .dwattr $C$DW$174, DW_AT_decl_line(0x458)
    1970                            .dwattr $C$DW$174, DW_AT_decl_column(0x05)
    1971                    
    1972                            .dwattr $C$DW$T$344, DW_AT_decl_file("C:/CCSWorkspace/ECG603/sensor_cc1350lp/Application/api_m
    1973                            .dwattr $C$DW$T$344, DW_AT_decl_line(0x448)
    1974                            .dwattr $C$DW$T$344, DW_AT_decl_column(0x01)
    1975                            .dwendtag $C$DW$T$344
    1976                    
TI ARM Assembler PC v16.9.9 Sun Nov 25 17:19:51 2018

Tools Copyright (c) 1996-2017 Texas Instruments Incorporated
C:\Users\Stryd\AppData\Local\Temp\{7DA0ADB5-97D8-4466-9070-E3FE443B1FB8} PAGE   37

    1977                    $C$DW$T$345     .dwtag  DW_TAG_typedef
    1978                            .dwattr $C$DW$T$345, DW_AT_name("ApiMac_fhFrameType_t")
    1979                            .dwattr $C$DW$T$345, DW_AT_type(*$C$DW$T$344)
    1980                            .dwattr $C$DW$T$345, DW_AT_language(DW_LANG_C)
    1981                            .dwattr $C$DW$T$345, DW_AT_decl_file("C:/CCSWorkspace/ECG603/sensor_cc1350lp/Application/api_m
    1982                            .dwattr $C$DW$T$345, DW_AT_decl_line(0x459)
    1983                            .dwattr $C$DW$T$345, DW_AT_decl_column(0x03)
    1984                    
    1985                    
    1986                    $C$DW$T$346     .dwtag  DW_TAG_enumeration_type
    1987                            .dwattr $C$DW$T$346, DW_AT_byte_size(0x01)
    1988                    $C$DW$175       .dwtag  DW_TAG_enumerator
    1989                            .dwattr $C$DW$175, DW_AT_name("ApiMac_fhDispatchType_none")
    1990                            .dwattr $C$DW$175, DW_AT_const_value(0x00)
    1991                            .dwattr $C$DW$175, DW_AT_decl_file("C:/CCSWorkspace/ECG603/sensor_cc1350lp/Application/api_mac
    1992                            .dwattr $C$DW$175, DW_AT_decl_line(0x4c0)
    1993                            .dwattr $C$DW$175, DW_AT_decl_column(0x05)
    1994                    
    1995                    $C$DW$176       .dwtag  DW_TAG_enumerator
    1996                            .dwattr $C$DW$176, DW_AT_name("ApiMac_fhDispatchType_MHD_PDU")
    1997                            .dwattr $C$DW$176, DW_AT_const_value(0x01)
    1998                            .dwattr $C$DW$176, DW_AT_decl_file("C:/CCSWorkspace/ECG603/sensor_cc1350lp/Application/api_mac
    1999                            .dwattr $C$DW$176, DW_AT_decl_line(0x4c2)
    2000                            .dwattr $C$DW$176, DW_AT_decl_column(0x05)
    2001                    
    2002                    $C$DW$177       .dwtag  DW_TAG_enumerator
    2003                            .dwattr $C$DW$177, DW_AT_name("ApiMac_fhDispatchType_6LowPAN")
    2004                            .dwattr $C$DW$177, DW_AT_const_value(0x02)
    2005                            .dwattr $C$DW$177, DW_AT_decl_file("C:/CCSWorkspace/ECG603/sensor_cc1350lp/Application/api_mac
    2006                            .dwattr $C$DW$177, DW_AT_decl_line(0x4c4)
    2007                            .dwattr $C$DW$177, DW_AT_decl_column(0x05)
    2008                    
    2009                            .dwattr $C$DW$T$346, DW_AT_decl_file("C:/CCSWorkspace/ECG603/sensor_cc1350lp/Application/api_m
    2010                            .dwattr $C$DW$T$346, DW_AT_decl_line(0x4be)
    2011                            .dwattr $C$DW$T$346, DW_AT_decl_column(0x01)
    2012                            .dwendtag $C$DW$T$346
    2013                    
    2014                    $C$DW$T$347     .dwtag  DW_TAG_typedef
    2015                            .dwattr $C$DW$T$347, DW_AT_name("ApiMac_fhDispatchType_t")
    2016                            .dwattr $C$DW$T$347, DW_AT_type(*$C$DW$T$346)
    2017                            .dwattr $C$DW$T$347, DW_AT_language(DW_LANG_C)
    2018                            .dwattr $C$DW$T$347, DW_AT_decl_file("C:/CCSWorkspace/ECG603/sensor_cc1350lp/Application/api_m
    2019                            .dwattr $C$DW$T$347, DW_AT_decl_line(0x4c5)
    2020                            .dwattr $C$DW$T$347, DW_AT_decl_column(0x03)
    2021                    
    2022                    
    2023                    $C$DW$T$353     .dwtag  DW_TAG_enumeration_type
    2024                            .dwattr $C$DW$T$353, DW_AT_byte_size(0x01)
    2025                    $C$DW$178       .dwtag  DW_TAG_enumerator
    2026                            .dwattr $C$DW$178, DW_AT_name("ApiMac_assocStatus_success")
    2027                            .dwattr $C$DW$178, DW_AT_const_value(0x00)
    2028                            .dwattr $C$DW$178, DW_AT_decl_file("C:/CCSWorkspace/ECG603/sensor_cc1350lp/Application/api_mac
    2029                            .dwattr $C$DW$178, DW_AT_decl_line(0x19c)
    2030                            .dwattr $C$DW$178, DW_AT_decl_column(0x05)
    2031                    
TI ARM Assembler PC v16.9.9 Sun Nov 25 17:19:51 2018

Tools Copyright (c) 1996-2017 Texas Instruments Incorporated
C:\Users\Stryd\AppData\Local\Temp\{7DA0ADB5-97D8-4466-9070-E3FE443B1FB8} PAGE   38

    2032                    $C$DW$179       .dwtag  DW_TAG_enumerator
    2033                            .dwattr $C$DW$179, DW_AT_name("ApiMac_assocStatus_panAtCapacity")
    2034                            .dwattr $C$DW$179, DW_AT_const_value(0x01)
    2035                            .dwattr $C$DW$179, DW_AT_decl_file("C:/CCSWorkspace/ECG603/sensor_cc1350lp/Application/api_mac
    2036                            .dwattr $C$DW$179, DW_AT_decl_line(0x19e)
    2037                            .dwattr $C$DW$179, DW_AT_decl_column(0x05)
    2038                    
    2039                    $C$DW$180       .dwtag  DW_TAG_enumerator
    2040                            .dwattr $C$DW$180, DW_AT_name("ApiMac_assocStatus_panAccessDenied")
    2041                            .dwattr $C$DW$180, DW_AT_const_value(0x02)
    2042                            .dwattr $C$DW$180, DW_AT_decl_file("C:/CCSWorkspace/ECG603/sensor_cc1350lp/Application/api_mac
    2043                            .dwattr $C$DW$180, DW_AT_decl_line(0x1a0)
    2044                            .dwattr $C$DW$180, DW_AT_decl_column(0x05)
    2045                    
    2046                            .dwattr $C$DW$T$353, DW_AT_decl_file("C:/CCSWorkspace/ECG603/sensor_cc1350lp/Application/api_m
    2047                            .dwattr $C$DW$T$353, DW_AT_decl_line(0x19a)
    2048                            .dwattr $C$DW$T$353, DW_AT_decl_column(0x01)
    2049                            .dwendtag $C$DW$T$353
    2050                    
    2051                    $C$DW$T$354     .dwtag  DW_TAG_typedef
    2052                            .dwattr $C$DW$T$354, DW_AT_name("ApiMac_assocStatus_t")
    2053                            .dwattr $C$DW$T$354, DW_AT_type(*$C$DW$T$353)
    2054                            .dwattr $C$DW$T$354, DW_AT_language(DW_LANG_C)
    2055                            .dwattr $C$DW$T$354, DW_AT_decl_file("C:/CCSWorkspace/ECG603/sensor_cc1350lp/Application/api_m
    2056                            .dwattr $C$DW$T$354, DW_AT_decl_line(0x1a1)
    2057                            .dwattr $C$DW$T$354, DW_AT_decl_column(0x03)
    2058                    
    2059                    
    2060                    $C$DW$T$358     .dwtag  DW_TAG_enumeration_type
    2061                            .dwattr $C$DW$T$358, DW_AT_byte_size(0x01)
    2062                    $C$DW$181       .dwtag  DW_TAG_enumerator
    2063                            .dwattr $C$DW$181, DW_AT_name("ApiMac_commStatusReason_assocRsp")
    2064                            .dwattr $C$DW$181, DW_AT_const_value(0x00)
    2065                            .dwattr $C$DW$181, DW_AT_decl_file("C:/CCSWorkspace/ECG603/sensor_cc1350lp/Application/api_mac
    2066                            .dwattr $C$DW$181, DW_AT_decl_line(0x1c8)
    2067                            .dwattr $C$DW$181, DW_AT_decl_column(0x05)
    2068                    
    2069                    $C$DW$182       .dwtag  DW_TAG_enumerator
    2070                            .dwattr $C$DW$182, DW_AT_name("ApiMac_commStatusReason_orphanRsp")
    2071                            .dwattr $C$DW$182, DW_AT_const_value(0x01)
    2072                            .dwattr $C$DW$182, DW_AT_decl_file("C:/CCSWorkspace/ECG603/sensor_cc1350lp/Application/api_mac
    2073                            .dwattr $C$DW$182, DW_AT_decl_line(0x1cc)
    2074                            .dwattr $C$DW$182, DW_AT_decl_column(0x05)
    2075                    
    2076                    $C$DW$183       .dwtag  DW_TAG_enumerator
    2077                            .dwattr $C$DW$183, DW_AT_name("ApiMac_commStatusReason_rxSecure")
    2078                            .dwattr $C$DW$183, DW_AT_const_value(0x02)
    2079                            .dwattr $C$DW$183, DW_AT_decl_file("C:/CCSWorkspace/ECG603/sensor_cc1350lp/Application/api_mac
    2080                            .dwattr $C$DW$183, DW_AT_decl_line(0x1d0)
    2081                            .dwattr $C$DW$183, DW_AT_decl_column(0x05)
    2082                    
    2083                            .dwattr $C$DW$T$358, DW_AT_decl_file("C:/CCSWorkspace/ECG603/sensor_cc1350lp/Application/api_m
    2084                            .dwattr $C$DW$T$358, DW_AT_decl_line(0x1c4)
    2085                            .dwattr $C$DW$T$358, DW_AT_decl_column(0x01)
    2086                            .dwendtag $C$DW$T$358
TI ARM Assembler PC v16.9.9 Sun Nov 25 17:19:51 2018

Tools Copyright (c) 1996-2017 Texas Instruments Incorporated
C:\Users\Stryd\AppData\Local\Temp\{7DA0ADB5-97D8-4466-9070-E3FE443B1FB8} PAGE   39

    2087                    
    2088                    $C$DW$T$359     .dwtag  DW_TAG_typedef
    2089                            .dwattr $C$DW$T$359, DW_AT_name("ApiMac_commStatusReason_t")
    2090                            .dwattr $C$DW$T$359, DW_AT_type(*$C$DW$T$358)
    2091                            .dwattr $C$DW$T$359, DW_AT_language(DW_LANG_C)
    2092                            .dwattr $C$DW$T$359, DW_AT_decl_file("C:/CCSWorkspace/ECG603/sensor_cc1350lp/Application/api_m
    2093                            .dwattr $C$DW$T$359, DW_AT_decl_line(0x1d1)
    2094                            .dwattr $C$DW$T$359, DW_AT_decl_column(0x03)
    2095                    
    2096                    
    2097                    $C$DW$T$362     .dwtag  DW_TAG_enumeration_type
    2098                            .dwattr $C$DW$T$362, DW_AT_byte_size(0x01)
    2099                    $C$DW$184       .dwtag  DW_TAG_enumerator
    2100                            .dwattr $C$DW$184, DW_AT_name("ApiMac_disassocateReason_coord")
    2101                            .dwattr $C$DW$184, DW_AT_const_value(0x01)
    2102                            .dwattr $C$DW$184, DW_AT_decl_file("C:/CCSWorkspace/ECG603/sensor_cc1350lp/Application/api_mac
    2103                            .dwattr $C$DW$184, DW_AT_decl_line(0x1bd)
    2104                            .dwattr $C$DW$184, DW_AT_decl_column(0x05)
    2105                    
    2106                    $C$DW$185       .dwtag  DW_TAG_enumerator
    2107                            .dwattr $C$DW$185, DW_AT_name("ApiMac_disassocateReason_device")
    2108                            .dwattr $C$DW$185, DW_AT_const_value(0x02)
    2109                            .dwattr $C$DW$185, DW_AT_decl_file("C:/CCSWorkspace/ECG603/sensor_cc1350lp/Application/api_mac
    2110                            .dwattr $C$DW$185, DW_AT_decl_line(0x1bf)
    2111                            .dwattr $C$DW$185, DW_AT_decl_column(0x05)
    2112                    
    2113                            .dwattr $C$DW$T$362, DW_AT_decl_file("C:/CCSWorkspace/ECG603/sensor_cc1350lp/Application/api_m
    2114                            .dwattr $C$DW$T$362, DW_AT_decl_line(0x1bb)
    2115                            .dwattr $C$DW$T$362, DW_AT_decl_column(0x01)
    2116                            .dwendtag $C$DW$T$362
    2117                    
    2118                    $C$DW$T$363     .dwtag  DW_TAG_typedef
    2119                            .dwattr $C$DW$T$363, DW_AT_name("ApiMac_disassocateReason_t")
    2120                            .dwattr $C$DW$T$363, DW_AT_type(*$C$DW$T$362)
    2121                            .dwattr $C$DW$T$363, DW_AT_language(DW_LANG_C)
    2122                            .dwattr $C$DW$T$363, DW_AT_decl_file("C:/CCSWorkspace/ECG603/sensor_cc1350lp/Application/api_m
    2123                            .dwattr $C$DW$T$363, DW_AT_decl_line(0x1c0)
    2124                            .dwattr $C$DW$T$363, DW_AT_decl_column(0x03)
    2125                    
    2126                    
    2127                    $C$DW$T$371     .dwtag  DW_TAG_enumeration_type
    2128                            .dwattr $C$DW$T$371, DW_AT_byte_size(0x01)
    2129                    $C$DW$186       .dwtag  DW_TAG_enumerator
    2130                            .dwattr $C$DW$186, DW_AT_name("ApiMac_scantype_energyDetect")
    2131                            .dwattr $C$DW$186, DW_AT_const_value(0x00)
    2132                            .dwattr $C$DW$186, DW_AT_decl_file("C:/CCSWorkspace/ECG603/sensor_cc1350lp/Application/api_mac
    2133                            .dwattr $C$DW$186, DW_AT_decl_line(0x48c)
    2134                            .dwattr $C$DW$186, DW_AT_decl_column(0x05)
    2135                    
    2136                    $C$DW$187       .dwtag  DW_TAG_enumerator
    2137                            .dwattr $C$DW$187, DW_AT_name("ApiMac_scantype_active")
    2138                            .dwattr $C$DW$187, DW_AT_const_value(0x01)
    2139                            .dwattr $C$DW$187, DW_AT_decl_file("C:/CCSWorkspace/ECG603/sensor_cc1350lp/Application/api_mac
    2140                            .dwattr $C$DW$187, DW_AT_decl_line(0x492)
    2141                            .dwattr $C$DW$187, DW_AT_decl_column(0x05)
TI ARM Assembler PC v16.9.9 Sun Nov 25 17:19:51 2018

Tools Copyright (c) 1996-2017 Texas Instruments Incorporated
C:\Users\Stryd\AppData\Local\Temp\{7DA0ADB5-97D8-4466-9070-E3FE443B1FB8} PAGE   40

    2142                    
    2143                    $C$DW$188       .dwtag  DW_TAG_enumerator
    2144                            .dwattr $C$DW$188, DW_AT_name("ApiMac_scantype_passive")
    2145                            .dwattr $C$DW$188, DW_AT_const_value(0x02)
    2146                            .dwattr $C$DW$188, DW_AT_decl_file("C:/CCSWorkspace/ECG603/sensor_cc1350lp/Application/api_mac
    2147                            .dwattr $C$DW$188, DW_AT_decl_line(0x497)
    2148                            .dwattr $C$DW$188, DW_AT_decl_column(0x05)
    2149                    
    2150                    $C$DW$189       .dwtag  DW_TAG_enumerator
    2151                            .dwattr $C$DW$189, DW_AT_name("ApiMac_scantype_orphan")
    2152                            .dwattr $C$DW$189, DW_AT_const_value(0x03)
    2153                            .dwattr $C$DW$189, DW_AT_decl_file("C:/CCSWorkspace/ECG603/sensor_cc1350lp/Application/api_mac
    2154                            .dwattr $C$DW$189, DW_AT_decl_line(0x49d)
    2155                            .dwattr $C$DW$189, DW_AT_decl_column(0x05)
    2156                    
    2157                    $C$DW$190       .dwtag  DW_TAG_enumerator
    2158                            .dwattr $C$DW$190, DW_AT_name("ApiMac_scantype_activeEnhanced")
    2159                            .dwattr $C$DW$190, DW_AT_const_value(0x05)
    2160                            .dwattr $C$DW$190, DW_AT_decl_file("C:/CCSWorkspace/ECG603/sensor_cc1350lp/Application/api_mac
    2161                            .dwattr $C$DW$190, DW_AT_decl_line(0x4a3)
    2162                            .dwattr $C$DW$190, DW_AT_decl_column(0x05)
    2163                    
    2164                            .dwattr $C$DW$T$371, DW_AT_decl_file("C:/CCSWorkspace/ECG603/sensor_cc1350lp/Application/api_m
    2165                            .dwattr $C$DW$T$371, DW_AT_decl_line(0x486)
    2166                            .dwattr $C$DW$T$371, DW_AT_decl_column(0x01)
    2167                            .dwendtag $C$DW$T$371
    2168                    
    2169                    $C$DW$T$372     .dwtag  DW_TAG_typedef
    2170                            .dwattr $C$DW$T$372, DW_AT_name("ApiMac_scantype_t")
    2171                            .dwattr $C$DW$T$372, DW_AT_type(*$C$DW$T$371)
    2172                            .dwattr $C$DW$T$372, DW_AT_language(DW_LANG_C)
    2173                            .dwattr $C$DW$T$372, DW_AT_decl_file("C:/CCSWorkspace/ECG603/sensor_cc1350lp/Application/api_m
    2174                            .dwattr $C$DW$T$372, DW_AT_decl_line(0x4a4)
    2175                            .dwattr $C$DW$T$372, DW_AT_decl_column(0x03)
    2176                    
    2177                    
    2178                    $C$DW$T$382     .dwtag  DW_TAG_enumeration_type
    2179                            .dwattr $C$DW$T$382, DW_AT_byte_size(0x01)
    2180                    $C$DW$191       .dwtag  DW_TAG_enumerator
    2181                            .dwattr $C$DW$191, DW_AT_name("ApiMac_wisunAsycnOperation_start")
    2182                            .dwattr $C$DW$191, DW_AT_const_value(0x00)
    2183                            .dwattr $C$DW$191, DW_AT_decl_file("C:/CCSWorkspace/ECG603/sensor_cc1350lp/Application/api_mac
    2184                            .dwattr $C$DW$191, DW_AT_decl_line(0x4aa)
    2185                            .dwattr $C$DW$191, DW_AT_decl_column(0x05)
    2186                    
    2187                    $C$DW$192       .dwtag  DW_TAG_enumerator
    2188                            .dwattr $C$DW$192, DW_AT_name("ApiMac_wisunAsycnOperation_stop")
    2189                            .dwattr $C$DW$192, DW_AT_const_value(0x01)
    2190                            .dwattr $C$DW$192, DW_AT_decl_file("C:/CCSWorkspace/ECG603/sensor_cc1350lp/Application/api_mac
    2191                            .dwattr $C$DW$192, DW_AT_decl_line(0x4ac)
    2192                            .dwattr $C$DW$192, DW_AT_decl_column(0x05)
    2193                    
    2194                            .dwattr $C$DW$T$382, DW_AT_decl_file("C:/CCSWorkspace/ECG603/sensor_cc1350lp/Application/api_m
    2195                            .dwattr $C$DW$T$382, DW_AT_decl_line(0x4a8)
    2196                            .dwattr $C$DW$T$382, DW_AT_decl_column(0x01)
TI ARM Assembler PC v16.9.9 Sun Nov 25 17:19:51 2018

Tools Copyright (c) 1996-2017 Texas Instruments Incorporated
C:\Users\Stryd\AppData\Local\Temp\{7DA0ADB5-97D8-4466-9070-E3FE443B1FB8} PAGE   41

    2197                            .dwendtag $C$DW$T$382
    2198                    
    2199                    $C$DW$T$383     .dwtag  DW_TAG_typedef
    2200                            .dwattr $C$DW$T$383, DW_AT_name("ApiMac_wisunAsycnOperation_t")
    2201                            .dwattr $C$DW$T$383, DW_AT_type(*$C$DW$T$382)
    2202                            .dwattr $C$DW$T$383, DW_AT_language(DW_LANG_C)
    2203                            .dwattr $C$DW$T$383, DW_AT_decl_file("C:/CCSWorkspace/ECG603/sensor_cc1350lp/Application/api_m
    2204                            .dwattr $C$DW$T$383, DW_AT_decl_line(0x4ad)
    2205                            .dwattr $C$DW$T$383, DW_AT_decl_column(0x03)
    2206                    
    2207                    
    2208                    $C$DW$T$384     .dwtag  DW_TAG_enumeration_type
    2209                            .dwattr $C$DW$T$384, DW_AT_byte_size(0x01)
    2210                    $C$DW$193       .dwtag  DW_TAG_enumerator
    2211                            .dwattr $C$DW$193, DW_AT_name("ApiMac_wisunAsyncFrame_advertisement")
    2212                            .dwattr $C$DW$193, DW_AT_const_value(0x00)
    2213                            .dwattr $C$DW$193, DW_AT_decl_file("C:/CCSWorkspace/ECG603/sensor_cc1350lp/Application/api_mac
    2214                            .dwattr $C$DW$193, DW_AT_decl_line(0x4b3)
    2215                            .dwattr $C$DW$193, DW_AT_decl_column(0x05)
    2216                    
    2217                    $C$DW$194       .dwtag  DW_TAG_enumerator
    2218                            .dwattr $C$DW$194, DW_AT_name("ApiMac_wisunAsyncFrame_advertisementSolicit")
    2219                            .dwattr $C$DW$194, DW_AT_const_value(0x01)
    2220                            .dwattr $C$DW$194, DW_AT_decl_file("C:/CCSWorkspace/ECG603/sensor_cc1350lp/Application/api_mac
    2221                            .dwattr $C$DW$194, DW_AT_decl_line(0x4b5)
    2222                            .dwattr $C$DW$194, DW_AT_decl_column(0x05)
    2223                    
    2224                    $C$DW$195       .dwtag  DW_TAG_enumerator
    2225                            .dwattr $C$DW$195, DW_AT_name("ApiMac_wisunAsyncFrame_config")
    2226                            .dwattr $C$DW$195, DW_AT_const_value(0x02)
    2227                            .dwattr $C$DW$195, DW_AT_decl_file("C:/CCSWorkspace/ECG603/sensor_cc1350lp/Application/api_mac
    2228                            .dwattr $C$DW$195, DW_AT_decl_line(0x4b7)
    2229                            .dwattr $C$DW$195, DW_AT_decl_column(0x05)
    2230                    
    2231                    $C$DW$196       .dwtag  DW_TAG_enumerator
    2232                            .dwattr $C$DW$196, DW_AT_name("ApiMac_wisunAsyncFrame_configSolicit")
    2233                            .dwattr $C$DW$196, DW_AT_const_value(0x03)
    2234                            .dwattr $C$DW$196, DW_AT_decl_file("C:/CCSWorkspace/ECG603/sensor_cc1350lp/Application/api_mac
    2235                            .dwattr $C$DW$196, DW_AT_decl_line(0x4b9)
    2236                            .dwattr $C$DW$196, DW_AT_decl_column(0x05)
    2237                    
    2238                            .dwattr $C$DW$T$384, DW_AT_decl_file("C:/CCSWorkspace/ECG603/sensor_cc1350lp/Application/api_m
    2239                            .dwattr $C$DW$T$384, DW_AT_decl_line(0x4b1)
    2240                            .dwattr $C$DW$T$384, DW_AT_decl_column(0x01)
    2241                            .dwendtag $C$DW$T$384
    2242                    
    2243                    $C$DW$T$385     .dwtag  DW_TAG_typedef
    2244                            .dwattr $C$DW$T$385, DW_AT_name("ApiMac_wisunAsyncFrame_t")
    2245                            .dwattr $C$DW$T$385, DW_AT_type(*$C$DW$T$384)
    2246                            .dwattr $C$DW$T$385, DW_AT_language(DW_LANG_C)
    2247                            .dwattr $C$DW$T$385, DW_AT_decl_file("C:/CCSWorkspace/ECG603/sensor_cc1350lp/Application/api_m
    2248                            .dwattr $C$DW$T$385, DW_AT_decl_line(0x4ba)
    2249                            .dwattr $C$DW$T$385, DW_AT_decl_column(0x03)
    2250                    
    2251                    
TI ARM Assembler PC v16.9.9 Sun Nov 25 17:19:51 2018

Tools Copyright (c) 1996-2017 Texas Instruments Incorporated
C:\Users\Stryd\AppData\Local\Temp\{7DA0ADB5-97D8-4466-9070-E3FE443B1FB8} PAGE   42

    2252                    $C$DW$T$680     .dwtag  DW_TAG_enumeration_type
    2253                            .dwattr $C$DW$T$680, DW_AT_byte_size(0x01)
    2254                    $C$DW$197       .dwtag  DW_TAG_enumerator
    2255                            .dwattr $C$DW$197, DW_AT_name("PIN_SUCCESS")
    2256                            .dwattr $C$DW$197, DW_AT_const_value(0x00)
    2257                            .dwattr $C$DW$197, DW_AT_decl_file("C:/ti/simplelink_cc13x0_sdk_2_30_00_20/source/ti/drivers/P
    2258                            .dwattr $C$DW$197, DW_AT_decl_line(0x2cd)
    2259                            .dwattr $C$DW$197, DW_AT_decl_column(0x05)
    2260                    
    2261                    $C$DW$198       .dwtag  DW_TAG_enumerator
    2262                            .dwattr $C$DW$198, DW_AT_name("PIN_ALREADY_ALLOCATED")
    2263                            .dwattr $C$DW$198, DW_AT_const_value(0x01)
    2264                            .dwattr $C$DW$198, DW_AT_decl_file("C:/ti/simplelink_cc13x0_sdk_2_30_00_20/source/ti/drivers/P
    2265                            .dwattr $C$DW$198, DW_AT_decl_line(0x2ce)
    2266                            .dwattr $C$DW$198, DW_AT_decl_column(0x05)
    2267                    
    2268                    $C$DW$199       .dwtag  DW_TAG_enumerator
    2269                            .dwattr $C$DW$199, DW_AT_name("PIN_NO_ACCESS")
    2270                            .dwattr $C$DW$199, DW_AT_const_value(0x02)
    2271                            .dwattr $C$DW$199, DW_AT_decl_file("C:/ti/simplelink_cc13x0_sdk_2_30_00_20/source/ti/drivers/P
    2272                            .dwattr $C$DW$199, DW_AT_decl_line(0x2cf)
    2273                            .dwattr $C$DW$199, DW_AT_decl_column(0x05)
    2274                    
    2275                    $C$DW$200       .dwtag  DW_TAG_enumerator
    2276                            .dwattr $C$DW$200, DW_AT_name("PIN_UNSUPPORTED")
    2277                            .dwattr $C$DW$200, DW_AT_const_value(0x03)
    2278                            .dwattr $C$DW$200, DW_AT_decl_file("C:/ti/simplelink_cc13x0_sdk_2_30_00_20/source/ti/drivers/P
    2279                            .dwattr $C$DW$200, DW_AT_decl_line(0x2d0)
    2280                            .dwattr $C$DW$200, DW_AT_decl_column(0x05)
    2281                    
    2282                            .dwattr $C$DW$T$680, DW_AT_decl_file("C:/ti/simplelink_cc13x0_sdk_2_30_00_20/source/ti/drivers
    2283                            .dwattr $C$DW$T$680, DW_AT_decl_line(0x2cc)
    2284                            .dwattr $C$DW$T$680, DW_AT_decl_column(0x0e)
    2285                            .dwendtag $C$DW$T$680
    2286                    
    2287                    $C$DW$T$681     .dwtag  DW_TAG_typedef
    2288                            .dwattr $C$DW$T$681, DW_AT_name("PIN_Status")
    2289                            .dwattr $C$DW$T$681, DW_AT_type(*$C$DW$T$680)
    2290                            .dwattr $C$DW$T$681, DW_AT_language(DW_LANG_C)
    2291                            .dwattr $C$DW$T$681, DW_AT_decl_file("C:/ti/simplelink_cc13x0_sdk_2_30_00_20/source/ti/drivers
    2292                            .dwattr $C$DW$T$681, DW_AT_decl_line(0x2d1)
    2293                            .dwattr $C$DW$T$681, DW_AT_decl_column(0x03)
    2294                    
    2295                    
    2296                    $C$DW$T$685     .dwtag  DW_TAG_enumeration_type
    2297                            .dwattr $C$DW$T$685, DW_AT_byte_size(0x01)
    2298                    $C$DW$201       .dwtag  DW_TAG_enumerator
    2299                            .dwattr $C$DW$201, DW_AT_name("board_led_type_LED1")
    2300                            .dwattr $C$DW$201, DW_AT_const_value(0x00)
    2301                            .dwattr $C$DW$201, DW_AT_decl_file("..\Application\LaunchPad\board_led.h")
    2302                            .dwattr $C$DW$201, DW_AT_decl_line(0x50)
    2303                            .dwattr $C$DW$201, DW_AT_decl_column(0x05)
    2304                    
    2305                    $C$DW$202       .dwtag  DW_TAG_enumerator
    2306                            .dwattr $C$DW$202, DW_AT_name("board_led_type_LED2")
TI ARM Assembler PC v16.9.9 Sun Nov 25 17:19:51 2018

Tools Copyright (c) 1996-2017 Texas Instruments Incorporated
C:\Users\Stryd\AppData\Local\Temp\{7DA0ADB5-97D8-4466-9070-E3FE443B1FB8} PAGE   43

    2307                            .dwattr $C$DW$202, DW_AT_const_value(0x01)
    2308                            .dwattr $C$DW$202, DW_AT_decl_file("..\Application\LaunchPad\board_led.h")
    2309                            .dwattr $C$DW$202, DW_AT_decl_line(0x51)
    2310                            .dwattr $C$DW$202, DW_AT_decl_column(0x05)
    2311                    
    2312                    $C$DW$203       .dwtag  DW_TAG_enumerator
    2313                            .dwattr $C$DW$203, DW_AT_name("NO_OF_LEDS")
    2314                            .dwattr $C$DW$203, DW_AT_const_value(0x02)
    2315                            .dwattr $C$DW$203, DW_AT_decl_file("..\Application\LaunchPad\board_led.h")
    2316                            .dwattr $C$DW$203, DW_AT_decl_line(0x57)
    2317                            .dwattr $C$DW$203, DW_AT_decl_column(0x05)
    2318                    
    2319                            .dwattr $C$DW$T$685, DW_AT_decl_file("..\Application\LaunchPad\board_led.h")
    2320                            .dwattr $C$DW$T$685, DW_AT_decl_line(0x4f)
    2321                            .dwattr $C$DW$T$685, DW_AT_decl_column(0x01)
    2322                            .dwendtag $C$DW$T$685
    2323                    
    2324                    $C$DW$T$686     .dwtag  DW_TAG_typedef
    2325                            .dwattr $C$DW$T$686, DW_AT_name("board_led_type")
    2326                            .dwattr $C$DW$T$686, DW_AT_type(*$C$DW$T$685)
    2327                            .dwattr $C$DW$T$686, DW_AT_language(DW_LANG_C)
    2328                            .dwattr $C$DW$T$686, DW_AT_decl_file("..\Application\LaunchPad\board_led.h")
    2329                            .dwattr $C$DW$T$686, DW_AT_decl_line(0x58)
    2330                            .dwattr $C$DW$T$686, DW_AT_decl_column(0x03)
    2331                    
    2332                    $C$DW$T$687     .dwtag  DW_TAG_const_type
    2333                            .dwattr $C$DW$T$687, DW_AT_type(*$C$DW$T$686)
    2334                    
    2335                    $C$DW$T$688     .dwtag  DW_TAG_const_type
    2336                            .dwattr $C$DW$T$688, DW_AT_type(*$C$DW$T$686)
    2337                    
    2338                    $C$DW$T$689     .dwtag  DW_TAG_const_type
    2339                            .dwattr $C$DW$T$689, DW_AT_type(*$C$DW$T$686)
    2340                    
    2341                    
    2342                    $C$DW$T$690     .dwtag  DW_TAG_enumeration_type
    2343                            .dwattr $C$DW$T$690, DW_AT_byte_size(0x01)
    2344                    $C$DW$204       .dwtag  DW_TAG_enumerator
    2345                            .dwattr $C$DW$204, DW_AT_name("ApiMac_secLevel_none")
    2346                            .dwattr $C$DW$204, DW_AT_const_value(0x00)
    2347                            .dwattr $C$DW$204, DW_AT_decl_file("C:/CCSWorkspace/ECG603/sensor_cc1350lp/Application/api_mac
    2348                            .dwattr $C$DW$204, DW_AT_decl_line(0x28b)
    2349                            .dwattr $C$DW$204, DW_AT_decl_column(0x05)
    2350                    
    2351                    $C$DW$205       .dwtag  DW_TAG_enumerator
    2352                            .dwattr $C$DW$205, DW_AT_name("ApiMac_secLevel_mic32")
    2353                            .dwattr $C$DW$205, DW_AT_const_value(0x01)
    2354                            .dwattr $C$DW$205, DW_AT_decl_file("C:/CCSWorkspace/ECG603/sensor_cc1350lp/Application/api_mac
    2355                            .dwattr $C$DW$205, DW_AT_decl_line(0x28d)
    2356                            .dwattr $C$DW$205, DW_AT_decl_column(0x05)
    2357                    
    2358                    $C$DW$206       .dwtag  DW_TAG_enumerator
    2359                            .dwattr $C$DW$206, DW_AT_name("ApiMac_secLevel_mic64")
    2360                            .dwattr $C$DW$206, DW_AT_const_value(0x02)
    2361                            .dwattr $C$DW$206, DW_AT_decl_file("C:/CCSWorkspace/ECG603/sensor_cc1350lp/Application/api_mac
TI ARM Assembler PC v16.9.9 Sun Nov 25 17:19:51 2018

Tools Copyright (c) 1996-2017 Texas Instruments Incorporated
C:\Users\Stryd\AppData\Local\Temp\{7DA0ADB5-97D8-4466-9070-E3FE443B1FB8} PAGE   44

    2362                            .dwattr $C$DW$206, DW_AT_decl_line(0x28f)
    2363                            .dwattr $C$DW$206, DW_AT_decl_column(0x05)
    2364                    
    2365                    $C$DW$207       .dwtag  DW_TAG_enumerator
    2366                            .dwattr $C$DW$207, DW_AT_name("ApiMac_secLevel_mic128")
    2367                            .dwattr $C$DW$207, DW_AT_const_value(0x03)
    2368                            .dwattr $C$DW$207, DW_AT_decl_file("C:/CCSWorkspace/ECG603/sensor_cc1350lp/Application/api_mac
    2369                            .dwattr $C$DW$207, DW_AT_decl_line(0x291)
    2370                            .dwattr $C$DW$207, DW_AT_decl_column(0x05)
    2371                    
    2372                    $C$DW$208       .dwtag  DW_TAG_enumerator
    2373                            .dwattr $C$DW$208, DW_AT_name("ApiMac_secLevel_enc")
    2374                            .dwattr $C$DW$208, DW_AT_const_value(0x04)
    2375                            .dwattr $C$DW$208, DW_AT_decl_file("C:/CCSWorkspace/ECG603/sensor_cc1350lp/Application/api_mac
    2376                            .dwattr $C$DW$208, DW_AT_decl_line(0x293)
    2377                            .dwattr $C$DW$208, DW_AT_decl_column(0x05)
    2378                    
    2379                    $C$DW$209       .dwtag  DW_TAG_enumerator
    2380                            .dwattr $C$DW$209, DW_AT_name("ApiMac_secLevel_encMic32")
    2381                            .dwattr $C$DW$209, DW_AT_const_value(0x05)
    2382                            .dwattr $C$DW$209, DW_AT_decl_file("C:/CCSWorkspace/ECG603/sensor_cc1350lp/Application/api_mac
    2383                            .dwattr $C$DW$209, DW_AT_decl_line(0x295)
    2384                            .dwattr $C$DW$209, DW_AT_decl_column(0x05)
    2385                    
    2386                    $C$DW$210       .dwtag  DW_TAG_enumerator
    2387                            .dwattr $C$DW$210, DW_AT_name("ApiMac_secLevel_encMic64")
    2388                            .dwattr $C$DW$210, DW_AT_const_value(0x06)
    2389                            .dwattr $C$DW$210, DW_AT_decl_file("C:/CCSWorkspace/ECG603/sensor_cc1350lp/Application/api_mac
    2390                            .dwattr $C$DW$210, DW_AT_decl_line(0x297)
    2391                            .dwattr $C$DW$210, DW_AT_decl_column(0x05)
    2392                    
    2393                    $C$DW$211       .dwtag  DW_TAG_enumerator
    2394                            .dwattr $C$DW$211, DW_AT_name("ApiMac_secLevel_encMic128")
    2395                            .dwattr $C$DW$211, DW_AT_const_value(0x07)
    2396                            .dwattr $C$DW$211, DW_AT_decl_file("C:/CCSWorkspace/ECG603/sensor_cc1350lp/Application/api_mac
    2397                            .dwattr $C$DW$211, DW_AT_decl_line(0x299)
    2398                            .dwattr $C$DW$211, DW_AT_decl_column(0x05)
    2399                    
    2400                            .dwattr $C$DW$T$690, DW_AT_decl_file("C:/CCSWorkspace/ECG603/sensor_cc1350lp/Application/api_m
    2401                            .dwattr $C$DW$T$690, DW_AT_decl_line(0x289)
    2402                            .dwattr $C$DW$T$690, DW_AT_decl_column(0x01)
    2403                            .dwendtag $C$DW$T$690
    2404                    
    2405                    $C$DW$T$691     .dwtag  DW_TAG_typedef
    2406                            .dwattr $C$DW$T$691, DW_AT_name("ApiMac_secLevel_t")
    2407                            .dwattr $C$DW$T$691, DW_AT_type(*$C$DW$T$690)
    2408                            .dwattr $C$DW$T$691, DW_AT_language(DW_LANG_C)
    2409                            .dwattr $C$DW$T$691, DW_AT_decl_file("C:/CCSWorkspace/ECG603/sensor_cc1350lp/Application/api_m
    2410                            .dwattr $C$DW$T$691, DW_AT_decl_line(0x29a)
    2411                            .dwattr $C$DW$T$691, DW_AT_decl_column(0x03)
    2412                    
    2413                    
    2414                    $C$DW$T$692     .dwtag  DW_TAG_enumeration_type
    2415                            .dwattr $C$DW$T$692, DW_AT_byte_size(0x01)
    2416                    $C$DW$212       .dwtag  DW_TAG_enumerator
TI ARM Assembler PC v16.9.9 Sun Nov 25 17:19:51 2018

Tools Copyright (c) 1996-2017 Texas Instruments Incorporated
C:\Users\Stryd\AppData\Local\Temp\{7DA0ADB5-97D8-4466-9070-E3FE443B1FB8} PAGE   45

    2417                            .dwattr $C$DW$212, DW_AT_name("ApiMac_keyIdMode_implicit")
    2418                            .dwattr $C$DW$212, DW_AT_const_value(0x00)
    2419                            .dwattr $C$DW$212, DW_AT_decl_file("C:/CCSWorkspace/ECG603/sensor_cc1350lp/Application/api_mac
    2420                            .dwattr $C$DW$212, DW_AT_decl_line(0x2a0)
    2421                            .dwattr $C$DW$212, DW_AT_decl_column(0x05)
    2422                    
    2423                    $C$DW$213       .dwtag  DW_TAG_enumerator
    2424                            .dwattr $C$DW$213, DW_AT_name("ApiMac_keyIdMode_1")
    2425                            .dwattr $C$DW$213, DW_AT_const_value(0x01)
    2426                            .dwattr $C$DW$213, DW_AT_decl_file("C:/CCSWorkspace/ECG603/sensor_cc1350lp/Application/api_mac
    2427                            .dwattr $C$DW$213, DW_AT_decl_line(0x2a2)
    2428                            .dwattr $C$DW$213, DW_AT_decl_column(0x05)
    2429                    
    2430                    $C$DW$214       .dwtag  DW_TAG_enumerator
    2431                            .dwattr $C$DW$214, DW_AT_name("ApiMac_keyIdMode_4")
    2432                            .dwattr $C$DW$214, DW_AT_const_value(0x02)
    2433                            .dwattr $C$DW$214, DW_AT_decl_file("C:/CCSWorkspace/ECG603/sensor_cc1350lp/Application/api_mac
    2434                            .dwattr $C$DW$214, DW_AT_decl_line(0x2a4)
    2435                            .dwattr $C$DW$214, DW_AT_decl_column(0x05)
    2436                    
    2437                    $C$DW$215       .dwtag  DW_TAG_enumerator
    2438                            .dwattr $C$DW$215, DW_AT_name("ApiMac_keyIdMode_8")
    2439                            .dwattr $C$DW$215, DW_AT_const_value(0x03)
    2440                            .dwattr $C$DW$215, DW_AT_decl_file("C:/CCSWorkspace/ECG603/sensor_cc1350lp/Application/api_mac
    2441                            .dwattr $C$DW$215, DW_AT_decl_line(0x2a6)
    2442                            .dwattr $C$DW$215, DW_AT_decl_column(0x05)
    2443                    
    2444                            .dwattr $C$DW$T$692, DW_AT_decl_file("C:/CCSWorkspace/ECG603/sensor_cc1350lp/Application/api_m
    2445                            .dwattr $C$DW$T$692, DW_AT_decl_line(0x29e)
    2446                            .dwattr $C$DW$T$692, DW_AT_decl_column(0x01)
    2447                            .dwendtag $C$DW$T$692
    2448                    
    2449                    $C$DW$T$693     .dwtag  DW_TAG_typedef
    2450                            .dwattr $C$DW$T$693, DW_AT_name("ApiMac_keyIdMode_t")
    2451                            .dwattr $C$DW$T$693, DW_AT_type(*$C$DW$T$692)
    2452                            .dwattr $C$DW$T$693, DW_AT_language(DW_LANG_C)
    2453                            .dwattr $C$DW$T$693, DW_AT_decl_file("C:/CCSWorkspace/ECG603/sensor_cc1350lp/Application/api_m
    2454                            .dwattr $C$DW$T$693, DW_AT_decl_line(0x2a7)
    2455                            .dwattr $C$DW$T$693, DW_AT_decl_column(0x03)
    2456                    
    2457                    
    2458                    $C$DW$T$694     .dwtag  DW_TAG_enumeration_type
    2459                            .dwattr $C$DW$T$694, DW_AT_byte_size(0x01)
    2460                    $C$DW$216       .dwtag  DW_TAG_enumerator
    2461                            .dwattr $C$DW$216, DW_AT_name("ApiMac_attribute_associatePermit")
    2462                            .dwattr $C$DW$216, DW_AT_const_value(0x41)
    2463                            .dwattr $C$DW$216, DW_AT_decl_file("C:/CCSWorkspace/ECG603/sensor_cc1350lp/Application/api_mac
    2464                            .dwattr $C$DW$216, DW_AT_decl_line(0x2ad)
    2465                            .dwattr $C$DW$216, DW_AT_decl_column(0x05)
    2466                    
    2467                    $C$DW$217       .dwtag  DW_TAG_enumerator
    2468                            .dwattr $C$DW$217, DW_AT_name("ApiMac_attribute_autoRequest")
    2469                            .dwattr $C$DW$217, DW_AT_const_value(0x42)
    2470                            .dwattr $C$DW$217, DW_AT_decl_file("C:/CCSWorkspace/ECG603/sensor_cc1350lp/Application/api_mac
    2471                            .dwattr $C$DW$217, DW_AT_decl_line(0x2b2)
TI ARM Assembler PC v16.9.9 Sun Nov 25 17:19:51 2018

Tools Copyright (c) 1996-2017 Texas Instruments Incorporated
C:\Users\Stryd\AppData\Local\Temp\{7DA0ADB5-97D8-4466-9070-E3FE443B1FB8} PAGE   46

    2472                            .dwattr $C$DW$217, DW_AT_decl_column(0x05)
    2473                    
    2474                    $C$DW$218       .dwtag  DW_TAG_enumerator
    2475                            .dwattr $C$DW$218, DW_AT_name("ApiMac_attribute_battLifeExt")
    2476                            .dwattr $C$DW$218, DW_AT_const_value(0x43)
    2477                            .dwattr $C$DW$218, DW_AT_decl_file("C:/CCSWorkspace/ECG603/sensor_cc1350lp/Application/api_mac
    2478                            .dwattr $C$DW$218, DW_AT_decl_line(0x2b4)
    2479                            .dwattr $C$DW$218, DW_AT_decl_column(0x05)
    2480                    
    2481                    $C$DW$219       .dwtag  DW_TAG_enumerator
    2482                            .dwattr $C$DW$219, DW_AT_name("ApiMac_attribute_gtsPermit")
    2483                            .dwattr $C$DW$219, DW_AT_const_value(0x4d)
    2484                            .dwattr $C$DW$219, DW_AT_decl_file("C:/CCSWorkspace/ECG603/sensor_cc1350lp/Application/api_mac
    2485                            .dwattr $C$DW$219, DW_AT_decl_line(0x2b6)
    2486                            .dwattr $C$DW$219, DW_AT_decl_column(0x05)
    2487                    
    2488                    $C$DW$220       .dwtag  DW_TAG_enumerator
    2489                            .dwattr $C$DW$220, DW_AT_name("ApiMac_attribute_promiscuousMode")
    2490                            .dwattr $C$DW$220, DW_AT_const_value(0x51)
    2491                            .dwattr $C$DW$220, DW_AT_decl_file("C:/CCSWorkspace/ECG603/sensor_cc1350lp/Application/api_mac
    2492                            .dwattr $C$DW$220, DW_AT_decl_line(0x2b8)
    2493                            .dwattr $C$DW$220, DW_AT_decl_column(0x05)
    2494                    
    2495                    $C$DW$221       .dwtag  DW_TAG_enumerator
    2496                            .dwattr $C$DW$221, DW_AT_name("ApiMac_attribute_RxOnWhenIdle")
    2497                            .dwattr $C$DW$221, DW_AT_const_value(0x52)
    2498                            .dwattr $C$DW$221, DW_AT_decl_file("C:/CCSWorkspace/ECG603/sensor_cc1350lp/Application/api_mac
    2499                            .dwattr $C$DW$221, DW_AT_decl_line(0x2ba)
    2500                            .dwattr $C$DW$221, DW_AT_decl_column(0x05)
    2501                    
    2502                    $C$DW$222       .dwtag  DW_TAG_enumerator
    2503                            .dwattr $C$DW$222, DW_AT_name("ApiMac_attribute_associatedPanCoord")
    2504                            .dwattr $C$DW$222, DW_AT_const_value(0x56)
    2505                            .dwattr $C$DW$222, DW_AT_decl_file("C:/CCSWorkspace/ECG603/sensor_cc1350lp/Application/api_mac
    2506                            .dwattr $C$DW$222, DW_AT_decl_line(0x2bc)
    2507                            .dwattr $C$DW$222, DW_AT_decl_column(0x05)
    2508                    
    2509                    $C$DW$223       .dwtag  DW_TAG_enumerator
    2510                            .dwattr $C$DW$223, DW_AT_name("ApiMac_attribute_timestampSupported")
    2511                            .dwattr $C$DW$223, DW_AT_const_value(0x5c)
    2512                            .dwattr $C$DW$223, DW_AT_decl_file("C:/CCSWorkspace/ECG603/sensor_cc1350lp/Application/api_mac
    2513                            .dwattr $C$DW$223, DW_AT_decl_line(0x2be)
    2514                            .dwattr $C$DW$223, DW_AT_decl_column(0x05)
    2515                    
    2516                    $C$DW$224       .dwtag  DW_TAG_enumerator
    2517                            .dwattr $C$DW$224, DW_AT_name("ApiMac_attribute_securityEnabled")
    2518                            .dwattr $C$DW$224, DW_AT_const_value(0x5d)
    2519                            .dwattr $C$DW$224, DW_AT_decl_file("C:/CCSWorkspace/ECG603/sensor_cc1350lp/Application/api_mac
    2520                            .dwattr $C$DW$224, DW_AT_decl_line(0x2c0)
    2521                            .dwattr $C$DW$224, DW_AT_decl_column(0x05)
    2522                    
    2523                    $C$DW$225       .dwtag  DW_TAG_enumerator
    2524                            .dwattr $C$DW$225, DW_AT_name("ApiMac_attribute_includeMPMIE")
    2525                            .dwattr $C$DW$225, DW_AT_const_value(0x62)
    2526                            .dwattr $C$DW$225, DW_AT_decl_file("C:/CCSWorkspace/ECG603/sensor_cc1350lp/Application/api_mac
TI ARM Assembler PC v16.9.9 Sun Nov 25 17:19:51 2018

Tools Copyright (c) 1996-2017 Texas Instruments Incorporated
C:\Users\Stryd\AppData\Local\Temp\{7DA0ADB5-97D8-4466-9070-E3FE443B1FB8} PAGE   47

    2527                            .dwattr $C$DW$225, DW_AT_decl_line(0x2c2)
    2528                            .dwattr $C$DW$225, DW_AT_decl_column(0x05)
    2529                    
    2530                    $C$DW$226       .dwtag  DW_TAG_enumerator
    2531                            .dwattr $C$DW$226, DW_AT_name("ApiMac_attribute_fcsType")
    2532                            .dwattr $C$DW$226, DW_AT_const_value(0xe9)
    2533                            .dwattr $C$DW$226, DW_AT_decl_file("C:/CCSWorkspace/ECG603/sensor_cc1350lp/Application/api_mac
    2534                            .dwattr $C$DW$226, DW_AT_decl_line(0x2c4)
    2535                            .dwattr $C$DW$226, DW_AT_decl_column(0x05)
    2536                    
    2537                            .dwattr $C$DW$T$694, DW_AT_decl_file("C:/CCSWorkspace/ECG603/sensor_cc1350lp/Application/api_m
    2538                            .dwattr $C$DW$T$694, DW_AT_decl_line(0x2ab)
    2539                            .dwattr $C$DW$T$694, DW_AT_decl_column(0x01)
    2540                            .dwendtag $C$DW$T$694
    2541                    
    2542                    $C$DW$T$695     .dwtag  DW_TAG_typedef
    2543                            .dwattr $C$DW$T$695, DW_AT_name("ApiMac_attribute_bool_t")
    2544                            .dwattr $C$DW$T$695, DW_AT_type(*$C$DW$T$694)
    2545                            .dwattr $C$DW$T$695, DW_AT_language(DW_LANG_C)
    2546                            .dwattr $C$DW$T$695, DW_AT_decl_file("C:/CCSWorkspace/ECG603/sensor_cc1350lp/Application/api_m
    2547                            .dwattr $C$DW$T$695, DW_AT_decl_line(0x2c5)
    2548                            .dwattr $C$DW$T$695, DW_AT_decl_column(0x03)
    2549                    
    2550                    
    2551                    $C$DW$T$696     .dwtag  DW_TAG_enumeration_type
    2552                            .dwattr $C$DW$T$696, DW_AT_byte_size(0x01)
    2553                    $C$DW$227       .dwtag  DW_TAG_enumerator
    2554                            .dwattr $C$DW$227, DW_AT_name("ApiMac_attribute_ackWaitDuration")
    2555                            .dwattr $C$DW$227, DW_AT_const_value(0x40)
    2556                            .dwattr $C$DW$227, DW_AT_decl_file("C:/CCSWorkspace/ECG603/sensor_cc1350lp/Application/api_mac
    2557                            .dwattr $C$DW$227, DW_AT_decl_line(0x2cb)
    2558                            .dwattr $C$DW$227, DW_AT_decl_column(0x05)
    2559                    
    2560                    $C$DW$228       .dwtag  DW_TAG_enumerator
    2561                            .dwattr $C$DW$228, DW_AT_name("ApiMac_attribute_battLifeExtPeriods")
    2562                            .dwattr $C$DW$228, DW_AT_const_value(0x44)
    2563                            .dwattr $C$DW$228, DW_AT_decl_file("C:/CCSWorkspace/ECG603/sensor_cc1350lp/Application/api_mac
    2564                            .dwattr $C$DW$228, DW_AT_decl_line(0x2d0)
    2565                            .dwattr $C$DW$228, DW_AT_decl_column(0x05)
    2566                    
    2567                    $C$DW$229       .dwtag  DW_TAG_enumerator
    2568                            .dwattr $C$DW$229, DW_AT_name("ApiMac_attribute_beaconPayloadLength")
    2569                            .dwattr $C$DW$229, DW_AT_const_value(0x46)
    2570                            .dwattr $C$DW$229, DW_AT_decl_file("C:/CCSWorkspace/ECG603/sensor_cc1350lp/Application/api_mac
    2571                            .dwattr $C$DW$229, DW_AT_decl_line(0x2d5)
    2572                            .dwattr $C$DW$229, DW_AT_decl_column(0x05)
    2573                    
    2574                    $C$DW$230       .dwtag  DW_TAG_enumerator
    2575                            .dwattr $C$DW$230, DW_AT_name("ApiMac_attribute_beaconOrder")
    2576                            .dwattr $C$DW$230, DW_AT_const_value(0x47)
    2577                            .dwattr $C$DW$230, DW_AT_decl_file("C:/CCSWorkspace/ECG603/sensor_cc1350lp/Application/api_mac
    2578                            .dwattr $C$DW$230, DW_AT_decl_line(0x2d7)
    2579                            .dwattr $C$DW$230, DW_AT_decl_column(0x05)
    2580                    
    2581                    $C$DW$231       .dwtag  DW_TAG_enumerator
TI ARM Assembler PC v16.9.9 Sun Nov 25 17:19:51 2018

Tools Copyright (c) 1996-2017 Texas Instruments Incorporated
C:\Users\Stryd\AppData\Local\Temp\{7DA0ADB5-97D8-4466-9070-E3FE443B1FB8} PAGE   48

    2582                            .dwattr $C$DW$231, DW_AT_name("ApiMac_attribute_bsn")
    2583                            .dwattr $C$DW$231, DW_AT_const_value(0x49)
    2584                            .dwattr $C$DW$231, DW_AT_decl_file("C:/CCSWorkspace/ECG603/sensor_cc1350lp/Application/api_mac
    2585                            .dwattr $C$DW$231, DW_AT_decl_line(0x2d9)
    2586                            .dwattr $C$DW$231, DW_AT_decl_column(0x05)
    2587                    
    2588                    $C$DW$232       .dwtag  DW_TAG_enumerator
    2589                            .dwattr $C$DW$232, DW_AT_name("ApiMac_attribute_dsn")
    2590                            .dwattr $C$DW$232, DW_AT_const_value(0x4c)
    2591                            .dwattr $C$DW$232, DW_AT_decl_file("C:/CCSWorkspace/ECG603/sensor_cc1350lp/Application/api_mac
    2592                            .dwattr $C$DW$232, DW_AT_decl_line(0x2db)
    2593                            .dwattr $C$DW$232, DW_AT_decl_column(0x05)
    2594                    
    2595                    $C$DW$233       .dwtag  DW_TAG_enumerator
    2596                            .dwattr $C$DW$233, DW_AT_name("ApiMac_attribute_maxCsmaBackoffs")
    2597                            .dwattr $C$DW$233, DW_AT_const_value(0x4e)
    2598                            .dwattr $C$DW$233, DW_AT_decl_file("C:/CCSWorkspace/ECG603/sensor_cc1350lp/Application/api_mac
    2599                            .dwattr $C$DW$233, DW_AT_decl_line(0x2e0)
    2600                            .dwattr $C$DW$233, DW_AT_decl_column(0x05)
    2601                    
    2602                    $C$DW$234       .dwtag  DW_TAG_enumerator
    2603                            .dwattr $C$DW$234, DW_AT_name("ApiMac_attribute_backoffExponent")
    2604                            .dwattr $C$DW$234, DW_AT_const_value(0x4f)
    2605                            .dwattr $C$DW$234, DW_AT_decl_file("C:/CCSWorkspace/ECG603/sensor_cc1350lp/Application/api_mac
    2606                            .dwattr $C$DW$234, DW_AT_decl_line(0x2e8)
    2607                            .dwattr $C$DW$234, DW_AT_decl_column(0x05)
    2608                    
    2609                    $C$DW$235       .dwtag  DW_TAG_enumerator
    2610                            .dwattr $C$DW$235, DW_AT_name("ApiMac_attribute_superframeOrder")
    2611                            .dwattr $C$DW$235, DW_AT_const_value(0x54)
    2612                            .dwattr $C$DW$235, DW_AT_decl_file("C:/CCSWorkspace/ECG603/sensor_cc1350lp/Application/api_mac
    2613                            .dwattr $C$DW$235, DW_AT_decl_line(0x2ea)
    2614                            .dwattr $C$DW$235, DW_AT_decl_column(0x05)
    2615                    
    2616                    $C$DW$236       .dwtag  DW_TAG_enumerator
    2617                            .dwattr $C$DW$236, DW_AT_name("ApiMac_attribute_maxBackoffExponent")
    2618                            .dwattr $C$DW$236, DW_AT_const_value(0x57)
    2619                            .dwattr $C$DW$236, DW_AT_decl_file("C:/CCSWorkspace/ECG603/sensor_cc1350lp/Application/api_mac
    2620                            .dwattr $C$DW$236, DW_AT_decl_line(0x2ec)
    2621                            .dwattr $C$DW$236, DW_AT_decl_column(0x05)
    2622                    
    2623                    $C$DW$237       .dwtag  DW_TAG_enumerator
    2624                            .dwattr $C$DW$237, DW_AT_name("ApiMac_attribute_maxFrameRetries")
    2625                            .dwattr $C$DW$237, DW_AT_const_value(0x59)
    2626                            .dwattr $C$DW$237, DW_AT_decl_file("C:/CCSWorkspace/ECG603/sensor_cc1350lp/Application/api_mac
    2627                            .dwattr $C$DW$237, DW_AT_decl_line(0x2ee)
    2628                            .dwattr $C$DW$237, DW_AT_decl_column(0x05)
    2629                    
    2630                    $C$DW$238       .dwtag  DW_TAG_enumerator
    2631                            .dwattr $C$DW$238, DW_AT_name("ApiMac_attribute_responseWaitTime")
    2632                            .dwattr $C$DW$238, DW_AT_const_value(0x5a)
    2633                            .dwattr $C$DW$238, DW_AT_decl_file("C:/CCSWorkspace/ECG603/sensor_cc1350lp/Application/api_mac
    2634                            .dwattr $C$DW$238, DW_AT_decl_line(0x2f4)
    2635                            .dwattr $C$DW$238, DW_AT_decl_column(0x05)
    2636                    
TI ARM Assembler PC v16.9.9 Sun Nov 25 17:19:51 2018

Tools Copyright (c) 1996-2017 Texas Instruments Incorporated
C:\Users\Stryd\AppData\Local\Temp\{7DA0ADB5-97D8-4466-9070-E3FE443B1FB8} PAGE   49

    2637                    $C$DW$239       .dwtag  DW_TAG_enumerator
    2638                            .dwattr $C$DW$239, DW_AT_name("ApiMac_attribute_syncSymbolOffset")
    2639                            .dwattr $C$DW$239, DW_AT_const_value(0x5b)
    2640                            .dwattr $C$DW$239, DW_AT_decl_file("C:/CCSWorkspace/ECG603/sensor_cc1350lp/Application/api_mac
    2641                            .dwattr $C$DW$239, DW_AT_decl_line(0x2f6)
    2642                            .dwattr $C$DW$239, DW_AT_decl_column(0x05)
    2643                    
    2644                    $C$DW$240       .dwtag  DW_TAG_enumerator
    2645                            .dwattr $C$DW$240, DW_AT_name("ApiMac_attribute_eBeaconSequenceNumber")
    2646                            .dwattr $C$DW$240, DW_AT_const_value(0x5e)
    2647                            .dwattr $C$DW$240, DW_AT_decl_file("C:/CCSWorkspace/ECG603/sensor_cc1350lp/Application/api_mac
    2648                            .dwattr $C$DW$240, DW_AT_decl_line(0x2f8)
    2649                            .dwattr $C$DW$240, DW_AT_decl_column(0x05)
    2650                    
    2651                    $C$DW$241       .dwtag  DW_TAG_enumerator
    2652                            .dwattr $C$DW$241, DW_AT_name("ApiMac_attribute_eBeaconOrder")
    2653                            .dwattr $C$DW$241, DW_AT_const_value(0x5f)
    2654                            .dwattr $C$DW$241, DW_AT_decl_file("C:/CCSWorkspace/ECG603/sensor_cc1350lp/Application/api_mac
    2655                            .dwattr $C$DW$241, DW_AT_decl_line(0x2fa)
    2656                            .dwattr $C$DW$241, DW_AT_decl_column(0x05)
    2657                    
    2658                    $C$DW$242       .dwtag  DW_TAG_enumerator
    2659                            .dwattr $C$DW$242, DW_AT_name("ApiMac_attribute_offsetTimeslot")
    2660                            .dwattr $C$DW$242, DW_AT_const_value(0x61)
    2661                            .dwattr $C$DW$242, DW_AT_decl_file("C:/CCSWorkspace/ECG603/sensor_cc1350lp/Application/api_mac
    2662                            .dwattr $C$DW$242, DW_AT_decl_line(0x2fc)
    2663                            .dwattr $C$DW$242, DW_AT_decl_column(0x05)
    2664                    
    2665                    $C$DW$243       .dwtag  DW_TAG_enumerator
    2666                            .dwattr $C$DW$243, DW_AT_name("ApiMac_attribute_phyTransmitPowerSigned")
    2667                            .dwattr $C$DW$243, DW_AT_const_value(0xe0)
    2668                            .dwattr $C$DW$243, DW_AT_decl_file("C:/CCSWorkspace/ECG603/sensor_cc1350lp/Application/api_mac
    2669                            .dwattr $C$DW$243, DW_AT_decl_line(0x301)
    2670                            .dwattr $C$DW$243, DW_AT_decl_column(0x05)
    2671                    
    2672                    $C$DW$244       .dwtag  DW_TAG_enumerator
    2673                            .dwattr $C$DW$244, DW_AT_name("ApiMac_attribute_logicalChannel")
    2674                            .dwattr $C$DW$244, DW_AT_const_value(0xe1)
    2675                            .dwattr $C$DW$244, DW_AT_decl_file("C:/CCSWorkspace/ECG603/sensor_cc1350lp/Application/api_mac
    2676                            .dwattr $C$DW$244, DW_AT_decl_line(0x303)
    2677                            .dwattr $C$DW$244, DW_AT_decl_column(0x05)
    2678                    
    2679                    $C$DW$245       .dwtag  DW_TAG_enumerator
    2680                            .dwattr $C$DW$245, DW_AT_name("ApiMac_attribute_altBackoffExponent")
    2681                            .dwattr $C$DW$245, DW_AT_const_value(0xe3)
    2682                            .dwattr $C$DW$245, DW_AT_decl_file("C:/CCSWorkspace/ECG603/sensor_cc1350lp/Application/api_mac
    2683                            .dwattr $C$DW$245, DW_AT_decl_line(0x305)
    2684                            .dwattr $C$DW$245, DW_AT_decl_column(0x05)
    2685                    
    2686                    $C$DW$246       .dwtag  DW_TAG_enumerator
    2687                            .dwattr $C$DW$246, DW_AT_name("ApiMac_attribute_deviceBeaconOrder")
    2688                            .dwattr $C$DW$246, DW_AT_const_value(0xe4)
    2689                            .dwattr $C$DW$246, DW_AT_decl_file("C:/CCSWorkspace/ECG603/sensor_cc1350lp/Application/api_mac
    2690                            .dwattr $C$DW$246, DW_AT_decl_line(0x307)
    2691                            .dwattr $C$DW$246, DW_AT_decl_column(0x05)
TI ARM Assembler PC v16.9.9 Sun Nov 25 17:19:51 2018

Tools Copyright (c) 1996-2017 Texas Instruments Incorporated
C:\Users\Stryd\AppData\Local\Temp\{7DA0ADB5-97D8-4466-9070-E3FE443B1FB8} PAGE   50

    2692                    
    2693                    $C$DW$247       .dwtag  DW_TAG_enumerator
    2694                            .dwattr $C$DW$247, DW_AT_name("ApiMac_attribute_rf4cePowerSavings")
    2695                            .dwattr $C$DW$247, DW_AT_const_value(0xe5)
    2696                            .dwattr $C$DW$247, DW_AT_decl_file("C:/CCSWorkspace/ECG603/sensor_cc1350lp/Application/api_mac
    2697                            .dwattr $C$DW$247, DW_AT_decl_line(0x309)
    2698                            .dwattr $C$DW$247, DW_AT_decl_column(0x05)
    2699                    
    2700                    $C$DW$248       .dwtag  DW_TAG_enumerator
    2701                            .dwattr $C$DW$248, DW_AT_name("ApiMac_attribute_frameVersionSupport")
    2702                            .dwattr $C$DW$248, DW_AT_const_value(0xe6)
    2703                            .dwattr $C$DW$248, DW_AT_decl_file("C:/CCSWorkspace/ECG603/sensor_cc1350lp/Application/api_mac
    2704                            .dwattr $C$DW$248, DW_AT_decl_line(0x310)
    2705                            .dwattr $C$DW$248, DW_AT_decl_column(0x05)
    2706                    
    2707                    $C$DW$249       .dwtag  DW_TAG_enumerator
    2708                            .dwattr $C$DW$249, DW_AT_name("ApiMac_attribute_channelPage")
    2709                            .dwattr $C$DW$249, DW_AT_const_value(0xe7)
    2710                            .dwattr $C$DW$249, DW_AT_decl_file("C:/CCSWorkspace/ECG603/sensor_cc1350lp/Application/api_mac
    2711                            .dwattr $C$DW$249, DW_AT_decl_line(0x312)
    2712                            .dwattr $C$DW$249, DW_AT_decl_column(0x05)
    2713                    
    2714                    $C$DW$250       .dwtag  DW_TAG_enumerator
    2715                            .dwattr $C$DW$250, DW_AT_name("ApiMac_attribute_phyCurrentDescriptorId")
    2716                            .dwattr $C$DW$250, DW_AT_const_value(0xe8)
    2717                            .dwattr $C$DW$250, DW_AT_decl_file("C:/CCSWorkspace/ECG603/sensor_cc1350lp/Application/api_mac
    2718                            .dwattr $C$DW$250, DW_AT_decl_line(0x317)
    2719                            .dwattr $C$DW$250, DW_AT_decl_column(0x05)
    2720                    
    2721                    $C$DW$251       .dwtag  DW_TAG_enumerator
    2722                            .dwattr $C$DW$251, DW_AT_name("ApiMac_attribute_rssiThreshold")
    2723                            .dwattr $C$DW$251, DW_AT_const_value(0xf4)
    2724                            .dwattr $C$DW$251, DW_AT_decl_file("C:/CCSWorkspace/ECG603/sensor_cc1350lp/Application/api_mac
    2725                            .dwattr $C$DW$251, DW_AT_decl_line(0x31b)
    2726                            .dwattr $C$DW$251, DW_AT_decl_column(0x05)
    2727                    
    2728                    $C$DW$252       .dwtag  DW_TAG_enumerator
    2729                            .dwattr $C$DW$252, DW_AT_name("ApiMac_attribute_rangeExtender")
    2730                            .dwattr $C$DW$252, DW_AT_const_value(0xf5)
    2731                            .dwattr $C$DW$252, DW_AT_decl_file("C:/CCSWorkspace/ECG603/sensor_cc1350lp/Application/api_mac
    2732                            .dwattr $C$DW$252, DW_AT_decl_line(0x31f)
    2733                            .dwattr $C$DW$252, DW_AT_decl_column(0x05)
    2734                    
    2735                    $C$DW$253       .dwtag  DW_TAG_enumerator
    2736                            .dwattr $C$DW$253, DW_AT_name("ApiMac_attribute_enDataAckPending")
    2737                            .dwattr $C$DW$253, DW_AT_const_value(0xf6)
    2738                            .dwattr $C$DW$253, DW_AT_decl_file("C:/CCSWorkspace/ECG603/sensor_cc1350lp/Application/api_mac
    2739                            .dwattr $C$DW$253, DW_AT_decl_line(0x323)
    2740                            .dwattr $C$DW$253, DW_AT_decl_column(0x05)
    2741                    
    2742                    $C$DW$254       .dwtag  DW_TAG_enumerator
    2743                            .dwattr $C$DW$254, DW_AT_name("ApiMac_attribute_rfFreq")
    2744                            .dwattr $C$DW$254, DW_AT_const_value(0xf7)
    2745                            .dwattr $C$DW$254, DW_AT_decl_file("C:/CCSWorkspace/ECG603/sensor_cc1350lp/Application/api_mac
    2746                            .dwattr $C$DW$254, DW_AT_decl_line(0x327)
TI ARM Assembler PC v16.9.9 Sun Nov 25 17:19:51 2018

Tools Copyright (c) 1996-2017 Texas Instruments Incorporated
C:\Users\Stryd\AppData\Local\Temp\{7DA0ADB5-97D8-4466-9070-E3FE443B1FB8} PAGE   51

    2747                            .dwattr $C$DW$254, DW_AT_decl_column(0x05)
    2748                    
    2749                    $C$DW$255       .dwtag  DW_TAG_enumerator
    2750                            .dwattr $C$DW$255, DW_AT_name("ApiMac_attribute_paType")
    2751                            .dwattr $C$DW$255, DW_AT_const_value(0xf8)
    2752                            .dwattr $C$DW$255, DW_AT_decl_file("C:/CCSWorkspace/ECG603/sensor_cc1350lp/Application/api_mac
    2753                            .dwattr $C$DW$255, DW_AT_decl_line(0x32b)
    2754                            .dwattr $C$DW$255, DW_AT_decl_column(0x05)
    2755                    
    2756                            .dwattr $C$DW$T$696, DW_AT_decl_file("C:/CCSWorkspace/ECG603/sensor_cc1350lp/Application/api_m
    2757                            .dwattr $C$DW$T$696, DW_AT_decl_line(0x2c9)
    2758                            .dwattr $C$DW$T$696, DW_AT_decl_column(0x01)
    2759                            .dwendtag $C$DW$T$696
    2760                    
    2761                    $C$DW$T$697     .dwtag  DW_TAG_typedef
    2762                            .dwattr $C$DW$T$697, DW_AT_name("ApiMac_attribute_uint8_t")
    2763                            .dwattr $C$DW$T$697, DW_AT_type(*$C$DW$T$696)
    2764                            .dwattr $C$DW$T$697, DW_AT_language(DW_LANG_C)
    2765                            .dwattr $C$DW$T$697, DW_AT_decl_file("C:/CCSWorkspace/ECG603/sensor_cc1350lp/Application/api_m
    2766                            .dwattr $C$DW$T$697, DW_AT_decl_line(0x32c)
    2767                            .dwattr $C$DW$T$697, DW_AT_decl_column(0x03)
    2768                    
    2769                    
    2770                    $C$DW$T$698     .dwtag  DW_TAG_enumeration_type
    2771                            .dwattr $C$DW$T$698, DW_AT_byte_size(0x01)
    2772                    $C$DW$256       .dwtag  DW_TAG_enumerator
    2773                            .dwattr $C$DW$256, DW_AT_name("ApiMac_attribute_coordShortAddress")
    2774                            .dwattr $C$DW$256, DW_AT_const_value(0x4b)
    2775                            .dwattr $C$DW$256, DW_AT_decl_file("C:/CCSWorkspace/ECG603/sensor_cc1350lp/Application/api_mac
    2776                            .dwattr $C$DW$256, DW_AT_decl_line(0x336)
    2777                            .dwattr $C$DW$256, DW_AT_decl_column(0x05)
    2778                    
    2779                    $C$DW$257       .dwtag  DW_TAG_enumerator
    2780                            .dwattr $C$DW$257, DW_AT_name("ApiMac_attribute_panId")
    2781                            .dwattr $C$DW$257, DW_AT_const_value(0x50)
    2782                            .dwattr $C$DW$257, DW_AT_decl_file("C:/CCSWorkspace/ECG603/sensor_cc1350lp/Application/api_mac
    2783                            .dwattr $C$DW$257, DW_AT_decl_line(0x33b)
    2784                            .dwattr $C$DW$257, DW_AT_decl_column(0x05)
    2785                    
    2786                    $C$DW$258       .dwtag  DW_TAG_enumerator
    2787                            .dwattr $C$DW$258, DW_AT_name("ApiMac_attribute_shortAddress")
    2788                            .dwattr $C$DW$258, DW_AT_const_value(0x53)
    2789                            .dwattr $C$DW$258, DW_AT_decl_file("C:/CCSWorkspace/ECG603/sensor_cc1350lp/Application/api_mac
    2790                            .dwattr $C$DW$258, DW_AT_decl_line(0x343)
    2791                            .dwattr $C$DW$258, DW_AT_decl_column(0x05)
    2792                    
    2793                    $C$DW$259       .dwtag  DW_TAG_enumerator
    2794                            .dwattr $C$DW$259, DW_AT_name("ApiMac_attribute_transactionPersistenceTime")
    2795                            .dwattr $C$DW$259, DW_AT_const_value(0x55)
    2796                            .dwattr $C$DW$259, DW_AT_decl_file("C:/CCSWorkspace/ECG603/sensor_cc1350lp/Application/api_mac
    2797                            .dwattr $C$DW$259, DW_AT_decl_line(0x348)
    2798                            .dwattr $C$DW$259, DW_AT_decl_column(0x05)
    2799                    
    2800                    $C$DW$260       .dwtag  DW_TAG_enumerator
    2801                            .dwattr $C$DW$260, DW_AT_name("ApiMac_attribute_maxFrameTotalWaitTime")
TI ARM Assembler PC v16.9.9 Sun Nov 25 17:19:51 2018

Tools Copyright (c) 1996-2017 Texas Instruments Incorporated
C:\Users\Stryd\AppData\Local\Temp\{7DA0ADB5-97D8-4466-9070-E3FE443B1FB8} PAGE   52

    2802                            .dwattr $C$DW$260, DW_AT_const_value(0x58)
    2803                            .dwattr $C$DW$260, DW_AT_decl_file("C:/CCSWorkspace/ECG603/sensor_cc1350lp/Application/api_mac
    2804                            .dwattr $C$DW$260, DW_AT_decl_line(0x34e)
    2805                            .dwattr $C$DW$260, DW_AT_decl_column(0x05)
    2806                    
    2807                    $C$DW$261       .dwtag  DW_TAG_enumerator
    2808                            .dwattr $C$DW$261, DW_AT_name("ApiMac_attribute_eBeaconOrderNBPAN")
    2809                            .dwattr $C$DW$261, DW_AT_const_value(0x60)
    2810                            .dwattr $C$DW$261, DW_AT_decl_file("C:/CCSWorkspace/ECG603/sensor_cc1350lp/Application/api_mac
    2811                            .dwattr $C$DW$261, DW_AT_decl_line(0x350)
    2812                            .dwattr $C$DW$261, DW_AT_decl_column(0x05)
    2813                    
    2814                            .dwattr $C$DW$T$698, DW_AT_decl_file("C:/CCSWorkspace/ECG603/sensor_cc1350lp/Application/api_m
    2815                            .dwattr $C$DW$T$698, DW_AT_decl_line(0x330)
    2816                            .dwattr $C$DW$T$698, DW_AT_decl_column(0x01)
    2817                            .dwendtag $C$DW$T$698
    2818                    
    2819                    $C$DW$T$699     .dwtag  DW_TAG_typedef
    2820                            .dwattr $C$DW$T$699, DW_AT_name("ApiMac_attribute_uint16_t")
    2821                            .dwattr $C$DW$T$699, DW_AT_type(*$C$DW$T$698)
    2822                            .dwattr $C$DW$T$699, DW_AT_language(DW_LANG_C)
    2823                            .dwattr $C$DW$T$699, DW_AT_decl_file("C:/CCSWorkspace/ECG603/sensor_cc1350lp/Application/api_m
    2824                            .dwattr $C$DW$T$699, DW_AT_decl_line(0x351)
    2825                            .dwattr $C$DW$T$699, DW_AT_decl_column(0x03)
    2826                    
    2827                    
    2828                    $C$DW$T$700     .dwtag  DW_TAG_enumeration_type
    2829                            .dwattr $C$DW$T$700, DW_AT_byte_size(0x01)
    2830                    $C$DW$262       .dwtag  DW_TAG_enumerator
    2831                            .dwattr $C$DW$262, DW_AT_name("ApiMac_attribute_beaconTxTime")
    2832                            .dwattr $C$DW$262, DW_AT_const_value(0x48)
    2833                            .dwattr $C$DW$262, DW_AT_decl_file("C:/CCSWorkspace/ECG603/sensor_cc1350lp/Application/api_mac
    2834                            .dwattr $C$DW$262, DW_AT_decl_line(0x35b)
    2835                            .dwattr $C$DW$262, DW_AT_decl_column(0x05)
    2836                    
    2837                    $C$DW$263       .dwtag  DW_TAG_enumerator
    2838                            .dwattr $C$DW$263, DW_AT_name("ApiMac_attribute_diagRxCrcPass")
    2839                            .dwattr $C$DW$263, DW_AT_const_value(0xea)
    2840                            .dwattr $C$DW$263, DW_AT_decl_file("C:/CCSWorkspace/ECG603/sensor_cc1350lp/Application/api_mac
    2841                            .dwattr $C$DW$263, DW_AT_decl_line(0x35d)
    2842                            .dwattr $C$DW$263, DW_AT_decl_column(0x05)
    2843                    
    2844                    $C$DW$264       .dwtag  DW_TAG_enumerator
    2845                            .dwattr $C$DW$264, DW_AT_name("ApiMac_attribute_diagRxCrcFail")
    2846                            .dwattr $C$DW$264, DW_AT_const_value(0xeb)
    2847                            .dwattr $C$DW$264, DW_AT_decl_file("C:/CCSWorkspace/ECG603/sensor_cc1350lp/Application/api_mac
    2848                            .dwattr $C$DW$264, DW_AT_decl_line(0x35f)
    2849                            .dwattr $C$DW$264, DW_AT_decl_column(0x05)
    2850                    
    2851                    $C$DW$265       .dwtag  DW_TAG_enumerator
    2852                            .dwattr $C$DW$265, DW_AT_name("ApiMac_attribute_diagRxBroadcast")
    2853                            .dwattr $C$DW$265, DW_AT_const_value(0xec)
    2854                            .dwattr $C$DW$265, DW_AT_decl_file("C:/CCSWorkspace/ECG603/sensor_cc1350lp/Application/api_mac
    2855                            .dwattr $C$DW$265, DW_AT_decl_line(0x361)
    2856                            .dwattr $C$DW$265, DW_AT_decl_column(0x05)
TI ARM Assembler PC v16.9.9 Sun Nov 25 17:19:51 2018

Tools Copyright (c) 1996-2017 Texas Instruments Incorporated
C:\Users\Stryd\AppData\Local\Temp\{7DA0ADB5-97D8-4466-9070-E3FE443B1FB8} PAGE   53

    2857                    
    2858                    $C$DW$266       .dwtag  DW_TAG_enumerator
    2859                            .dwattr $C$DW$266, DW_AT_name("ApiMac_attribute_diagTxBroadcast")
    2860                            .dwattr $C$DW$266, DW_AT_const_value(0xed)
    2861                            .dwattr $C$DW$266, DW_AT_decl_file("C:/CCSWorkspace/ECG603/sensor_cc1350lp/Application/api_mac
    2862                            .dwattr $C$DW$266, DW_AT_decl_line(0x363)
    2863                            .dwattr $C$DW$266, DW_AT_decl_column(0x05)
    2864                    
    2865                    $C$DW$267       .dwtag  DW_TAG_enumerator
    2866                            .dwattr $C$DW$267, DW_AT_name("ApiMac_attribute_diagRxUnicast")
    2867                            .dwattr $C$DW$267, DW_AT_const_value(0xee)
    2868                            .dwattr $C$DW$267, DW_AT_decl_file("C:/CCSWorkspace/ECG603/sensor_cc1350lp/Application/api_mac
    2869                            .dwattr $C$DW$267, DW_AT_decl_line(0x365)
    2870                            .dwattr $C$DW$267, DW_AT_decl_column(0x05)
    2871                    
    2872                    $C$DW$268       .dwtag  DW_TAG_enumerator
    2873                            .dwattr $C$DW$268, DW_AT_name("ApiMac_attribute_diagTxUnicast")
    2874                            .dwattr $C$DW$268, DW_AT_const_value(0xef)
    2875                            .dwattr $C$DW$268, DW_AT_decl_file("C:/CCSWorkspace/ECG603/sensor_cc1350lp/Application/api_mac
    2876                            .dwattr $C$DW$268, DW_AT_decl_line(0x367)
    2877                            .dwattr $C$DW$268, DW_AT_decl_column(0x05)
    2878                    
    2879                    $C$DW$269       .dwtag  DW_TAG_enumerator
    2880                            .dwattr $C$DW$269, DW_AT_name("ApiMac_attribute_diagTxUnicastRetry")
    2881                            .dwattr $C$DW$269, DW_AT_const_value(0xf0)
    2882                            .dwattr $C$DW$269, DW_AT_decl_file("C:/CCSWorkspace/ECG603/sensor_cc1350lp/Application/api_mac
    2883                            .dwattr $C$DW$269, DW_AT_decl_line(0x369)
    2884                            .dwattr $C$DW$269, DW_AT_decl_column(0x05)
    2885                    
    2886                    $C$DW$270       .dwtag  DW_TAG_enumerator
    2887                            .dwattr $C$DW$270, DW_AT_name("ApiMac_attribute_diagTxUnicastFail")
    2888                            .dwattr $C$DW$270, DW_AT_const_value(0xf1)
    2889                            .dwattr $C$DW$270, DW_AT_decl_file("C:/CCSWorkspace/ECG603/sensor_cc1350lp/Application/api_mac
    2890                            .dwattr $C$DW$270, DW_AT_decl_line(0x36b)
    2891                            .dwattr $C$DW$270, DW_AT_decl_column(0x05)
    2892                    
    2893                    $C$DW$271       .dwtag  DW_TAG_enumerator
    2894                            .dwattr $C$DW$271, DW_AT_name("ApiMac_attribute_diagRxSecureFail")
    2895                            .dwattr $C$DW$271, DW_AT_const_value(0xf2)
    2896                            .dwattr $C$DW$271, DW_AT_decl_file("C:/CCSWorkspace/ECG603/sensor_cc1350lp/Application/api_mac
    2897                            .dwattr $C$DW$271, DW_AT_decl_line(0x36d)
    2898                            .dwattr $C$DW$271, DW_AT_decl_column(0x05)
    2899                    
    2900                    $C$DW$272       .dwtag  DW_TAG_enumerator
    2901                            .dwattr $C$DW$272, DW_AT_name("ApiMac_attribute_diagTxSecureFail")
    2902                            .dwattr $C$DW$272, DW_AT_const_value(0xf3)
    2903                            .dwattr $C$DW$272, DW_AT_decl_file("C:/CCSWorkspace/ECG603/sensor_cc1350lp/Application/api_mac
    2904                            .dwattr $C$DW$272, DW_AT_decl_line(0x36f)
    2905                            .dwattr $C$DW$272, DW_AT_decl_column(0x05)
    2906                    
    2907                            .dwattr $C$DW$T$700, DW_AT_decl_file("C:/CCSWorkspace/ECG603/sensor_cc1350lp/Application/api_m
    2908                            .dwattr $C$DW$T$700, DW_AT_decl_line(0x356)
    2909                            .dwattr $C$DW$T$700, DW_AT_decl_column(0x01)
    2910                            .dwendtag $C$DW$T$700
    2911                    
TI ARM Assembler PC v16.9.9 Sun Nov 25 17:19:51 2018

Tools Copyright (c) 1996-2017 Texas Instruments Incorporated
C:\Users\Stryd\AppData\Local\Temp\{7DA0ADB5-97D8-4466-9070-E3FE443B1FB8} PAGE   54

    2912                    $C$DW$T$701     .dwtag  DW_TAG_typedef
    2913                            .dwattr $C$DW$T$701, DW_AT_name("ApiMac_attribute_uint32_t")
    2914                            .dwattr $C$DW$T$701, DW_AT_type(*$C$DW$T$700)
    2915                            .dwattr $C$DW$T$701, DW_AT_language(DW_LANG_C)
    2916                            .dwattr $C$DW$T$701, DW_AT_decl_file("C:/CCSWorkspace/ECG603/sensor_cc1350lp/Application/api_m
    2917                            .dwattr $C$DW$T$701, DW_AT_decl_line(0x370)
    2918                            .dwattr $C$DW$T$701, DW_AT_decl_column(0x03)
    2919                    
    2920                    
    2921                    $C$DW$T$702     .dwtag  DW_TAG_enumeration_type
    2922                            .dwattr $C$DW$T$702, DW_AT_byte_size(0x01)
    2923                    $C$DW$273       .dwtag  DW_TAG_enumerator
    2924                            .dwattr $C$DW$273, DW_AT_name("ApiMac_attribute_beaconPayload")
    2925                            .dwattr $C$DW$273, DW_AT_const_value(0x45)
    2926                            .dwattr $C$DW$273, DW_AT_decl_file("C:/CCSWorkspace/ECG603/sensor_cc1350lp/Application/api_mac
    2927                            .dwattr $C$DW$273, DW_AT_decl_line(0x376)
    2928                            .dwattr $C$DW$273, DW_AT_decl_column(0x05)
    2929                    
    2930                    $C$DW$274       .dwtag  DW_TAG_enumerator
    2931                            .dwattr $C$DW$274, DW_AT_name("ApiMac_attribute_coordExtendedAddress")
    2932                            .dwattr $C$DW$274, DW_AT_const_value(0x4a)
    2933                            .dwattr $C$DW$274, DW_AT_decl_file("C:/CCSWorkspace/ECG603/sensor_cc1350lp/Application/api_mac
    2934                            .dwattr $C$DW$274, DW_AT_decl_line(0x37b)
    2935                            .dwattr $C$DW$274, DW_AT_decl_column(0x05)
    2936                    
    2937                    $C$DW$275       .dwtag  DW_TAG_enumerator
    2938                            .dwattr $C$DW$275, DW_AT_name("ApiMac_attribute_extendedAddress")
    2939                            .dwattr $C$DW$275, DW_AT_const_value(0xe2)
    2940                            .dwattr $C$DW$275, DW_AT_decl_file("C:/CCSWorkspace/ECG603/sensor_cc1350lp/Application/api_mac
    2941                            .dwattr $C$DW$275, DW_AT_decl_line(0x37d)
    2942                            .dwattr $C$DW$275, DW_AT_decl_column(0x05)
    2943                    
    2944                            .dwattr $C$DW$T$702, DW_AT_decl_file("C:/CCSWorkspace/ECG603/sensor_cc1350lp/Application/api_m
    2945                            .dwattr $C$DW$T$702, DW_AT_decl_line(0x374)
    2946                            .dwattr $C$DW$T$702, DW_AT_decl_column(0x01)
    2947                            .dwendtag $C$DW$T$702
    2948                    
    2949                    $C$DW$T$703     .dwtag  DW_TAG_typedef
    2950                            .dwattr $C$DW$T$703, DW_AT_name("ApiMac_attribute_array_t")
    2951                            .dwattr $C$DW$T$703, DW_AT_type(*$C$DW$T$702)
    2952                            .dwattr $C$DW$T$703, DW_AT_language(DW_LANG_C)
    2953                            .dwattr $C$DW$T$703, DW_AT_decl_file("C:/CCSWorkspace/ECG603/sensor_cc1350lp/Application/api_m
    2954                            .dwattr $C$DW$T$703, DW_AT_decl_line(0x37e)
    2955                            .dwattr $C$DW$T$703, DW_AT_decl_column(0x03)
    2956                    
    2957                    
    2958                    $C$DW$T$704     .dwtag  DW_TAG_enumeration_type
    2959                            .dwattr $C$DW$T$704, DW_AT_byte_size(0x01)
    2960                    $C$DW$276       .dwtag  DW_TAG_enumerator
    2961                            .dwattr $C$DW$276, DW_AT_name("ApiMac_securityAttribute_securityLevelTableEntries")
    2962                            .dwattr $C$DW$276, DW_AT_const_value(0x83)
    2963                            .dwattr $C$DW$276, DW_AT_decl_file("C:/CCSWorkspace/ECG603/sensor_cc1350lp/Application/api_mac
    2964                            .dwattr $C$DW$276, DW_AT_decl_line(0x384)
    2965                            .dwattr $C$DW$276, DW_AT_decl_column(0x05)
    2966                    
TI ARM Assembler PC v16.9.9 Sun Nov 25 17:19:51 2018

Tools Copyright (c) 1996-2017 Texas Instruments Incorporated
C:\Users\Stryd\AppData\Local\Temp\{7DA0ADB5-97D8-4466-9070-E3FE443B1FB8} PAGE   55

    2967                    $C$DW$277       .dwtag  DW_TAG_enumerator
    2968                            .dwattr $C$DW$277, DW_AT_name("ApiMac_securityAttribute_autoRequestSecurityLevel")
    2969                            .dwattr $C$DW$277, DW_AT_const_value(0x85)
    2970                            .dwattr $C$DW$277, DW_AT_decl_file("C:/CCSWorkspace/ECG603/sensor_cc1350lp/Application/api_mac
    2971                            .dwattr $C$DW$277, DW_AT_decl_line(0x386)
    2972                            .dwattr $C$DW$277, DW_AT_decl_column(0x05)
    2973                    
    2974                    $C$DW$278       .dwtag  DW_TAG_enumerator
    2975                            .dwattr $C$DW$278, DW_AT_name("ApiMac_securityAttribute_autoRequestKeyIdMode")
    2976                            .dwattr $C$DW$278, DW_AT_const_value(0x86)
    2977                            .dwattr $C$DW$278, DW_AT_decl_file("C:/CCSWorkspace/ECG603/sensor_cc1350lp/Application/api_mac
    2978                            .dwattr $C$DW$278, DW_AT_decl_line(0x388)
    2979                            .dwattr $C$DW$278, DW_AT_decl_column(0x05)
    2980                    
    2981                    $C$DW$279       .dwtag  DW_TAG_enumerator
    2982                            .dwattr $C$DW$279, DW_AT_name("ApiMac_securityAttribute_autoRequestKeyIndex")
    2983                            .dwattr $C$DW$279, DW_AT_const_value(0x88)
    2984                            .dwattr $C$DW$279, DW_AT_decl_file("C:/CCSWorkspace/ECG603/sensor_cc1350lp/Application/api_mac
    2985                            .dwattr $C$DW$279, DW_AT_decl_line(0x38a)
    2986                            .dwattr $C$DW$279, DW_AT_decl_column(0x05)
    2987                    
    2988                            .dwattr $C$DW$T$704, DW_AT_decl_file("C:/CCSWorkspace/ECG603/sensor_cc1350lp/Application/api_m
    2989                            .dwattr $C$DW$T$704, DW_AT_decl_line(0x382)
    2990                            .dwattr $C$DW$T$704, DW_AT_decl_column(0x01)
    2991                            .dwendtag $C$DW$T$704
    2992                    
    2993                    $C$DW$T$705     .dwtag  DW_TAG_typedef
    2994                            .dwattr $C$DW$T$705, DW_AT_name("ApiMac_securityAttribute_uint8_t")
    2995                            .dwattr $C$DW$T$705, DW_AT_type(*$C$DW$T$704)
    2996                            .dwattr $C$DW$T$705, DW_AT_language(DW_LANG_C)
    2997                            .dwattr $C$DW$T$705, DW_AT_decl_file("C:/CCSWorkspace/ECG603/sensor_cc1350lp/Application/api_m
    2998                            .dwattr $C$DW$T$705, DW_AT_decl_line(0x38b)
    2999                            .dwattr $C$DW$T$705, DW_AT_decl_column(0x03)
    3000                    
    3001                    
    3002                    $C$DW$T$706     .dwtag  DW_TAG_enumeration_type
    3003                            .dwattr $C$DW$T$706, DW_AT_byte_size(0x01)
    3004                    $C$DW$280       .dwtag  DW_TAG_enumerator
    3005                            .dwattr $C$DW$280, DW_AT_name("ApiMac_securityAttribute_keyTableEntries")
