TI ARM Assembler PC v16.9.9 Sun Nov 25 17:19:51 2018

Tools Copyright (c) 1996-2017 Texas Instruments Incorporated
C:\Users\Stryd\AppData\Local\Temp\{879FE331-A814-4A40-B693-7BEB0BC2D33C} PAGE    1

       1                    ;******************************************************************************
       2                    ;* TI ARM C/C++ Codegen                                        PC v16.9.9.LTS *
       3                    ;* Date/Time created: Sun Nov 25 17:19:50 2018                                *
       4                    ;******************************************************************************
       5                            .compiler_opts --abi=eabi --arm_vmrs_si_workaround=off --code_state=16 --diag_wrap=off --embed
       6 00000000                   .thumb
       7                    
       8                    $C$DW$CU        .dwtag  DW_TAG_compile_unit
       9                            .dwattr $C$DW$CU, DW_AT_name("../Application/LaunchPad/board_key.c")
      10                            .dwattr $C$DW$CU, DW_AT_producer("TI TI ARM C/C++ Codegen PC v16.9.9.LTS Copyright (c) 1996-20
      11                            .dwattr $C$DW$CU, DW_AT_TI_version(0x01)
      12                            .dwattr $C$DW$CU, DW_AT_comp_dir("C:\CCSWorkspace\ECG603\sensor_cc1350lp\sensor_cc1350lp")
      13                    
      14                    $C$DW$1 .dwtag  DW_TAG_subprogram
      15                            .dwattr $C$DW$1, DW_AT_name("PIN_open")
      16                            .dwattr $C$DW$1, DW_AT_TI_symbol_name("PIN_open")
      17                            .dwattr $C$DW$1, DW_AT_type(*$C$DW$T$194)
      18                            .dwattr $C$DW$1, DW_AT_declaration
      19                            .dwattr $C$DW$1, DW_AT_external
      20                            .dwattr $C$DW$1, DW_AT_decl_file("C:/ti/simplelink_cc13x0_sdk_2_30_00_20/source/ti/drivers/PIN
      21                            .dwattr $C$DW$1, DW_AT_decl_line(0x2f5)
      22                            .dwattr $C$DW$1, DW_AT_decl_column(0x13)
      23                    $C$DW$2 .dwtag  DW_TAG_formal_parameter
      24                            .dwattr $C$DW$2, DW_AT_type(*$C$DW$T$193)
      25                    
      26                    $C$DW$3 .dwtag  DW_TAG_formal_parameter
      27                            .dwattr $C$DW$3, DW_AT_type(*$C$DW$T$523)
      28                    
      29                            .dwendtag $C$DW$1
      30                    
      31                    
      32                    $C$DW$4 .dwtag  DW_TAG_subprogram
      33                            .dwattr $C$DW$4, DW_AT_name("PIN_getInputValue")
      34                            .dwattr $C$DW$4, DW_AT_TI_symbol_name("PIN_getInputValue")
      35                            .dwattr $C$DW$4, DW_AT_type(*$C$DW$T$137)
      36                            .dwattr $C$DW$4, DW_AT_declaration
      37                            .dwattr $C$DW$4, DW_AT_external
      38                            .dwattr $C$DW$4, DW_AT_decl_file("C:/ti/simplelink_cc13x0_sdk_2_30_00_20/source/ti/drivers/PIN
      39                            .dwattr $C$DW$4, DW_AT_decl_line(0x344)
      40                            .dwattr $C$DW$4, DW_AT_decl_column(0x11)
      41                    $C$DW$5 .dwtag  DW_TAG_formal_parameter
      42                            .dwattr $C$DW$5, DW_AT_type(*$C$DW$T$195)
      43                    
      44                            .dwendtag $C$DW$4
      45                    
      46                    
      47                    $C$DW$6 .dwtag  DW_TAG_subprogram
      48                            .dwattr $C$DW$6, DW_AT_name("PIN_registerIntCb")
      49                            .dwattr $C$DW$6, DW_AT_TI_symbol_name("PIN_registerIntCb")
      50                            .dwattr $C$DW$6, DW_AT_type(*$C$DW$T$470)
      51                            .dwattr $C$DW$6, DW_AT_declaration
      52                            .dwattr $C$DW$6, DW_AT_external
      53                            .dwattr $C$DW$6, DW_AT_decl_file("C:/ti/simplelink_cc13x0_sdk_2_30_00_20/source/ti/drivers/PIN
      54                            .dwattr $C$DW$6, DW_AT_decl_line(0x3ae)
      55                            .dwattr $C$DW$6, DW_AT_decl_column(0x13)
TI ARM Assembler PC v16.9.9 Sun Nov 25 17:19:51 2018

Tools Copyright (c) 1996-2017 Texas Instruments Incorporated
C:\Users\Stryd\AppData\Local\Temp\{879FE331-A814-4A40-B693-7BEB0BC2D33C} PAGE    2

      56                    $C$DW$7 .dwtag  DW_TAG_formal_parameter
      57                            .dwattr $C$DW$7, DW_AT_type(*$C$DW$T$194)
      58                    
      59                    $C$DW$8 .dwtag  DW_TAG_formal_parameter
      60                            .dwattr $C$DW$8, DW_AT_type(*$C$DW$T$198)
      61                    
      62                            .dwendtag $C$DW$6
      63                    
      64                    
      65                    $C$DW$9 .dwtag  DW_TAG_subprogram
      66                            .dwattr $C$DW$9, DW_AT_name("Timer_construct")
      67                            .dwattr $C$DW$9, DW_AT_TI_symbol_name("Timer_construct")
      68                            .dwattr $C$DW$9, DW_AT_type(*$C$DW$T$1053)
      69                            .dwattr $C$DW$9, DW_AT_declaration
      70                            .dwattr $C$DW$9, DW_AT_external
      71                            .dwattr $C$DW$9, DW_AT_decl_file("C:/CCSWorkspace/ECG603/sensor_cc1350lp/Application/util_time
      72                            .dwattr $C$DW$9, DW_AT_decl_line(0x5e)
      73                            .dwattr $C$DW$9, DW_AT_decl_column(0x15)
      74                    $C$DW$10        .dwtag  DW_TAG_formal_parameter
      75                            .dwattr $C$DW$10, DW_AT_type(*$C$DW$T$612)
      76                    
      77                    $C$DW$11        .dwtag  DW_TAG_formal_parameter
      78                            .dwattr $C$DW$11, DW_AT_type(*$C$DW$T$265)
      79                    
      80                    $C$DW$12        .dwtag  DW_TAG_formal_parameter
      81                            .dwattr $C$DW$12, DW_AT_type(*$C$DW$T$137)
      82                    
      83                    $C$DW$13        .dwtag  DW_TAG_formal_parameter
      84                            .dwattr $C$DW$13, DW_AT_type(*$C$DW$T$137)
      85                    
      86                    $C$DW$14        .dwtag  DW_TAG_formal_parameter
      87                            .dwattr $C$DW$14, DW_AT_type(*$C$DW$T$138)
      88                    
      89                    $C$DW$15        .dwtag  DW_TAG_formal_parameter
      90                            .dwattr $C$DW$15, DW_AT_type(*$C$DW$T$615)
      91                    
      92                            .dwendtag $C$DW$9
      93                    
      94                    
      95                    $C$DW$16        .dwtag  DW_TAG_subprogram
      96                            .dwattr $C$DW$16, DW_AT_name("Timer_start")
      97                            .dwattr $C$DW$16, DW_AT_TI_symbol_name("Timer_start")
      98                            .dwattr $C$DW$16, DW_AT_declaration
      99                            .dwattr $C$DW$16, DW_AT_external
     100                            .dwattr $C$DW$16, DW_AT_decl_file("C:/CCSWorkspace/ECG603/sensor_cc1350lp/Application/util_tim
     101                            .dwattr $C$DW$16, DW_AT_decl_line(0x6a)
     102                            .dwattr $C$DW$16, DW_AT_decl_column(0x0d)
     103                    $C$DW$17        .dwtag  DW_TAG_formal_parameter
     104                            .dwattr $C$DW$17, DW_AT_type(*$C$DW$T$612)
     105                    
     106                            .dwendtag $C$DW$16
     107                    
     108                    
     109                    $C$DW$18        .dwtag  DW_TAG_subprogram
     110                            .dwattr $C$DW$18, DW_AT_name("Timer_isActive")
TI ARM Assembler PC v16.9.9 Sun Nov 25 17:19:51 2018

Tools Copyright (c) 1996-2017 Texas Instruments Incorporated
C:\Users\Stryd\AppData\Local\Temp\{879FE331-A814-4A40-B693-7BEB0BC2D33C} PAGE    3

     111                            .dwattr $C$DW$18, DW_AT_TI_symbol_name("Timer_isActive")
     112                            .dwattr $C$DW$18, DW_AT_type(*$C$DW$T$985)
     113                            .dwattr $C$DW$18, DW_AT_declaration
     114                            .dwattr $C$DW$18, DW_AT_external
     115                            .dwattr $C$DW$18, DW_AT_decl_file("C:/CCSWorkspace/ECG603/sensor_cc1350lp/Application/util_tim
     116                            .dwattr $C$DW$18, DW_AT_decl_line(0x73)
     117                            .dwattr $C$DW$18, DW_AT_decl_column(0x0d)
     118                    $C$DW$19        .dwtag  DW_TAG_formal_parameter
     119                            .dwattr $C$DW$19, DW_AT_type(*$C$DW$T$612)
     120                    
     121                            .dwendtag $C$DW$18
     122                    
     123 00000000                   .sect   ".data:$O1$$", RW
     124                            .align  4
     125                            .elfsym ||$O1$$||,SYM_SIZE(72)
     126 00000000           ||$O1$$||:
     127 00000000 00000000          .bits   0,32
     128 00000004 00000000          .bits   0,32                    ; $O1$$.appKeyChangeHandler @ 32
     129 00000008 00000000          .bits   0,32
     130 0000000c 8005200D          .bits   -2147147763,32                  ; $O1$$.keyPinTable[0] @ 96
     131 00000010 8005200E          .bits   -2147147762,32                  ; $O1$$.keyPinTable[1] @ 128
     132 00000014 000000FE          .bits   254,32                  ; $O1$$.keyPinTable[2] @ 160
     133 00000018                   .space  48
     134                    
     135                    
     136                    ;*********************************************************************
     137                    ;* GROUPED GLOBALS FOR $O1$$                                         *
     138                    ;*********************************************************************
     139          00000000! keysPressed:    .set    ||$O1$$||+0
     140                    $C$DW$20        .dwtag  DW_TAG_variable
     141                            .dwattr $C$DW$20, DW_AT_name("keysPressed")
     142                            .dwattr $C$DW$20, DW_AT_TI_symbol_name("keysPressed")
     143                            .dwattr $C$DW$20, DW_AT_type(*$C$DW$T$138)
     144                            .dwattr $C$DW$20, DW_AT_location[DW_OP_addr keysPressed]
     145                            .dwattr $C$DW$20, DW_AT_decl_file("../Application/LaunchPad/board_key.c")
     146                            .dwattr $C$DW$20, DW_AT_decl_line(0x42)
     147                            .dwattr $C$DW$20, DW_AT_decl_column(0x10)
     148                    
     149          00000001! keyButton0:     .set    ||$O1$$||+1
     150                    $C$DW$21        .dwtag  DW_TAG_variable
     151                            .dwattr $C$DW$21, DW_AT_name("keyButton0")
     152                            .dwattr $C$DW$21, DW_AT_TI_symbol_name("keyButton0")
     153                            .dwattr $C$DW$21, DW_AT_type(*$C$DW$T$195)
     154                            .dwattr $C$DW$21, DW_AT_location[DW_OP_addr keyButton0]
     155                            .dwattr $C$DW$21, DW_AT_decl_file("../Application/LaunchPad/board_key.c")
     156                            .dwattr $C$DW$21, DW_AT_decl_line(0x63)
     157                            .dwattr $C$DW$21, DW_AT_decl_column(0x0f)
     158                    
     159          00000002! keyButton1:     .set    ||$O1$$||+2
     160                    $C$DW$22        .dwtag  DW_TAG_variable
     161                            .dwattr $C$DW$22, DW_AT_name("keyButton1")
     162                            .dwattr $C$DW$22, DW_AT_TI_symbol_name("keyButton1")
     163                            .dwattr $C$DW$22, DW_AT_type(*$C$DW$T$195)
     164                            .dwattr $C$DW$22, DW_AT_location[DW_OP_addr keyButton1]
     165                            .dwattr $C$DW$22, DW_AT_decl_file("../Application/LaunchPad/board_key.c")
TI ARM Assembler PC v16.9.9 Sun Nov 25 17:19:51 2018

Tools Copyright (c) 1996-2017 Texas Instruments Incorporated
C:\Users\Stryd\AppData\Local\Temp\{879FE331-A814-4A40-B693-7BEB0BC2D33C} PAGE    4

     166                            .dwattr $C$DW$22, DW_AT_decl_line(0x64)
     167                            .dwattr $C$DW$22, DW_AT_decl_column(0x0f)
     168                    
     169          00000004! appKeyChangeHandler:    .set    ||$O1$$||+4
     170                    $C$DW$23        .dwtag  DW_TAG_variable
     171                            .dwattr $C$DW$23, DW_AT_name("appKeyChangeHandler")
     172                            .dwattr $C$DW$23, DW_AT_TI_symbol_name("appKeyChangeHandler")
     173                            .dwattr $C$DW$23, DW_AT_type(*$C$DW$T$592)
     174                            .dwattr $C$DW$23, DW_AT_location[DW_OP_addr appKeyChangeHandler]
     175                            .dwattr $C$DW$23, DW_AT_decl_file("../Application/LaunchPad/board_key.c")
     176                            .dwattr $C$DW$23, DW_AT_decl_line(0x48)
     177                            .dwattr $C$DW$23, DW_AT_decl_column(0x22)
     178                    
     179          00000008! keyPinHandle:   .set    ||$O1$$||+8
     180                    $C$DW$24        .dwtag  DW_TAG_variable
     181                            .dwattr $C$DW$24, DW_AT_name("keyPinHandle")
     182                            .dwattr $C$DW$24, DW_AT_TI_symbol_name("keyPinHandle")
     183                            .dwattr $C$DW$24, DW_AT_type(*$C$DW$T$194)
     184                            .dwattr $C$DW$24, DW_AT_location[DW_OP_addr keyPinHandle]
     185                            .dwattr $C$DW$24, DW_AT_decl_file("../Application/LaunchPad/board_key.c")
     186                            .dwattr $C$DW$24, DW_AT_decl_line(0x60)
     187                            .dwattr $C$DW$24, DW_AT_decl_column(0x13)
     188                    
     189          0000000C! keyPinTable:    .set    ||$O1$$||+12
     190                    $C$DW$25        .dwtag  DW_TAG_variable
     191                            .dwattr $C$DW$25, DW_AT_name("keyPinTable")
     192                            .dwattr $C$DW$25, DW_AT_TI_symbol_name("keyPinTable")
     193                            .dwattr $C$DW$25, DW_AT_type(*$C$DW$T$866)
     194                            .dwattr $C$DW$25, DW_AT_location[DW_OP_addr keyPinTable]
     195                            .dwattr $C$DW$25, DW_AT_decl_file("../Application/LaunchPad/board_key.c")
     196                            .dwattr $C$DW$25, DW_AT_decl_line(0x4e)
     197                            .dwattr $C$DW$25, DW_AT_decl_column(0x13)
     198                    
     199          00000018! keyPinState:    .set    ||$O1$$||+24
     200                    $C$DW$26        .dwtag  DW_TAG_variable
     201                            .dwattr $C$DW$26, DW_AT_name("keyPinState")
     202                            .dwattr $C$DW$26, DW_AT_TI_symbol_name("keyPinState")
     203                            .dwattr $C$DW$26, DW_AT_type(*$C$DW$T$192)
     204                            .dwattr $C$DW$26, DW_AT_location[DW_OP_addr keyPinState]
     205                            .dwattr $C$DW$26, DW_AT_decl_file("../Application/LaunchPad/board_key.c")
     206                            .dwattr $C$DW$26, DW_AT_decl_line(0x5d)
     207                            .dwattr $C$DW$26, DW_AT_decl_column(0x12)
     208                    
     209          00000024! keyChangeClock: .set    ||$O1$$||+36
     210                    $C$DW$27        .dwtag  DW_TAG_variable
     211                            .dwattr $C$DW$27, DW_AT_name("keyChangeClock")
     212                            .dwattr $C$DW$27, DW_AT_TI_symbol_name("keyChangeClock")
     213                            .dwattr $C$DW$27, DW_AT_type(*$C$DW$T$611)
     214                            .dwattr $C$DW$27, DW_AT_location[DW_OP_addr keyChangeClock]
     215                            .dwattr $C$DW$27, DW_AT_decl_file("../Application/LaunchPad/board_key.c")
     216                            .dwattr $C$DW$27, DW_AT_decl_line(0x45)
     217                            .dwattr $C$DW$27, DW_AT_decl_column(0x15)
     218                    
     219                    ;       C:\ti\ccsv7\tools\compiler\ti-cgt-arm_16.9.9.LTS\bin\armopt.exe C:/CCSWorkspace/ECG603/sensor_
     220 00000000                   .sect   ".text:board_key_keyFxn"
TI ARM Assembler PC v16.9.9 Sun Nov 25 17:19:51 2018

Tools Copyright (c) 1996-2017 Texas Instruments Incorporated
C:\Users\Stryd\AppData\Local\Temp\{879FE331-A814-4A40-B693-7BEB0BC2D33C} PAGE    5

     221                            .clink
     222                            .thumbfunc board_key_keyFxn
     223 00000000                   .thumb
     224                    
     225                    $C$DW$28        .dwtag  DW_TAG_subprogram
     226                            .dwattr $C$DW$28, DW_AT_name("board_key_keyFxn")
     227                            .dwattr $C$DW$28, DW_AT_low_pc(board_key_keyFxn)
     228                            .dwattr $C$DW$28, DW_AT_high_pc(0x00)
     229                            .dwattr $C$DW$28, DW_AT_TI_symbol_name("board_key_keyFxn")
     230                            .dwattr $C$DW$28, DW_AT_TI_begin_file("../Application/LaunchPad/board_key.c")
     231                            .dwattr $C$DW$28, DW_AT_TI_begin_line(0xa6)
     232                            .dwattr $C$DW$28, DW_AT_TI_begin_column(0x0d)
     233                            .dwattr $C$DW$28, DW_AT_decl_file("../Application/LaunchPad/board_key.c")
     234                            .dwattr $C$DW$28, DW_AT_decl_line(0xa6)
     235                            .dwattr $C$DW$28, DW_AT_decl_column(0x0d)
     236                            .dwattr $C$DW$28, DW_AT_TI_max_frame_size(0x08)
     237                            .dwpsn  file "../Application/LaunchPad/board_key.c",line 167,column 1,is_stmt,address board_ke
     238                    
     239                            .dwfde $C$DW$CIE, board_key_keyFxn
     240                    $C$DW$29        .dwtag  DW_TAG_formal_parameter
     241                            .dwattr $C$DW$29, DW_AT_name("keyPinHandle")
     242                            .dwattr $C$DW$29, DW_AT_TI_symbol_name("keyPinHandle")
     243                            .dwattr $C$DW$29, DW_AT_type(*$C$DW$T$194)
     244                            .dwattr $C$DW$29, DW_AT_location[DW_OP_reg0]
     245                    
     246                    $C$DW$30        .dwtag  DW_TAG_formal_parameter
     247                            .dwattr $C$DW$30, DW_AT_name("keyPinId")
     248                            .dwattr $C$DW$30, DW_AT_TI_symbol_name("keyPinId")
     249                            .dwattr $C$DW$30, DW_AT_type(*$C$DW$T$10)
     250                            .dwattr $C$DW$30, DW_AT_location[DW_OP_reg1]
     251                    
     252                    
     253                    ;*****************************************************************************
     254                    ;* FUNCTION NAME: board_key_keyFxn                                           *
     255                    ;*                                                                           *
     256                    ;*   Regs Modified     : A1,A2,A3,A4,V1,V9,SP,LR,SR                          *
     257                    ;*   Regs Used         : A1,A2,A3,A4,V1,V9,SP,LR,SR                          *
     258                    ;*   Local Frame Size  : 0 Args + 0 Auto + 8 Save = 8 byte                   *
     259                    ;*****************************************************************************
     260                    board_key_keyFxn:
     261                    ;* --------------------------------------------------------------------------*
     262                    ;* A1    assigned to $O$C1
     263                    ;* A1    assigned to $O$C2
     264                    ;* A1    assigned to $O$K3
     265                    ;* V1    assigned to $O$K19
     266                    ;* A3    assigned to $O$v1
     267                    ;* A2    assigned to keyPinId
     268                    $C$DW$31        .dwtag  DW_TAG_variable
     269                            .dwattr $C$DW$31, DW_AT_name("keyPinId")
     270                            .dwattr $C$DW$31, DW_AT_TI_symbol_name("keyPinId")
     271                            .dwattr $C$DW$31, DW_AT_type(*$C$DW$T$737)
     272                            .dwattr $C$DW$31, DW_AT_location[DW_OP_reg1]
     273                    
     274                            .dwcfi  cfa_offset, 0
     275                            .dwpsn  file "../Application/LaunchPad/board_key.c",line 170,column 5,is_stmt,isa 1
TI ARM Assembler PC v16.9.9 Sun Nov 25 17:19:51 2018

Tools Copyright (c) 1996-2017 Texas Instruments Incorporated
C:\Users\Stryd\AppData\Local\Temp\{879FE331-A814-4A40-B693-7BEB0BC2D33C} PAGE    6

     276 00000000 480C              LDR       A1, $C$CON1           ; [DPU_3_PIPE] |170|  ; [ORIG 16-BIT INS]
     277 00000002 B510              PUSH      {V1, LR}              ; [DPU_3_PIPE]  ; [ORIG 16-BIT INS]
     278                            .dwcfi  cfa_offset, 8
     279                            .dwcfi  save_reg_to_mem, 14, -4
     280                            .dwcfi  save_reg_to_mem, 4, -8
     281 00000004 7843              LDRB      A4, [A1, #1]          ; [DPU_3_PIPE] |170|  ; [ORIG 16-BIT INS]
     282 00000006 7802              LDRB      A3, [A1, #0]          ; [DPU_3_PIPE] |170|  ; [ORIG 16-BIT INS]
     283 00000008 428B              CMP       A4, A2                ; [DPU_3_PIPE] |170|  ; [ORIG 16-BIT INS]
     284 0000000a D005              BEQ       ||$C$L1||             ; [DPU_3_PIPE] |170|  ; [ORIG 16-BIT INS]
     285                            ; BRANCHCC OCCURS {||$C$L1||}    ; [] |170| 
     286                    ;* --------------------------------------------------------------------------*
     287                            .dwpsn  file "../Application/LaunchPad/board_key.c",line 174,column 10,is_stmt,isa 1
     288 0000000c 7883              LDRB      A4, [A1, #2]          ; [DPU_3_PIPE] |174|  ; [ORIG 16-BIT INS]
     289 0000000e 428B              CMP       A4, A2                ; [DPU_3_PIPE] |174|  ; [ORIG 16-BIT INS]
     290 00000010 D105              BNE       ||$C$L3||             ; [DPU_3_PIPE] |174|  ; [ORIG 16-BIT INS]
     291                            ; BRANCHCC OCCURS {||$C$L3||}    ; [] |174| 
     292                    ;* --------------------------------------------------------------------------*
     293                            .dwpsn  file "../Application/LaunchPad/board_key.c",line 176,column 9,is_stmt,isa 1
     294 00000012 0210F042          ORR       A3, A3, #16           ; [DPU_3_PIPE] |176|  ; [KEEP 32-BIT INS]
     295 00000016 E001              B         ||$C$L2||             ; [DPU_3_PIPE] |176|  ; [ORIG 16-BIT INS]
     296                            ; BRANCH OCCURS {||$C$L2||}      ; [] |176| 
     297                    ;* --------------------------------------------------------------------------*
     298 00000018           ||$C$L1||:    
     299                            .dwpsn  file "../Application/LaunchPad/board_key.c",line 172,column 9,is_stmt,isa 1
     300 00000018 0208F042          ORR       A3, A3, #8            ; [DPU_3_PIPE] |172|  ; [KEEP 32-BIT INS]
     301                    ;* --------------------------------------------------------------------------*
     302 0000001c           ||$C$L2||:    
     303 0000001c 7002              STRB      A3, [A1, #0]          ; [DPU_3_PIPE] |172|  ; [ORIG 16-BIT INS]
     304                    ;* --------------------------------------------------------------------------*
     305 0000001e           ||$C$L3||:    
     306 0000001e 3024              ADDS      A1, A1, #36           ; [DPU_3_PIPE]  ; [ORIG 16-BIT INS]
     307                            .dwpsn  file "../Application/LaunchPad/board_key.c",line 179,column 5,is_stmt,isa 1
     308 00000020 4604              MOV       V1, A1                ; [DPU_3_PIPE] |179|  ; [ORIG 16-BIT INS]
     309                    $C$DW$32        .dwtag  DW_TAG_TI_branch
     310                            .dwattr $C$DW$32, DW_AT_low_pc(0x00)
     311                            .dwattr $C$DW$32, DW_AT_name("Timer_isActive")
     312                            .dwattr $C$DW$32, DW_AT_TI_call
     313                    
     314 00000022 FFFEF7FF!         BL        Timer_isActive        ; [DPU_3_PIPE] |179|  ; [KEEP 32-BIT INS]
     315                            ; CALL OCCURS {Timer_isActive }  ; [] |179| 
     316 00000026 2801              CMP       A1, #1                ; [DPU_3_PIPE] |179|  ; [ORIG 16-BIT INS]
     317 00000028 D002              BEQ       ||$C$L4||             ; [DPU_3_PIPE] |179|  ; [ORIG 16-BIT INS]
     318                            ; BRANCHCC OCCURS {||$C$L4||}    ; [] |179| 
     319                    ;* --------------------------------------------------------------------------*
     320                            .dwpsn  file "../Application/LaunchPad/board_key.c",line 181,column 9,is_stmt,isa 1
     321 0000002a 4620              MOV       A1, V1                ; [DPU_3_PIPE] |181|  ; [ORIG 16-BIT INS]
     322                    $C$DW$33        .dwtag  DW_TAG_TI_branch
     323                            .dwattr $C$DW$33, DW_AT_low_pc(0x00)
     324                            .dwattr $C$DW$33, DW_AT_name("Timer_start")
     325                            .dwattr $C$DW$33, DW_AT_TI_call
     326                    
     327 0000002c FFFEF7FF!         BL        Timer_start           ; [DPU_3_PIPE] |181|  ; [KEEP 32-BIT INS]
     328                            ; CALL OCCURS {Timer_start }     ; [] |181| 
     329                    ;* --------------------------------------------------------------------------*
     330                    ||$C$L4||:    
TI ARM Assembler PC v16.9.9 Sun Nov 25 17:19:51 2018

Tools Copyright (c) 1996-2017 Texas Instruments Incorporated
C:\Users\Stryd\AppData\Local\Temp\{879FE331-A814-4A40-B693-7BEB0BC2D33C} PAGE    7

     331                    $C$DW$34        .dwtag  DW_TAG_TI_branch
     332                            .dwattr $C$DW$34, DW_AT_low_pc(0x00)
     333                            .dwattr $C$DW$34, DW_AT_TI_return
     334                    
     335 00000030 BD10              POP       {V1, PC}              ; [DPU_3_PIPE]  ; [ORIG 16-BIT INS]
     336                            .dwcfi  cfa_offset, 0
     337                            .dwcfi  restore_reg, 4
     338                            ; BRANCH OCCURS                  ; [] 
     339                            .dwattr $C$DW$28, DW_AT_TI_end_file("../Application/LaunchPad/board_key.c")
     340                            .dwattr $C$DW$28, DW_AT_TI_end_line(0xb7)
     341                            .dwattr $C$DW$28, DW_AT_TI_end_column(0x01)
     342                            .dwendentry
     343                            .dwendtag $C$DW$28
     344                    
     345 00000000                   .sect   ".text:board_key_changeHandler"
     346                            .clink
     347                            .thumbfunc board_key_changeHandler
     348 00000000                   .thumb
     349                    
     350                    $C$DW$35        .dwtag  DW_TAG_subprogram
     351                            .dwattr $C$DW$35, DW_AT_name("board_key_changeHandler")
     352                            .dwattr $C$DW$35, DW_AT_low_pc(board_key_changeHandler)
     353                            .dwattr $C$DW$35, DW_AT_high_pc(0x00)
     354                            .dwattr $C$DW$35, DW_AT_TI_symbol_name("board_key_changeHandler")
     355                            .dwattr $C$DW$35, DW_AT_TI_begin_file("../Application/LaunchPad/board_key.c")
     356                            .dwattr $C$DW$35, DW_AT_TI_begin_line(0xbe)
     357                            .dwattr $C$DW$35, DW_AT_TI_begin_column(0x0d)
     358                            .dwattr $C$DW$35, DW_AT_decl_file("../Application/LaunchPad/board_key.c")
     359                            .dwattr $C$DW$35, DW_AT_decl_line(0xbe)
     360                            .dwattr $C$DW$35, DW_AT_decl_column(0x0d)
     361                            .dwattr $C$DW$35, DW_AT_TI_max_frame_size(0x08)
     362                            .dwpsn  file "../Application/LaunchPad/board_key.c",line 191,column 1,is_stmt,address board_ke
     363                    
     364                            .dwfde $C$DW$CIE, board_key_changeHandler
     365                    $C$DW$36        .dwtag  DW_TAG_formal_parameter
     366                            .dwattr $C$DW$36, DW_AT_name("a0")
     367                            .dwattr $C$DW$36, DW_AT_TI_symbol_name("a0")
     368                            .dwattr $C$DW$36, DW_AT_type(*$C$DW$T$615)
     369                            .dwattr $C$DW$36, DW_AT_location[DW_OP_reg0]
     370                    
     371                    
     372                    ;*****************************************************************************
     373                    ;* FUNCTION NAME: board_key_changeHandler                                    *
     374                    ;*                                                                           *
     375                    ;*   Regs Modified     : A1,A2,A3,A4,V1,V9,SP,LR,SR                          *
     376                    ;*   Regs Used         : A1,A2,A3,A4,V1,V9,SP,LR,SR                          *
     377                    ;*   Local Frame Size  : 0 Args + 0 Auto + 8 Save = 8 byte                   *
     378                    ;*****************************************************************************
     379 00000000           board_key_changeHandler:
     380                    ;* --------------------------------------------------------------------------*
     381                    ;* A2    assigned to $O$C1
     382                    ;* V1    assigned to $O$C2
     383                    ;* V1    assigned to $O$K2
     384                            .dwcfi  cfa_offset, 0
     385 00000000 B510              PUSH      {V1, LR}              ; [DPU_3_PIPE]  ; [ORIG 16-BIT INS]
TI ARM Assembler PC v16.9.9 Sun Nov 25 17:19:51 2018

Tools Copyright (c) 1996-2017 Texas Instruments Incorporated
C:\Users\Stryd\AppData\Local\Temp\{879FE331-A814-4A40-B693-7BEB0BC2D33C} PAGE    8

     386                            .dwcfi  cfa_offset, 8
     387                            .dwcfi  save_reg_to_mem, 14, -4
     388                            .dwcfi  save_reg_to_mem, 4, -8
     389                            .dwpsn  file "../Application/LaunchPad/board_key.c",line 192,column 5,is_stmt,isa 1
     390 00000002 4C04              LDR       V1, $C$CON4           ; [DPU_3_PIPE] |192|  ; [ORIG 16-BIT INS]
     391 00000004 6861              LDR       A2, [V1, #4]          ; [DPU_3_PIPE] |192|  ; [ORIG 16-BIT INS]
     392 00000006 B119              CBZ       A2, ||$C$L5||         ; []  ; [ORIG 16-BIT INS]
     393                            ; BRANCHCC OCCURS {||$C$L5||}    ; [] |192| 
     394                    ;* --------------------------------------------------------------------------*
     395                            .dwpsn  file "../Application/LaunchPad/board_key.c",line 195,column 9,is_stmt,isa 1
     396 00000008 7820              LDRB      A1, [V1, #0]          ; [DPU_3_PIPE] |195|  ; [ORIG 16-BIT INS]
     397                    $C$DW$37        .dwtag  DW_TAG_TI_branch
     398                            .dwattr $C$DW$37, DW_AT_low_pc(0x00)
     399                            .dwattr $C$DW$37, DW_AT_TI_call
     400                            .dwattr $C$DW$37, DW_AT_TI_indirect
     401                    
     402 0000000a 4788              BLX       A2                    ; [DPU_3_PIPE] |195|  ; [ORIG 16-BIT INS]
     403                            ; CALL OCCURS {}                 ; [] |195| 
     404                            .dwpsn  file "../Application/LaunchPad/board_key.c",line 198,column 9,is_stmt,isa 1
     405 0000000c 2000              MOVS      A1, #0                ; [DPU_3_PIPE] |198|  ; [ORIG 16-BIT INS]
     406 0000000e 7020              STRB      A1, [V1, #0]          ; [DPU_3_PIPE] |198|  ; [ORIG 16-BIT INS]
     407                    ;* --------------------------------------------------------------------------*
     408                    ||$C$L5||:    
     409                    $C$DW$38        .dwtag  DW_TAG_TI_branch
     410                            .dwattr $C$DW$38, DW_AT_low_pc(0x00)
     411                            .dwattr $C$DW$38, DW_AT_TI_return
     412                    
     413 00000010 BD10              POP       {V1, PC}              ; [DPU_3_PIPE]  ; [ORIG 16-BIT INS]
     414                            .dwcfi  cfa_offset, 0
     415                            .dwcfi  restore_reg, 4
     416                            ; BRANCH OCCURS                  ; [] 
     417                            .dwattr $C$DW$35, DW_AT_TI_end_file("../Application/LaunchPad/board_key.c")
     418                            .dwattr $C$DW$35, DW_AT_TI_end_line(0xc8)
     419                            .dwattr $C$DW$35, DW_AT_TI_end_column(0x01)
     420                            .dwendentry
     421                            .dwendtag $C$DW$35
     422                    
     423 00000000                   .sect   ".text:Board_Key_initialize"
     424                            .clink
     425                            .thumbfunc Board_Key_initialize
     426 00000000                   .thumb
     427                            .global Board_Key_initialize
     428                    
     429                    $C$DW$39        .dwtag  DW_TAG_subprogram
     430                            .dwattr $C$DW$39, DW_AT_name("Board_Key_initialize")
     431                            .dwattr $C$DW$39, DW_AT_low_pc(Board_Key_initialize)
     432                            .dwattr $C$DW$39, DW_AT_high_pc(0x00)
     433                            .dwattr $C$DW$39, DW_AT_TI_symbol_name("Board_Key_initialize")
     434                            .dwattr $C$DW$39, DW_AT_external
     435                            .dwattr $C$DW$39, DW_AT_type(*$C$DW$T$138)
     436                            .dwattr $C$DW$39, DW_AT_TI_begin_file("../Application/LaunchPad/board_key.c")
     437                            .dwattr $C$DW$39, DW_AT_TI_begin_line(0x76)
     438                            .dwattr $C$DW$39, DW_AT_TI_begin_column(0x09)
     439                            .dwattr $C$DW$39, DW_AT_decl_file("../Application/LaunchPad/board_key.c")
     440                            .dwattr $C$DW$39, DW_AT_decl_line(0x76)
TI ARM Assembler PC v16.9.9 Sun Nov 25 17:19:51 2018

Tools Copyright (c) 1996-2017 Texas Instruments Incorporated
C:\Users\Stryd\AppData\Local\Temp\{879FE331-A814-4A40-B693-7BEB0BC2D33C} PAGE    9

     441                            .dwattr $C$DW$39, DW_AT_decl_column(0x09)
     442                            .dwattr $C$DW$39, DW_AT_TI_max_frame_size(0x18)
     443                            .dwpsn  file "../Application/LaunchPad/board_key.c",line 119,column 1,is_stmt,address Board_Ke
     444                    
     445                            .dwfde $C$DW$CIE, Board_Key_initialize
     446                    $C$DW$40        .dwtag  DW_TAG_formal_parameter
     447                            .dwattr $C$DW$40, DW_AT_name("appKeyCB")
     448                            .dwattr $C$DW$40, DW_AT_TI_symbol_name("appKeyCB")
     449                            .dwattr $C$DW$40, DW_AT_type(*$C$DW$T$592)
     450                            .dwattr $C$DW$40, DW_AT_location[DW_OP_reg0]
     451                    
     452                    
     453                    ;*****************************************************************************
     454                    ;* FUNCTION NAME: Board_Key_initialize                                       *
     455                    ;*                                                                           *
     456                    ;*   Regs Modified     : A1,A2,A3,A4,V1,V2,V3,V9,SP,LR,SR                    *
     457                    ;*   Regs Used         : A1,A2,A3,A4,V1,V2,V3,V9,SP,LR,SR                    *
     458                    ;*   Local Frame Size  : 8 Args + 0 Auto + 16 Save = 24 byte                 *
     459                    ;*****************************************************************************
     460                    Board_Key_initialize:
     461                    ;* --------------------------------------------------------------------------*
     462                    ;* V1    assigned to $O$C16
     463                    ;* V1    assigned to $O$K5
     464                    ;* V3    assigned to appKeyCB
     465                    $C$DW$41        .dwtag  DW_TAG_variable
     466                            .dwattr $C$DW$41, DW_AT_name("appKeyCB")
     467                            .dwattr $C$DW$41, DW_AT_TI_symbol_name("appKeyCB")
     468                            .dwattr $C$DW$41, DW_AT_type(*$C$DW$T$593)
     469                            .dwattr $C$DW$41, DW_AT_location[DW_OP_reg6]
     470                    
     471                    ;* V2    assigned to keys
     472                    $C$DW$42        .dwtag  DW_TAG_variable
     473                            .dwattr $C$DW$42, DW_AT_name("keys")
     474                            .dwattr $C$DW$42, DW_AT_TI_symbol_name("keys")
     475                            .dwattr $C$DW$42, DW_AT_type(*$C$DW$T$10)
     476                            .dwattr $C$DW$42, DW_AT_location[DW_OP_reg5]
     477                    
     478                            .dwcfi  cfa_offset, 0
     479 00000000 B57C              PUSH      {A3, A4, V1, V2, V3, LR} ; [DPU_3_PIPE]  ; [ORIG 16-BIT INS]
     480                            .dwcfi  cfa_offset, 24
     481                            .dwcfi  save_reg_to_mem, 14, -4
     482                            .dwcfi  save_reg_to_mem, 6, -8
     483                            .dwcfi  save_reg_to_mem, 5, -12
     484                            .dwcfi  save_reg_to_mem, 4, -16
     485                            .dwcfi  save_reg_to_mem, 3, -20
     486                            .dwcfi  save_reg_to_mem, 2, -24
     487                            .dwpsn  file "../Application/LaunchPad/board_key.c",line 139,column 5,is_stmt,isa 1
     488 00000002 4C15              LDR       V1, $C$CON5           ; [DPU_3_PIPE] |139|  ; [ORIG 16-BIT INS]
     489                            .dwpsn  file "../Application/LaunchPad/board_key.c",line 119,column 1,is_stmt,isa 1
     490 00000004 4606              MOV       V3, A1                ; [DPU_3_PIPE] |119|  ; [ORIG 16-BIT INS]
     491                            .dwpsn  file "../Application/LaunchPad/board_key.c",line 139,column 5,is_stmt,isa 1
     492 00000006 200D              MOVS      A1, #13               ; [DPU_3_PIPE] |139|  ; [ORIG 16-BIT INS]
     493 00000008 010CF104          ADD       A2, V1, #12           ; [DPU_3_PIPE]  ; [KEEP 32-BIT INS]
     494 0000000c 7060              STRB      A1, [V1, #1]          ; [DPU_3_PIPE] |139|  ; [ORIG 16-BIT INS]
     495                            .dwpsn  file "../Application/LaunchPad/board_key.c",line 140,column 5,is_stmt,isa 1
TI ARM Assembler PC v16.9.9 Sun Nov 25 17:19:51 2018

Tools Copyright (c) 1996-2017 Texas Instruments Incorporated
C:\Users\Stryd\AppData\Local\Temp\{879FE331-A814-4A40-B693-7BEB0BC2D33C} PAGE   10

     496 0000000e 200E              MOVS      A1, #14               ; [DPU_3_PIPE] |140|  ; [ORIG 16-BIT INS]
     497 00000010 70A0              STRB      A1, [V1, #2]          ; [DPU_3_PIPE] |140|  ; [ORIG 16-BIT INS]
     498 00000012 0018F104          ADD       A1, V1, #24           ; [DPU_3_PIPE]  ; [KEEP 32-BIT INS]
     499                            .dwpsn  file "../Application/LaunchPad/board_key.c",line 141,column 5,is_stmt,isa 1
     500                    $C$DW$43        .dwtag  DW_TAG_TI_branch
     501                            .dwattr $C$DW$43, DW_AT_low_pc(0x00)
     502                            .dwattr $C$DW$43, DW_AT_name("PIN_open")
     503                            .dwattr $C$DW$43, DW_AT_TI_call
     504                    
     505 00000016 FFFEF7FF!         BL        PIN_open              ; [DPU_3_PIPE] |141|  ; [KEEP 32-BIT INS]
     506                            ; CALL OCCURS {PIN_open }        ; [] |141| 
     507 0000001a 60A0              STR       A1, [V1, #8]          ; [DPU_3_PIPE] |141|  ; [ORIG 16-BIT INS]
     508                            .dwpsn  file "../Application/LaunchPad/board_key.c",line 211,column 5,is_stmt,isa 1
     509 0000001c 7860              LDRB      A1, [V1, #1]          ; [DPU_3_PIPE] |211|  ; [ORIG 16-BIT INS]
     510                    $C$DW$44        .dwtag  DW_TAG_TI_branch
     511                            .dwattr $C$DW$44, DW_AT_low_pc(0x00)
     512                            .dwattr $C$DW$44, DW_AT_name("PIN_getInputValue")
     513                            .dwattr $C$DW$44, DW_AT_TI_call
     514                    
     515 0000001e FFFEF7FF!         BL        PIN_getInputValue     ; [DPU_3_PIPE] |211|  ; [KEEP 32-BIT INS]
     516                            ; CALL OCCURS {PIN_getInputValue }  ; [] |211| 
     517 00000022 2800              CMP       A1, #0                ; [DPU_3_PIPE] |211|  ; [ORIG 16-BIT INS]
     518 00000024 BF0C              ITE       EQ                    ; [DPU_3_PIPE]  ; [ORIG 16-BIT INS]
     519                            .dwpsn  file "../Application/LaunchPad/board_key.c",line 213,column 9,is_stmt,isa 1
     520 00000026 2508              MOVEQ     V2, #8                ; [DPU_3_PIPE] |213|  ; [ORIG 16-BIT INS]
     521                            .dwpsn  file "../Application/LaunchPad/board_key.c",line 209,column 18,is_stmt,isa 1
     522 00000028 2500              MOVNE     V2, #0                ; [DPU_3_PIPE] |209|  ; [ORIG 16-BIT INS]
     523                            .dwpsn  file "../Application/LaunchPad/board_key.c",line 216,column 5,is_stmt,isa 1
     524 0000002a 78A0              LDRB      A1, [V1, #2]          ; [DPU_3_PIPE] |216|  ; [ORIG 16-BIT INS]
     525                    $C$DW$45        .dwtag  DW_TAG_TI_branch
     526                            .dwattr $C$DW$45, DW_AT_low_pc(0x00)
     527                            .dwattr $C$DW$45, DW_AT_name("PIN_getInputValue")
     528                            .dwattr $C$DW$45, DW_AT_TI_call
     529                    
     530 0000002c FFFEF7FF!         BL        PIN_getInputValue     ; [DPU_3_PIPE] |216|  ; [KEEP 32-BIT INS]
     531                            ; CALL OCCURS {PIN_getInputValue }  ; [] |216| 
     532 00000030 B908              CBNZ      A1, ||$C$L6||         ; []  ; [ORIG 16-BIT INS]
     533                            .dwpsn  file "../Application/LaunchPad/board_key.c",line 218,column 9,is_stmt,isa 1
     534 00000032 0510F045          ORR       V2, V2, #16           ; [DPU_3_PIPE] |218|  ; [KEEP 32-BIT INS]
     535                    ;* --------------------------------------------------------------------------*
     536 00000036           ||$C$L6||:    
     537                            .dwpsn  file "../Application/LaunchPad/board_key.c",line 147,column 5,is_stmt,isa 1
     538 00000036 4909              LDR       A2, $C$CON6           ; [DPU_3_PIPE] |147|  ; [ORIG 16-BIT INS]
     539 00000038 68A0              LDR       A1, [V1, #8]          ; [DPU_3_PIPE] |147|  ; [ORIG 16-BIT INS]
     540                    $C$DW$46        .dwtag  DW_TAG_TI_branch
     541                            .dwattr $C$DW$46, DW_AT_low_pc(0x00)
     542                            .dwattr $C$DW$46, DW_AT_name("PIN_registerIntCb")
     543                            .dwattr $C$DW$46, DW_AT_TI_call
     544                    
     545 0000003a FFFEF7FF!         BL        PIN_registerIntCb     ; [DPU_3_PIPE] |147|  ; [KEEP 32-BIT INS]
     546                            ; CALL OCCURS {PIN_registerIntCb }  ; [] |147| 
     547                            .dwpsn  file "../Application/LaunchPad/board_key.c",line 150,column 5,is_stmt,isa 1
     548 0000003e 2300              MOVS      A4, #0                ; [DPU_3_PIPE] |150|  ; [ORIG 16-BIT INS]
     549 00000040 22C8              MOVS      A3, #200              ; [DPU_3_PIPE] |150|  ; [ORIG 16-BIT INS]
     550 00000042 4907              LDR       A2, $C$CON7           ; [DPU_3_PIPE] |150|  ; [ORIG 16-BIT INS]
TI ARM Assembler PC v16.9.9 Sun Nov 25 17:19:51 2018

Tools Copyright (c) 1996-2017 Texas Instruments Incorporated
C:\Users\Stryd\AppData\Local\Temp\{879FE331-A814-4A40-B693-7BEB0BC2D33C} PAGE   11

     551 00000044 9300              STR       A4, [SP, #0]          ; [DPU_3_PIPE] |150|  ; [ORIG 16-BIT INS]
     552 00000046 0024F104          ADD       A1, V1, #36           ; [DPU_3_PIPE]  ; [KEEP 32-BIT INS]
     553 0000004a 9301              STR       A4, [SP, #4]          ; [DPU_3_PIPE] |150|  ; [ORIG 16-BIT INS]
     554                    $C$DW$47        .dwtag  DW_TAG_TI_branch
     555                            .dwattr $C$DW$47, DW_AT_low_pc(0x00)
     556                            .dwattr $C$DW$47, DW_AT_name("Timer_construct")
     557                            .dwattr $C$DW$47, DW_AT_TI_call
     558                    
     559 0000004c FFFEF7FF!         BL        Timer_construct       ; [DPU_3_PIPE] |150|  ; [KEEP 32-BIT INS]
     560                            ; CALL OCCURS {Timer_construct }  ; [] |150| 
     561                            .dwpsn  file "../Application/LaunchPad/board_key.c",line 155,column 5,is_stmt,isa 1
     562 00000050 6066              STR       V3, [V1, #4]          ; [DPU_3_PIPE] |155|  ; [ORIG 16-BIT INS]
     563                            .dwpsn  file "../Application/LaunchPad/board_key.c",line 157,column 5,is_stmt,isa 1
     564 00000052 4628              MOV       A1, V2                ; [DPU_3_PIPE] |157|  ; [ORIG 16-BIT INS]
     565                    $C$DW$48        .dwtag  DW_TAG_TI_branch
     566                            .dwattr $C$DW$48, DW_AT_low_pc(0x00)
     567                            .dwattr $C$DW$48, DW_AT_TI_return
     568                    
     569 00000054 BD7C              POP       {A3, A4, V1, V2, V3, PC} ; [DPU_3_PIPE]  ; [ORIG 16-BIT INS]
     570                            .dwcfi  cfa_offset, 0
     571                            .dwcfi  restore_reg, 6
     572                            .dwcfi  restore_reg, 5
     573                            .dwcfi  restore_reg, 4
     574                            .dwcfi  restore_reg, 3
     575                            .dwcfi  restore_reg, 2
     576                            ; BRANCH OCCURS                  ; [] 
     577                            .dwattr $C$DW$39, DW_AT_TI_end_file("../Application/LaunchPad/board_key.c")
     578                            .dwattr $C$DW$39, DW_AT_TI_end_line(0x9e)
     579                            .dwattr $C$DW$39, DW_AT_TI_end_column(0x01)
     580                            .dwendentry
     581                            .dwendtag $C$DW$39
     582                    
     583                    ;******************************************************************************
     584                    ;* CONSTANT TABLE                                                             *
     585                    ;******************************************************************************
     586 00000032                   .sect   ".text:board_key_keyFxn"
     587                            .align  4
     588 00000032 000046C0! ||$C$CON1||:    .bits   ||$O1$$||,32
         00000036 00000000 
     589                    ;******************************************************************************
     590                    ;* CONSTANT TABLE                                                             *
     591                    ;******************************************************************************
     592 00000012                   .sect   ".text:board_key_changeHandler"
     593                            .align  4
     594 00000012 000046C0! ||$C$CON4||:    .bits   ||$O1$$||,32
         00000016 00000000 
     595                    ;******************************************************************************
     596                    ;* CONSTANT TABLE                                                             *
     597                    ;******************************************************************************
     598 00000056                   .sect   ".text:Board_Key_initialize"
     599                            .align  4
     600 00000056 000046C0! ||$C$CON5||:    .bits   ||$O1$$||,32
         0000005a 00000000 
     601                            .align  4
     602 0000005a 00000000! ||$C$CON6||:    .bits   board_key_keyFxn,32
TI ARM Assembler PC v16.9.9 Sun Nov 25 17:19:51 2018

Tools Copyright (c) 1996-2017 Texas Instruments Incorporated
C:\Users\Stryd\AppData\Local\Temp\{879FE331-A814-4A40-B693-7BEB0BC2D33C} PAGE   12

         0000005e 00000000 
     603                            .align  4
     604 0000005e 00000000! ||$C$CON7||:    .bits   board_key_changeHandler,32
         00000062 00000000 
     605                    ;*****************************************************************************
     606                    ;* UNDEFINED EXTERNAL REFERENCES                                             *
     607                    ;*****************************************************************************
     608                            .global PIN_open
     609                            .global PIN_getInputValue
     610                            .global PIN_registerIntCb
     611                            .global Timer_construct
     612                            .global Timer_start
     613                            .global Timer_isActive
     614                    
     615                    ;******************************************************************************
     616                    ;* BUILD ATTRIBUTES                                                           *
     617                    ;******************************************************************************
     618                            .battr "aeabi", Tag_File, 1, Tag_ABI_PCS_wchar_t(2)
     619                            .battr "aeabi", Tag_File, 1, Tag_ABI_FP_rounding(0)
     620                            .battr "aeabi", Tag_File, 1, Tag_ABI_FP_denormal(0)
     621                            .battr "aeabi", Tag_File, 1, Tag_ABI_FP_exceptions(0)
     622                            .battr "aeabi", Tag_File, 1, Tag_ABI_FP_number_model(1)
     623                            .battr "aeabi", Tag_File, 1, Tag_ABI_enum_size(1)
     624                            .battr "aeabi", Tag_File, 1, Tag_ABI_optimization_goals(0)
     625                            .battr "aeabi", Tag_File, 1, Tag_ABI_FP_optimization_goals(0)
     626                            .battr "TI", Tag_File, 1, Tag_Bitfield_layout(2)
     627                            .battr "aeabi", Tag_File, 1, Tag_ABI_VFP_args(3)
     628                            .battr "TI", Tag_File, 1, Tag_FP_interface(1)
     629                    
     630                    ;******************************************************************************
     631                    ;* TYPE INFORMATION                                                           *
     632                    ;******************************************************************************
     633                    
     634                    $C$DW$T$469     .dwtag  DW_TAG_enumeration_type
     635                            .dwattr $C$DW$T$469, DW_AT_byte_size(0x01)
     636                    $C$DW$49        .dwtag  DW_TAG_enumerator
     637                            .dwattr $C$DW$49, DW_AT_name("PIN_SUCCESS")
     638                            .dwattr $C$DW$49, DW_AT_const_value(0x00)
     639                            .dwattr $C$DW$49, DW_AT_decl_file("C:/ti/simplelink_cc13x0_sdk_2_30_00_20/source/ti/drivers/PI
     640                            .dwattr $C$DW$49, DW_AT_decl_line(0x2cd)
     641                            .dwattr $C$DW$49, DW_AT_decl_column(0x05)
     642                    
     643                    $C$DW$50        .dwtag  DW_TAG_enumerator
     644                            .dwattr $C$DW$50, DW_AT_name("PIN_ALREADY_ALLOCATED")
     645                            .dwattr $C$DW$50, DW_AT_const_value(0x01)
     646                            .dwattr $C$DW$50, DW_AT_decl_file("C:/ti/simplelink_cc13x0_sdk_2_30_00_20/source/ti/drivers/PI
     647                            .dwattr $C$DW$50, DW_AT_decl_line(0x2ce)
     648                            .dwattr $C$DW$50, DW_AT_decl_column(0x05)
     649                    
     650                    $C$DW$51        .dwtag  DW_TAG_enumerator
     651                            .dwattr $C$DW$51, DW_AT_name("PIN_NO_ACCESS")
     652                            .dwattr $C$DW$51, DW_AT_const_value(0x02)
     653                            .dwattr $C$DW$51, DW_AT_decl_file("C:/ti/simplelink_cc13x0_sdk_2_30_00_20/source/ti/drivers/PI
     654                            .dwattr $C$DW$51, DW_AT_decl_line(0x2cf)
     655                            .dwattr $C$DW$51, DW_AT_decl_column(0x05)
TI ARM Assembler PC v16.9.9 Sun Nov 25 17:19:51 2018

Tools Copyright (c) 1996-2017 Texas Instruments Incorporated
C:\Users\Stryd\AppData\Local\Temp\{879FE331-A814-4A40-B693-7BEB0BC2D33C} PAGE   13

     656                    
     657                    $C$DW$52        .dwtag  DW_TAG_enumerator
     658                            .dwattr $C$DW$52, DW_AT_name("PIN_UNSUPPORTED")
     659                            .dwattr $C$DW$52, DW_AT_const_value(0x03)
     660                            .dwattr $C$DW$52, DW_AT_decl_file("C:/ti/simplelink_cc13x0_sdk_2_30_00_20/source/ti/drivers/PI
     661                            .dwattr $C$DW$52, DW_AT_decl_line(0x2d0)
     662                            .dwattr $C$DW$52, DW_AT_decl_column(0x05)
     663                    
     664                            .dwattr $C$DW$T$469, DW_AT_decl_file("C:/ti/simplelink_cc13x0_sdk_2_30_00_20/source/ti/drivers
     665                            .dwattr $C$DW$T$469, DW_AT_decl_line(0x2cc)
     666                            .dwattr $C$DW$T$469, DW_AT_decl_column(0x0e)
     667                            .dwendtag $C$DW$T$469
     668                    
     669                    $C$DW$T$470     .dwtag  DW_TAG_typedef
     670                            .dwattr $C$DW$T$470, DW_AT_name("PIN_Status")
     671                            .dwattr $C$DW$T$470, DW_AT_type(*$C$DW$T$469)
     672                            .dwattr $C$DW$T$470, DW_AT_language(DW_LANG_C)
     673                            .dwattr $C$DW$T$470, DW_AT_decl_file("C:/ti/simplelink_cc13x0_sdk_2_30_00_20/source/ti/drivers
     674                            .dwattr $C$DW$T$470, DW_AT_decl_line(0x2d1)
     675                            .dwattr $C$DW$T$470, DW_AT_decl_column(0x03)
     676                    
     677                    
     678                    $C$DW$T$474     .dwtag  DW_TAG_enumeration_type
     679                            .dwattr $C$DW$T$474, DW_AT_byte_size(0x01)
     680                    $C$DW$53        .dwtag  DW_TAG_enumerator
     681                            .dwattr $C$DW$53, DW_AT_name("PROTOCOL_Unknown")
     682                            .dwattr $C$DW$53, DW_AT_const_value(0x00)
     683                            .dwattr $C$DW$53, DW_AT_decl_file("C:/ti/simplelink_cc13x0_sdk_2_30_00_20/source/ti/devices/cc
     684                            .dwattr $C$DW$53, DW_AT_decl_line(0x64)
     685                            .dwattr $C$DW$53, DW_AT_decl_column(0x04)
     686                    
     687                    $C$DW$54        .dwtag  DW_TAG_enumerator
     688                            .dwattr $C$DW$54, DW_AT_name("PROTOCOLBIT_BLE")
     689                            .dwattr $C$DW$54, DW_AT_const_value(0x02)
     690                            .dwattr $C$DW$54, DW_AT_decl_file("C:/ti/simplelink_cc13x0_sdk_2_30_00_20/source/ti/devices/cc
     691                            .dwattr $C$DW$54, DW_AT_decl_line(0x65)
     692                            .dwattr $C$DW$54, DW_AT_decl_column(0x04)
     693                    
     694                    $C$DW$55        .dwtag  DW_TAG_enumerator
     695                            .dwattr $C$DW$55, DW_AT_name("PROTOCOLBIT_IEEE_802_15_4")
     696                            .dwattr $C$DW$55, DW_AT_const_value(0x04)
     697                            .dwattr $C$DW$55, DW_AT_decl_file("C:/ti/simplelink_cc13x0_sdk_2_30_00_20/source/ti/devices/cc
     698                            .dwattr $C$DW$55, DW_AT_decl_line(0x66)
     699                            .dwattr $C$DW$55, DW_AT_decl_column(0x04)
     700                    
     701                    $C$DW$56        .dwtag  DW_TAG_enumerator
     702                            .dwattr $C$DW$56, DW_AT_name("PROTOCOLBIT_Proprietary")
     703                            .dwattr $C$DW$56, DW_AT_const_value(0x08)
     704                            .dwattr $C$DW$56, DW_AT_decl_file("C:/ti/simplelink_cc13x0_sdk_2_30_00_20/source/ti/devices/cc
     705                            .dwattr $C$DW$56, DW_AT_decl_line(0x67)
     706                            .dwattr $C$DW$56, DW_AT_decl_column(0x04)
     707                    
     708                            .dwattr $C$DW$T$474, DW_AT_decl_file("C:/ti/simplelink_cc13x0_sdk_2_30_00_20/source/ti/devices
     709                            .dwattr $C$DW$T$474, DW_AT_decl_line(0x63)
     710                            .dwattr $C$DW$T$474, DW_AT_decl_column(0x0e)
TI ARM Assembler PC v16.9.9 Sun Nov 25 17:19:51 2018

Tools Copyright (c) 1996-2017 Texas Instruments Incorporated
C:\Users\Stryd\AppData\Local\Temp\{879FE331-A814-4A40-B693-7BEB0BC2D33C} PAGE   14

     711                            .dwendtag $C$DW$T$474
     712                    
     713                    $C$DW$T$475     .dwtag  DW_TAG_typedef
     714                            .dwattr $C$DW$T$475, DW_AT_name("ProtocolBitVector_t")
     715                            .dwattr $C$DW$T$475, DW_AT_type(*$C$DW$T$474)
     716                            .dwattr $C$DW$T$475, DW_AT_language(DW_LANG_C)
     717                            .dwattr $C$DW$T$475, DW_AT_decl_file("C:/ti/simplelink_cc13x0_sdk_2_30_00_20/source/ti/devices
     718                            .dwattr $C$DW$T$475, DW_AT_decl_line(0x68)
     719                            .dwattr $C$DW$T$475, DW_AT_decl_column(0x03)
     720                    
     721                    
     722                    $C$DW$T$476     .dwtag  DW_TAG_enumeration_type
     723                            .dwattr $C$DW$T$476, DW_AT_byte_size(0x01)
     724                    $C$DW$57        .dwtag  DW_TAG_enumerator
     725                            .dwattr $C$DW$57, DW_AT_name("PACKAGE_Unknown")
     726                            .dwattr $C$DW$57, DW_AT_const_value(-1)
     727                            .dwattr $C$DW$57, DW_AT_decl_file("C:/ti/simplelink_cc13x0_sdk_2_30_00_20/source/ti/devices/cc
     728                            .dwattr $C$DW$57, DW_AT_decl_line(0xa7)
     729                            .dwattr $C$DW$57, DW_AT_decl_column(0x04)
     730                    
     731                    $C$DW$58        .dwtag  DW_TAG_enumerator
     732                            .dwattr $C$DW$58, DW_AT_name("PACKAGE_4x4")
     733                            .dwattr $C$DW$58, DW_AT_const_value(0x00)
     734                            .dwattr $C$DW$58, DW_AT_decl_file("C:/ti/simplelink_cc13x0_sdk_2_30_00_20/source/ti/devices/cc
     735                            .dwattr $C$DW$58, DW_AT_decl_line(0xa8)
     736                            .dwattr $C$DW$58, DW_AT_decl_column(0x04)
     737                    
     738                    $C$DW$59        .dwtag  DW_TAG_enumerator
     739                            .dwattr $C$DW$59, DW_AT_name("PACKAGE_5x5")
     740                            .dwattr $C$DW$59, DW_AT_const_value(0x01)
     741                            .dwattr $C$DW$59, DW_AT_decl_file("C:/ti/simplelink_cc13x0_sdk_2_30_00_20/source/ti/devices/cc
     742                            .dwattr $C$DW$59, DW_AT_decl_line(0xa9)
     743                            .dwattr $C$DW$59, DW_AT_decl_column(0x04)
     744                    
     745                    $C$DW$60        .dwtag  DW_TAG_enumerator
     746                            .dwattr $C$DW$60, DW_AT_name("PACKAGE_7x7")
     747                            .dwattr $C$DW$60, DW_AT_const_value(0x02)
     748                            .dwattr $C$DW$60, DW_AT_decl_file("C:/ti/simplelink_cc13x0_sdk_2_30_00_20/source/ti/devices/cc
     749                            .dwattr $C$DW$60, DW_AT_decl_line(0xaa)
     750                            .dwattr $C$DW$60, DW_AT_decl_column(0x04)
     751                    
     752                    $C$DW$61        .dwtag  DW_TAG_enumerator
     753                            .dwattr $C$DW$61, DW_AT_name("PACKAGE_WAFER")
     754                            .dwattr $C$DW$61, DW_AT_const_value(0x03)
     755                            .dwattr $C$DW$61, DW_AT_decl_file("C:/ti/simplelink_cc13x0_sdk_2_30_00_20/source/ti/devices/cc
     756                            .dwattr $C$DW$61, DW_AT_decl_line(0xab)
     757                            .dwattr $C$DW$61, DW_AT_decl_column(0x04)
     758                    
     759                    $C$DW$62        .dwtag  DW_TAG_enumerator
     760                            .dwattr $C$DW$62, DW_AT_name("PACKAGE_WCSP")
     761                            .dwattr $C$DW$62, DW_AT_const_value(0x04)
     762                            .dwattr $C$DW$62, DW_AT_decl_file("C:/ti/simplelink_cc13x0_sdk_2_30_00_20/source/ti/devices/cc
     763                            .dwattr $C$DW$62, DW_AT_decl_line(0xac)
     764                            .dwattr $C$DW$62, DW_AT_decl_column(0x04)
     765                    
TI ARM Assembler PC v16.9.9 Sun Nov 25 17:19:51 2018

Tools Copyright (c) 1996-2017 Texas Instruments Incorporated
C:\Users\Stryd\AppData\Local\Temp\{879FE331-A814-4A40-B693-7BEB0BC2D33C} PAGE   15

     766                    $C$DW$63        .dwtag  DW_TAG_enumerator
     767                            .dwattr $C$DW$63, DW_AT_name("PACKAGE_7x7_Q1")
     768                            .dwattr $C$DW$63, DW_AT_const_value(0x05)
     769                            .dwattr $C$DW$63, DW_AT_decl_file("C:/ti/simplelink_cc13x0_sdk_2_30_00_20/source/ti/devices/cc
     770                            .dwattr $C$DW$63, DW_AT_decl_line(0xad)
     771                            .dwattr $C$DW$63, DW_AT_decl_column(0x04)
     772                    
     773                            .dwattr $C$DW$T$476, DW_AT_decl_file("C:/ti/simplelink_cc13x0_sdk_2_30_00_20/source/ti/devices
     774                            .dwattr $C$DW$T$476, DW_AT_decl_line(0xa6)
     775                            .dwattr $C$DW$T$476, DW_AT_decl_column(0x0e)
     776                            .dwendtag $C$DW$T$476
     777                    
     778                    $C$DW$T$477     .dwtag  DW_TAG_typedef
     779                            .dwattr $C$DW$T$477, DW_AT_name("PackageType_t")
     780                            .dwattr $C$DW$T$477, DW_AT_type(*$C$DW$T$476)
     781                            .dwattr $C$DW$T$477, DW_AT_language(DW_LANG_C)
     782                            .dwattr $C$DW$T$477, DW_AT_decl_file("C:/ti/simplelink_cc13x0_sdk_2_30_00_20/source/ti/devices
     783                            .dwattr $C$DW$T$477, DW_AT_decl_line(0xae)
     784                            .dwattr $C$DW$T$477, DW_AT_decl_column(0x03)
     785                    
     786                    
     787                    $C$DW$T$478     .dwtag  DW_TAG_enumeration_type
     788                            .dwattr $C$DW$T$478, DW_AT_byte_size(0x01)
     789                    $C$DW$64        .dwtag  DW_TAG_enumerator
     790                            .dwattr $C$DW$64, DW_AT_name("CHIP_TYPE_Unknown")
     791                            .dwattr $C$DW$64, DW_AT_const_value(-1)
     792                            .dwattr $C$DW$64, DW_AT_decl_file("C:/ti/simplelink_cc13x0_sdk_2_30_00_20/source/ti/devices/cc
     793                            .dwattr $C$DW$64, DW_AT_decl_line(0x14b)
     794                            .dwattr $C$DW$64, DW_AT_decl_column(0x04)
     795                    
     796                    $C$DW$65        .dwtag  DW_TAG_enumerator
     797                            .dwattr $C$DW$65, DW_AT_name("CHIP_TYPE_CC1310")
     798                            .dwattr $C$DW$65, DW_AT_const_value(0x00)
     799                            .dwattr $C$DW$65, DW_AT_decl_file("C:/ti/simplelink_cc13x0_sdk_2_30_00_20/source/ti/devices/cc
     800                            .dwattr $C$DW$65, DW_AT_decl_line(0x14c)
     801                            .dwattr $C$DW$65, DW_AT_decl_column(0x04)
     802                    
     803                    $C$DW$66        .dwtag  DW_TAG_enumerator
     804                            .dwattr $C$DW$66, DW_AT_name("CHIP_TYPE_CC1350")
     805                            .dwattr $C$DW$66, DW_AT_const_value(0x01)
     806                            .dwattr $C$DW$66, DW_AT_decl_file("C:/ti/simplelink_cc13x0_sdk_2_30_00_20/source/ti/devices/cc
     807                            .dwattr $C$DW$66, DW_AT_decl_line(0x14d)
     808                            .dwattr $C$DW$66, DW_AT_decl_column(0x04)
     809                    
     810                    $C$DW$67        .dwtag  DW_TAG_enumerator
     811                            .dwattr $C$DW$67, DW_AT_name("CHIP_TYPE_CC2620")
     812                            .dwattr $C$DW$67, DW_AT_const_value(0x02)
     813                            .dwattr $C$DW$67, DW_AT_decl_file("C:/ti/simplelink_cc13x0_sdk_2_30_00_20/source/ti/devices/cc
     814                            .dwattr $C$DW$67, DW_AT_decl_line(0x14e)
     815                            .dwattr $C$DW$67, DW_AT_decl_column(0x04)
     816                    
     817                    $C$DW$68        .dwtag  DW_TAG_enumerator
     818                            .dwattr $C$DW$68, DW_AT_name("CHIP_TYPE_CC2630")
     819                            .dwattr $C$DW$68, DW_AT_const_value(0x03)
     820                            .dwattr $C$DW$68, DW_AT_decl_file("C:/ti/simplelink_cc13x0_sdk_2_30_00_20/source/ti/devices/cc
TI ARM Assembler PC v16.9.9 Sun Nov 25 17:19:51 2018

Tools Copyright (c) 1996-2017 Texas Instruments Incorporated
C:\Users\Stryd\AppData\Local\Temp\{879FE331-A814-4A40-B693-7BEB0BC2D33C} PAGE   16

     821                            .dwattr $C$DW$68, DW_AT_decl_line(0x14f)
     822                            .dwattr $C$DW$68, DW_AT_decl_column(0x04)
     823                    
     824                    $C$DW$69        .dwtag  DW_TAG_enumerator
     825                            .dwattr $C$DW$69, DW_AT_name("CHIP_TYPE_CC2640")
     826                            .dwattr $C$DW$69, DW_AT_const_value(0x04)
     827                            .dwattr $C$DW$69, DW_AT_decl_file("C:/ti/simplelink_cc13x0_sdk_2_30_00_20/source/ti/devices/cc
     828                            .dwattr $C$DW$69, DW_AT_decl_line(0x150)
     829                            .dwattr $C$DW$69, DW_AT_decl_column(0x04)
     830                    
     831                    $C$DW$70        .dwtag  DW_TAG_enumerator
     832                            .dwattr $C$DW$70, DW_AT_name("CHIP_TYPE_CC2650")
     833                            .dwattr $C$DW$70, DW_AT_const_value(0x05)
     834                            .dwattr $C$DW$70, DW_AT_decl_file("C:/ti/simplelink_cc13x0_sdk_2_30_00_20/source/ti/devices/cc
     835                            .dwattr $C$DW$70, DW_AT_decl_line(0x151)
     836                            .dwattr $C$DW$70, DW_AT_decl_column(0x04)
     837                    
     838                    $C$DW$71        .dwtag  DW_TAG_enumerator
     839                            .dwattr $C$DW$71, DW_AT_name("CHIP_TYPE_CUSTOM_0")
     840                            .dwattr $C$DW$71, DW_AT_const_value(0x06)
     841                            .dwattr $C$DW$71, DW_AT_decl_file("C:/ti/simplelink_cc13x0_sdk_2_30_00_20/source/ti/devices/cc
     842                            .dwattr $C$DW$71, DW_AT_decl_line(0x152)
     843                            .dwattr $C$DW$71, DW_AT_decl_column(0x04)
     844                    
     845                    $C$DW$72        .dwtag  DW_TAG_enumerator
     846                            .dwattr $C$DW$72, DW_AT_name("CHIP_TYPE_CUSTOM_1")
     847                            .dwattr $C$DW$72, DW_AT_const_value(0x07)
     848                            .dwattr $C$DW$72, DW_AT_decl_file("C:/ti/simplelink_cc13x0_sdk_2_30_00_20/source/ti/devices/cc
     849                            .dwattr $C$DW$72, DW_AT_decl_line(0x153)
     850                            .dwattr $C$DW$72, DW_AT_decl_column(0x04)
     851                    
     852                    $C$DW$73        .dwtag  DW_TAG_enumerator
     853                            .dwattr $C$DW$73, DW_AT_name("CHIP_TYPE_CC2640R2")
     854                            .dwattr $C$DW$73, DW_AT_const_value(0x08)
     855                            .dwattr $C$DW$73, DW_AT_decl_file("C:/ti/simplelink_cc13x0_sdk_2_30_00_20/source/ti/devices/cc
     856                            .dwattr $C$DW$73, DW_AT_decl_line(0x154)
     857                            .dwattr $C$DW$73, DW_AT_decl_column(0x04)
     858                    
     859                    $C$DW$74        .dwtag  DW_TAG_enumerator
     860                            .dwattr $C$DW$74, DW_AT_name("CHIP_TYPE_CC2642")
     861                            .dwattr $C$DW$74, DW_AT_const_value(0x09)
     862                            .dwattr $C$DW$74, DW_AT_decl_file("C:/ti/simplelink_cc13x0_sdk_2_30_00_20/source/ti/devices/cc
     863                            .dwattr $C$DW$74, DW_AT_decl_line(0x155)
     864                            .dwattr $C$DW$74, DW_AT_decl_column(0x04)
     865                    
     866                    $C$DW$75        .dwtag  DW_TAG_enumerator
     867                            .dwattr $C$DW$75, DW_AT_name("CHIP_TYPE_unused")
     868                            .dwattr $C$DW$75, DW_AT_const_value(0x0a)
     869                            .dwattr $C$DW$75, DW_AT_decl_file("C:/ti/simplelink_cc13x0_sdk_2_30_00_20/source/ti/devices/cc
     870                            .dwattr $C$DW$75, DW_AT_decl_line(0x156)
     871                            .dwattr $C$DW$75, DW_AT_decl_column(0x04)
     872                    
     873                    $C$DW$76        .dwtag  DW_TAG_enumerator
     874                            .dwattr $C$DW$76, DW_AT_name("CHIP_TYPE_CC2652")
     875                            .dwattr $C$DW$76, DW_AT_const_value(0x0b)
TI ARM Assembler PC v16.9.9 Sun Nov 25 17:19:51 2018

Tools Copyright (c) 1996-2017 Texas Instruments Incorporated
C:\Users\Stryd\AppData\Local\Temp\{879FE331-A814-4A40-B693-7BEB0BC2D33C} PAGE   17

     876                            .dwattr $C$DW$76, DW_AT_decl_file("C:/ti/simplelink_cc13x0_sdk_2_30_00_20/source/ti/devices/cc
     877                            .dwattr $C$DW$76, DW_AT_decl_line(0x157)
     878                            .dwattr $C$DW$76, DW_AT_decl_column(0x04)
     879                    
     880                    $C$DW$77        .dwtag  DW_TAG_enumerator
     881                            .dwattr $C$DW$77, DW_AT_name("CHIP_TYPE_CC1312")
     882                            .dwattr $C$DW$77, DW_AT_const_value(0x0c)
     883                            .dwattr $C$DW$77, DW_AT_decl_file("C:/ti/simplelink_cc13x0_sdk_2_30_00_20/source/ti/devices/cc
     884                            .dwattr $C$DW$77, DW_AT_decl_line(0x158)
     885                            .dwattr $C$DW$77, DW_AT_decl_column(0x04)
     886                    
     887                    $C$DW$78        .dwtag  DW_TAG_enumerator
     888                            .dwattr $C$DW$78, DW_AT_name("CHIP_TYPE_CC1352")
     889                            .dwattr $C$DW$78, DW_AT_const_value(0x0d)
     890                            .dwattr $C$DW$78, DW_AT_decl_file("C:/ti/simplelink_cc13x0_sdk_2_30_00_20/source/ti/devices/cc
     891                            .dwattr $C$DW$78, DW_AT_decl_line(0x159)
     892                            .dwattr $C$DW$78, DW_AT_decl_column(0x04)
     893                    
     894                    $C$DW$79        .dwtag  DW_TAG_enumerator
     895                            .dwattr $C$DW$79, DW_AT_name("CHIP_TYPE_CC1352P")
     896                            .dwattr $C$DW$79, DW_AT_const_value(0x0e)
     897                            .dwattr $C$DW$79, DW_AT_decl_file("C:/ti/simplelink_cc13x0_sdk_2_30_00_20/source/ti/devices/cc
     898                            .dwattr $C$DW$79, DW_AT_decl_line(0x15a)
     899                            .dwattr $C$DW$79, DW_AT_decl_column(0x04)
     900                    
     901                            .dwattr $C$DW$T$478, DW_AT_decl_file("C:/ti/simplelink_cc13x0_sdk_2_30_00_20/source/ti/devices
     902                            .dwattr $C$DW$T$478, DW_AT_decl_line(0x14a)
     903                            .dwattr $C$DW$T$478, DW_AT_decl_column(0x0e)
     904                            .dwendtag $C$DW$T$478
     905                    
     906                    $C$DW$T$479     .dwtag  DW_TAG_typedef
     907                            .dwattr $C$DW$T$479, DW_AT_name("ChipType_t")
     908                            .dwattr $C$DW$T$479, DW_AT_type(*$C$DW$T$478)
     909                            .dwattr $C$DW$T$479, DW_AT_language(DW_LANG_C)
     910                            .dwattr $C$DW$T$479, DW_AT_decl_file("C:/ti/simplelink_cc13x0_sdk_2_30_00_20/source/ti/devices
     911                            .dwattr $C$DW$T$479, DW_AT_decl_line(0x15b)
     912                            .dwattr $C$DW$T$479, DW_AT_decl_column(0x03)
     913                    
     914                    
     915                    $C$DW$T$480     .dwtag  DW_TAG_enumeration_type
     916                            .dwattr $C$DW$T$480, DW_AT_byte_size(0x01)
     917                    $C$DW$80        .dwtag  DW_TAG_enumerator
     918                            .dwattr $C$DW$80, DW_AT_name("FAMILY_Unknown")
     919                            .dwattr $C$DW$80, DW_AT_const_value(-1)
     920                            .dwattr $C$DW$80, DW_AT_decl_file("C:/ti/simplelink_cc13x0_sdk_2_30_00_20/source/ti/devices/cc
     921                            .dwattr $C$DW$80, DW_AT_decl_line(0x16d)
     922                            .dwattr $C$DW$80, DW_AT_decl_column(0x04)
     923                    
     924                    $C$DW$81        .dwtag  DW_TAG_enumerator
     925                            .dwattr $C$DW$81, DW_AT_name("FAMILY_CC26x0")
     926                            .dwattr $C$DW$81, DW_AT_const_value(0x00)
     927                            .dwattr $C$DW$81, DW_AT_decl_file("C:/ti/simplelink_cc13x0_sdk_2_30_00_20/source/ti/devices/cc
     928                            .dwattr $C$DW$81, DW_AT_decl_line(0x16e)
     929                            .dwattr $C$DW$81, DW_AT_decl_column(0x04)
     930                    
TI ARM Assembler PC v16.9.9 Sun Nov 25 17:19:51 2018

Tools Copyright (c) 1996-2017 Texas Instruments Incorporated
C:\Users\Stryd\AppData\Local\Temp\{879FE331-A814-4A40-B693-7BEB0BC2D33C} PAGE   18

     931                    $C$DW$82        .dwtag  DW_TAG_enumerator
     932                            .dwattr $C$DW$82, DW_AT_name("FAMILY_CC13x0")
     933                            .dwattr $C$DW$82, DW_AT_const_value(0x01)
     934                            .dwattr $C$DW$82, DW_AT_decl_file("C:/ti/simplelink_cc13x0_sdk_2_30_00_20/source/ti/devices/cc
     935                            .dwattr $C$DW$82, DW_AT_decl_line(0x16f)
     936                            .dwattr $C$DW$82, DW_AT_decl_column(0x04)
     937                    
     938                    $C$DW$83        .dwtag  DW_TAG_enumerator
     939                            .dwattr $C$DW$83, DW_AT_name("FAMILY_CC26x1")
     940                            .dwattr $C$DW$83, DW_AT_const_value(0x02)
     941                            .dwattr $C$DW$83, DW_AT_decl_file("C:/ti/simplelink_cc13x0_sdk_2_30_00_20/source/ti/devices/cc
     942                            .dwattr $C$DW$83, DW_AT_decl_line(0x170)
     943                            .dwattr $C$DW$83, DW_AT_decl_column(0x04)
     944                    
     945                    $C$DW$84        .dwtag  DW_TAG_enumerator
     946                            .dwattr $C$DW$84, DW_AT_name("FAMILY_CC26x0R2")
     947                            .dwattr $C$DW$84, DW_AT_const_value(0x03)
     948                            .dwattr $C$DW$84, DW_AT_decl_file("C:/ti/simplelink_cc13x0_sdk_2_30_00_20/source/ti/devices/cc
     949                            .dwattr $C$DW$84, DW_AT_decl_line(0x171)
     950                            .dwattr $C$DW$84, DW_AT_decl_column(0x04)
     951                    
     952                    $C$DW$85        .dwtag  DW_TAG_enumerator
     953                            .dwattr $C$DW$85, DW_AT_name("FAMILY_CC13x2_CC26x2")
     954                            .dwattr $C$DW$85, DW_AT_const_value(0x04)
     955                            .dwattr $C$DW$85, DW_AT_decl_file("C:/ti/simplelink_cc13x0_sdk_2_30_00_20/source/ti/devices/cc
     956                            .dwattr $C$DW$85, DW_AT_decl_line(0x172)
     957                            .dwattr $C$DW$85, DW_AT_decl_column(0x04)
     958                    
     959                            .dwattr $C$DW$T$480, DW_AT_decl_file("C:/ti/simplelink_cc13x0_sdk_2_30_00_20/source/ti/devices
     960                            .dwattr $C$DW$T$480, DW_AT_decl_line(0x16c)
     961                            .dwattr $C$DW$T$480, DW_AT_decl_column(0x0e)
     962                            .dwendtag $C$DW$T$480
     963                    
     964                    $C$DW$T$481     .dwtag  DW_TAG_typedef
     965                            .dwattr $C$DW$T$481, DW_AT_name("ChipFamily_t")
     966                            .dwattr $C$DW$T$481, DW_AT_type(*$C$DW$T$480)
     967                            .dwattr $C$DW$T$481, DW_AT_language(DW_LANG_C)
     968                            .dwattr $C$DW$T$481, DW_AT_decl_file("C:/ti/simplelink_cc13x0_sdk_2_30_00_20/source/ti/devices
     969                            .dwattr $C$DW$T$481, DW_AT_decl_line(0x173)
     970                            .dwattr $C$DW$T$481, DW_AT_decl_column(0x03)
     971                    
     972                    
     973                    $C$DW$T$482     .dwtag  DW_TAG_enumeration_type
     974                            .dwattr $C$DW$T$482, DW_AT_byte_size(0x01)
     975                    $C$DW$86        .dwtag  DW_TAG_enumerator
     976                            .dwattr $C$DW$86, DW_AT_name("HWREV_Unknown")
     977                            .dwattr $C$DW$86, DW_AT_const_value(-1)
     978                            .dwattr $C$DW$86, DW_AT_decl_file("C:/ti/simplelink_cc13x0_sdk_2_30_00_20/source/ti/devices/cc
     979                            .dwattr $C$DW$86, DW_AT_decl_line(0x1df)
     980                            .dwattr $C$DW$86, DW_AT_decl_column(0x04)
     981                    
     982                    $C$DW$87        .dwtag  DW_TAG_enumerator
     983                            .dwattr $C$DW$87, DW_AT_name("HWREV_1_0")
     984                            .dwattr $C$DW$87, DW_AT_const_value(0x0a)
     985                            .dwattr $C$DW$87, DW_AT_decl_file("C:/ti/simplelink_cc13x0_sdk_2_30_00_20/source/ti/devices/cc
TI ARM Assembler PC v16.9.9 Sun Nov 25 17:19:51 2018

Tools Copyright (c) 1996-2017 Texas Instruments Incorporated
C:\Users\Stryd\AppData\Local\Temp\{879FE331-A814-4A40-B693-7BEB0BC2D33C} PAGE   19

     986                            .dwattr $C$DW$87, DW_AT_decl_line(0x1e0)
     987                            .dwattr $C$DW$87, DW_AT_decl_column(0x04)
     988                    
     989                    $C$DW$88        .dwtag  DW_TAG_enumerator
     990                            .dwattr $C$DW$88, DW_AT_name("HWREV_1_1")
     991                            .dwattr $C$DW$88, DW_AT_const_value(0x0b)
     992                            .dwattr $C$DW$88, DW_AT_decl_file("C:/ti/simplelink_cc13x0_sdk_2_30_00_20/source/ti/devices/cc
     993                            .dwattr $C$DW$88, DW_AT_decl_line(0x1e1)
     994                            .dwattr $C$DW$88, DW_AT_decl_column(0x04)
     995                    
     996                    $C$DW$89        .dwtag  DW_TAG_enumerator
     997                            .dwattr $C$DW$89, DW_AT_name("HWREV_2_0")
     998                            .dwattr $C$DW$89, DW_AT_const_value(0x14)
     999                            .dwattr $C$DW$89, DW_AT_decl_file("C:/ti/simplelink_cc13x0_sdk_2_30_00_20/source/ti/devices/cc
    1000                            .dwattr $C$DW$89, DW_AT_decl_line(0x1e2)
    1001                            .dwattr $C$DW$89, DW_AT_decl_column(0x04)
    1002                    
    1003                    $C$DW$90        .dwtag  DW_TAG_enumerator
    1004                            .dwattr $C$DW$90, DW_AT_name("HWREV_2_1")
    1005                            .dwattr $C$DW$90, DW_AT_const_value(0x15)
    1006                            .dwattr $C$DW$90, DW_AT_decl_file("C:/ti/simplelink_cc13x0_sdk_2_30_00_20/source/ti/devices/cc
    1007                            .dwattr $C$DW$90, DW_AT_decl_line(0x1e3)
    1008                            .dwattr $C$DW$90, DW_AT_decl_column(0x04)
    1009                    
    1010                    $C$DW$91        .dwtag  DW_TAG_enumerator
    1011                            .dwattr $C$DW$91, DW_AT_name("HWREV_2_2")
    1012                            .dwattr $C$DW$91, DW_AT_const_value(0x16)
    1013                            .dwattr $C$DW$91, DW_AT_decl_file("C:/ti/simplelink_cc13x0_sdk_2_30_00_20/source/ti/devices/cc
    1014                            .dwattr $C$DW$91, DW_AT_decl_line(0x1e4)
    1015                            .dwattr $C$DW$91, DW_AT_decl_column(0x04)
    1016                    
    1017                    $C$DW$92        .dwtag  DW_TAG_enumerator
    1018                            .dwattr $C$DW$92, DW_AT_name("HWREV_2_3")
    1019                            .dwattr $C$DW$92, DW_AT_const_value(0x17)
    1020                            .dwattr $C$DW$92, DW_AT_decl_file("C:/ti/simplelink_cc13x0_sdk_2_30_00_20/source/ti/devices/cc
    1021                            .dwattr $C$DW$92, DW_AT_decl_line(0x1e5)
    1022                            .dwattr $C$DW$92, DW_AT_decl_column(0x04)
    1023                    
    1024                    $C$DW$93        .dwtag  DW_TAG_enumerator
    1025                            .dwattr $C$DW$93, DW_AT_name("HWREV_2_4")
    1026                            .dwattr $C$DW$93, DW_AT_const_value(0x18)
    1027                            .dwattr $C$DW$93, DW_AT_decl_file("C:/ti/simplelink_cc13x0_sdk_2_30_00_20/source/ti/devices/cc
    1028                            .dwattr $C$DW$93, DW_AT_decl_line(0x1e6)
    1029                            .dwattr $C$DW$93, DW_AT_decl_column(0x04)
    1030                    
    1031                            .dwattr $C$DW$T$482, DW_AT_decl_file("C:/ti/simplelink_cc13x0_sdk_2_30_00_20/source/ti/devices
    1032                            .dwattr $C$DW$T$482, DW_AT_decl_line(0x1de)
    1033                            .dwattr $C$DW$T$482, DW_AT_decl_column(0x0e)
    1034                            .dwendtag $C$DW$T$482
    1035                    
    1036                    $C$DW$T$483     .dwtag  DW_TAG_typedef
    1037                            .dwattr $C$DW$T$483, DW_AT_name("HwRevision_t")
    1038                            .dwattr $C$DW$T$483, DW_AT_type(*$C$DW$T$482)
    1039                            .dwattr $C$DW$T$483, DW_AT_language(DW_LANG_C)
    1040                            .dwattr $C$DW$T$483, DW_AT_decl_file("C:/ti/simplelink_cc13x0_sdk_2_30_00_20/source/ti/devices
TI ARM Assembler PC v16.9.9 Sun Nov 25 17:19:51 2018

Tools Copyright (c) 1996-2017 Texas Instruments Incorporated
C:\Users\Stryd\AppData\Local\Temp\{879FE331-A814-4A40-B693-7BEB0BC2D33C} PAGE   20

    1041                            .dwattr $C$DW$T$483, DW_AT_decl_line(0x1e7)
    1042                            .dwattr $C$DW$T$483, DW_AT_decl_column(0x03)
    1043                    
    1044                    
    1045                    $C$DW$T$178     .dwtag  DW_TAG_structure_type
    1046                            .dwattr $C$DW$T$178, DW_AT_byte_size(0x4c)
    1047                    $C$DW$94        .dwtag  DW_TAG_member
    1048                            .dwattr $C$DW$94, DW_AT_type(*$C$DW$T$142)
    1049                            .dwattr $C$DW$94, DW_AT_name("Crc32")
    1050                            .dwattr $C$DW$94, DW_AT_TI_symbol_name("Crc32")
    1051                            .dwattr $C$DW$94, DW_AT_data_member_location[DW_OP_plus_uconst 0x0]
    1052                            .dwattr $C$DW$94, DW_AT_accessibility(DW_ACCESS_public)
    1053                            .dwattr $C$DW$94, DW_AT_decl_file("C:\ti\simplelink_cc13x0_sdk_2_30_00_20\source\ti\devices\cc
    1054                            .dwattr $C$DW$94, DW_AT_decl_line(0x76)
    1055                            .dwattr $C$DW$94, DW_AT_decl_column(0x25)
    1056                    
    1057                    $C$DW$95        .dwtag  DW_TAG_member
    1058                            .dwattr $C$DW$95, DW_AT_type(*$C$DW$T$145)
    1059                            .dwattr $C$DW$95, DW_AT_name("FlashGetSize")
    1060                            .dwattr $C$DW$95, DW_AT_TI_symbol_name("FlashGetSize")
    1061                            .dwattr $C$DW$95, DW_AT_data_member_location[DW_OP_plus_uconst 0x4]
    1062                            .dwattr $C$DW$95, DW_AT_accessibility(DW_ACCESS_public)
    1063                            .dwattr $C$DW$95, DW_AT_decl_file("C:\ti\simplelink_cc13x0_sdk_2_30_00_20\source\ti\devices\cc
    1064                            .dwattr $C$DW$95, DW_AT_decl_line(0x77)
    1065                            .dwattr $C$DW$95, DW_AT_decl_column(0x25)
    1066                    
    1067                    $C$DW$96        .dwtag  DW_TAG_member
    1068                            .dwattr $C$DW$96, DW_AT_type(*$C$DW$T$146)
    1069                            .dwattr $C$DW$96, DW_AT_name("GetChipId")
    1070                            .dwattr $C$DW$96, DW_AT_TI_symbol_name("GetChipId")
    1071                            .dwattr $C$DW$96, DW_AT_data_member_location[DW_OP_plus_uconst 0x8]
    1072                            .dwattr $C$DW$96, DW_AT_accessibility(DW_ACCESS_public)
    1073                            .dwattr $C$DW$96, DW_AT_decl_file("C:\ti\simplelink_cc13x0_sdk_2_30_00_20\source\ti\devices\cc
    1074                            .dwattr $C$DW$96, DW_AT_decl_line(0x78)
    1075                            .dwattr $C$DW$96, DW_AT_decl_column(0x25)
    1076                    
    1077                    $C$DW$97        .dwtag  DW_TAG_member
    1078                            .dwattr $C$DW$97, DW_AT_type(*$C$DW$T$149)
    1079                            .dwattr $C$DW$97, DW_AT_name("ReservedLocation1")
    1080                            .dwattr $C$DW$97, DW_AT_TI_symbol_name("ReservedLocation1")
    1081                            .dwattr $C$DW$97, DW_AT_data_member_location[DW_OP_plus_uconst 0xc]
    1082                            .dwattr $C$DW$97, DW_AT_accessibility(DW_ACCESS_public)
    1083                            .dwattr $C$DW$97, DW_AT_decl_file("C:\ti\simplelink_cc13x0_sdk_2_30_00_20\source\ti\devices\cc
    1084                            .dwattr $C$DW$97, DW_AT_decl_line(0x79)
    1085                            .dwattr $C$DW$97, DW_AT_decl_column(0x25)
    1086                    
    1087                    $C$DW$98        .dwtag  DW_TAG_member
    1088                            .dwattr $C$DW$98, DW_AT_type(*$C$DW$T$150)
    1089                            .dwattr $C$DW$98, DW_AT_name("ReservedLocation2")
    1090                            .dwattr $C$DW$98, DW_AT_TI_symbol_name("ReservedLocation2")
    1091                            .dwattr $C$DW$98, DW_AT_data_member_location[DW_OP_plus_uconst 0x10]
    1092                            .dwattr $C$DW$98, DW_AT_accessibility(DW_ACCESS_public)
    1093                            .dwattr $C$DW$98, DW_AT_decl_file("C:\ti\simplelink_cc13x0_sdk_2_30_00_20\source\ti\devices\cc
    1094                            .dwattr $C$DW$98, DW_AT_decl_line(0x7a)
    1095                            .dwattr $C$DW$98, DW_AT_decl_column(0x25)
TI ARM Assembler PC v16.9.9 Sun Nov 25 17:19:51 2018

Tools Copyright (c) 1996-2017 Texas Instruments Incorporated
C:\Users\Stryd\AppData\Local\Temp\{879FE331-A814-4A40-B693-7BEB0BC2D33C} PAGE   21

    1096                    
    1097                    $C$DW$99        .dwtag  DW_TAG_member
    1098                            .dwattr $C$DW$99, DW_AT_type(*$C$DW$T$151)
    1099                            .dwattr $C$DW$99, DW_AT_name("ReservedLocation3")
    1100                            .dwattr $C$DW$99, DW_AT_TI_symbol_name("ReservedLocation3")
    1101                            .dwattr $C$DW$99, DW_AT_data_member_location[DW_OP_plus_uconst 0x14]
    1102                            .dwattr $C$DW$99, DW_AT_accessibility(DW_ACCESS_public)
    1103                            .dwattr $C$DW$99, DW_AT_decl_file("C:\ti\simplelink_cc13x0_sdk_2_30_00_20\source\ti\devices\cc
    1104                            .dwattr $C$DW$99, DW_AT_decl_line(0x7b)
    1105                            .dwattr $C$DW$99, DW_AT_decl_column(0x25)
    1106                    
    1107                    $C$DW$100       .dwtag  DW_TAG_member
    1108                            .dwattr $C$DW$100, DW_AT_type(*$C$DW$T$154)
    1109                            .dwattr $C$DW$100, DW_AT_name("ResetDevice")
    1110                            .dwattr $C$DW$100, DW_AT_TI_symbol_name("ResetDevice")
    1111                            .dwattr $C$DW$100, DW_AT_data_member_location[DW_OP_plus_uconst 0x18]
    1112                            .dwattr $C$DW$100, DW_AT_accessibility(DW_ACCESS_public)
    1113                            .dwattr $C$DW$100, DW_AT_decl_file("C:\ti\simplelink_cc13x0_sdk_2_30_00_20\source\ti\devices\c
    1114                            .dwattr $C$DW$100, DW_AT_decl_line(0x7c)
    1115                            .dwattr $C$DW$100, DW_AT_decl_column(0x25)
    1116                    
    1117                    $C$DW$101       .dwtag  DW_TAG_member
    1118                            .dwattr $C$DW$101, DW_AT_type(*$C$DW$T$159)
    1119                            .dwattr $C$DW$101, DW_AT_name("Fletcher32")
    1120                            .dwattr $C$DW$101, DW_AT_TI_symbol_name("Fletcher32")
    1121                            .dwattr $C$DW$101, DW_AT_data_member_location[DW_OP_plus_uconst 0x1c]
    1122                            .dwattr $C$DW$101, DW_AT_accessibility(DW_ACCESS_public)
    1123                            .dwattr $C$DW$101, DW_AT_decl_file("C:\ti\simplelink_cc13x0_sdk_2_30_00_20\source\ti\devices\c
    1124                            .dwattr $C$DW$101, DW_AT_decl_line(0x7d)
    1125                            .dwattr $C$DW$101, DW_AT_decl_column(0x25)
    1126                    
    1127                    $C$DW$102       .dwtag  DW_TAG_member
    1128                            .dwattr $C$DW$102, DW_AT_type(*$C$DW$T$163)
    1129                            .dwattr $C$DW$102, DW_AT_name("MinValue")
    1130                            .dwattr $C$DW$102, DW_AT_TI_symbol_name("MinValue")
    1131                            .dwattr $C$DW$102, DW_AT_data_member_location[DW_OP_plus_uconst 0x20]
    1132                            .dwattr $C$DW$102, DW_AT_accessibility(DW_ACCESS_public)
    1133                            .dwattr $C$DW$102, DW_AT_decl_file("C:\ti\simplelink_cc13x0_sdk_2_30_00_20\source\ti\devices\c
    1134                            .dwattr $C$DW$102, DW_AT_decl_line(0x7e)
    1135                            .dwattr $C$DW$102, DW_AT_decl_column(0x25)
    1136                    
    1137                    $C$DW$103       .dwtag  DW_TAG_member
    1138                            .dwattr $C$DW$103, DW_AT_type(*$C$DW$T$164)
    1139                            .dwattr $C$DW$103, DW_AT_name("MaxValue")
    1140                            .dwattr $C$DW$103, DW_AT_TI_symbol_name("MaxValue")
    1141                            .dwattr $C$DW$103, DW_AT_data_member_location[DW_OP_plus_uconst 0x24]
    1142                            .dwattr $C$DW$103, DW_AT_accessibility(DW_ACCESS_public)
    1143                            .dwattr $C$DW$103, DW_AT_decl_file("C:\ti\simplelink_cc13x0_sdk_2_30_00_20\source\ti\devices\c
    1144                            .dwattr $C$DW$103, DW_AT_decl_line(0x7f)
    1145                            .dwattr $C$DW$103, DW_AT_decl_column(0x25)
    1146                    
    1147                    $C$DW$104       .dwtag  DW_TAG_member
    1148                            .dwattr $C$DW$104, DW_AT_type(*$C$DW$T$165)
    1149                            .dwattr $C$DW$104, DW_AT_name("MeanValue")
    1150                            .dwattr $C$DW$104, DW_AT_TI_symbol_name("MeanValue")
TI ARM Assembler PC v16.9.9 Sun Nov 25 17:19:51 2018

Tools Copyright (c) 1996-2017 Texas Instruments Incorporated
C:\Users\Stryd\AppData\Local\Temp\{879FE331-A814-4A40-B693-7BEB0BC2D33C} PAGE   22

    1151                            .dwattr $C$DW$104, DW_AT_data_member_location[DW_OP_plus_uconst 0x28]
    1152                            .dwattr $C$DW$104, DW_AT_accessibility(DW_ACCESS_public)
    1153                            .dwattr $C$DW$104, DW_AT_decl_file("C:\ti\simplelink_cc13x0_sdk_2_30_00_20\source\ti\devices\c
    1154                            .dwattr $C$DW$104, DW_AT_decl_line(0x80)
    1155                            .dwattr $C$DW$104, DW_AT_decl_column(0x25)
    1156                    
    1157                    $C$DW$105       .dwtag  DW_TAG_member
    1158                            .dwattr $C$DW$105, DW_AT_type(*$C$DW$T$166)
    1159                            .dwattr $C$DW$105, DW_AT_name("StandDeviationValue")
    1160                            .dwattr $C$DW$105, DW_AT_TI_symbol_name("StandDeviationValue")
    1161                            .dwattr $C$DW$105, DW_AT_data_member_location[DW_OP_plus_uconst 0x2c]
    1162                            .dwattr $C$DW$105, DW_AT_accessibility(DW_ACCESS_public)
    1163                            .dwattr $C$DW$105, DW_AT_decl_file("C:\ti\simplelink_cc13x0_sdk_2_30_00_20\source\ti\devices\c
    1164                            .dwattr $C$DW$105, DW_AT_decl_line(0x81)
    1165                            .dwattr $C$DW$105, DW_AT_decl_column(0x25)
    1166                    
    1167                    $C$DW$106       .dwtag  DW_TAG_member
    1168                            .dwattr $C$DW$106, DW_AT_type(*$C$DW$T$169)
    1169                            .dwattr $C$DW$106, DW_AT_name("ReservedLocation4")
    1170                            .dwattr $C$DW$106, DW_AT_TI_symbol_name("ReservedLocation4")
    1171                            .dwattr $C$DW$106, DW_AT_data_member_location[DW_OP_plus_uconst 0x30]
    1172                            .dwattr $C$DW$106, DW_AT_accessibility(DW_ACCESS_public)
    1173                            .dwattr $C$DW$106, DW_AT_decl_file("C:\ti\simplelink_cc13x0_sdk_2_30_00_20\source\ti\devices\c
    1174                            .dwattr $C$DW$106, DW_AT_decl_line(0x82)
    1175                            .dwattr $C$DW$106, DW_AT_decl_column(0x25)
    1176                    
    1177                    $C$DW$107       .dwtag  DW_TAG_member
    1178                            .dwattr $C$DW$107, DW_AT_type(*$C$DW$T$170)
    1179                            .dwattr $C$DW$107, DW_AT_name("ReservedLocation5")
    1180                            .dwattr $C$DW$107, DW_AT_TI_symbol_name("ReservedLocation5")
    1181                            .dwattr $C$DW$107, DW_AT_data_member_location[DW_OP_plus_uconst 0x34]
    1182                            .dwattr $C$DW$107, DW_AT_accessibility(DW_ACCESS_public)
    1183                            .dwattr $C$DW$107, DW_AT_decl_file("C:\ti\simplelink_cc13x0_sdk_2_30_00_20\source\ti\devices\c
    1184                            .dwattr $C$DW$107, DW_AT_decl_line(0x83)
    1185                            .dwattr $C$DW$107, DW_AT_decl_column(0x25)
    1186                    
    1187                    $C$DW$108       .dwtag  DW_TAG_member
    1188                            .dwattr $C$DW$108, DW_AT_type(*$C$DW$T$171)
    1189                            .dwattr $C$DW$108, DW_AT_name("HFSourceSafeSwitch")
    1190                            .dwattr $C$DW$108, DW_AT_TI_symbol_name("HFSourceSafeSwitch")
    1191                            .dwattr $C$DW$108, DW_AT_data_member_location[DW_OP_plus_uconst 0x38]
    1192                            .dwattr $C$DW$108, DW_AT_accessibility(DW_ACCESS_public)
    1193                            .dwattr $C$DW$108, DW_AT_decl_file("C:\ti\simplelink_cc13x0_sdk_2_30_00_20\source\ti\devices\c
    1194                            .dwattr $C$DW$108, DW_AT_decl_line(0x84)
    1195                            .dwattr $C$DW$108, DW_AT_decl_column(0x25)
    1196                    
    1197                    $C$DW$109       .dwtag  DW_TAG_member
    1198                            .dwattr $C$DW$109, DW_AT_type(*$C$DW$T$174)
    1199                            .dwattr $C$DW$109, DW_AT_name("SelectCompAInput")
    1200                            .dwattr $C$DW$109, DW_AT_TI_symbol_name("SelectCompAInput")
    1201                            .dwattr $C$DW$109, DW_AT_data_member_location[DW_OP_plus_uconst 0x3c]
    1202                            .dwattr $C$DW$109, DW_AT_accessibility(DW_ACCESS_public)
    1203                            .dwattr $C$DW$109, DW_AT_decl_file("C:\ti\simplelink_cc13x0_sdk_2_30_00_20\source\ti\devices\c
    1204                            .dwattr $C$DW$109, DW_AT_decl_line(0x85)
    1205                            .dwattr $C$DW$109, DW_AT_decl_column(0x25)
TI ARM Assembler PC v16.9.9 Sun Nov 25 17:19:51 2018

Tools Copyright (c) 1996-2017 Texas Instruments Incorporated
C:\Users\Stryd\AppData\Local\Temp\{879FE331-A814-4A40-B693-7BEB0BC2D33C} PAGE   23

    1206                    
    1207                    $C$DW$110       .dwtag  DW_TAG_member
    1208                            .dwattr $C$DW$110, DW_AT_type(*$C$DW$T$175)
    1209                            .dwattr $C$DW$110, DW_AT_name("SelectCompARef")
    1210                            .dwattr $C$DW$110, DW_AT_TI_symbol_name("SelectCompARef")
    1211                            .dwattr $C$DW$110, DW_AT_data_member_location[DW_OP_plus_uconst 0x40]
    1212                            .dwattr $C$DW$110, DW_AT_accessibility(DW_ACCESS_public)
    1213                            .dwattr $C$DW$110, DW_AT_decl_file("C:\ti\simplelink_cc13x0_sdk_2_30_00_20\source\ti\devices\c
    1214                            .dwattr $C$DW$110, DW_AT_decl_line(0x86)
    1215                            .dwattr $C$DW$110, DW_AT_decl_column(0x25)
    1216                    
    1217                    $C$DW$111       .dwtag  DW_TAG_member
    1218                            .dwattr $C$DW$111, DW_AT_type(*$C$DW$T$176)
    1219                            .dwattr $C$DW$111, DW_AT_name("SelectADCCompBInput")
    1220                            .dwattr $C$DW$111, DW_AT_TI_symbol_name("SelectADCCompBInput")
    1221                            .dwattr $C$DW$111, DW_AT_data_member_location[DW_OP_plus_uconst 0x44]
    1222                            .dwattr $C$DW$111, DW_AT_accessibility(DW_ACCESS_public)
    1223                            .dwattr $C$DW$111, DW_AT_decl_file("C:\ti\simplelink_cc13x0_sdk_2_30_00_20\source\ti\devices\c
    1224                            .dwattr $C$DW$111, DW_AT_decl_line(0x87)
    1225                            .dwattr $C$DW$111, DW_AT_decl_column(0x25)
    1226                    
    1227                    $C$DW$112       .dwtag  DW_TAG_member
    1228                            .dwattr $C$DW$112, DW_AT_type(*$C$DW$T$177)
    1229                            .dwattr $C$DW$112, DW_AT_name("SelectCompBRef")
    1230                            .dwattr $C$DW$112, DW_AT_TI_symbol_name("SelectCompBRef")
    1231                            .dwattr $C$DW$112, DW_AT_data_member_location[DW_OP_plus_uconst 0x48]
    1232                            .dwattr $C$DW$112, DW_AT_accessibility(DW_ACCESS_public)
    1233                            .dwattr $C$DW$112, DW_AT_decl_file("C:\ti\simplelink_cc13x0_sdk_2_30_00_20\source\ti\devices\c
    1234                            .dwattr $C$DW$112, DW_AT_decl_line(0x88)
    1235                            .dwattr $C$DW$112, DW_AT_decl_column(0x25)
    1236                    
    1237                            .dwattr $C$DW$T$178, DW_AT_decl_file("C:\ti\simplelink_cc13x0_sdk_2_30_00_20\source\ti\devices
    1238                            .dwattr $C$DW$T$178, DW_AT_decl_line(0x75)
    1239                            .dwattr $C$DW$T$178, DW_AT_decl_column(0x01)
    1240                            .dwendtag $C$DW$T$178
    1241                    
    1242                    $C$DW$T$484     .dwtag  DW_TAG_typedef
    1243                            .dwattr $C$DW$T$484, DW_AT_name("HARD_API_T")
    1244                            .dwattr $C$DW$T$484, DW_AT_type(*$C$DW$T$178)
    1245                            .dwattr $C$DW$T$484, DW_AT_language(DW_LANG_C)
    1246                            .dwattr $C$DW$T$484, DW_AT_decl_file("C:\ti\simplelink_cc13x0_sdk_2_30_00_20\source\ti\devices
    1247                            .dwattr $C$DW$T$484, DW_AT_decl_line(0x89)
    1248                            .dwattr $C$DW$T$484, DW_AT_decl_column(0x03)
    1249                    
    1250                    
    1251                    $C$DW$T$181     .dwtag  DW_TAG_structure_type
    1252                            .dwattr $C$DW$T$181, DW_AT_byte_size(0x08)
    1253                    $C$DW$113       .dwtag  DW_TAG_member
    1254                            .dwattr $C$DW$113, DW_AT_type(*$C$DW$T$10)
    1255                            .dwattr $C$DW$113, DW_AT_name("length")
    1256                            .dwattr $C$DW$113, DW_AT_TI_symbol_name("length")
    1257                            .dwattr $C$DW$113, DW_AT_data_member_location[DW_OP_plus_uconst 0x0]
    1258                            .dwattr $C$DW$113, DW_AT_accessibility(DW_ACCESS_public)
    1259                            .dwattr $C$DW$113, DW_AT_decl_file("C:/ti/simplelink_cc13x0_sdk_2_30_00_20/kernel/tirtos/packa
    1260                            .dwattr $C$DW$113, DW_AT_decl_line(0x165)
TI ARM Assembler PC v16.9.9 Sun Nov 25 17:19:51 2018

Tools Copyright (c) 1996-2017 Texas Instruments Incorporated
C:\Users\Stryd\AppData\Local\Temp\{879FE331-A814-4A40-B693-7BEB0BC2D33C} PAGE   24

    1261                            .dwattr $C$DW$113, DW_AT_decl_column(0x16)
    1262                    
    1263                    $C$DW$114       .dwtag  DW_TAG_member
    1264                            .dwattr $C$DW$114, DW_AT_type(*$C$DW$T$180)
    1265                            .dwattr $C$DW$114, DW_AT_name("elem")
    1266                            .dwattr $C$DW$114, DW_AT_TI_symbol_name("elem")
    1267                            .dwattr $C$DW$114, DW_AT_data_member_location[DW_OP_plus_uconst 0x4]
    1268                            .dwattr $C$DW$114, DW_AT_accessibility(DW_ACCESS_public)
    1269                            .dwattr $C$DW$114, DW_AT_decl_file("C:/ti/simplelink_cc13x0_sdk_2_30_00_20/kernel/tirtos/packa
    1270                            .dwattr $C$DW$114, DW_AT_decl_line(0x165)
    1271                            .dwattr $C$DW$114, DW_AT_decl_column(0x3a)
    1272                    
    1273                            .dwattr $C$DW$T$181, DW_AT_decl_file("C:/ti/simplelink_cc13x0_sdk_2_30_00_20/kernel/tirtos/pac
    1274                            .dwattr $C$DW$T$181, DW_AT_decl_line(0x165)
    1275                            .dwattr $C$DW$T$181, DW_AT_decl_column(0x10)
    1276                            .dwendtag $C$DW$T$181
    1277                    
    1278                    $C$DW$T$485     .dwtag  DW_TAG_typedef
    1279                            .dwattr $C$DW$T$485, DW_AT_name("ARRAY1_ti_sysbios_knl_Swi_hooks")
    1280                            .dwattr $C$DW$T$485, DW_AT_type(*$C$DW$T$181)
    1281                            .dwattr $C$DW$T$485, DW_AT_language(DW_LANG_C)
    1282                            .dwattr $C$DW$T$485, DW_AT_decl_file("C:/ti/simplelink_cc13x0_sdk_2_30_00_20/kernel/tirtos/pac
    1283                            .dwattr $C$DW$T$485, DW_AT_decl_line(0x165)
    1284                            .dwattr $C$DW$T$485, DW_AT_decl_column(0x42)
    1285                    
    1286                    
    1287                    $C$DW$T$184     .dwtag  DW_TAG_structure_type
    1288                            .dwattr $C$DW$T$184, DW_AT_byte_size(0x08)
    1289                    $C$DW$115       .dwtag  DW_TAG_member
    1290                            .dwattr $C$DW$115, DW_AT_type(*$C$DW$T$10)
    1291                            .dwattr $C$DW$115, DW_AT_name("length")
    1292                            .dwattr $C$DW$115, DW_AT_TI_symbol_name("length")
    1293                            .dwattr $C$DW$115, DW_AT_data_member_location[DW_OP_plus_uconst 0x0]
    1294                            .dwattr $C$DW$115, DW_AT_accessibility(DW_ACCESS_public)
    1295                            .dwattr $C$DW$115, DW_AT_decl_file("C:/ti/simplelink_cc13x0_sdk_2_30_00_20/kernel/tirtos/packa
    1296                            .dwattr $C$DW$115, DW_AT_decl_line(0x166)
    1297                            .dwattr $C$DW$115, DW_AT_decl_column(0x16)
    1298                    
    1299                    $C$DW$116       .dwtag  DW_TAG_member
    1300                            .dwattr $C$DW$116, DW_AT_type(*$C$DW$T$183)
    1301                            .dwattr $C$DW$116, DW_AT_name("elem")
    1302                            .dwattr $C$DW$116, DW_AT_TI_symbol_name("elem")
    1303                            .dwattr $C$DW$116, DW_AT_data_member_location[DW_OP_plus_uconst 0x4]
    1304                            .dwattr $C$DW$116, DW_AT_accessibility(DW_ACCESS_public)
    1305                            .dwattr $C$DW$116, DW_AT_decl_file("C:/ti/simplelink_cc13x0_sdk_2_30_00_20/kernel/tirtos/packa
    1306                            .dwattr $C$DW$116, DW_AT_decl_line(0x166)
    1307                            .dwattr $C$DW$116, DW_AT_decl_column(0x40)
    1308                    
    1309                            .dwattr $C$DW$T$184, DW_AT_decl_file("C:/ti/simplelink_cc13x0_sdk_2_30_00_20/kernel/tirtos/pac
    1310                            .dwattr $C$DW$T$184, DW_AT_decl_line(0x166)
    1311                            .dwattr $C$DW$T$184, DW_AT_decl_column(0x10)
    1312                            .dwendtag $C$DW$T$184
    1313                    
    1314                    $C$DW$T$486     .dwtag  DW_TAG_typedef
    1315                            .dwattr $C$DW$T$486, DW_AT_name("CARRAY1_ti_sysbios_knl_Swi_hooks")
TI ARM Assembler PC v16.9.9 Sun Nov 25 17:19:51 2018

Tools Copyright (c) 1996-2017 Texas Instruments Incorporated
C:\Users\Stryd\AppData\Local\Temp\{879FE331-A814-4A40-B693-7BEB0BC2D33C} PAGE   25

    1316                            .dwattr $C$DW$T$486, DW_AT_type(*$C$DW$T$184)
    1317                            .dwattr $C$DW$T$486, DW_AT_language(DW_LANG_C)
    1318                            .dwattr $C$DW$T$486, DW_AT_decl_file("C:/ti/simplelink_cc13x0_sdk_2_30_00_20/kernel/tirtos/pac
    1319                            .dwattr $C$DW$T$486, DW_AT_decl_line(0x166)
    1320                            .dwattr $C$DW$T$486, DW_AT_decl_column(0x48)
    1321                    
    1322                    $C$DW$T$487     .dwtag  DW_TAG_typedef
    1323                            .dwattr $C$DW$T$487, DW_AT_name("CT__ti_sysbios_knl_Swi_hooks")
    1324                            .dwattr $C$DW$T$487, DW_AT_type(*$C$DW$T$486)
    1325                            .dwattr $C$DW$T$487, DW_AT_language(DW_LANG_C)
    1326                            .dwattr $C$DW$T$487, DW_AT_decl_file("C:/ti/simplelink_cc13x0_sdk_2_30_00_20/kernel/tirtos/pac
    1327                            .dwattr $C$DW$T$487, DW_AT_decl_line(0x168)
    1328                            .dwattr $C$DW$T$487, DW_AT_decl_column(0x2a)
    1329                    
    1330                    $C$DW$T$488     .dwtag  DW_TAG_typedef
    1331                            .dwattr $C$DW$T$488, DW_AT_name("__TA_ti_sysbios_knl_Swi_hooks")
    1332                            .dwattr $C$DW$T$488, DW_AT_type(*$C$DW$T$486)
    1333                            .dwattr $C$DW$T$488, DW_AT_language(DW_LANG_C)
    1334                            .dwattr $C$DW$T$488, DW_AT_decl_file("C:/ti/simplelink_cc13x0_sdk_2_30_00_20/kernel/tirtos/pac
    1335                            .dwattr $C$DW$T$488, DW_AT_decl_line(0x167)
    1336                            .dwattr $C$DW$T$488, DW_AT_decl_column(0x2a)
    1337                    
    1338                    
    1339                    $C$DW$T$188     .dwtag  DW_TAG_union_type
    1340                            .dwattr $C$DW$T$188, DW_AT_byte_size(0x04)
    1341                    $C$DW$117       .dwtag  DW_TAG_member
    1342                            .dwattr $C$DW$117, DW_AT_type(*$C$DW$T$185)
    1343                            .dwattr $C$DW$117, DW_AT_name("f")
    1344                            .dwattr $C$DW$117, DW_AT_TI_symbol_name("f")
    1345                            .dwattr $C$DW$117, DW_AT_data_member_location[DW_OP_plus_uconst 0x0]
    1346                            .dwattr $C$DW$117, DW_AT_accessibility(DW_ACCESS_public)
    1347                            .dwattr $C$DW$117, DW_AT_decl_file("C:/ti/xdctools_3_50_08_24_core/packages/xdc/std.h")
    1348                            .dwattr $C$DW$117, DW_AT_decl_line(0xb7)
    1349                            .dwattr $C$DW$117, DW_AT_decl_column(0x0f)
    1350                    
    1351                    $C$DW$118       .dwtag  DW_TAG_member
    1352                            .dwattr $C$DW$118, DW_AT_type(*$C$DW$T$187)
    1353                            .dwattr $C$DW$118, DW_AT_name("a")
    1354                            .dwattr $C$DW$118, DW_AT_TI_symbol_name("a")
    1355                            .dwattr $C$DW$118, DW_AT_data_member_location[DW_OP_plus_uconst 0x0]
    1356                            .dwattr $C$DW$118, DW_AT_accessibility(DW_ACCESS_public)
    1357                            .dwattr $C$DW$118, DW_AT_decl_file("C:/ti/xdctools_3_50_08_24_core/packages/xdc/std.h")
    1358                            .dwattr $C$DW$118, DW_AT_decl_line(0xb8)
    1359                            .dwattr $C$DW$118, DW_AT_decl_column(0x0f)
    1360                    
    1361                            .dwattr $C$DW$T$188, DW_AT_decl_file("C:/ti/xdctools_3_50_08_24_core/packages/xdc/std.h")
    1362                            .dwattr $C$DW$T$188, DW_AT_decl_line(0xb6)
    1363                            .dwattr $C$DW$T$188, DW_AT_decl_column(0x0f)
    1364                            .dwendtag $C$DW$T$188
    1365                    
    1366                    $C$DW$T$489     .dwtag  DW_TAG_typedef
    1367                            .dwattr $C$DW$T$489, DW_AT_name("xdc_FloatData")
    1368                            .dwattr $C$DW$T$489, DW_AT_type(*$C$DW$T$188)
    1369                            .dwattr $C$DW$T$489, DW_AT_language(DW_LANG_C)
    1370                            .dwattr $C$DW$T$489, DW_AT_decl_file("C:/ti/xdctools_3_50_08_24_core/packages/xdc/std.h")
TI ARM Assembler PC v16.9.9 Sun Nov 25 17:19:51 2018

Tools Copyright (c) 1996-2017 Texas Instruments Incorporated
C:\Users\Stryd\AppData\Local\Temp\{879FE331-A814-4A40-B693-7BEB0BC2D33C} PAGE   26

    1371                            .dwattr $C$DW$T$489, DW_AT_decl_line(0xb9)
    1372                            .dwattr $C$DW$T$489, DW_AT_decl_column(0x03)
    1373                    
    1374                    
    1375                    $C$DW$T$191     .dwtag  DW_TAG_structure_type
    1376                            .dwattr $C$DW$T$191, DW_AT_name(".ggroup1")
    1377                            .dwattr $C$DW$T$191, DW_AT_byte_size(0x48)
    1378                    $C$DW$119       .dwtag  DW_TAG_member
    1379                            .dwattr $C$DW$119, DW_AT_type(*$C$DW$T$6)
    1380                            .dwattr $C$DW$119, DW_AT_name("keysPressed")
    1381                            .dwattr $C$DW$119, DW_AT_TI_symbol_name("keysPressed")
    1382                            .dwattr $C$DW$119, DW_AT_data_member_location[DW_OP_plus_uconst 0x0]
    1383                            .dwattr $C$DW$119, DW_AT_accessibility(DW_ACCESS_public)
    1384                    
    1385                    $C$DW$120       .dwtag  DW_TAG_member
    1386                            .dwattr $C$DW$120, DW_AT_type(*$C$DW$T$6)
    1387                            .dwattr $C$DW$120, DW_AT_name("keyButton0")
    1388                            .dwattr $C$DW$120, DW_AT_TI_symbol_name("keyButton0")
    1389                            .dwattr $C$DW$120, DW_AT_data_member_location[DW_OP_plus_uconst 0x1]
    1390                            .dwattr $C$DW$120, DW_AT_accessibility(DW_ACCESS_public)
    1391                    
    1392                    $C$DW$121       .dwtag  DW_TAG_member
    1393                            .dwattr $C$DW$121, DW_AT_type(*$C$DW$T$6)
    1394                            .dwattr $C$DW$121, DW_AT_name("keyButton1")
    1395                            .dwattr $C$DW$121, DW_AT_TI_symbol_name("keyButton1")
    1396                            .dwattr $C$DW$121, DW_AT_data_member_location[DW_OP_plus_uconst 0x2]
    1397                            .dwattr $C$DW$121, DW_AT_accessibility(DW_ACCESS_public)
    1398                    
    1399                    $C$DW$122       .dwtag  DW_TAG_member
    1400                            .dwattr $C$DW$122, DW_AT_type(*$C$DW$T$173)
    1401                            .dwattr $C$DW$122, DW_AT_name("appKeyChangeHandler")
    1402                            .dwattr $C$DW$122, DW_AT_TI_symbol_name("appKeyChangeHandler")
    1403                            .dwattr $C$DW$122, DW_AT_data_member_location[DW_OP_plus_uconst 0x4]
    1404                            .dwattr $C$DW$122, DW_AT_accessibility(DW_ACCESS_public)
    1405                    
    1406                    $C$DW$123       .dwtag  DW_TAG_member
    1407                            .dwattr $C$DW$123, DW_AT_type(*$C$DW$T$189)
    1408                            .dwattr $C$DW$123, DW_AT_name("keyPinHandle")
    1409                            .dwattr $C$DW$123, DW_AT_TI_symbol_name("keyPinHandle")
    1410                            .dwattr $C$DW$123, DW_AT_data_member_location[DW_OP_plus_uconst 0x8]
    1411                            .dwattr $C$DW$123, DW_AT_accessibility(DW_ACCESS_public)
    1412                    
    1413                    $C$DW$124       .dwtag  DW_TAG_member
    1414                            .dwattr $C$DW$124, DW_AT_type(*$C$DW$T$190)
    1415                            .dwattr $C$DW$124, DW_AT_name("keyPinTable")
    1416                            .dwattr $C$DW$124, DW_AT_TI_symbol_name("keyPinTable")
    1417                            .dwattr $C$DW$124, DW_AT_data_member_location[DW_OP_plus_uconst 0xc]
    1418                            .dwattr $C$DW$124, DW_AT_accessibility(DW_ACCESS_public)
    1419                    
    1420                    $C$DW$125       .dwtag  DW_TAG_member
    1421                            .dwattr $C$DW$125, DW_AT_type(*$C$DW$T$200)
    1422                            .dwattr $C$DW$125, DW_AT_name("keyPinState")
    1423                            .dwattr $C$DW$125, DW_AT_TI_symbol_name("keyPinState")
    1424                            .dwattr $C$DW$125, DW_AT_data_member_location[DW_OP_plus_uconst 0x18]
    1425                            .dwattr $C$DW$125, DW_AT_accessibility(DW_ACCESS_public)
TI ARM Assembler PC v16.9.9 Sun Nov 25 17:19:51 2018

Tools Copyright (c) 1996-2017 Texas Instruments Incorporated
C:\Users\Stryd\AppData\Local\Temp\{879FE331-A814-4A40-B693-7BEB0BC2D33C} PAGE   27

    1426                    
    1427                    $C$DW$126       .dwtag  DW_TAG_member
    1428                            .dwattr $C$DW$126, DW_AT_type(*$C$DW$T$273)
    1429                            .dwattr $C$DW$126, DW_AT_name("keyChangeClock")
    1430                            .dwattr $C$DW$126, DW_AT_TI_symbol_name("keyChangeClock")
    1431                            .dwattr $C$DW$126, DW_AT_data_member_location[DW_OP_plus_uconst 0x24]
    1432                            .dwattr $C$DW$126, DW_AT_accessibility(DW_ACCESS_public)
    1433                    
    1434                            .dwendtag $C$DW$T$191
    1435                    
    1436                    
    1437                    $C$DW$T$491     .dwtag  DW_TAG_enumeration_type
    1438                            .dwattr $C$DW$T$491, DW_AT_name("CC1350_LAUNCHXL_ADCBuf0ChannelName")
    1439                            .dwattr $C$DW$T$491, DW_AT_byte_size(0x01)
    1440                    $C$DW$127       .dwtag  DW_TAG_enumerator
    1441                            .dwattr $C$DW$127, DW_AT_name("CC1350_LAUNCHXL_ADCBUF0CHANNEL0")
    1442                            .dwattr $C$DW$127, DW_AT_const_value(0x00)
    1443                            .dwattr $C$DW$127, DW_AT_decl_file("C:\ti\simplelink_cc13x0_sdk_2_30_00_20\examples\rtos\CC135
    1444                            .dwattr $C$DW$127, DW_AT_decl_line(0xba)
    1445                            .dwattr $C$DW$127, DW_AT_decl_column(0x05)
    1446                    
    1447                    $C$DW$128       .dwtag  DW_TAG_enumerator
    1448                            .dwattr $C$DW$128, DW_AT_name("CC1350_LAUNCHXL_ADCBUF0CHANNEL1")
    1449                            .dwattr $C$DW$128, DW_AT_const_value(0x01)
    1450                            .dwattr $C$DW$128, DW_AT_decl_file("C:\ti\simplelink_cc13x0_sdk_2_30_00_20\examples\rtos\CC135
    1451                            .dwattr $C$DW$128, DW_AT_decl_line(0xbb)
    1452                            .dwattr $C$DW$128, DW_AT_decl_column(0x05)
    1453                    
    1454                    $C$DW$129       .dwtag  DW_TAG_enumerator
    1455                            .dwattr $C$DW$129, DW_AT_name("CC1350_LAUNCHXL_ADCBUF0CHANNEL2")
    1456                            .dwattr $C$DW$129, DW_AT_const_value(0x02)
    1457                            .dwattr $C$DW$129, DW_AT_decl_file("C:\ti\simplelink_cc13x0_sdk_2_30_00_20\examples\rtos\CC135
    1458                            .dwattr $C$DW$129, DW_AT_decl_line(0xbc)
    1459                            .dwattr $C$DW$129, DW_AT_decl_column(0x05)
    1460                    
    1461                    $C$DW$130       .dwtag  DW_TAG_enumerator
    1462                            .dwattr $C$DW$130, DW_AT_name("CC1350_LAUNCHXL_ADCBUF0CHANNEL3")
    1463                            .dwattr $C$DW$130, DW_AT_const_value(0x03)
    1464                            .dwattr $C$DW$130, DW_AT_decl_file("C:\ti\simplelink_cc13x0_sdk_2_30_00_20\examples\rtos\CC135
    1465                            .dwattr $C$DW$130, DW_AT_decl_line(0xbd)
    1466                            .dwattr $C$DW$130, DW_AT_decl_column(0x05)
    1467                    
    1468                    $C$DW$131       .dwtag  DW_TAG_enumerator
    1469                            .dwattr $C$DW$131, DW_AT_name("CC1350_LAUNCHXL_ADCBUF0CHANNEL4")
    1470                            .dwattr $C$DW$131, DW_AT_const_value(0x04)
    1471                            .dwattr $C$DW$131, DW_AT_decl_file("C:\ti\simplelink_cc13x0_sdk_2_30_00_20\examples\rtos\CC135
    1472                            .dwattr $C$DW$131, DW_AT_decl_line(0xbe)
    1473                            .dwattr $C$DW$131, DW_AT_decl_column(0x05)
    1474                    
    1475                    $C$DW$132       .dwtag  DW_TAG_enumerator
    1476                            .dwattr $C$DW$132, DW_AT_name("CC1350_LAUNCHXL_ADCBUF0CHANNEL5")
    1477                            .dwattr $C$DW$132, DW_AT_const_value(0x05)
    1478                            .dwattr $C$DW$132, DW_AT_decl_file("C:\ti\simplelink_cc13x0_sdk_2_30_00_20\examples\rtos\CC135
    1479                            .dwattr $C$DW$132, DW_AT_decl_line(0xbf)
    1480                            .dwattr $C$DW$132, DW_AT_decl_column(0x05)
TI ARM Assembler PC v16.9.9 Sun Nov 25 17:19:51 2018

Tools Copyright (c) 1996-2017 Texas Instruments Incorporated
C:\Users\Stryd\AppData\Local\Temp\{879FE331-A814-4A40-B693-7BEB0BC2D33C} PAGE   28

    1481                    
    1482                    $C$DW$133       .dwtag  DW_TAG_enumerator
    1483                            .dwattr $C$DW$133, DW_AT_name("CC1350_LAUNCHXL_ADCBUF0CHANNEL6")
    1484                            .dwattr $C$DW$133, DW_AT_const_value(0x06)
    1485                            .dwattr $C$DW$133, DW_AT_decl_file("C:\ti\simplelink_cc13x0_sdk_2_30_00_20\examples\rtos\CC135
    1486                            .dwattr $C$DW$133, DW_AT_decl_line(0xc0)
    1487                            .dwattr $C$DW$133, DW_AT_decl_column(0x05)
    1488                    
    1489                    $C$DW$134       .dwtag  DW_TAG_enumerator
    1490                            .dwattr $C$DW$134, DW_AT_name("CC1350_LAUNCHXL_ADCBUF0CHANNEL7")
    1491                            .dwattr $C$DW$134, DW_AT_const_value(0x07)
    1492                            .dwattr $C$DW$134, DW_AT_decl_file("C:\ti\simplelink_cc13x0_sdk_2_30_00_20\examples\rtos\CC135
    1493                            .dwattr $C$DW$134, DW_AT_decl_line(0xc1)
    1494                            .dwattr $C$DW$134, DW_AT_decl_column(0x05)
    1495                    
    1496                    $C$DW$135       .dwtag  DW_TAG_enumerator
    1497                            .dwattr $C$DW$135, DW_AT_name("CC1350_LAUNCHXL_ADCBUF0CHANNELVDDS")
    1498                            .dwattr $C$DW$135, DW_AT_const_value(0x08)
    1499                            .dwattr $C$DW$135, DW_AT_decl_file("C:\ti\simplelink_cc13x0_sdk_2_30_00_20\examples\rtos\CC135
    1500                            .dwattr $C$DW$135, DW_AT_decl_line(0xc2)
    1501                            .dwattr $C$DW$135, DW_AT_decl_column(0x05)
    1502                    
    1503                    $C$DW$136       .dwtag  DW_TAG_enumerator
    1504                            .dwattr $C$DW$136, DW_AT_name("CC1350_LAUNCHXL_ADCBUF0CHANNELDCOUPL")
    1505                            .dwattr $C$DW$136, DW_AT_const_value(0x09)
    1506                            .dwattr $C$DW$136, DW_AT_decl_file("C:\ti\simplelink_cc13x0_sdk_2_30_00_20\examples\rtos\CC135
    1507                            .dwattr $C$DW$136, DW_AT_decl_line(0xc3)
    1508                            .dwattr $C$DW$136, DW_AT_decl_column(0x05)
    1509                    
    1510                    $C$DW$137       .dwtag  DW_TAG_enumerator
    1511                            .dwattr $C$DW$137, DW_AT_name("CC1350_LAUNCHXL_ADCBUF0CHANNELVSS")
    1512                            .dwattr $C$DW$137, DW_AT_const_value(0x0a)
    1513                            .dwattr $C$DW$137, DW_AT_decl_file("C:\ti\simplelink_cc13x0_sdk_2_30_00_20\examples\rtos\CC135
    1514                            .dwattr $C$DW$137, DW_AT_decl_line(0xc4)
    1515                            .dwattr $C$DW$137, DW_AT_decl_column(0x05)
    1516                    
    1517                    $C$DW$138       .dwtag  DW_TAG_enumerator
    1518                            .dwattr $C$DW$138, DW_AT_name("CC1350_LAUNCHXL_ADCBUF0CHANNELCOUNT")
    1519                            .dwattr $C$DW$138, DW_AT_const_value(0x0b)
    1520                            .dwattr $C$DW$138, DW_AT_decl_file("C:\ti\simplelink_cc13x0_sdk_2_30_00_20\examples\rtos\CC135
    1521                            .dwattr $C$DW$138, DW_AT_decl_line(0xc6)
    1522                            .dwattr $C$DW$138, DW_AT_decl_column(0x05)
    1523                    
    1524                            .dwattr $C$DW$T$491, DW_AT_decl_file("C:\ti\simplelink_cc13x0_sdk_2_30_00_20\examples\rtos\CC1
    1525                            .dwattr $C$DW$T$491, DW_AT_decl_line(0xb9)
    1526                            .dwattr $C$DW$T$491, DW_AT_decl_column(0x0e)
    1527                            .dwendtag $C$DW$T$491
    1528                    
    1529                    $C$DW$T$492     .dwtag  DW_TAG_typedef
    1530                            .dwattr $C$DW$T$492, DW_AT_name("CC1350_LAUNCHXL_ADCBuf0ChannelName")
    1531                            .dwattr $C$DW$T$492, DW_AT_type(*$C$DW$T$491)
    1532                            .dwattr $C$DW$T$492, DW_AT_language(DW_LANG_C)
    1533                            .dwattr $C$DW$T$492, DW_AT_decl_file("C:\ti\simplelink_cc13x0_sdk_2_30_00_20\examples\rtos\CC1
    1534                            .dwattr $C$DW$T$492, DW_AT_decl_line(0xc7)
    1535                            .dwattr $C$DW$T$492, DW_AT_decl_column(0x03)
TI ARM Assembler PC v16.9.9 Sun Nov 25 17:19:51 2018

Tools Copyright (c) 1996-2017 Texas Instruments Incorporated
C:\Users\Stryd\AppData\Local\Temp\{879FE331-A814-4A40-B693-7BEB0BC2D33C} PAGE   29

    1536                    
    1537                    
    1538                    $C$DW$T$493     .dwtag  DW_TAG_enumeration_type
    1539                            .dwattr $C$DW$T$493, DW_AT_name("CC1350_LAUNCHXL_ADCBufName")
    1540                            .dwattr $C$DW$T$493, DW_AT_byte_size(0x01)
    1541                    $C$DW$139       .dwtag  DW_TAG_enumerator
    1542                            .dwattr $C$DW$139, DW_AT_name("CC1350_LAUNCHXL_ADCBUF0")
    1543                            .dwattr $C$DW$139, DW_AT_const_value(0x00)
    1544                            .dwattr $C$DW$139, DW_AT_decl_file("C:\ti\simplelink_cc13x0_sdk_2_30_00_20\examples\rtos\CC135
    1545                            .dwattr $C$DW$139, DW_AT_decl_line(0xb0)
    1546                            .dwattr $C$DW$139, DW_AT_decl_column(0x05)
    1547                    
    1548                    $C$DW$140       .dwtag  DW_TAG_enumerator
    1549                            .dwattr $C$DW$140, DW_AT_name("CC1350_LAUNCHXL_ADCBUFCOUNT")
    1550                            .dwattr $C$DW$140, DW_AT_const_value(0x01)
    1551                            .dwattr $C$DW$140, DW_AT_decl_file("C:\ti\simplelink_cc13x0_sdk_2_30_00_20\examples\rtos\CC135
    1552                            .dwattr $C$DW$140, DW_AT_decl_line(0xb2)
    1553                            .dwattr $C$DW$140, DW_AT_decl_column(0x05)
    1554                    
    1555                            .dwattr $C$DW$T$493, DW_AT_decl_file("C:\ti\simplelink_cc13x0_sdk_2_30_00_20\examples\rtos\CC1
    1556                            .dwattr $C$DW$T$493, DW_AT_decl_line(0xaf)
    1557                            .dwattr $C$DW$T$493, DW_AT_decl_column(0x0e)
    1558                            .dwendtag $C$DW$T$493
    1559                    
    1560                    $C$DW$T$494     .dwtag  DW_TAG_typedef
    1561                            .dwattr $C$DW$T$494, DW_AT_name("CC1350_LAUNCHXL_ADCBufName")
    1562                            .dwattr $C$DW$T$494, DW_AT_type(*$C$DW$T$493)
    1563                            .dwattr $C$DW$T$494, DW_AT_language(DW_LANG_C)
    1564                            .dwattr $C$DW$T$494, DW_AT_decl_file("C:\ti\simplelink_cc13x0_sdk_2_30_00_20\examples\rtos\CC1
    1565                            .dwattr $C$DW$T$494, DW_AT_decl_line(0xb3)
    1566                            .dwattr $C$DW$T$494, DW_AT_decl_column(0x03)
    1567                    
    1568                    
    1569                    $C$DW$T$495     .dwtag  DW_TAG_enumeration_type
    1570                            .dwattr $C$DW$T$495, DW_AT_name("CC1350_LAUNCHXL_ADCName")
    1571                            .dwattr $C$DW$T$495, DW_AT_byte_size(0x01)
    1572                    $C$DW$141       .dwtag  DW_TAG_enumerator
    1573                            .dwattr $C$DW$141, DW_AT_name("CC1350_LAUNCHXL_ADC0")
    1574                            .dwattr $C$DW$141, DW_AT_const_value(0x00)
    1575                            .dwattr $C$DW$141, DW_AT_decl_file("C:\ti\simplelink_cc13x0_sdk_2_30_00_20\examples\rtos\CC135
    1576                            .dwattr $C$DW$141, DW_AT_decl_line(0xce)
    1577                            .dwattr $C$DW$141, DW_AT_decl_column(0x05)
    1578                    
    1579                    $C$DW$142       .dwtag  DW_TAG_enumerator
    1580                            .dwattr $C$DW$142, DW_AT_name("CC1350_LAUNCHXL_ADC1")
    1581                            .dwattr $C$DW$142, DW_AT_const_value(0x01)
    1582                            .dwattr $C$DW$142, DW_AT_decl_file("C:\ti\simplelink_cc13x0_sdk_2_30_00_20\examples\rtos\CC135
    1583                            .dwattr $C$DW$142, DW_AT_decl_line(0xcf)
    1584                            .dwattr $C$DW$142, DW_AT_decl_column(0x05)
    1585                    
    1586                    $C$DW$143       .dwtag  DW_TAG_enumerator
    1587                            .dwattr $C$DW$143, DW_AT_name("CC1350_LAUNCHXL_ADC2")
    1588                            .dwattr $C$DW$143, DW_AT_const_value(0x02)
    1589                            .dwattr $C$DW$143, DW_AT_decl_file("C:\ti\simplelink_cc13x0_sdk_2_30_00_20\examples\rtos\CC135
    1590                            .dwattr $C$DW$143, DW_AT_decl_line(0xd0)
TI ARM Assembler PC v16.9.9 Sun Nov 25 17:19:51 2018

Tools Copyright (c) 1996-2017 Texas Instruments Incorporated
C:\Users\Stryd\AppData\Local\Temp\{879FE331-A814-4A40-B693-7BEB0BC2D33C} PAGE   30

    1591                            .dwattr $C$DW$143, DW_AT_decl_column(0x05)
    1592                    
    1593                    $C$DW$144       .dwtag  DW_TAG_enumerator
    1594                            .dwattr $C$DW$144, DW_AT_name("CC1350_LAUNCHXL_ADC3")
    1595                            .dwattr $C$DW$144, DW_AT_const_value(0x03)
    1596                            .dwattr $C$DW$144, DW_AT_decl_file("C:\ti\simplelink_cc13x0_sdk_2_30_00_20\examples\rtos\CC135
    1597                            .dwattr $C$DW$144, DW_AT_decl_line(0xd1)
    1598                            .dwattr $C$DW$144, DW_AT_decl_column(0x05)
    1599                    
    1600                    $C$DW$145       .dwtag  DW_TAG_enumerator
    1601                            .dwattr $C$DW$145, DW_AT_name("CC1350_LAUNCHXL_ADC4")
    1602                            .dwattr $C$DW$145, DW_AT_const_value(0x04)
    1603                            .dwattr $C$DW$145, DW_AT_decl_file("C:\ti\simplelink_cc13x0_sdk_2_30_00_20\examples\rtos\CC135
    1604                            .dwattr $C$DW$145, DW_AT_decl_line(0xd2)
    1605                            .dwattr $C$DW$145, DW_AT_decl_column(0x05)
    1606                    
    1607                    $C$DW$146       .dwtag  DW_TAG_enumerator
    1608                            .dwattr $C$DW$146, DW_AT_name("CC1350_LAUNCHXL_ADC5")
    1609                            .dwattr $C$DW$146, DW_AT_const_value(0x05)
    1610                            .dwattr $C$DW$146, DW_AT_decl_file("C:\ti\simplelink_cc13x0_sdk_2_30_00_20\examples\rtos\CC135
    1611                            .dwattr $C$DW$146, DW_AT_decl_line(0xd3)
    1612                            .dwattr $C$DW$146, DW_AT_decl_column(0x05)
    1613                    
    1614                    $C$DW$147       .dwtag  DW_TAG_enumerator
    1615                            .dwattr $C$DW$147, DW_AT_name("CC1350_LAUNCHXL_ADC6")
    1616                            .dwattr $C$DW$147, DW_AT_const_value(0x06)
    1617                            .dwattr $C$DW$147, DW_AT_decl_file("C:\ti\simplelink_cc13x0_sdk_2_30_00_20\examples\rtos\CC135
    1618                            .dwattr $C$DW$147, DW_AT_decl_line(0xd4)
    1619                            .dwattr $C$DW$147, DW_AT_decl_column(0x05)
    1620                    
    1621                    $C$DW$148       .dwtag  DW_TAG_enumerator
    1622                            .dwattr $C$DW$148, DW_AT_name("CC1350_LAUNCHXL_ADC7")
    1623                            .dwattr $C$DW$148, DW_AT_const_value(0x07)
    1624                            .dwattr $C$DW$148, DW_AT_decl_file("C:\ti\simplelink_cc13x0_sdk_2_30_00_20\examples\rtos\CC135
    1625                            .dwattr $C$DW$148, DW_AT_decl_line(0xd5)
    1626                            .dwattr $C$DW$148, DW_AT_decl_column(0x05)
    1627                    
    1628                    $C$DW$149       .dwtag  DW_TAG_enumerator
    1629                            .dwattr $C$DW$149, DW_AT_name("CC1350_LAUNCHXL_ADCDCOUPL")
    1630                            .dwattr $C$DW$149, DW_AT_const_value(0x08)
    1631                            .dwattr $C$DW$149, DW_AT_decl_file("C:\ti\simplelink_cc13x0_sdk_2_30_00_20\examples\rtos\CC135
    1632                            .dwattr $C$DW$149, DW_AT_decl_line(0xd6)
    1633                            .dwattr $C$DW$149, DW_AT_decl_column(0x05)
    1634                    
    1635                    $C$DW$150       .dwtag  DW_TAG_enumerator
    1636                            .dwattr $C$DW$150, DW_AT_name("CC1350_LAUNCHXL_ADCVSS")
    1637                            .dwattr $C$DW$150, DW_AT_const_value(0x09)
    1638                            .dwattr $C$DW$150, DW_AT_decl_file("C:\ti\simplelink_cc13x0_sdk_2_30_00_20\examples\rtos\CC135
    1639                            .dwattr $C$DW$150, DW_AT_decl_line(0xd7)
    1640                            .dwattr $C$DW$150, DW_AT_decl_column(0x05)
    1641                    
    1642                    $C$DW$151       .dwtag  DW_TAG_enumerator
    1643                            .dwattr $C$DW$151, DW_AT_name("CC1350_LAUNCHXL_ADCVDDS")
    1644                            .dwattr $C$DW$151, DW_AT_const_value(0x0a)
    1645                            .dwattr $C$DW$151, DW_AT_decl_file("C:\ti\simplelink_cc13x0_sdk_2_30_00_20\examples\rtos\CC135
TI ARM Assembler PC v16.9.9 Sun Nov 25 17:19:51 2018

Tools Copyright (c) 1996-2017 Texas Instruments Incorporated
C:\Users\Stryd\AppData\Local\Temp\{879FE331-A814-4A40-B693-7BEB0BC2D33C} PAGE   31

    1646                            .dwattr $C$DW$151, DW_AT_decl_line(0xd8)
    1647                            .dwattr $C$DW$151, DW_AT_decl_column(0x05)
    1648                    
    1649                    $C$DW$152       .dwtag  DW_TAG_enumerator
    1650                            .dwattr $C$DW$152, DW_AT_name("CC1350_LAUNCHXL_ADCCOUNT")
    1651                            .dwattr $C$DW$152, DW_AT_const_value(0x0b)
    1652                            .dwattr $C$DW$152, DW_AT_decl_file("C:\ti\simplelink_cc13x0_sdk_2_30_00_20\examples\rtos\CC135
    1653                            .dwattr $C$DW$152, DW_AT_decl_line(0xda)
    1654                            .dwattr $C$DW$152, DW_AT_decl_column(0x05)
    1655                    
    1656                            .dwattr $C$DW$T$495, DW_AT_decl_file("C:\ti\simplelink_cc13x0_sdk_2_30_00_20\examples\rtos\CC1
    1657                            .dwattr $C$DW$T$495, DW_AT_decl_line(0xcd)
    1658                            .dwattr $C$DW$T$495, DW_AT_decl_column(0x0e)
    1659                            .dwendtag $C$DW$T$495
    1660                    
    1661                    $C$DW$T$496     .dwtag  DW_TAG_typedef
    1662                            .dwattr $C$DW$T$496, DW_AT_name("CC1350_LAUNCHXL_ADCName")
    1663                            .dwattr $C$DW$T$496, DW_AT_type(*$C$DW$T$495)
    1664                            .dwattr $C$DW$T$496, DW_AT_language(DW_LANG_C)
    1665                            .dwattr $C$DW$T$496, DW_AT_decl_file("C:\ti\simplelink_cc13x0_sdk_2_30_00_20\examples\rtos\CC1
    1666                            .dwattr $C$DW$T$496, DW_AT_decl_line(0xdb)
    1667                            .dwattr $C$DW$T$496, DW_AT_decl_column(0x03)
    1668                    
    1669                    
    1670                    $C$DW$T$497     .dwtag  DW_TAG_enumeration_type
    1671                            .dwattr $C$DW$T$497, DW_AT_name("CC1350_LAUNCHXL_CryptoName")
    1672                            .dwattr $C$DW$T$497, DW_AT_byte_size(0x01)
    1673                    $C$DW$153       .dwtag  DW_TAG_enumerator
    1674                            .dwattr $C$DW$153, DW_AT_name("CC1350_LAUNCHXL_CRYPTO0")
    1675                            .dwattr $C$DW$153, DW_AT_const_value(0x00)
    1676                            .dwattr $C$DW$153, DW_AT_decl_file("C:\ti\simplelink_cc13x0_sdk_2_30_00_20\examples\rtos\CC135
    1677                            .dwattr $C$DW$153, DW_AT_decl_line(0xe2)
    1678                            .dwattr $C$DW$153, DW_AT_decl_column(0x05)
    1679                    
    1680                    $C$DW$154       .dwtag  DW_TAG_enumerator
    1681                            .dwattr $C$DW$154, DW_AT_name("CC1350_LAUNCHXL_CRYPTOCOUNT")
    1682                            .dwattr $C$DW$154, DW_AT_const_value(0x01)
    1683                            .dwattr $C$DW$154, DW_AT_decl_file("C:\ti\simplelink_cc13x0_sdk_2_30_00_20\examples\rtos\CC135
    1684                            .dwattr $C$DW$154, DW_AT_decl_line(0xe4)
    1685                            .dwattr $C$DW$154, DW_AT_decl_column(0x05)
    1686                    
    1687                            .dwattr $C$DW$T$497, DW_AT_decl_file("C:\ti\simplelink_cc13x0_sdk_2_30_00_20\examples\rtos\CC1
    1688                            .dwattr $C$DW$T$497, DW_AT_decl_line(0xe1)
    1689                            .dwattr $C$DW$T$497, DW_AT_decl_column(0x0e)
    1690                            .dwendtag $C$DW$T$497
    1691                    
    1692                    $C$DW$T$498     .dwtag  DW_TAG_typedef
    1693                            .dwattr $C$DW$T$498, DW_AT_name("CC1350_LAUNCHXL_CryptoName")
    1694                            .dwattr $C$DW$T$498, DW_AT_type(*$C$DW$T$497)
    1695                            .dwattr $C$DW$T$498, DW_AT_language(DW_LANG_C)
    1696                            .dwattr $C$DW$T$498, DW_AT_decl_file("C:\ti\simplelink_cc13x0_sdk_2_30_00_20\examples\rtos\CC1
    1697                            .dwattr $C$DW$T$498, DW_AT_decl_line(0xe5)
    1698                            .dwattr $C$DW$T$498, DW_AT_decl_column(0x03)
    1699                    
    1700                    
TI ARM Assembler PC v16.9.9 Sun Nov 25 17:19:51 2018

Tools Copyright (c) 1996-2017 Texas Instruments Incorporated
C:\Users\Stryd\AppData\Local\Temp\{879FE331-A814-4A40-B693-7BEB0BC2D33C} PAGE   32

    1701                    $C$DW$T$499     .dwtag  DW_TAG_enumeration_type
    1702                            .dwattr $C$DW$T$499, DW_AT_name("CC1350_LAUNCHXL_GPIOName")
    1703                            .dwattr $C$DW$T$499, DW_AT_byte_size(0x01)
    1704                    $C$DW$155       .dwtag  DW_TAG_enumerator
    1705                            .dwattr $C$DW$155, DW_AT_name("CC1350_LAUNCHXL_GPIO_S1")
    1706                            .dwattr $C$DW$155, DW_AT_const_value(0x00)
    1707                            .dwattr $C$DW$155, DW_AT_decl_file("C:\ti\simplelink_cc13x0_sdk_2_30_00_20\examples\rtos\CC135
    1708                            .dwattr $C$DW$155, DW_AT_decl_line(0xec)
    1709                            .dwattr $C$DW$155, DW_AT_decl_column(0x05)
    1710                    
    1711                    $C$DW$156       .dwtag  DW_TAG_enumerator
    1712                            .dwattr $C$DW$156, DW_AT_name("CC1350_LAUNCHXL_GPIO_S2")
    1713                            .dwattr $C$DW$156, DW_AT_const_value(0x01)
    1714                            .dwattr $C$DW$156, DW_AT_decl_file("C:\ti\simplelink_cc13x0_sdk_2_30_00_20\examples\rtos\CC135
    1715                            .dwattr $C$DW$156, DW_AT_decl_line(0xed)
    1716                            .dwattr $C$DW$156, DW_AT_decl_column(0x05)
    1717                    
    1718                    $C$DW$157       .dwtag  DW_TAG_enumerator
    1719                            .dwattr $C$DW$157, DW_AT_name("CC1350_LAUNCHXL_SPI_MASTER_READY")
    1720                            .dwattr $C$DW$157, DW_AT_const_value(0x02)
    1721                            .dwattr $C$DW$157, DW_AT_decl_file("C:\ti\simplelink_cc13x0_sdk_2_30_00_20\examples\rtos\CC135
    1722                            .dwattr $C$DW$157, DW_AT_decl_line(0xee)
    1723                            .dwattr $C$DW$157, DW_AT_decl_column(0x05)
    1724                    
    1725                    $C$DW$158       .dwtag  DW_TAG_enumerator
    1726                            .dwattr $C$DW$158, DW_AT_name("CC1350_LAUNCHXL_SPI_SLAVE_READY")
    1727                            .dwattr $C$DW$158, DW_AT_const_value(0x03)
    1728                            .dwattr $C$DW$158, DW_AT_decl_file("C:\ti\simplelink_cc13x0_sdk_2_30_00_20\examples\rtos\CC135
    1729                            .dwattr $C$DW$158, DW_AT_decl_line(0xef)
    1730                            .dwattr $C$DW$158, DW_AT_decl_column(0x05)
    1731                    
    1732                    $C$DW$159       .dwtag  DW_TAG_enumerator
    1733                            .dwattr $C$DW$159, DW_AT_name("CC1350_LAUNCHXL_GPIO_LED_GREEN")
    1734                            .dwattr $C$DW$159, DW_AT_const_value(0x04)
    1735                            .dwattr $C$DW$159, DW_AT_decl_file("C:\ti\simplelink_cc13x0_sdk_2_30_00_20\examples\rtos\CC135
    1736                            .dwattr $C$DW$159, DW_AT_decl_line(0xf0)
    1737                            .dwattr $C$DW$159, DW_AT_decl_column(0x05)
    1738                    
    1739                    $C$DW$160       .dwtag  DW_TAG_enumerator
    1740                            .dwattr $C$DW$160, DW_AT_name("CC1350_LAUNCHXL_GPIO_LED_RED")
    1741                            .dwattr $C$DW$160, DW_AT_const_value(0x05)
    1742                            .dwattr $C$DW$160, DW_AT_decl_file("C:\ti\simplelink_cc13x0_sdk_2_30_00_20\examples\rtos\CC135
    1743                            .dwattr $C$DW$160, DW_AT_decl_line(0xf1)
    1744                            .dwattr $C$DW$160, DW_AT_decl_column(0x05)
    1745                    
    1746                    $C$DW$161       .dwtag  DW_TAG_enumerator
    1747                            .dwattr $C$DW$161, DW_AT_name("CC1350_LAUNCHXL_GPIO_SPI_FLASH_CS")
    1748                            .dwattr $C$DW$161, DW_AT_const_value(0x06)
    1749                            .dwattr $C$DW$161, DW_AT_decl_file("C:\ti\simplelink_cc13x0_sdk_2_30_00_20\examples\rtos\CC135
    1750                            .dwattr $C$DW$161, DW_AT_decl_line(0xf2)
    1751                            .dwattr $C$DW$161, DW_AT_decl_column(0x05)
    1752                    
    1753                    $C$DW$162       .dwtag  DW_TAG_enumerator
    1754                            .dwattr $C$DW$162, DW_AT_name("CC1350_LAUNCHXL_SDSPI_CS")
    1755                            .dwattr $C$DW$162, DW_AT_const_value(0x07)
TI ARM Assembler PC v16.9.9 Sun Nov 25 17:19:51 2018

Tools Copyright (c) 1996-2017 Texas Instruments Incorporated
C:\Users\Stryd\AppData\Local\Temp\{879FE331-A814-4A40-B693-7BEB0BC2D33C} PAGE   33

    1756                            .dwattr $C$DW$162, DW_AT_decl_file("C:\ti\simplelink_cc13x0_sdk_2_30_00_20\examples\rtos\CC135
    1757                            .dwattr $C$DW$162, DW_AT_decl_line(0xf3)
    1758                            .dwattr $C$DW$162, DW_AT_decl_column(0x05)
    1759                    
    1760                    $C$DW$163       .dwtag  DW_TAG_enumerator
    1761                            .dwattr $C$DW$163, DW_AT_name("CC1350_LAUNCHXL_GPIO_LCD_CS")
    1762                            .dwattr $C$DW$163, DW_AT_const_value(0x08)
    1763                            .dwattr $C$DW$163, DW_AT_decl_file("C:\ti\simplelink_cc13x0_sdk_2_30_00_20\examples\rtos\CC135
    1764                            .dwattr $C$DW$163, DW_AT_decl_line(0xf4)
    1765                            .dwattr $C$DW$163, DW_AT_decl_column(0x05)
    1766                    
    1767                    $C$DW$164       .dwtag  DW_TAG_enumerator
    1768                            .dwattr $C$DW$164, DW_AT_name("CC1350_LAUNCHXL_GPIO_LCD_POWER")
    1769                            .dwattr $C$DW$164, DW_AT_const_value(0x09)
    1770                            .dwattr $C$DW$164, DW_AT_decl_file("C:\ti\simplelink_cc13x0_sdk_2_30_00_20\examples\rtos\CC135
    1771                            .dwattr $C$DW$164, DW_AT_decl_line(0xf5)
    1772                            .dwattr $C$DW$164, DW_AT_decl_column(0x05)
    1773                    
    1774                    $C$DW$165       .dwtag  DW_TAG_enumerator
    1775                            .dwattr $C$DW$165, DW_AT_name("CC1350_LAUNCHXL_GPIO_LCD_ENABLE")
    1776                            .dwattr $C$DW$165, DW_AT_const_value(0x0a)
    1777                            .dwattr $C$DW$165, DW_AT_decl_file("C:\ti\simplelink_cc13x0_sdk_2_30_00_20\examples\rtos\CC135
    1778                            .dwattr $C$DW$165, DW_AT_decl_line(0xf6)
    1779                            .dwattr $C$DW$165, DW_AT_decl_column(0x05)
    1780                    
    1781                    $C$DW$166       .dwtag  DW_TAG_enumerator
    1782                            .dwattr $C$DW$166, DW_AT_name("CC1350_LAUNCHXL_GPIOCOUNT")
    1783                            .dwattr $C$DW$166, DW_AT_const_value(0x0b)
    1784                            .dwattr $C$DW$166, DW_AT_decl_file("C:\ti\simplelink_cc13x0_sdk_2_30_00_20\examples\rtos\CC135
    1785                            .dwattr $C$DW$166, DW_AT_decl_line(0xf7)
    1786                            .dwattr $C$DW$166, DW_AT_decl_column(0x05)
    1787                    
    1788                            .dwattr $C$DW$T$499, DW_AT_decl_file("C:\ti\simplelink_cc13x0_sdk_2_30_00_20\examples\rtos\CC1
    1789                            .dwattr $C$DW$T$499, DW_AT_decl_line(0xeb)
    1790                            .dwattr $C$DW$T$499, DW_AT_decl_column(0x0e)
    1791                            .dwendtag $C$DW$T$499
    1792                    
    1793                    $C$DW$T$500     .dwtag  DW_TAG_typedef
    1794                            .dwattr $C$DW$T$500, DW_AT_name("CC1350_LAUNCHXL_GPIOName")
    1795                            .dwattr $C$DW$T$500, DW_AT_type(*$C$DW$T$499)
    1796                            .dwattr $C$DW$T$500, DW_AT_language(DW_LANG_C)
    1797                            .dwattr $C$DW$T$500, DW_AT_decl_file("C:\ti\simplelink_cc13x0_sdk_2_30_00_20\examples\rtos\CC1
    1798                            .dwattr $C$DW$T$500, DW_AT_decl_line(0xf8)
    1799                            .dwattr $C$DW$T$500, DW_AT_decl_column(0x03)
    1800                    
    1801                    
    1802                    $C$DW$T$501     .dwtag  DW_TAG_enumeration_type
    1803                            .dwattr $C$DW$T$501, DW_AT_name("CC1350_LAUNCHXL_GPTimerName")
    1804                            .dwattr $C$DW$T$501, DW_AT_byte_size(0x01)
    1805                    $C$DW$167       .dwtag  DW_TAG_enumerator
    1806                            .dwattr $C$DW$167, DW_AT_name("CC1350_LAUNCHXL_GPTIMER0A")
    1807                            .dwattr $C$DW$167, DW_AT_const_value(0x00)
    1808                            .dwattr $C$DW$167, DW_AT_decl_file("C:\ti\simplelink_cc13x0_sdk_2_30_00_20\examples\rtos\CC135
    1809                            .dwattr $C$DW$167, DW_AT_decl_line(0xff)
    1810                            .dwattr $C$DW$167, DW_AT_decl_column(0x05)
TI ARM Assembler PC v16.9.9 Sun Nov 25 17:19:51 2018

Tools Copyright (c) 1996-2017 Texas Instruments Incorporated
C:\Users\Stryd\AppData\Local\Temp\{879FE331-A814-4A40-B693-7BEB0BC2D33C} PAGE   34

    1811                    
    1812                    $C$DW$168       .dwtag  DW_TAG_enumerator
    1813                            .dwattr $C$DW$168, DW_AT_name("CC1350_LAUNCHXL_GPTIMER0B")
    1814                            .dwattr $C$DW$168, DW_AT_const_value(0x01)
    1815                            .dwattr $C$DW$168, DW_AT_decl_file("C:\ti\simplelink_cc13x0_sdk_2_30_00_20\examples\rtos\CC135
    1816                            .dwattr $C$DW$168, DW_AT_decl_line(0x100)
    1817                            .dwattr $C$DW$168, DW_AT_decl_column(0x05)
    1818                    
    1819                    $C$DW$169       .dwtag  DW_TAG_enumerator
    1820                            .dwattr $C$DW$169, DW_AT_name("CC1350_LAUNCHXL_GPTIMER1A")
    1821                            .dwattr $C$DW$169, DW_AT_const_value(0x02)
    1822                            .dwattr $C$DW$169, DW_AT_decl_file("C:\ti\simplelink_cc13x0_sdk_2_30_00_20\examples\rtos\CC135
    1823                            .dwattr $C$DW$169, DW_AT_decl_line(0x101)
    1824                            .dwattr $C$DW$169, DW_AT_decl_column(0x05)
    1825                    
    1826                    $C$DW$170       .dwtag  DW_TAG_enumerator
    1827                            .dwattr $C$DW$170, DW_AT_name("CC1350_LAUNCHXL_GPTIMER1B")
    1828                            .dwattr $C$DW$170, DW_AT_const_value(0x03)
    1829                            .dwattr $C$DW$170, DW_AT_decl_file("C:\ti\simplelink_cc13x0_sdk_2_30_00_20\examples\rtos\CC135
    1830                            .dwattr $C$DW$170, DW_AT_decl_line(0x102)
    1831                            .dwattr $C$DW$170, DW_AT_decl_column(0x05)
    1832                    
    1833                    $C$DW$171       .dwtag  DW_TAG_enumerator
    1834                            .dwattr $C$DW$171, DW_AT_name("CC1350_LAUNCHXL_GPTIMER2A")
    1835                            .dwattr $C$DW$171, DW_AT_const_value(0x04)
    1836                            .dwattr $C$DW$171, DW_AT_decl_file("C:\ti\simplelink_cc13x0_sdk_2_30_00_20\examples\rtos\CC135
    1837                            .dwattr $C$DW$171, DW_AT_decl_line(0x103)
    1838                            .dwattr $C$DW$171, DW_AT_decl_column(0x05)
    1839                    
    1840                    $C$DW$172       .dwtag  DW_TAG_enumerator
    1841                            .dwattr $C$DW$172, DW_AT_name("CC1350_LAUNCHXL_GPTIMER2B")
    1842                            .dwattr $C$DW$172, DW_AT_const_value(0x05)
    1843                            .dwattr $C$DW$172, DW_AT_decl_file("C:\ti\simplelink_cc13x0_sdk_2_30_00_20\examples\rtos\CC135
    1844                            .dwattr $C$DW$172, DW_AT_decl_line(0x104)
    1845                            .dwattr $C$DW$172, DW_AT_decl_column(0x05)
    1846                    
    1847                    $C$DW$173       .dwtag  DW_TAG_enumerator
    1848                            .dwattr $C$DW$173, DW_AT_name("CC1350_LAUNCHXL_GPTIMER3A")
    1849                            .dwattr $C$DW$173, DW_AT_const_value(0x06)
    1850                            .dwattr $C$DW$173, DW_AT_decl_file("C:\ti\simplelink_cc13x0_sdk_2_30_00_20\examples\rtos\CC135
    1851                            .dwattr $C$DW$173, DW_AT_decl_line(0x105)
    1852                            .dwattr $C$DW$173, DW_AT_decl_column(0x05)
    1853                    
    1854                    $C$DW$174       .dwtag  DW_TAG_enumerator
    1855                            .dwattr $C$DW$174, DW_AT_name("CC1350_LAUNCHXL_GPTIMER3B")
    1856                            .dwattr $C$DW$174, DW_AT_const_value(0x07)
    1857                            .dwattr $C$DW$174, DW_AT_decl_file("C:\ti\simplelink_cc13x0_sdk_2_30_00_20\examples\rtos\CC135
    1858                            .dwattr $C$DW$174, DW_AT_decl_line(0x106)
    1859                            .dwattr $C$DW$174, DW_AT_decl_column(0x05)
    1860                    
    1861                    $C$DW$175       .dwtag  DW_TAG_enumerator
    1862                            .dwattr $C$DW$175, DW_AT_name("CC1350_LAUNCHXL_GPTIMERPARTSCOUNT")
    1863                            .dwattr $C$DW$175, DW_AT_const_value(0x08)
    1864                            .dwattr $C$DW$175, DW_AT_decl_file("C:\ti\simplelink_cc13x0_sdk_2_30_00_20\examples\rtos\CC135
    1865                            .dwattr $C$DW$175, DW_AT_decl_line(0x108)
TI ARM Assembler PC v16.9.9 Sun Nov 25 17:19:51 2018

Tools Copyright (c) 1996-2017 Texas Instruments Incorporated
C:\Users\Stryd\AppData\Local\Temp\{879FE331-A814-4A40-B693-7BEB0BC2D33C} PAGE   35

    1866                            .dwattr $C$DW$175, DW_AT_decl_column(0x05)
    1867                    
    1868                            .dwattr $C$DW$T$501, DW_AT_decl_file("C:\ti\simplelink_cc13x0_sdk_2_30_00_20\examples\rtos\CC1
    1869                            .dwattr $C$DW$T$501, DW_AT_decl_line(0xfe)
    1870                            .dwattr $C$DW$T$501, DW_AT_decl_column(0x0e)
    1871                            .dwendtag $C$DW$T$501
    1872                    
    1873                    $C$DW$T$502     .dwtag  DW_TAG_typedef
    1874                            .dwattr $C$DW$T$502, DW_AT_name("CC1350_LAUNCHXL_GPTimerName")
    1875                            .dwattr $C$DW$T$502, DW_AT_type(*$C$DW$T$501)
    1876                            .dwattr $C$DW$T$502, DW_AT_language(DW_LANG_C)
    1877                            .dwattr $C$DW$T$502, DW_AT_decl_file("C:\ti\simplelink_cc13x0_sdk_2_30_00_20\examples\rtos\CC1
    1878                            .dwattr $C$DW$T$502, DW_AT_decl_line(0x109)
    1879                            .dwattr $C$DW$T$502, DW_AT_decl_column(0x03)
    1880                    
    1881                    
    1882                    $C$DW$T$503     .dwtag  DW_TAG_enumeration_type
    1883                            .dwattr $C$DW$T$503, DW_AT_name("CC1350_LAUNCHXL_GPTimers")
    1884                            .dwattr $C$DW$T$503, DW_AT_byte_size(0x01)
    1885                    $C$DW$176       .dwtag  DW_TAG_enumerator
    1886                            .dwattr $C$DW$176, DW_AT_name("CC1350_LAUNCHXL_GPTIMER0")
    1887                            .dwattr $C$DW$176, DW_AT_const_value(0x00)
    1888                            .dwattr $C$DW$176, DW_AT_decl_file("C:\ti\simplelink_cc13x0_sdk_2_30_00_20\examples\rtos\CC135
    1889                            .dwattr $C$DW$176, DW_AT_decl_line(0x110)
    1890                            .dwattr $C$DW$176, DW_AT_decl_column(0x05)
    1891                    
    1892                    $C$DW$177       .dwtag  DW_TAG_enumerator
    1893                            .dwattr $C$DW$177, DW_AT_name("CC1350_LAUNCHXL_GPTIMER1")
    1894                            .dwattr $C$DW$177, DW_AT_const_value(0x01)
    1895                            .dwattr $C$DW$177, DW_AT_decl_file("C:\ti\simplelink_cc13x0_sdk_2_30_00_20\examples\rtos\CC135
    1896                            .dwattr $C$DW$177, DW_AT_decl_line(0x111)
    1897                            .dwattr $C$DW$177, DW_AT_decl_column(0x05)
    1898                    
    1899                    $C$DW$178       .dwtag  DW_TAG_enumerator
    1900                            .dwattr $C$DW$178, DW_AT_name("CC1350_LAUNCHXL_GPTIMER2")
    1901                            .dwattr $C$DW$178, DW_AT_const_value(0x02)
    1902                            .dwattr $C$DW$178, DW_AT_decl_file("C:\ti\simplelink_cc13x0_sdk_2_30_00_20\examples\rtos\CC135
    1903                            .dwattr $C$DW$178, DW_AT_decl_line(0x112)
    1904                            .dwattr $C$DW$178, DW_AT_decl_column(0x05)
    1905                    
    1906                    $C$DW$179       .dwtag  DW_TAG_enumerator
    1907                            .dwattr $C$DW$179, DW_AT_name("CC1350_LAUNCHXL_GPTIMER3")
    1908                            .dwattr $C$DW$179, DW_AT_const_value(0x03)
    1909                            .dwattr $C$DW$179, DW_AT_decl_file("C:\ti\simplelink_cc13x0_sdk_2_30_00_20\examples\rtos\CC135
    1910                            .dwattr $C$DW$179, DW_AT_decl_line(0x113)
    1911                            .dwattr $C$DW$179, DW_AT_decl_column(0x05)
    1912                    
    1913                    $C$DW$180       .dwtag  DW_TAG_enumerator
    1914                            .dwattr $C$DW$180, DW_AT_name("CC1350_LAUNCHXL_GPTIMERCOUNT")
    1915                            .dwattr $C$DW$180, DW_AT_const_value(0x04)
    1916                            .dwattr $C$DW$180, DW_AT_decl_file("C:\ti\simplelink_cc13x0_sdk_2_30_00_20\examples\rtos\CC135
    1917                            .dwattr $C$DW$180, DW_AT_decl_line(0x115)
    1918                            .dwattr $C$DW$180, DW_AT_decl_column(0x05)
    1919                    
    1920                            .dwattr $C$DW$T$503, DW_AT_decl_file("C:\ti\simplelink_cc13x0_sdk_2_30_00_20\examples\rtos\CC1
TI ARM Assembler PC v16.9.9 Sun Nov 25 17:19:51 2018

Tools Copyright (c) 1996-2017 Texas Instruments Incorporated
C:\Users\Stryd\AppData\Local\Temp\{879FE331-A814-4A40-B693-7BEB0BC2D33C} PAGE   36

    1921                            .dwattr $C$DW$T$503, DW_AT_decl_line(0x10f)
    1922                            .dwattr $C$DW$T$503, DW_AT_decl_column(0x0e)
    1923                            .dwendtag $C$DW$T$503
    1924                    
    1925                    $C$DW$T$504     .dwtag  DW_TAG_typedef
    1926                            .dwattr $C$DW$T$504, DW_AT_name("CC1350_LAUNCHXL_GPTimers")
    1927                            .dwattr $C$DW$T$504, DW_AT_type(*$C$DW$T$503)
    1928                            .dwattr $C$DW$T$504, DW_AT_language(DW_LANG_C)
    1929                            .dwattr $C$DW$T$504, DW_AT_decl_file("C:\ti\simplelink_cc13x0_sdk_2_30_00_20\examples\rtos\CC1
    1930                            .dwattr $C$DW$T$504, DW_AT_decl_line(0x116)
    1931                            .dwattr $C$DW$T$504, DW_AT_decl_column(0x03)
    1932                    
    1933                    
    1934                    $C$DW$T$505     .dwtag  DW_TAG_enumeration_type
    1935                            .dwattr $C$DW$T$505, DW_AT_name("CC1350_LAUNCHXL_I2CName")
    1936                            .dwattr $C$DW$T$505, DW_AT_byte_size(0x01)
    1937                    $C$DW$181       .dwtag  DW_TAG_enumerator
    1938                            .dwattr $C$DW$181, DW_AT_name("CC1350_LAUNCHXL_I2C0")
    1939                            .dwattr $C$DW$181, DW_AT_const_value(0x00)
    1940                            .dwattr $C$DW$181, DW_AT_decl_file("C:\ti\simplelink_cc13x0_sdk_2_30_00_20\examples\rtos\CC135
    1941                            .dwattr $C$DW$181, DW_AT_decl_line(0x11d)
    1942                            .dwattr $C$DW$181, DW_AT_decl_column(0x05)
    1943                    
    1944                    $C$DW$182       .dwtag  DW_TAG_enumerator
    1945                            .dwattr $C$DW$182, DW_AT_name("CC1350_LAUNCHXL_I2CCOUNT")
    1946                            .dwattr $C$DW$182, DW_AT_const_value(0x01)
    1947                            .dwattr $C$DW$182, DW_AT_decl_file("C:\ti\simplelink_cc13x0_sdk_2_30_00_20\examples\rtos\CC135
    1948                            .dwattr $C$DW$182, DW_AT_decl_line(0x11f)
    1949                            .dwattr $C$DW$182, DW_AT_decl_column(0x05)
    1950                    
    1951                            .dwattr $C$DW$T$505, DW_AT_decl_file("C:\ti\simplelink_cc13x0_sdk_2_30_00_20\examples\rtos\CC1
    1952                            .dwattr $C$DW$T$505, DW_AT_decl_line(0x11c)
    1953                            .dwattr $C$DW$T$505, DW_AT_decl_column(0x0e)
    1954                            .dwendtag $C$DW$T$505
    1955                    
    1956                    $C$DW$T$506     .dwtag  DW_TAG_typedef
    1957                            .dwattr $C$DW$T$506, DW_AT_name("CC1350_LAUNCHXL_I2CName")
    1958                            .dwattr $C$DW$T$506, DW_AT_type(*$C$DW$T$505)
    1959                            .dwattr $C$DW$T$506, DW_AT_language(DW_LANG_C)
    1960                            .dwattr $C$DW$T$506, DW_AT_decl_file("C:\ti\simplelink_cc13x0_sdk_2_30_00_20\examples\rtos\CC1
    1961                            .dwattr $C$DW$T$506, DW_AT_decl_line(0x120)
    1962                            .dwattr $C$DW$T$506, DW_AT_decl_column(0x03)
    1963                    
    1964                    
    1965                    $C$DW$T$507     .dwtag  DW_TAG_enumeration_type
    1966                            .dwattr $C$DW$T$507, DW_AT_name("CC1350_LAUNCHXL_NVSName")
    1967                            .dwattr $C$DW$T$507, DW_AT_byte_size(0x01)
    1968                    $C$DW$183       .dwtag  DW_TAG_enumerator
    1969                            .dwattr $C$DW$183, DW_AT_name("CC1350_LAUNCHXL_NVSCC26XX0")
    1970                            .dwattr $C$DW$183, DW_AT_const_value(0x00)
    1971                            .dwattr $C$DW$183, DW_AT_decl_file("C:\ti\simplelink_cc13x0_sdk_2_30_00_20\examples\rtos\CC135
    1972                            .dwattr $C$DW$183, DW_AT_decl_line(0x128)
    1973                            .dwattr $C$DW$183, DW_AT_decl_column(0x05)
    1974                    
    1975                    $C$DW$184       .dwtag  DW_TAG_enumerator
TI ARM Assembler PC v16.9.9 Sun Nov 25 17:19:51 2018

Tools Copyright (c) 1996-2017 Texas Instruments Incorporated
C:\Users\Stryd\AppData\Local\Temp\{879FE331-A814-4A40-B693-7BEB0BC2D33C} PAGE   37

    1976                            .dwattr $C$DW$184, DW_AT_name("CC1350_LAUNCHXL_NVSCOUNT")
    1977                            .dwattr $C$DW$184, DW_AT_const_value(0x01)
    1978                            .dwattr $C$DW$184, DW_AT_decl_file("C:\ti\simplelink_cc13x0_sdk_2_30_00_20\examples\rtos\CC135
    1979                            .dwattr $C$DW$184, DW_AT_decl_line(0x12e)
    1980                            .dwattr $C$DW$184, DW_AT_decl_column(0x05)
    1981                    
    1982                            .dwattr $C$DW$T$507, DW_AT_decl_file("C:\ti\simplelink_cc13x0_sdk_2_30_00_20\examples\rtos\CC1
    1983                            .dwattr $C$DW$T$507, DW_AT_decl_line(0x126)
    1984                            .dwattr $C$DW$T$507, DW_AT_decl_column(0x0e)
    1985                            .dwendtag $C$DW$T$507
    1986                    
    1987                    $C$DW$T$508     .dwtag  DW_TAG_typedef
    1988                            .dwattr $C$DW$T$508, DW_AT_name("CC1350_LAUNCHXL_NVSName")
    1989                            .dwattr $C$DW$T$508, DW_AT_type(*$C$DW$T$507)
    1990                            .dwattr $C$DW$T$508, DW_AT_language(DW_LANG_C)
    1991                            .dwattr $C$DW$T$508, DW_AT_decl_file("C:\ti\simplelink_cc13x0_sdk_2_30_00_20\examples\rtos\CC1
    1992                            .dwattr $C$DW$T$508, DW_AT_decl_line(0x12f)
    1993                            .dwattr $C$DW$T$508, DW_AT_decl_column(0x03)
    1994                    
    1995                    
    1996                    $C$DW$T$509     .dwtag  DW_TAG_enumeration_type
    1997                            .dwattr $C$DW$T$509, DW_AT_name("CC1350_LAUNCHXL_PWMName")
    1998                            .dwattr $C$DW$T$509, DW_AT_byte_size(0x01)
    1999                    $C$DW$185       .dwtag  DW_TAG_enumerator
    2000                            .dwattr $C$DW$185, DW_AT_name("CC1350_LAUNCHXL_PWM0")
    2001                            .dwattr $C$DW$185, DW_AT_const_value(0x00)
    2002                            .dwattr $C$DW$185, DW_AT_decl_file("C:\ti\simplelink_cc13x0_sdk_2_30_00_20\examples\rtos\CC135
    2003                            .dwattr $C$DW$185, DW_AT_decl_line(0x136)
    2004                            .dwattr $C$DW$185, DW_AT_decl_column(0x05)
    2005                    
    2006                    $C$DW$186       .dwtag  DW_TAG_enumerator
    2007                            .dwattr $C$DW$186, DW_AT_name("CC1350_LAUNCHXL_PWM1")
    2008                            .dwattr $C$DW$186, DW_AT_const_value(0x01)
    2009                            .dwattr $C$DW$186, DW_AT_decl_file("C:\ti\simplelink_cc13x0_sdk_2_30_00_20\examples\rtos\CC135
    2010                            .dwattr $C$DW$186, DW_AT_decl_line(0x137)
    2011                            .dwattr $C$DW$186, DW_AT_decl_column(0x05)
    2012                    
    2013                    $C$DW$187       .dwtag  DW_TAG_enumerator
    2014                            .dwattr $C$DW$187, DW_AT_name("CC1350_LAUNCHXL_PWM2")
    2015                            .dwattr $C$DW$187, DW_AT_const_value(0x02)
    2016                            .dwattr $C$DW$187, DW_AT_decl_file("C:\ti\simplelink_cc13x0_sdk_2_30_00_20\examples\rtos\CC135
    2017                            .dwattr $C$DW$187, DW_AT_decl_line(0x138)
    2018                            .dwattr $C$DW$187, DW_AT_decl_column(0x05)
    2019                    
    2020                    $C$DW$188       .dwtag  DW_TAG_enumerator
    2021                            .dwattr $C$DW$188, DW_AT_name("CC1350_LAUNCHXL_PWM3")
    2022                            .dwattr $C$DW$188, DW_AT_const_value(0x03)
    2023                            .dwattr $C$DW$188, DW_AT_decl_file("C:\ti\simplelink_cc13x0_sdk_2_30_00_20\examples\rtos\CC135
    2024                            .dwattr $C$DW$188, DW_AT_decl_line(0x139)
    2025                            .dwattr $C$DW$188, DW_AT_decl_column(0x05)
    2026                    
    2027                    $C$DW$189       .dwtag  DW_TAG_enumerator
    2028                            .dwattr $C$DW$189, DW_AT_name("CC1350_LAUNCHXL_PWM4")
    2029                            .dwattr $C$DW$189, DW_AT_const_value(0x04)
    2030                            .dwattr $C$DW$189, DW_AT_decl_file("C:\ti\simplelink_cc13x0_sdk_2_30_00_20\examples\rtos\CC135
TI ARM Assembler PC v16.9.9 Sun Nov 25 17:19:51 2018

Tools Copyright (c) 1996-2017 Texas Instruments Incorporated
C:\Users\Stryd\AppData\Local\Temp\{879FE331-A814-4A40-B693-7BEB0BC2D33C} PAGE   38

    2031                            .dwattr $C$DW$189, DW_AT_decl_line(0x13a)
    2032                            .dwattr $C$DW$189, DW_AT_decl_column(0x05)
    2033                    
    2034                    $C$DW$190       .dwtag  DW_TAG_enumerator
    2035                            .dwattr $C$DW$190, DW_AT_name("CC1350_LAUNCHXL_PWM5")
    2036                            .dwattr $C$DW$190, DW_AT_const_value(0x05)
    2037                            .dwattr $C$DW$190, DW_AT_decl_file("C:\ti\simplelink_cc13x0_sdk_2_30_00_20\examples\rtos\CC135
    2038                            .dwattr $C$DW$190, DW_AT_decl_line(0x13b)
    2039                            .dwattr $C$DW$190, DW_AT_decl_column(0x05)
    2040                    
    2041                    $C$DW$191       .dwtag  DW_TAG_enumerator
    2042                            .dwattr $C$DW$191, DW_AT_name("CC1350_LAUNCHXL_PWM6")
    2043                            .dwattr $C$DW$191, DW_AT_const_value(0x06)
    2044                            .dwattr $C$DW$191, DW_AT_decl_file("C:\ti\simplelink_cc13x0_sdk_2_30_00_20\examples\rtos\CC135
    2045                            .dwattr $C$DW$191, DW_AT_decl_line(0x13c)
    2046                            .dwattr $C$DW$191, DW_AT_decl_column(0x05)
    2047                    
    2048                    $C$DW$192       .dwtag  DW_TAG_enumerator
    2049                            .dwattr $C$DW$192, DW_AT_name("CC1350_LAUNCHXL_PWM7")
    2050                            .dwattr $C$DW$192, DW_AT_const_value(0x07)
    2051                            .dwattr $C$DW$192, DW_AT_decl_file("C:\ti\simplelink_cc13x0_sdk_2_30_00_20\examples\rtos\CC135
    2052                            .dwattr $C$DW$192, DW_AT_decl_line(0x13d)
    2053                            .dwattr $C$DW$192, DW_AT_decl_column(0x05)
    2054                    
    2055                    $C$DW$193       .dwtag  DW_TAG_enumerator
    2056                            .dwattr $C$DW$193, DW_AT_name("CC1350_LAUNCHXL_PWMCOUNT")
    2057                            .dwattr $C$DW$193, DW_AT_const_value(0x08)
    2058                            .dwattr $C$DW$193, DW_AT_decl_file("C:\ti\simplelink_cc13x0_sdk_2_30_00_20\examples\rtos\CC135
    2059                            .dwattr $C$DW$193, DW_AT_decl_line(0x13f)
    2060                            .dwattr $C$DW$193, DW_AT_decl_column(0x05)
    2061                    
    2062                            .dwattr $C$DW$T$509, DW_AT_decl_file("C:\ti\simplelink_cc13x0_sdk_2_30_00_20\examples\rtos\CC1
    2063                            .dwattr $C$DW$T$509, DW_AT_decl_line(0x135)
    2064                            .dwattr $C$DW$T$509, DW_AT_decl_column(0x0e)
    2065                            .dwendtag $C$DW$T$509
    2066                    
    2067                    $C$DW$T$510     .dwtag  DW_TAG_typedef
    2068                            .dwattr $C$DW$T$510, DW_AT_name("CC1350_LAUNCHXL_PWMName")
    2069                            .dwattr $C$DW$T$510, DW_AT_type(*$C$DW$T$509)
    2070                            .dwattr $C$DW$T$510, DW_AT_language(DW_LANG_C)
    2071                            .dwattr $C$DW$T$510, DW_AT_decl_file("C:\ti\simplelink_cc13x0_sdk_2_30_00_20\examples\rtos\CC1
    2072                            .dwattr $C$DW$T$510, DW_AT_decl_line(0x140)
    2073                            .dwattr $C$DW$T$510, DW_AT_decl_column(0x03)
    2074                    
    2075                    
    2076                    $C$DW$T$511     .dwtag  DW_TAG_enumeration_type
    2077                            .dwattr $C$DW$T$511, DW_AT_name("CC1350_LAUNCHXL_SDName")
    2078                            .dwattr $C$DW$T$511, DW_AT_byte_size(0x01)
    2079                    $C$DW$194       .dwtag  DW_TAG_enumerator
    2080                            .dwattr $C$DW$194, DW_AT_name("CC1350_LAUNCHXL_SDSPI0")
    2081                            .dwattr $C$DW$194, DW_AT_const_value(0x00)
    2082                            .dwattr $C$DW$194, DW_AT_decl_file("C:\ti\simplelink_cc13x0_sdk_2_30_00_20\examples\rtos\CC135
    2083                            .dwattr $C$DW$194, DW_AT_decl_line(0x147)
    2084                            .dwattr $C$DW$194, DW_AT_decl_column(0x05)
    2085                    
TI ARM Assembler PC v16.9.9 Sun Nov 25 17:19:51 2018

Tools Copyright (c) 1996-2017 Texas Instruments Incorporated
C:\Users\Stryd\AppData\Local\Temp\{879FE331-A814-4A40-B693-7BEB0BC2D33C} PAGE   39

    2086                    $C$DW$195       .dwtag  DW_TAG_enumerator
    2087                            .dwattr $C$DW$195, DW_AT_name("CC1350_LAUNCHXL_SDCOUNT")
    2088                            .dwattr $C$DW$195, DW_AT_const_value(0x01)
    2089                            .dwattr $C$DW$195, DW_AT_decl_file("C:\ti\simplelink_cc13x0_sdk_2_30_00_20\examples\rtos\CC135
    2090                            .dwattr $C$DW$195, DW_AT_decl_line(0x149)
    2091                            .dwattr $C$DW$195, DW_AT_decl_column(0x05)
    2092                    
    2093                            .dwattr $C$DW$T$511, DW_AT_decl_file("C:\ti\simplelink_cc13x0_sdk_2_30_00_20\examples\rtos\CC1
    2094                            .dwattr $C$DW$T$511, DW_AT_decl_line(0x146)
    2095                            .dwattr $C$DW$T$511, DW_AT_decl_column(0x0e)
    2096                            .dwendtag $C$DW$T$511
    2097                    
    2098                    $C$DW$T$512     .dwtag  DW_TAG_typedef
    2099                            .dwattr $C$DW$T$512, DW_AT_name("CC1350_LAUNCHXL_SDName")
    2100                            .dwattr $C$DW$T$512, DW_AT_type(*$C$DW$T$511)
    2101                            .dwattr $C$DW$T$512, DW_AT_language(DW_LANG_C)
    2102                            .dwattr $C$DW$T$512, DW_AT_decl_file("C:\ti\simplelink_cc13x0_sdk_2_30_00_20\examples\rtos\CC1
    2103                            .dwattr $C$DW$T$512, DW_AT_decl_line(0x14a)
    2104                            .dwattr $C$DW$T$512, DW_AT_decl_column(0x03)
    2105                    
    2106                    
    2107                    $C$DW$T$513     .dwtag  DW_TAG_enumeration_type
    2108                            .dwattr $C$DW$T$513, DW_AT_name("CC1350_LAUNCHXL_SPIName")
    2109                            .dwattr $C$DW$T$513, DW_AT_byte_size(0x01)
    2110                    $C$DW$196       .dwtag  DW_TAG_enumerator
    2111                            .dwattr $C$DW$196, DW_AT_name("CC1350_LAUNCHXL_SPI0")
    2112                            .dwattr $C$DW$196, DW_AT_const_value(0x00)
    2113                            .dwattr $C$DW$196, DW_AT_decl_file("C:\ti\simplelink_cc13x0_sdk_2_30_00_20\examples\rtos\CC135
    2114                            .dwattr $C$DW$196, DW_AT_decl_line(0x151)
    2115                            .dwattr $C$DW$196, DW_AT_decl_column(0x05)
    2116                    
    2117                    $C$DW$197       .dwtag  DW_TAG_enumerator
    2118                            .dwattr $C$DW$197, DW_AT_name("CC1350_LAUNCHXL_SPI1")
    2119                            .dwattr $C$DW$197, DW_AT_const_value(0x01)
    2120                            .dwattr $C$DW$197, DW_AT_decl_file("C:\ti\simplelink_cc13x0_sdk_2_30_00_20\examples\rtos\CC135
    2121                            .dwattr $C$DW$197, DW_AT_decl_line(0x152)
    2122                            .dwattr $C$DW$197, DW_AT_decl_column(0x05)
    2123                    
    2124                    $C$DW$198       .dwtag  DW_TAG_enumerator
    2125                            .dwattr $C$DW$198, DW_AT_name("CC1350_LAUNCHXL_SPICOUNT")
    2126                            .dwattr $C$DW$198, DW_AT_const_value(0x02)
    2127                            .dwattr $C$DW$198, DW_AT_decl_file("C:\ti\simplelink_cc13x0_sdk_2_30_00_20\examples\rtos\CC135
    2128                            .dwattr $C$DW$198, DW_AT_decl_line(0x154)
    2129                            .dwattr $C$DW$198, DW_AT_decl_column(0x05)
    2130                    
    2131                            .dwattr $C$DW$T$513, DW_AT_decl_file("C:\ti\simplelink_cc13x0_sdk_2_30_00_20\examples\rtos\CC1
    2132                            .dwattr $C$DW$T$513, DW_AT_decl_line(0x150)
    2133                            .dwattr $C$DW$T$513, DW_AT_decl_column(0x0e)
    2134                            .dwendtag $C$DW$T$513
    2135                    
    2136                    $C$DW$T$514     .dwtag  DW_TAG_typedef
    2137                            .dwattr $C$DW$T$514, DW_AT_name("CC1350_LAUNCHXL_SPIName")
    2138                            .dwattr $C$DW$T$514, DW_AT_type(*$C$DW$T$513)
    2139                            .dwattr $C$DW$T$514, DW_AT_language(DW_LANG_C)
    2140                            .dwattr $C$DW$T$514, DW_AT_decl_file("C:\ti\simplelink_cc13x0_sdk_2_30_00_20\examples\rtos\CC1
TI ARM Assembler PC v16.9.9 Sun Nov 25 17:19:51 2018

Tools Copyright (c) 1996-2017 Texas Instruments Incorporated
C:\Users\Stryd\AppData\Local\Temp\{879FE331-A814-4A40-B693-7BEB0BC2D33C} PAGE   40

    2141                            .dwattr $C$DW$T$514, DW_AT_decl_line(0x155)
    2142                            .dwattr $C$DW$T$514, DW_AT_decl_column(0x03)
    2143                    
    2144                    
    2145                    $C$DW$T$515     .dwtag  DW_TAG_enumeration_type
    2146                            .dwattr $C$DW$T$515, DW_AT_name("CC1350_LAUNCHXL_UARTName")
    2147                            .dwattr $C$DW$T$515, DW_AT_byte_size(0x01)
    2148                    $C$DW$199       .dwtag  DW_TAG_enumerator
    2149                            .dwattr $C$DW$199, DW_AT_name("CC1350_LAUNCHXL_UART0")
    2150                            .dwattr $C$DW$199, DW_AT_const_value(0x00)
    2151                            .dwattr $C$DW$199, DW_AT_decl_file("C:\ti\simplelink_cc13x0_sdk_2_30_00_20\examples\rtos\CC135
    2152                            .dwattr $C$DW$199, DW_AT_decl_line(0x15c)
    2153                            .dwattr $C$DW$199, DW_AT_decl_column(0x05)
    2154                    
    2155                    $C$DW$200       .dwtag  DW_TAG_enumerator
    2156                            .dwattr $C$DW$200, DW_AT_name("CC1350_LAUNCHXL_UARTCOUNT")
    2157                            .dwattr $C$DW$200, DW_AT_const_value(0x01)
    2158                            .dwattr $C$DW$200, DW_AT_decl_file("C:\ti\simplelink_cc13x0_sdk_2_30_00_20\examples\rtos\CC135
    2159                            .dwattr $C$DW$200, DW_AT_decl_line(0x15e)
    2160                            .dwattr $C$DW$200, DW_AT_decl_column(0x05)
    2161                    
    2162                            .dwattr $C$DW$T$515, DW_AT_decl_file("C:\ti\simplelink_cc13x0_sdk_2_30_00_20\examples\rtos\CC1
    2163                            .dwattr $C$DW$T$515, DW_AT_decl_line(0x15b)
    2164                            .dwattr $C$DW$T$515, DW_AT_decl_column(0x0e)
    2165                            .dwendtag $C$DW$T$515
    2166                    
    2167                    $C$DW$T$516     .dwtag  DW_TAG_typedef
    2168                            .dwattr $C$DW$T$516, DW_AT_name("CC1350_LAUNCHXL_UARTName")
    2169                            .dwattr $C$DW$T$516, DW_AT_type(*$C$DW$T$515)
    2170                            .dwattr $C$DW$T$516, DW_AT_language(DW_LANG_C)
    2171                            .dwattr $C$DW$T$516, DW_AT_decl_file("C:\ti\simplelink_cc13x0_sdk_2_30_00_20\examples\rtos\CC1
    2172                            .dwattr $C$DW$T$516, DW_AT_decl_line(0x15f)
    2173                            .dwattr $C$DW$T$516, DW_AT_decl_column(0x03)
    2174                    
    2175                    
    2176                    $C$DW$T$517     .dwtag  DW_TAG_enumeration_type
    2177                            .dwattr $C$DW$T$517, DW_AT_name("CC1350_LAUNCHXL_UDMAName")
    2178                            .dwattr $C$DW$T$517, DW_AT_byte_size(0x01)
    2179                    $C$DW$201       .dwtag  DW_TAG_enumerator
    2180                            .dwattr $C$DW$201, DW_AT_name("CC1350_LAUNCHXL_UDMA0")
    2181                            .dwattr $C$DW$201, DW_AT_const_value(0x00)
    2182                            .dwattr $C$DW$201, DW_AT_decl_file("C:\ti\simplelink_cc13x0_sdk_2_30_00_20\examples\rtos\CC135
    2183                            .dwattr $C$DW$201, DW_AT_decl_line(0x166)
    2184                            .dwattr $C$DW$201, DW_AT_decl_column(0x05)
    2185                    
    2186                    $C$DW$202       .dwtag  DW_TAG_enumerator
    2187                            .dwattr $C$DW$202, DW_AT_name("CC1350_LAUNCHXL_UDMACOUNT")
    2188                            .dwattr $C$DW$202, DW_AT_const_value(0x01)
    2189                            .dwattr $C$DW$202, DW_AT_decl_file("C:\ti\simplelink_cc13x0_sdk_2_30_00_20\examples\rtos\CC135
    2190                            .dwattr $C$DW$202, DW_AT_decl_line(0x168)
    2191                            .dwattr $C$DW$202, DW_AT_decl_column(0x05)
    2192                    
    2193                            .dwattr $C$DW$T$517, DW_AT_decl_file("C:\ti\simplelink_cc13x0_sdk_2_30_00_20\examples\rtos\CC1
    2194                            .dwattr $C$DW$T$517, DW_AT_decl_line(0x165)
    2195                            .dwattr $C$DW$T$517, DW_AT_decl_column(0x0e)
TI ARM Assembler PC v16.9.9 Sun Nov 25 17:19:51 2018

Tools Copyright (c) 1996-2017 Texas Instruments Incorporated
C:\Users\Stryd\AppData\Local\Temp\{879FE331-A814-4A40-B693-7BEB0BC2D33C} PAGE   41

    2196                            .dwendtag $C$DW$T$517
    2197                    
    2198                    $C$DW$T$518     .dwtag  DW_TAG_typedef
    2199                            .dwattr $C$DW$T$518, DW_AT_name("CC1350_LAUNCHXL_UDMAName")
    2200                            .dwattr $C$DW$T$518, DW_AT_type(*$C$DW$T$517)
    2201                            .dwattr $C$DW$T$518, DW_AT_language(DW_LANG_C)
    2202                            .dwattr $C$DW$T$518, DW_AT_decl_file("C:\ti\simplelink_cc13x0_sdk_2_30_00_20\examples\rtos\CC1
    2203                            .dwattr $C$DW$T$518, DW_AT_decl_line(0x169)
    2204                            .dwattr $C$DW$T$518, DW_AT_decl_column(0x03)
    2205                    
    2206                    
    2207                    $C$DW$T$519     .dwtag  DW_TAG_enumeration_type
    2208                            .dwattr $C$DW$T$519, DW_AT_name("CC1350_LAUNCHXL_WatchdogName")
    2209                            .dwattr $C$DW$T$519, DW_AT_byte_size(0x01)
    2210                    $C$DW$203       .dwtag  DW_TAG_enumerator
    2211                            .dwattr $C$DW$203, DW_AT_name("CC1350_LAUNCHXL_WATCHDOG0")
    2212                            .dwattr $C$DW$203, DW_AT_const_value(0x00)
    2213                            .dwattr $C$DW$203, DW_AT_decl_file("C:\ti\simplelink_cc13x0_sdk_2_30_00_20\examples\rtos\CC135
    2214                            .dwattr $C$DW$203, DW_AT_decl_line(0x170)
    2215                            .dwattr $C$DW$203, DW_AT_decl_column(0x05)
    2216                    
    2217                    $C$DW$204       .dwtag  DW_TAG_enumerator
    2218                            .dwattr $C$DW$204, DW_AT_name("CC1350_LAUNCHXL_WATCHDOGCOUNT")
    2219                            .dwattr $C$DW$204, DW_AT_const_value(0x01)
    2220                            .dwattr $C$DW$204, DW_AT_decl_file("C:\ti\simplelink_cc13x0_sdk_2_30_00_20\examples\rtos\CC135
    2221                            .dwattr $C$DW$204, DW_AT_decl_line(0x172)
    2222                            .dwattr $C$DW$204, DW_AT_decl_column(0x05)
    2223                    
    2224                            .dwattr $C$DW$T$519, DW_AT_decl_file("C:\ti\simplelink_cc13x0_sdk_2_30_00_20\examples\rtos\CC1
    2225                            .dwattr $C$DW$T$519, DW_AT_decl_line(0x16f)
    2226                            .dwattr $C$DW$T$519, DW_AT_decl_column(0x0e)
    2227                            .dwendtag $C$DW$T$519
    2228                    
    2229                    $C$DW$T$520     .dwtag  DW_TAG_typedef
    2230                            .dwattr $C$DW$T$520, DW_AT_name("CC1350_LAUNCHXL_WatchdogName")
    2231                            .dwattr $C$DW$T$520, DW_AT_type(*$C$DW$T$519)
    2232                            .dwattr $C$DW$T$520, DW_AT_language(DW_LANG_C)
    2233                            .dwattr $C$DW$T$520, DW_AT_decl_file("C:\ti\simplelink_cc13x0_sdk_2_30_00_20\examples\rtos\CC1
    2234                            .dwattr $C$DW$T$520, DW_AT_decl_line(0x173)
    2235                            .dwattr $C$DW$T$520, DW_AT_decl_column(0x03)
    2236                    
    2237                    
    2238                    $C$DW$T$200     .dwtag  DW_TAG_structure_type
    2239                            .dwattr $C$DW$T$200, DW_AT_name("PIN_State_s")
    2240                            .dwattr $C$DW$T$200, DW_AT_byte_size(0x0c)
    2241                    $C$DW$205       .dwtag  DW_TAG_member
    2242                            .dwattr $C$DW$205, DW_AT_type(*$C$DW$T$198)
    2243                            .dwattr $C$DW$205, DW_AT_name("callbackFxn")
    2244                            .dwattr $C$DW$205, DW_AT_TI_symbol_name("callbackFxn")
    2245                            .dwattr $C$DW$205, DW_AT_data_member_location[DW_OP_plus_uconst 0x0]
    2246                            .dwattr $C$DW$205, DW_AT_accessibility(DW_ACCESS_public)
    2247                            .dwattr $C$DW$205, DW_AT_decl_file("C:/ti/simplelink_cc13x0_sdk_2_30_00_20/source/ti/drivers/P
    2248                            .dwattr $C$DW$205, DW_AT_decl_line(0x2c5)
    2249                            .dwattr $C$DW$205, DW_AT_decl_column(0x11)
    2250                    
TI ARM Assembler PC v16.9.9 Sun Nov 25 17:19:51 2018

Tools Copyright (c) 1996-2017 Texas Instruments Incorporated
C:\Users\Stryd\AppData\Local\Temp\{879FE331-A814-4A40-B693-7BEB0BC2D33C} PAGE   42

    2251                    $C$DW$206       .dwtag  DW_TAG_member
    2252                            .dwattr $C$DW$206, DW_AT_type(*$C$DW$T$137)
    2253                            .dwattr $C$DW$206, DW_AT_name("portMask")
    2254                            .dwattr $C$DW$206, DW_AT_TI_symbol_name("portMask")
    2255                            .dwattr $C$DW$206, DW_AT_data_member_location[DW_OP_plus_uconst 0x4]
    2256                            .dwattr $C$DW$206, DW_AT_accessibility(DW_ACCESS_public)
    2257                            .dwattr $C$DW$206, DW_AT_decl_file("C:/ti/simplelink_cc13x0_sdk_2_30_00_20/source/ti/drivers/P
    2258                            .dwattr $C$DW$206, DW_AT_decl_line(0x2c6)
    2259                            .dwattr $C$DW$206, DW_AT_decl_column(0x11)
    2260                    
    2261                    $C$DW$207       .dwtag  DW_TAG_member
    2262                            .dwattr $C$DW$207, DW_AT_type(*$C$DW$T$199)
    2263                            .dwattr $C$DW$207, DW_AT_name("userArg")
    2264                            .dwattr $C$DW$207, DW_AT_TI_symbol_name("userArg")
    2265                            .dwattr $C$DW$207, DW_AT_data_member_location[DW_OP_plus_uconst 0x8]
    2266                            .dwattr $C$DW$207, DW_AT_accessibility(DW_ACCESS_public)
    2267                            .dwattr $C$DW$207, DW_AT_decl_file("C:/ti/simplelink_cc13x0_sdk_2_30_00_20/source/ti/drivers/P
    2268                            .dwattr $C$DW$207, DW_AT_decl_line(0x2c7)
    2269                            .dwattr $C$DW$207, DW_AT_decl_column(0x11)
    2270                    
    2271                            .dwattr $C$DW$T$200, DW_AT_decl_file("C:/ti/simplelink_cc13x0_sdk_2_30_00_20/source/ti/drivers
    2272                            .dwattr $C$DW$T$200, DW_AT_decl_line(0x2c4)
    2273                            .dwattr $C$DW$T$200, DW_AT_decl_column(0x08)
    2274                            .dwendtag $C$DW$T$200
    2275                    
    2276                    $C$DW$T$192     .dwtag  DW_TAG_typedef
    2277                            .dwattr $C$DW$T$192, DW_AT_name("PIN_State")
    2278                            .dwattr $C$DW$T$192, DW_AT_type(*$C$DW$T$200)
    2279                            .dwattr $C$DW$T$192, DW_AT_language(DW_LANG_C)
    2280                            .dwattr $C$DW$T$192, DW_AT_decl_file("C:/ti/simplelink_cc13x0_sdk_2_30_00_20/source/ti/drivers
    2281                            .dwattr $C$DW$T$192, DW_AT_decl_line(0x2ad)
    2282                            .dwattr $C$DW$T$192, DW_AT_decl_column(0x1c)
    2283                    
    2284                    $C$DW$T$193     .dwtag  DW_TAG_pointer_type
    2285                            .dwattr $C$DW$T$193, DW_AT_type(*$C$DW$T$192)
    2286                            .dwattr $C$DW$T$193, DW_AT_address_class(0x20)
    2287                    
    2288                    $C$DW$T$194     .dwtag  DW_TAG_typedef
    2289                            .dwattr $C$DW$T$194, DW_AT_name("PIN_Handle")
    2290                            .dwattr $C$DW$T$194, DW_AT_type(*$C$DW$T$193)
    2291                            .dwattr $C$DW$T$194, DW_AT_language(DW_LANG_C)
    2292                            .dwattr $C$DW$T$194, DW_AT_decl_file("C:/ti/simplelink_cc13x0_sdk_2_30_00_20/source/ti/drivers
    2293                            .dwattr $C$DW$T$194, DW_AT_decl_line(0x2b3)
    2294                            .dwattr $C$DW$T$194, DW_AT_decl_column(0x14)
    2295                    
    2296                    $C$DW$T$189     .dwtag  DW_TAG_pointer_type
    2297                            .dwattr $C$DW$T$189, DW_AT_type(*$C$DW$T$200)
    2298                            .dwattr $C$DW$T$189, DW_AT_address_class(0x20)
    2299                    
    2300                    $C$DW$T$2       .dwtag  DW_TAG_unspecified_type
    2301                            .dwattr $C$DW$T$2, DW_AT_name("void")
    2302                    
    2303                    $C$DW$T$3       .dwtag  DW_TAG_pointer_type
    2304                            .dwattr $C$DW$T$3, DW_AT_type(*$C$DW$T$2)
    2305                            .dwattr $C$DW$T$3, DW_AT_address_class(0x20)
TI ARM Assembler PC v16.9.9 Sun Nov 25 17:19:51 2018

Tools Copyright (c) 1996-2017 Texas Instruments Incorporated
C:\Users\Stryd\AppData\Local\Temp\{879FE331-A814-4A40-B693-7BEB0BC2D33C} PAGE   43

    2306                    
    2307                    $C$DW$T$326     .dwtag  DW_TAG_typedef
    2308                            .dwattr $C$DW$T$326, DW_AT_name("xdc_Ptr")
    2309                            .dwattr $C$DW$T$326, DW_AT_type(*$C$DW$T$3)
    2310                            .dwattr $C$DW$T$326, DW_AT_language(DW_LANG_C)
    2311                            .dwattr $C$DW$T$326, DW_AT_decl_file("C:/ti/xdctools_3_50_08_24_core/packages/xdc/std.h")
    2312                            .dwattr $C$DW$T$326, DW_AT_decl_line(0x2e)
    2313                            .dwattr $C$DW$T$326, DW_AT_decl_column(0x1a)
    2314                    
    2315                    $C$DW$T$528     .dwtag  DW_TAG_typedef
    2316                            .dwattr $C$DW$T$528, DW_AT_name("CT__ti_sysbios_knl_Clock_Module__gateObj")
    2317                            .dwattr $C$DW$T$528, DW_AT_type(*$C$DW$T$326)
    2318                            .dwattr $C$DW$T$528, DW_AT_language(DW_LANG_C)
    2319                            .dwattr $C$DW$T$528, DW_AT_decl_file("C:/ti/simplelink_cc13x0_sdk_2_30_00_20/kernel/tirtos/pac
    2320                            .dwattr $C$DW$T$528, DW_AT_decl_line(0x8c)
    2321                            .dwattr $C$DW$T$528, DW_AT_decl_column(0x11)
    2322                    
    2323                    $C$DW$T$529     .dwtag  DW_TAG_typedef
    2324                            .dwattr $C$DW$T$529, DW_AT_name("CT__ti_sysbios_knl_Clock_Module__gatePrms")
    2325                            .dwattr $C$DW$T$529, DW_AT_type(*$C$DW$T$326)
    2326                            .dwattr $C$DW$T$529, DW_AT_language(DW_LANG_C)
    2327                            .dwattr $C$DW$T$529, DW_AT_decl_file("C:/ti/simplelink_cc13x0_sdk_2_30_00_20/kernel/tirtos/pac
    2328                            .dwattr $C$DW$T$529, DW_AT_decl_line(0x95)
    2329                            .dwattr $C$DW$T$529, DW_AT_decl_column(0x11)
    2330                    
    2331                    $C$DW$T$530     .dwtag  DW_TAG_typedef
    2332                            .dwattr $C$DW$T$530, DW_AT_name("CT__ti_sysbios_knl_Clock_Module__loggerObj")
    2333                            .dwattr $C$DW$T$530, DW_AT_type(*$C$DW$T$326)
    2334                            .dwattr $C$DW$T$530, DW_AT_language(DW_LANG_C)
    2335                            .dwattr $C$DW$T$530, DW_AT_decl_file("C:/ti/simplelink_cc13x0_sdk_2_30_00_20/kernel/tirtos/pac
    2336                            .dwattr $C$DW$T$530, DW_AT_decl_line(0xb0)
    2337                            .dwattr $C$DW$T$530, DW_AT_decl_column(0x11)
    2338                    
    2339                    $C$DW$T$531     .dwtag  DW_TAG_typedef
    2340                            .dwattr $C$DW$T$531, DW_AT_name("CT__ti_sysbios_knl_Clock_Object__table")
    2341                            .dwattr $C$DW$T$531, DW_AT_type(*$C$DW$T$326)
    2342                            .dwattr $C$DW$T$531, DW_AT_language(DW_LANG_C)
    2343                            .dwattr $C$DW$T$531, DW_AT_decl_file("C:/ti/simplelink_cc13x0_sdk_2_30_00_20/kernel/tirtos/pac
    2344                            .dwattr $C$DW$T$531, DW_AT_decl_line(0x101)
    2345                            .dwattr $C$DW$T$531, DW_AT_decl_column(0x11)
    2346                    
    2347                    $C$DW$T$532     .dwtag  DW_TAG_typedef
    2348                            .dwattr $C$DW$T$532, DW_AT_name("CT__ti_sysbios_knl_Clock_TimerProxy_Module__gateObj")
    2349                            .dwattr $C$DW$T$532, DW_AT_type(*$C$DW$T$326)
    2350                            .dwattr $C$DW$T$532, DW_AT_language(DW_LANG_C)
    2351                            .dwattr $C$DW$T$532, DW_AT_decl_file("C:/ti/simplelink_cc13x0_sdk_2_30_00_20/kernel/tirtos/pac
    2352                            .dwattr $C$DW$T$532, DW_AT_decl_line(0x80)
    2353                            .dwattr $C$DW$T$532, DW_AT_decl_column(0x11)
    2354                    
    2355                    $C$DW$T$533     .dwtag  DW_TAG_typedef
    2356                            .dwattr $C$DW$T$533, DW_AT_name("CT__ti_sysbios_knl_Clock_TimerProxy_Module__gatePrms")
    2357                            .dwattr $C$DW$T$533, DW_AT_type(*$C$DW$T$326)
    2358                            .dwattr $C$DW$T$533, DW_AT_language(DW_LANG_C)
    2359                            .dwattr $C$DW$T$533, DW_AT_decl_file("C:/ti/simplelink_cc13x0_sdk_2_30_00_20/kernel/tirtos/pac
    2360                            .dwattr $C$DW$T$533, DW_AT_decl_line(0x89)
TI ARM Assembler PC v16.9.9 Sun Nov 25 17:19:51 2018

Tools Copyright (c) 1996-2017 Texas Instruments Incorporated
C:\Users\Stryd\AppData\Local\Temp\{879FE331-A814-4A40-B693-7BEB0BC2D33C} PAGE   44

    2361                            .dwattr $C$DW$T$533, DW_AT_decl_column(0x11)
    2362                    
    2363                    $C$DW$T$534     .dwtag  DW_TAG_typedef
    2364                            .dwattr $C$DW$T$534, DW_AT_name("CT__ti_sysbios_knl_Clock_TimerProxy_Module__loggerObj")
    2365                            .dwattr $C$DW$T$534, DW_AT_type(*$C$DW$T$326)
    2366                            .dwattr $C$DW$T$534, DW_AT_language(DW_LANG_C)
    2367                            .dwattr $C$DW$T$534, DW_AT_decl_file("C:/ti/simplelink_cc13x0_sdk_2_30_00_20/kernel/tirtos/pac
    2368                            .dwattr $C$DW$T$534, DW_AT_decl_line(0xa4)
    2369                            .dwattr $C$DW$T$534, DW_AT_decl_column(0x11)
    2370                    
    2371                    $C$DW$T$535     .dwtag  DW_TAG_typedef
    2372                            .dwattr $C$DW$T$535, DW_AT_name("CT__ti_sysbios_knl_Clock_TimerProxy_Object__table")
    2373                            .dwattr $C$DW$T$535, DW_AT_type(*$C$DW$T$326)
    2374                            .dwattr $C$DW$T$535, DW_AT_language(DW_LANG_C)
    2375                            .dwattr $C$DW$T$535, DW_AT_decl_file("C:/ti/simplelink_cc13x0_sdk_2_30_00_20/kernel/tirtos/pac
    2376                            .dwattr $C$DW$T$535, DW_AT_decl_line(0xf5)
    2377                            .dwattr $C$DW$T$535, DW_AT_decl_column(0x11)
    2378                    
    2379                    $C$DW$T$536     .dwtag  DW_TAG_typedef
    2380                            .dwattr $C$DW$T$536, DW_AT_name("CT__ti_sysbios_knl_Queue_Module__gateObj")
    2381                            .dwattr $C$DW$T$536, DW_AT_type(*$C$DW$T$326)
    2382                            .dwattr $C$DW$T$536, DW_AT_language(DW_LANG_C)
    2383                            .dwattr $C$DW$T$536, DW_AT_decl_file("C:/ti/simplelink_cc13x0_sdk_2_30_00_20/kernel/tirtos/pac
    2384                            .dwattr $C$DW$T$536, DW_AT_decl_line(0x6d)
    2385                            .dwattr $C$DW$T$536, DW_AT_decl_column(0x11)
    2386                    
    2387                    $C$DW$T$537     .dwtag  DW_TAG_typedef
    2388                            .dwattr $C$DW$T$537, DW_AT_name("CT__ti_sysbios_knl_Queue_Module__gatePrms")
    2389                            .dwattr $C$DW$T$537, DW_AT_type(*$C$DW$T$326)
    2390                            .dwattr $C$DW$T$537, DW_AT_language(DW_LANG_C)
    2391                            .dwattr $C$DW$T$537, DW_AT_decl_file("C:/ti/simplelink_cc13x0_sdk_2_30_00_20/kernel/tirtos/pac
    2392                            .dwattr $C$DW$T$537, DW_AT_decl_line(0x76)
    2393                            .dwattr $C$DW$T$537, DW_AT_decl_column(0x11)
    2394                    
    2395                    $C$DW$T$538     .dwtag  DW_TAG_typedef
    2396                            .dwattr $C$DW$T$538, DW_AT_name("CT__ti_sysbios_knl_Queue_Module__loggerObj")
    2397                            .dwattr $C$DW$T$538, DW_AT_type(*$C$DW$T$326)
    2398                            .dwattr $C$DW$T$538, DW_AT_language(DW_LANG_C)
    2399                            .dwattr $C$DW$T$538, DW_AT_decl_file("C:/ti/simplelink_cc13x0_sdk_2_30_00_20/kernel/tirtos/pac
    2400                            .dwattr $C$DW$T$538, DW_AT_decl_line(0x91)
    2401                            .dwattr $C$DW$T$538, DW_AT_decl_column(0x11)
    2402                    
    2403                    $C$DW$T$539     .dwtag  DW_TAG_typedef
    2404                            .dwattr $C$DW$T$539, DW_AT_name("CT__ti_sysbios_knl_Queue_Object__table")
    2405                            .dwattr $C$DW$T$539, DW_AT_type(*$C$DW$T$326)
    2406                            .dwattr $C$DW$T$539, DW_AT_language(DW_LANG_C)
    2407                            .dwattr $C$DW$T$539, DW_AT_decl_file("C:/ti/simplelink_cc13x0_sdk_2_30_00_20/kernel/tirtos/pac
    2408                            .dwattr $C$DW$T$539, DW_AT_decl_line(0xe2)
    2409                            .dwattr $C$DW$T$539, DW_AT_decl_column(0x11)
    2410                    
    2411                    $C$DW$T$540     .dwtag  DW_TAG_typedef
    2412                            .dwattr $C$DW$T$540, DW_AT_name("CT__ti_sysbios_knl_Swi_Module__gateObj")
    2413                            .dwattr $C$DW$T$540, DW_AT_type(*$C$DW$T$326)
    2414                            .dwattr $C$DW$T$540, DW_AT_language(DW_LANG_C)
    2415                            .dwattr $C$DW$T$540, DW_AT_decl_file("C:/ti/simplelink_cc13x0_sdk_2_30_00_20/kernel/tirtos/pac
TI ARM Assembler PC v16.9.9 Sun Nov 25 17:19:51 2018

Tools Copyright (c) 1996-2017 Texas Instruments Incorporated
C:\Users\Stryd\AppData\Local\Temp\{879FE331-A814-4A40-B693-7BEB0BC2D33C} PAGE   45

    2416                            .dwattr $C$DW$T$540, DW_AT_decl_line(0xac)
    2417                            .dwattr $C$DW$T$540, DW_AT_decl_column(0x11)
    2418                    
    2419                    $C$DW$T$541     .dwtag  DW_TAG_typedef
    2420                            .dwattr $C$DW$T$541, DW_AT_name("CT__ti_sysbios_knl_Swi_Module__gatePrms")
    2421                            .dwattr $C$DW$T$541, DW_AT_type(*$C$DW$T$326)
    2422                            .dwattr $C$DW$T$541, DW_AT_language(DW_LANG_C)
    2423                            .dwattr $C$DW$T$541, DW_AT_decl_file("C:/ti/simplelink_cc13x0_sdk_2_30_00_20/kernel/tirtos/pac
    2424                            .dwattr $C$DW$T$541, DW_AT_decl_line(0xb5)
    2425                            .dwattr $C$DW$T$541, DW_AT_decl_column(0x11)
    2426                    
    2427                    $C$DW$T$542     .dwtag  DW_TAG_typedef
    2428                            .dwattr $C$DW$T$542, DW_AT_name("CT__ti_sysbios_knl_Swi_Module__loggerObj")
    2429                            .dwattr $C$DW$T$542, DW_AT_type(*$C$DW$T$326)
    2430                            .dwattr $C$DW$T$542, DW_AT_language(DW_LANG_C)
    2431                            .dwattr $C$DW$T$542, DW_AT_decl_file("C:/ti/simplelink_cc13x0_sdk_2_30_00_20/kernel/tirtos/pac
    2432                            .dwattr $C$DW$T$542, DW_AT_decl_line(0xd0)
    2433                            .dwattr $C$DW$T$542, DW_AT_decl_column(0x11)
    2434                    
    2435                    $C$DW$T$543     .dwtag  DW_TAG_typedef
    2436                            .dwattr $C$DW$T$543, DW_AT_name("CT__ti_sysbios_knl_Swi_Object__table")
    2437                            .dwattr $C$DW$T$543, DW_AT_type(*$C$DW$T$326)
    2438                            .dwattr $C$DW$T$543, DW_AT_language(DW_LANG_C)
    2439                            .dwattr $C$DW$T$543, DW_AT_decl_file("C:/ti/simplelink_cc13x0_sdk_2_30_00_20/kernel/tirtos/pac
    2440                            .dwattr $C$DW$T$543, DW_AT_decl_line(0x121)
    2441                            .dwattr $C$DW$T$543, DW_AT_decl_column(0x11)
    2442                    
    2443                    $C$DW$T$544     .dwtag  DW_TAG_typedef
    2444                            .dwattr $C$DW$T$544, DW_AT_name("CT__xdc_runtime_Assert_Module__gateObj")
    2445                            .dwattr $C$DW$T$544, DW_AT_type(*$C$DW$T$326)
    2446                            .dwattr $C$DW$T$544, DW_AT_language(DW_LANG_C)
    2447                            .dwattr $C$DW$T$544, DW_AT_decl_file("C:/ti/xdctools_3_50_08_24_core/packages/xdc/runtime/Asse
    2448                            .dwattr $C$DW$T$544, DW_AT_decl_line(0x69)
    2449                            .dwattr $C$DW$T$544, DW_AT_decl_column(0x11)
    2450                    
    2451                    $C$DW$T$545     .dwtag  DW_TAG_typedef
    2452                            .dwattr $C$DW$T$545, DW_AT_name("CT__xdc_runtime_Assert_Module__gatePrms")
    2453                            .dwattr $C$DW$T$545, DW_AT_type(*$C$DW$T$326)
    2454                            .dwattr $C$DW$T$545, DW_AT_language(DW_LANG_C)
    2455                            .dwattr $C$DW$T$545, DW_AT_decl_file("C:/ti/xdctools_3_50_08_24_core/packages/xdc/runtime/Asse
    2456                            .dwattr $C$DW$T$545, DW_AT_decl_line(0x72)
    2457                            .dwattr $C$DW$T$545, DW_AT_decl_column(0x11)
    2458                    
    2459                    $C$DW$T$546     .dwtag  DW_TAG_typedef
    2460                            .dwattr $C$DW$T$546, DW_AT_name("CT__xdc_runtime_Assert_Module__loggerObj")
    2461                            .dwattr $C$DW$T$546, DW_AT_type(*$C$DW$T$326)
    2462                            .dwattr $C$DW$T$546, DW_AT_language(DW_LANG_C)
    2463                            .dwattr $C$DW$T$546, DW_AT_decl_file("C:/ti/xdctools_3_50_08_24_core/packages/xdc/runtime/Asse
    2464                            .dwattr $C$DW$T$546, DW_AT_decl_line(0x8d)
    2465                            .dwattr $C$DW$T$546, DW_AT_decl_column(0x11)
    2466                    
    2467                    $C$DW$T$547     .dwtag  DW_TAG_typedef
    2468                            .dwattr $C$DW$T$547, DW_AT_name("CT__xdc_runtime_Assert_Object__table")
    2469                            .dwattr $C$DW$T$547, DW_AT_type(*$C$DW$T$326)
    2470                            .dwattr $C$DW$T$547, DW_AT_language(DW_LANG_C)
TI ARM Assembler PC v16.9.9 Sun Nov 25 17:19:51 2018

Tools Copyright (c) 1996-2017 Texas Instruments Incorporated
C:\Users\Stryd\AppData\Local\Temp\{879FE331-A814-4A40-B693-7BEB0BC2D33C} PAGE   46

    2471                            .dwattr $C$DW$T$547, DW_AT_decl_file("C:/ti/xdctools_3_50_08_24_core/packages/xdc/runtime/Asse
    2472                            .dwattr $C$DW$T$547, DW_AT_decl_line(0xde)
    2473                            .dwattr $C$DW$T$547, DW_AT_decl_column(0x11)
    2474                    
    2475                    $C$DW$T$548     .dwtag  DW_TAG_typedef
    2476                            .dwattr $C$DW$T$548, DW_AT_name("CT__xdc_runtime_Diags_Module__gateObj")
    2477                            .dwattr $C$DW$T$548, DW_AT_type(*$C$DW$T$326)
    2478                            .dwattr $C$DW$T$548, DW_AT_language(DW_LANG_C)
    2479                            .dwattr $C$DW$T$548, DW_AT_decl_file("C:/ti/xdctools_3_50_08_24_core/packages/xdc/runtime/Diag
    2480                            .dwattr $C$DW$T$548, DW_AT_decl_line(0xbe)
    2481                            .dwattr $C$DW$T$548, DW_AT_decl_column(0x11)
    2482                    
    2483                    $C$DW$T$549     .dwtag  DW_TAG_typedef
    2484                            .dwattr $C$DW$T$549, DW_AT_name("CT__xdc_runtime_Diags_Module__gatePrms")
    2485                            .dwattr $C$DW$T$549, DW_AT_type(*$C$DW$T$326)
    2486                            .dwattr $C$DW$T$549, DW_AT_language(DW_LANG_C)
    2487                            .dwattr $C$DW$T$549, DW_AT_decl_file("C:/ti/xdctools_3_50_08_24_core/packages/xdc/runtime/Diag
    2488                            .dwattr $C$DW$T$549, DW_AT_decl_line(0xc7)
    2489                            .dwattr $C$DW$T$549, DW_AT_decl_column(0x11)
    2490                    
    2491                    $C$DW$T$550     .dwtag  DW_TAG_typedef
    2492                            .dwattr $C$DW$T$550, DW_AT_name("CT__xdc_runtime_Diags_Module__loggerObj")
    2493                            .dwattr $C$DW$T$550, DW_AT_type(*$C$DW$T$326)
    2494                            .dwattr $C$DW$T$550, DW_AT_language(DW_LANG_C)
    2495                            .dwattr $C$DW$T$550, DW_AT_decl_file("C:/ti/xdctools_3_50_08_24_core/packages/xdc/runtime/Diag
    2496                            .dwattr $C$DW$T$550, DW_AT_decl_line(0xe2)
    2497                            .dwattr $C$DW$T$550, DW_AT_decl_column(0x11)
    2498                    
    2499                    $C$DW$T$551     .dwtag  DW_TAG_typedef
    2500                            .dwattr $C$DW$T$551, DW_AT_name("CT__xdc_runtime_Diags_Object__table")
    2501                            .dwattr $C$DW$T$551, DW_AT_type(*$C$DW$T$326)
    2502                            .dwattr $C$DW$T$551, DW_AT_language(DW_LANG_C)
    2503                            .dwattr $C$DW$T$551, DW_AT_decl_file("C:/ti/xdctools_3_50_08_24_core/packages/xdc/runtime/Diag
    2504                            .dwattr $C$DW$T$551, DW_AT_decl_line(0x133)
    2505                            .dwattr $C$DW$T$551, DW_AT_decl_column(0x11)
    2506                    
    2507                    $C$DW$T$552     .dwtag  DW_TAG_typedef
    2508                            .dwattr $C$DW$T$552, DW_AT_name("CT__xdc_runtime_Error_Module__gateObj")
    2509                            .dwattr $C$DW$T$552, DW_AT_type(*$C$DW$T$326)
    2510                            .dwattr $C$DW$T$552, DW_AT_language(DW_LANG_C)
    2511                            .dwattr $C$DW$T$552, DW_AT_decl_file("C:/ti/xdctools_3_50_08_24_core/packages/xdc/runtime/Erro
    2512                            .dwattr $C$DW$T$552, DW_AT_decl_line(0x8d)
    2513                            .dwattr $C$DW$T$552, DW_AT_decl_column(0x11)
    2514                    
    2515                    $C$DW$T$553     .dwtag  DW_TAG_typedef
    2516                            .dwattr $C$DW$T$553, DW_AT_name("CT__xdc_runtime_Error_Module__gatePrms")
    2517                            .dwattr $C$DW$T$553, DW_AT_type(*$C$DW$T$326)
    2518                            .dwattr $C$DW$T$553, DW_AT_language(DW_LANG_C)
    2519                            .dwattr $C$DW$T$553, DW_AT_decl_file("C:/ti/xdctools_3_50_08_24_core/packages/xdc/runtime/Erro
    2520                            .dwattr $C$DW$T$553, DW_AT_decl_line(0x96)
    2521                            .dwattr $C$DW$T$553, DW_AT_decl_column(0x11)
    2522                    
    2523                    $C$DW$T$554     .dwtag  DW_TAG_typedef
    2524                            .dwattr $C$DW$T$554, DW_AT_name("CT__xdc_runtime_Error_Module__loggerObj")
    2525                            .dwattr $C$DW$T$554, DW_AT_type(*$C$DW$T$326)
TI ARM Assembler PC v16.9.9 Sun Nov 25 17:19:51 2018

Tools Copyright (c) 1996-2017 Texas Instruments Incorporated
C:\Users\Stryd\AppData\Local\Temp\{879FE331-A814-4A40-B693-7BEB0BC2D33C} PAGE   47

    2526                            .dwattr $C$DW$T$554, DW_AT_language(DW_LANG_C)
    2527                            .dwattr $C$DW$T$554, DW_AT_decl_file("C:/ti/xdctools_3_50_08_24_core/packages/xdc/runtime/Erro
    2528                            .dwattr $C$DW$T$554, DW_AT_decl_line(0xb1)
    2529                            .dwattr $C$DW$T$554, DW_AT_decl_column(0x11)
    2530                    
    2531                    $C$DW$T$555     .dwtag  DW_TAG_typedef
    2532                            .dwattr $C$DW$T$555, DW_AT_name("CT__xdc_runtime_Error_Object__table")
    2533                            .dwattr $C$DW$T$555, DW_AT_type(*$C$DW$T$326)
    2534                            .dwattr $C$DW$T$555, DW_AT_language(DW_LANG_C)
    2535                            .dwattr $C$DW$T$555, DW_AT_decl_file("C:/ti/xdctools_3_50_08_24_core/packages/xdc/runtime/Erro
    2536                            .dwattr $C$DW$T$555, DW_AT_decl_line(0x102)
    2537                            .dwattr $C$DW$T$555, DW_AT_decl_column(0x11)
    2538                    
    2539                    $C$DW$T$556     .dwtag  DW_TAG_typedef
    2540                            .dwattr $C$DW$T$556, DW_AT_name("CT__xdc_runtime_Log_Module__gateObj")
    2541                            .dwattr $C$DW$T$556, DW_AT_type(*$C$DW$T$326)
    2542                            .dwattr $C$DW$T$556, DW_AT_language(DW_LANG_C)
    2543                            .dwattr $C$DW$T$556, DW_AT_decl_file("C:/ti/xdctools_3_50_08_24_core/packages/xdc/runtime/Log.
    2544                            .dwattr $C$DW$T$556, DW_AT_decl_line(0x7e)
    2545                            .dwattr $C$DW$T$556, DW_AT_decl_column(0x11)
    2546                    
    2547                    $C$DW$T$557     .dwtag  DW_TAG_typedef
    2548                            .dwattr $C$DW$T$557, DW_AT_name("CT__xdc_runtime_Log_Module__gatePrms")
    2549                            .dwattr $C$DW$T$557, DW_AT_type(*$C$DW$T$326)
    2550                            .dwattr $C$DW$T$557, DW_AT_language(DW_LANG_C)
    2551                            .dwattr $C$DW$T$557, DW_AT_decl_file("C:/ti/xdctools_3_50_08_24_core/packages/xdc/runtime/Log.
    2552                            .dwattr $C$DW$T$557, DW_AT_decl_line(0x87)
    2553                            .dwattr $C$DW$T$557, DW_AT_decl_column(0x11)
    2554                    
    2555                    $C$DW$T$558     .dwtag  DW_TAG_typedef
    2556                            .dwattr $C$DW$T$558, DW_AT_name("CT__xdc_runtime_Log_Module__loggerObj")
    2557                            .dwattr $C$DW$T$558, DW_AT_type(*$C$DW$T$326)
    2558                            .dwattr $C$DW$T$558, DW_AT_language(DW_LANG_C)
    2559                            .dwattr $C$DW$T$558, DW_AT_decl_file("C:/ti/xdctools_3_50_08_24_core/packages/xdc/runtime/Log.
    2560                            .dwattr $C$DW$T$558, DW_AT_decl_line(0xa2)
    2561                            .dwattr $C$DW$T$558, DW_AT_decl_column(0x11)
    2562                    
    2563                    $C$DW$T$559     .dwtag  DW_TAG_typedef
    2564                            .dwattr $C$DW$T$559, DW_AT_name("CT__xdc_runtime_Log_Object__table")
    2565                            .dwattr $C$DW$T$559, DW_AT_type(*$C$DW$T$326)
    2566                            .dwattr $C$DW$T$559, DW_AT_language(DW_LANG_C)
    2567                            .dwattr $C$DW$T$559, DW_AT_decl_file("C:/ti/xdctools_3_50_08_24_core/packages/xdc/runtime/Log.
    2568                            .dwattr $C$DW$T$559, DW_AT_decl_line(0xf3)
    2569                            .dwattr $C$DW$T$559, DW_AT_decl_column(0x11)
    2570                    
    2571                    $C$DW$T$560     .dwtag  DW_TAG_typedef
    2572                            .dwattr $C$DW$T$560, DW_AT_name("CT__xdc_runtime_Main_Module_GateProxy_Module__gateObj")
    2573                            .dwattr $C$DW$T$560, DW_AT_type(*$C$DW$T$326)
    2574                            .dwattr $C$DW$T$560, DW_AT_language(DW_LANG_C)
    2575                            .dwattr $C$DW$T$560, DW_AT_decl_file("C:/ti/xdctools_3_50_08_24_core/packages/xdc/runtime/pack
    2576                            .dwattr $C$DW$T$560, DW_AT_decl_line(0x68)
    2577                            .dwattr $C$DW$T$560, DW_AT_decl_column(0x11)
    2578                    
    2579                    $C$DW$T$561     .dwtag  DW_TAG_typedef
    2580                            .dwattr $C$DW$T$561, DW_AT_name("CT__xdc_runtime_Main_Module_GateProxy_Module__gatePrms")
TI ARM Assembler PC v16.9.9 Sun Nov 25 17:19:51 2018

Tools Copyright (c) 1996-2017 Texas Instruments Incorporated
C:\Users\Stryd\AppData\Local\Temp\{879FE331-A814-4A40-B693-7BEB0BC2D33C} PAGE   48

    2581                            .dwattr $C$DW$T$561, DW_AT_type(*$C$DW$T$326)
    2582                            .dwattr $C$DW$T$561, DW_AT_language(DW_LANG_C)
    2583                            .dwattr $C$DW$T$561, DW_AT_decl_file("C:/ti/xdctools_3_50_08_24_core/packages/xdc/runtime/pack
    2584                            .dwattr $C$DW$T$561, DW_AT_decl_line(0x71)
    2585                            .dwattr $C$DW$T$561, DW_AT_decl_column(0x11)
    2586                    
    2587                    $C$DW$T$562     .dwtag  DW_TAG_typedef
    2588                            .dwattr $C$DW$T$562, DW_AT_name("CT__xdc_runtime_Main_Module_GateProxy_Module__loggerObj")
    2589                            .dwattr $C$DW$T$562, DW_AT_type(*$C$DW$T$326)
    2590                            .dwattr $C$DW$T$562, DW_AT_language(DW_LANG_C)
    2591                            .dwattr $C$DW$T$562, DW_AT_decl_file("C:/ti/xdctools_3_50_08_24_core/packages/xdc/runtime/pack
    2592                            .dwattr $C$DW$T$562, DW_AT_decl_line(0x8c)
    2593                            .dwattr $C$DW$T$562, DW_AT_decl_column(0x11)
    2594                    
    2595                    $C$DW$T$563     .dwtag  DW_TAG_typedef
    2596                            .dwattr $C$DW$T$563, DW_AT_name("CT__xdc_runtime_Main_Module_GateProxy_Object__table")
    2597                            .dwattr $C$DW$T$563, DW_AT_type(*$C$DW$T$326)
    2598                            .dwattr $C$DW$T$563, DW_AT_language(DW_LANG_C)
    2599                            .dwattr $C$DW$T$563, DW_AT_decl_file("C:/ti/xdctools_3_50_08_24_core/packages/xdc/runtime/pack
    2600                            .dwattr $C$DW$T$563, DW_AT_decl_line(0xdd)
    2601                            .dwattr $C$DW$T$563, DW_AT_decl_column(0x11)
    2602                    
    2603                    $C$DW$T$564     .dwtag  DW_TAG_typedef
    2604                            .dwattr $C$DW$T$564, DW_AT_name("CT__xdc_runtime_Main_Module__gateObj")
    2605                            .dwattr $C$DW$T$564, DW_AT_type(*$C$DW$T$326)
    2606                            .dwattr $C$DW$T$564, DW_AT_language(DW_LANG_C)
    2607                            .dwattr $C$DW$T$564, DW_AT_decl_file("C:/ti/xdctools_3_50_08_24_core/packages/xdc/runtime/Main
    2608                            .dwattr $C$DW$T$564, DW_AT_decl_line(0x67)
    2609                            .dwattr $C$DW$T$564, DW_AT_decl_column(0x11)
    2610                    
    2611                    $C$DW$T$565     .dwtag  DW_TAG_typedef
    2612                            .dwattr $C$DW$T$565, DW_AT_name("CT__xdc_runtime_Main_Module__gatePrms")
    2613                            .dwattr $C$DW$T$565, DW_AT_type(*$C$DW$T$326)
    2614                            .dwattr $C$DW$T$565, DW_AT_language(DW_LANG_C)
    2615                            .dwattr $C$DW$T$565, DW_AT_decl_file("C:/ti/xdctools_3_50_08_24_core/packages/xdc/runtime/Main
    2616                            .dwattr $C$DW$T$565, DW_AT_decl_line(0x70)
    2617                            .dwattr $C$DW$T$565, DW_AT_decl_column(0x11)
    2618                    
    2619                    $C$DW$T$566     .dwtag  DW_TAG_typedef
    2620                            .dwattr $C$DW$T$566, DW_AT_name("CT__xdc_runtime_Main_Module__loggerObj")
    2621                            .dwattr $C$DW$T$566, DW_AT_type(*$C$DW$T$326)
    2622                            .dwattr $C$DW$T$566, DW_AT_language(DW_LANG_C)
    2623                            .dwattr $C$DW$T$566, DW_AT_decl_file("C:/ti/xdctools_3_50_08_24_core/packages/xdc/runtime/Main
    2624                            .dwattr $C$DW$T$566, DW_AT_decl_line(0x8b)
    2625                            .dwattr $C$DW$T$566, DW_AT_decl_column(0x11)
    2626                    
    2627                    $C$DW$T$567     .dwtag  DW_TAG_typedef
    2628                            .dwattr $C$DW$T$567, DW_AT_name("CT__xdc_runtime_Main_Object__table")
    2629                            .dwattr $C$DW$T$567, DW_AT_type(*$C$DW$T$326)
    2630                            .dwattr $C$DW$T$567, DW_AT_language(DW_LANG_C)
    2631                            .dwattr $C$DW$T$567, DW_AT_decl_file("C:/ti/xdctools_3_50_08_24_core/packages/xdc/runtime/Main
    2632                            .dwattr $C$DW$T$567, DW_AT_decl_line(0xdc)
    2633                            .dwattr $C$DW$T$567, DW_AT_decl_column(0x11)
    2634                    
    2635                    $C$DW$T$568     .dwtag  DW_TAG_typedef
TI ARM Assembler PC v16.9.9 Sun Nov 25 17:19:51 2018

Tools Copyright (c) 1996-2017 Texas Instruments Incorporated
C:\Users\Stryd\AppData\Local\Temp\{879FE331-A814-4A40-B693-7BEB0BC2D33C} PAGE   49

    2636                            .dwattr $C$DW$T$568, DW_AT_name("CT__xdc_runtime_Memory_HeapProxy_Module__gateObj")
    2637                            .dwattr $C$DW$T$568, DW_AT_type(*$C$DW$T$326)
    2638                            .dwattr $C$DW$T$568, DW_AT_language(DW_LANG_C)
    2639                            .dwattr $C$DW$T$568, DW_AT_decl_file("C:/ti/xdctools_3_50_08_24_core/packages/xdc/runtime/pack
    2640                            .dwattr $C$DW$T$568, DW_AT_decl_line(0x62)
    2641                            .dwattr $C$DW$T$568, DW_AT_decl_column(0x11)
    2642                    
    2643                    $C$DW$T$569     .dwtag  DW_TAG_typedef
    2644                            .dwattr $C$DW$T$569, DW_AT_name("CT__xdc_runtime_Memory_HeapProxy_Module__gatePrms")
    2645                            .dwattr $C$DW$T$569, DW_AT_type(*$C$DW$T$326)
    2646                            .dwattr $C$DW$T$569, DW_AT_language(DW_LANG_C)
    2647                            .dwattr $C$DW$T$569, DW_AT_decl_file("C:/ti/xdctools_3_50_08_24_core/packages/xdc/runtime/pack
    2648                            .dwattr $C$DW$T$569, DW_AT_decl_line(0x6b)
    2649                            .dwattr $C$DW$T$569, DW_AT_decl_column(0x11)
    2650                    
    2651                    $C$DW$T$570     .dwtag  DW_TAG_typedef
    2652                            .dwattr $C$DW$T$570, DW_AT_name("CT__xdc_runtime_Memory_HeapProxy_Module__loggerObj")
    2653                            .dwattr $C$DW$T$570, DW_AT_type(*$C$DW$T$326)
    2654                            .dwattr $C$DW$T$570, DW_AT_language(DW_LANG_C)
    2655                            .dwattr $C$DW$T$570, DW_AT_decl_file("C:/ti/xdctools_3_50_08_24_core/packages/xdc/runtime/pack
    2656                            .dwattr $C$DW$T$570, DW_AT_decl_line(0x86)
    2657                            .dwattr $C$DW$T$570, DW_AT_decl_column(0x11)
    2658                    
    2659                    $C$DW$T$571     .dwtag  DW_TAG_typedef
    2660                            .dwattr $C$DW$T$571, DW_AT_name("CT__xdc_runtime_Memory_HeapProxy_Object__table")
    2661                            .dwattr $C$DW$T$571, DW_AT_type(*$C$DW$T$326)
    2662                            .dwattr $C$DW$T$571, DW_AT_language(DW_LANG_C)
    2663                            .dwattr $C$DW$T$571, DW_AT_decl_file("C:/ti/xdctools_3_50_08_24_core/packages/xdc/runtime/pack
    2664                            .dwattr $C$DW$T$571, DW_AT_decl_line(0xd7)
    2665                            .dwattr $C$DW$T$571, DW_AT_decl_column(0x11)
    2666                    
    2667                    $C$DW$T$572     .dwtag  DW_TAG_typedef
    2668                            .dwattr $C$DW$T$572, DW_AT_name("CT__xdc_runtime_Memory_Module__gateObj")
    2669                            .dwattr $C$DW$T$572, DW_AT_type(*$C$DW$T$326)
    2670                            .dwattr $C$DW$T$572, DW_AT_language(DW_LANG_C)
    2671                            .dwattr $C$DW$T$572, DW_AT_decl_file("C:/ti/xdctools_3_50_08_24_core/packages/xdc/runtime/Memo
    2672                            .dwattr $C$DW$T$572, DW_AT_decl_line(0x75)
    2673                            .dwattr $C$DW$T$572, DW_AT_decl_column(0x11)
    2674                    
    2675                    $C$DW$T$573     .dwtag  DW_TAG_typedef
    2676                            .dwattr $C$DW$T$573, DW_AT_name("CT__xdc_runtime_Memory_Module__gatePrms")
    2677                            .dwattr $C$DW$T$573, DW_AT_type(*$C$DW$T$326)
    2678                            .dwattr $C$DW$T$573, DW_AT_language(DW_LANG_C)
    2679                            .dwattr $C$DW$T$573, DW_AT_decl_file("C:/ti/xdctools_3_50_08_24_core/packages/xdc/runtime/Memo
    2680                            .dwattr $C$DW$T$573, DW_AT_decl_line(0x7e)
    2681                            .dwattr $C$DW$T$573, DW_AT_decl_column(0x11)
    2682                    
    2683                    $C$DW$T$574     .dwtag  DW_TAG_typedef
    2684                            .dwattr $C$DW$T$574, DW_AT_name("CT__xdc_runtime_Memory_Module__loggerObj")
    2685                            .dwattr $C$DW$T$574, DW_AT_type(*$C$DW$T$326)
    2686                            .dwattr $C$DW$T$574, DW_AT_language(DW_LANG_C)
    2687                            .dwattr $C$DW$T$574, DW_AT_decl_file("C:/ti/xdctools_3_50_08_24_core/packages/xdc/runtime/Memo
    2688                            .dwattr $C$DW$T$574, DW_AT_decl_line(0x99)
    2689                            .dwattr $C$DW$T$574, DW_AT_decl_column(0x11)
    2690                    
TI ARM Assembler PC v16.9.9 Sun Nov 25 17:19:51 2018

Tools Copyright (c) 1996-2017 Texas Instruments Incorporated
C:\Users\Stryd\AppData\Local\Temp\{879FE331-A814-4A40-B693-7BEB0BC2D33C} PAGE   50

    2691                    $C$DW$T$575     .dwtag  DW_TAG_typedef
    2692                            .dwattr $C$DW$T$575, DW_AT_name("CT__xdc_runtime_Memory_Object__table")
    2693                            .dwattr $C$DW$T$575, DW_AT_type(*$C$DW$T$326)
    2694                            .dwattr $C$DW$T$575, DW_AT_language(DW_LANG_C)
    2695                            .dwattr $C$DW$T$575, DW_AT_decl_file("C:/ti/xdctools_3_50_08_24_core/packages/xdc/runtime/Memo
    2696                            .dwattr $C$DW$T$575, DW_AT_decl_line(0xea)
    2697                            .dwattr $C$DW$T$575, DW_AT_decl_column(0x11)
    2698                    
    2699                    $C$DW$T$576     .dwtag  DW_TAG_typedef
    2700                            .dwattr $C$DW$T$576, DW_AT_name("CT__xdc_runtime_Text_Module__gateObj")
    2701                            .dwattr $C$DW$T$576, DW_AT_type(*$C$DW$T$326)
    2702                            .dwattr $C$DW$T$576, DW_AT_language(DW_LANG_C)
    2703                            .dwattr $C$DW$T$576, DW_AT_decl_file("C:/ti/xdctools_3_50_08_24_core/packages/xdc/runtime/Text
    2704                            .dwattr $C$DW$T$576, DW_AT_decl_line(0x8c)
    2705                            .dwattr $C$DW$T$576, DW_AT_decl_column(0x11)
    2706                    
    2707                    $C$DW$T$577     .dwtag  DW_TAG_typedef
    2708                            .dwattr $C$DW$T$577, DW_AT_name("CT__xdc_runtime_Text_Module__gatePrms")
    2709                            .dwattr $C$DW$T$577, DW_AT_type(*$C$DW$T$326)
    2710                            .dwattr $C$DW$T$577, DW_AT_language(DW_LANG_C)
    2711                            .dwattr $C$DW$T$577, DW_AT_decl_file("C:/ti/xdctools_3_50_08_24_core/packages/xdc/runtime/Text
    2712                            .dwattr $C$DW$T$577, DW_AT_decl_line(0x95)
    2713                            .dwattr $C$DW$T$577, DW_AT_decl_column(0x11)
    2714                    
    2715                    $C$DW$T$578     .dwtag  DW_TAG_typedef
    2716                            .dwattr $C$DW$T$578, DW_AT_name("CT__xdc_runtime_Text_Module__loggerObj")
    2717                            .dwattr $C$DW$T$578, DW_AT_type(*$C$DW$T$326)
    2718                            .dwattr $C$DW$T$578, DW_AT_language(DW_LANG_C)
    2719                            .dwattr $C$DW$T$578, DW_AT_decl_file("C:/ti/xdctools_3_50_08_24_core/packages/xdc/runtime/Text
    2720                            .dwattr $C$DW$T$578, DW_AT_decl_line(0xb0)
    2721                            .dwattr $C$DW$T$578, DW_AT_decl_column(0x11)
    2722                    
    2723                    $C$DW$T$579     .dwtag  DW_TAG_typedef
    2724                            .dwattr $C$DW$T$579, DW_AT_name("CT__xdc_runtime_Text_Object__table")
    2725                            .dwattr $C$DW$T$579, DW_AT_type(*$C$DW$T$326)
    2726                            .dwattr $C$DW$T$579, DW_AT_language(DW_LANG_C)
    2727                            .dwattr $C$DW$T$579, DW_AT_decl_file("C:/ti/xdctools_3_50_08_24_core/packages/xdc/runtime/Text
    2728                            .dwattr $C$DW$T$579, DW_AT_decl_line(0x101)
    2729                            .dwattr $C$DW$T$579, DW_AT_decl_column(0x11)
    2730                    
    2731                    $C$DW$T$580     .dwtag  DW_TAG_typedef
    2732                            .dwattr $C$DW$T$580, DW_AT_name("CT__xdc_runtime_Types_Module__gateObj")
    2733                            .dwattr $C$DW$T$580, DW_AT_type(*$C$DW$T$326)
    2734                            .dwattr $C$DW$T$580, DW_AT_language(DW_LANG_C)
    2735                            .dwattr $C$DW$T$580, DW_AT_decl_file("C:/ti/xdctools_3_50_08_24_core/packages/xdc/runtime/Type
    2736                            .dwattr $C$DW$T$580, DW_AT_decl_line(0xe9)
    2737                            .dwattr $C$DW$T$580, DW_AT_decl_column(0x11)
    2738                    
    2739                    $C$DW$T$581     .dwtag  DW_TAG_typedef
    2740                            .dwattr $C$DW$T$581, DW_AT_name("CT__xdc_runtime_Types_Module__gatePrms")
    2741                            .dwattr $C$DW$T$581, DW_AT_type(*$C$DW$T$326)
    2742                            .dwattr $C$DW$T$581, DW_AT_language(DW_LANG_C)
    2743                            .dwattr $C$DW$T$581, DW_AT_decl_file("C:/ti/xdctools_3_50_08_24_core/packages/xdc/runtime/Type
    2744                            .dwattr $C$DW$T$581, DW_AT_decl_line(0xf2)
    2745                            .dwattr $C$DW$T$581, DW_AT_decl_column(0x11)
TI ARM Assembler PC v16.9.9 Sun Nov 25 17:19:51 2018

Tools Copyright (c) 1996-2017 Texas Instruments Incorporated
C:\Users\Stryd\AppData\Local\Temp\{879FE331-A814-4A40-B693-7BEB0BC2D33C} PAGE   51

    2746                    
    2747                    $C$DW$T$582     .dwtag  DW_TAG_typedef
    2748                            .dwattr $C$DW$T$582, DW_AT_name("CT__xdc_runtime_Types_Module__loggerObj")
    2749                            .dwattr $C$DW$T$582, DW_AT_type(*$C$DW$T$326)
    2750                            .dwattr $C$DW$T$582, DW_AT_language(DW_LANG_C)
    2751                            .dwattr $C$DW$T$582, DW_AT_decl_file("C:/ti/xdctools_3_50_08_24_core/packages/xdc/runtime/Type
    2752                            .dwattr $C$DW$T$582, DW_AT_decl_line(0x10d)
    2753                            .dwattr $C$DW$T$582, DW_AT_decl_column(0x11)
    2754                    
    2755                    $C$DW$T$583     .dwtag  DW_TAG_typedef
    2756                            .dwattr $C$DW$T$583, DW_AT_name("CT__xdc_runtime_Types_Object__table")
    2757                            .dwattr $C$DW$T$583, DW_AT_type(*$C$DW$T$326)
    2758                            .dwattr $C$DW$T$583, DW_AT_language(DW_LANG_C)
    2759                            .dwattr $C$DW$T$583, DW_AT_decl_file("C:/ti/xdctools_3_50_08_24_core/packages/xdc/runtime/Type
    2760                            .dwattr $C$DW$T$583, DW_AT_decl_line(0x15e)
    2761                            .dwattr $C$DW$T$583, DW_AT_decl_column(0x11)
    2762                    
    2763                    $C$DW$T$584     .dwtag  DW_TAG_typedef
    2764                            .dwattr $C$DW$T$584, DW_AT_name("Ptr")
    2765                            .dwattr $C$DW$T$584, DW_AT_type(*$C$DW$T$326)
    2766                            .dwattr $C$DW$T$584, DW_AT_language(DW_LANG_C)
    2767                            .dwattr $C$DW$T$584, DW_AT_decl_file("C:/ti/xdctools_3_50_08_24_core/packages/xdc/std.h")
    2768                            .dwattr $C$DW$T$584, DW_AT_decl_line(0xf7)
    2769                            .dwattr $C$DW$T$584, DW_AT_decl_column(0x19)
    2770                    
    2771                    $C$DW$T$585     .dwtag  DW_TAG_typedef
    2772                            .dwattr $C$DW$T$585, DW_AT_name("__T1_ti_sysbios_knl_Swi_Instance_State__hookEnv")
    2773                            .dwattr $C$DW$T$585, DW_AT_type(*$C$DW$T$326)
    2774                            .dwattr $C$DW$T$585, DW_AT_language(DW_LANG_C)
    2775                            .dwattr $C$DW$T$585, DW_AT_decl_file("C:/ti/simplelink_cc13x0_sdk_2_30_00_20/kernel/tirtos/pac
    2776                            .dwattr $C$DW$T$585, DW_AT_decl_line(0x7c)
    2777                            .dwattr $C$DW$T$585, DW_AT_decl_column(0x11)
    2778                    
    2779                    $C$DW$T$586     .dwtag  DW_TAG_typedef
    2780                            .dwattr $C$DW$T$586, DW_AT_name("__T1_ti_sysbios_knl_Swi_Struct2____hookEnv")
    2781                            .dwattr $C$DW$T$586, DW_AT_type(*$C$DW$T$326)
    2782                            .dwattr $C$DW$T$586, DW_AT_language(DW_LANG_C)
    2783                            .dwattr $C$DW$T$586, DW_AT_decl_file("C:/ti/simplelink_cc13x0_sdk_2_30_00_20/kernel/tirtos/pac
    2784                            .dwattr $C$DW$T$586, DW_AT_decl_line(0x56)
    2785                            .dwattr $C$DW$T$586, DW_AT_decl_column(0x11)
    2786                    
    2787                    $C$DW$T$327     .dwtag  DW_TAG_pointer_type
    2788                            .dwattr $C$DW$T$327, DW_AT_type(*$C$DW$T$326)
    2789                            .dwattr $C$DW$T$327, DW_AT_address_class(0x20)
    2790                    
    2791                    $C$DW$T$328     .dwtag  DW_TAG_typedef
    2792                            .dwattr $C$DW$T$328, DW_AT_name("ARRAY1_ti_sysbios_knl_Swi_Instance_State__hookEnv")
    2793                            .dwattr $C$DW$T$328, DW_AT_type(*$C$DW$T$327)
    2794                            .dwattr $C$DW$T$328, DW_AT_language(DW_LANG_C)
    2795                            .dwattr $C$DW$T$328, DW_AT_decl_file("C:/ti/simplelink_cc13x0_sdk_2_30_00_20/kernel/tirtos/pac
    2796                            .dwattr $C$DW$T$328, DW_AT_decl_line(0x7d)
    2797                            .dwattr $C$DW$T$328, DW_AT_decl_column(0x12)
    2798                    
    2799                    $C$DW$T$329     .dwtag  DW_TAG_typedef
    2800                            .dwattr $C$DW$T$329, DW_AT_name("__TA_ti_sysbios_knl_Swi_Instance_State__hookEnv")
TI ARM Assembler PC v16.9.9 Sun Nov 25 17:19:51 2018

Tools Copyright (c) 1996-2017 Texas Instruments Incorporated
C:\Users\Stryd\AppData\Local\Temp\{879FE331-A814-4A40-B693-7BEB0BC2D33C} PAGE   52

    2801                            .dwattr $C$DW$T$329, DW_AT_type(*$C$DW$T$328)
    2802                            .dwattr $C$DW$T$329, DW_AT_language(DW_LANG_C)
    2803                            .dwattr $C$DW$T$329, DW_AT_decl_file("C:/ti/simplelink_cc13x0_sdk_2_30_00_20/kernel/tirtos/pac
    2804                            .dwattr $C$DW$T$329, DW_AT_decl_line(0x7f)
    2805                            .dwattr $C$DW$T$329, DW_AT_decl_column(0x3b)
    2806                    
    2807                    $C$DW$T$587     .dwtag  DW_TAG_typedef
    2808                            .dwattr $C$DW$T$587, DW_AT_name("ARRAY1_ti_sysbios_knl_Swi_Struct2____hookEnv")
    2809                            .dwattr $C$DW$T$587, DW_AT_type(*$C$DW$T$327)
    2810                            .dwattr $C$DW$T$587, DW_AT_language(DW_LANG_C)
    2811                            .dwattr $C$DW$T$587, DW_AT_decl_file("C:/ti/simplelink_cc13x0_sdk_2_30_00_20/kernel/tirtos/pac
    2812                            .dwattr $C$DW$T$587, DW_AT_decl_line(0x57)
    2813                            .dwattr $C$DW$T$587, DW_AT_decl_column(0x12)
    2814                    
    2815                    
    2816                    $C$DW$T$371     .dwtag  DW_TAG_subroutine_type
    2817                            .dwattr $C$DW$T$371, DW_AT_type(*$C$DW$T$326)
    2818                            .dwattr $C$DW$T$371, DW_AT_language(DW_LANG_C)
    2819                    $C$DW$208       .dwtag  DW_TAG_formal_parameter
    2820                            .dwattr $C$DW$208, DW_AT_type(*$C$DW$T$3)
    2821                    
    2822                    $C$DW$209       .dwtag  DW_TAG_formal_parameter
    2823                            .dwattr $C$DW$209, DW_AT_type(*$C$DW$T$370)
    2824                    
    2825                    $C$DW$210       .dwtag  DW_TAG_formal_parameter
    2826                            .dwattr $C$DW$210, DW_AT_type(*$C$DW$T$370)
    2827                    
    2828                    $C$DW$211       .dwtag  DW_TAG_formal_parameter
    2829                            .dwattr $C$DW$211, DW_AT_type(*$C$DW$T$316)
    2830                    
    2831                            .dwendtag $C$DW$T$371
    2832                    
    2833                    $C$DW$T$372     .dwtag  DW_TAG_pointer_type
    2834                            .dwattr $C$DW$T$372, DW_AT_type(*$C$DW$T$371)
    2835                            .dwattr $C$DW$T$372, DW_AT_address_class(0x20)
    2836                    
    2837                    $C$DW$T$588     .dwtag  DW_TAG_typedef
    2838                            .dwattr $C$DW$T$588, DW_AT_name("xdc_runtime_IHeap_alloc_FxnT")
    2839                            .dwattr $C$DW$T$588, DW_AT_type(*$C$DW$T$372)
    2840                            .dwattr $C$DW$T$588, DW_AT_language(DW_LANG_C)
    2841                            .dwattr $C$DW$T$588, DW_AT_decl_file("C:/ti/xdctools_3_50_08_24_core/packages/xdc/runtime/IHea
    2842                            .dwattr $C$DW$T$588, DW_AT_decl_line(0xb0)
    2843                            .dwattr $C$DW$T$588, DW_AT_decl_column(0x13)
    2844                    
    2845                    
    2846                    $C$DW$T$415     .dwtag  DW_TAG_subroutine_type
    2847                            .dwattr $C$DW$T$415, DW_AT_type(*$C$DW$T$326)
    2848                            .dwattr $C$DW$T$415, DW_AT_language(DW_LANG_C)
    2849                    $C$DW$212       .dwtag  DW_TAG_formal_parameter
    2850                            .dwattr $C$DW$212, DW_AT_type(*$C$DW$T$414)
    2851                    
    2852                    $C$DW$213       .dwtag  DW_TAG_formal_parameter
    2853                            .dwattr $C$DW$213, DW_AT_type(*$C$DW$T$370)
    2854                    
    2855                    $C$DW$214       .dwtag  DW_TAG_formal_parameter
TI ARM Assembler PC v16.9.9 Sun Nov 25 17:19:51 2018

Tools Copyright (c) 1996-2017 Texas Instruments Incorporated
C:\Users\Stryd\AppData\Local\Temp\{879FE331-A814-4A40-B693-7BEB0BC2D33C} PAGE   53

    2856                            .dwattr $C$DW$214, DW_AT_type(*$C$DW$T$370)
    2857                    
    2858                    $C$DW$215       .dwtag  DW_TAG_formal_parameter
    2859                            .dwattr $C$DW$215, DW_AT_type(*$C$DW$T$316)
    2860                    
    2861                            .dwendtag $C$DW$T$415
    2862                    
    2863                    $C$DW$T$416     .dwtag  DW_TAG_pointer_type
    2864                            .dwattr $C$DW$T$416, DW_AT_type(*$C$DW$T$415)
    2865                            .dwattr $C$DW$T$416, DW_AT_address_class(0x20)
    2866                    
    2867                    
    2868                    $C$DW$T$458     .dwtag  DW_TAG_subroutine_type
    2869                            .dwattr $C$DW$T$458, DW_AT_type(*$C$DW$T$326)
    2870                            .dwattr $C$DW$T$458, DW_AT_language(DW_LANG_C)
    2871                    $C$DW$216       .dwtag  DW_TAG_formal_parameter
    2872                            .dwattr $C$DW$216, DW_AT_type(*$C$DW$T$454)
    2873                    
    2874                    $C$DW$217       .dwtag  DW_TAG_formal_parameter
    2875                            .dwattr $C$DW$217, DW_AT_type(*$C$DW$T$457)
    2876                    
    2877                    $C$DW$218       .dwtag  DW_TAG_formal_parameter
    2878                            .dwattr $C$DW$218, DW_AT_type(*$C$DW$T$370)
    2879                    
    2880                    $C$DW$219       .dwtag  DW_TAG_formal_parameter
    2881                            .dwattr $C$DW$219, DW_AT_type(*$C$DW$T$316)
    2882                    
    2883                            .dwendtag $C$DW$T$458
    2884                    
    2885                    $C$DW$T$459     .dwtag  DW_TAG_pointer_type
    2886                            .dwattr $C$DW$T$459, DW_AT_type(*$C$DW$T$458)
    2887                            .dwattr $C$DW$T$459, DW_AT_address_class(0x20)
    2888                    
    2889                    $C$DW$T$331     .dwtag  DW_TAG_const_type
    2890                            .dwattr $C$DW$T$331, DW_AT_type(*$C$DW$T$326)
    2891                    
    2892                    $C$DW$T$332     .dwtag  DW_TAG_pointer_type
    2893                            .dwattr $C$DW$T$332, DW_AT_type(*$C$DW$T$331)
    2894                            .dwattr $C$DW$T$332, DW_AT_address_class(0x20)
    2895                    
    2896                    $C$DW$T$589     .dwtag  DW_TAG_typedef
    2897                            .dwattr $C$DW$T$589, DW_AT_name("CARRAY1_ti_sysbios_knl_Swi_Instance_State__hookEnv")
    2898                            .dwattr $C$DW$T$589, DW_AT_type(*$C$DW$T$332)
    2899                            .dwattr $C$DW$T$589, DW_AT_language(DW_LANG_C)
    2900                            .dwattr $C$DW$T$589, DW_AT_decl_file("C:/ti/simplelink_cc13x0_sdk_2_30_00_20/kernel/tirtos/pac
    2901                            .dwattr $C$DW$T$589, DW_AT_decl_line(0x7e)
    2902                            .dwattr $C$DW$T$589, DW_AT_decl_column(0x18)
    2903                    
    2904                    $C$DW$T$333     .dwtag  DW_TAG_typedef
    2905                            .dwattr $C$DW$T$333, DW_AT_name("CARRAY1_ti_sysbios_knl_Swi_Struct2____hookEnv")
    2906                            .dwattr $C$DW$T$333, DW_AT_type(*$C$DW$T$332)
    2907                            .dwattr $C$DW$T$333, DW_AT_language(DW_LANG_C)
    2908                            .dwattr $C$DW$T$333, DW_AT_decl_file("C:/ti/simplelink_cc13x0_sdk_2_30_00_20/kernel/tirtos/pac
    2909                            .dwattr $C$DW$T$333, DW_AT_decl_line(0x58)
    2910                            .dwattr $C$DW$T$333, DW_AT_decl_column(0x18)
TI ARM Assembler PC v16.9.9 Sun Nov 25 17:19:51 2018

Tools Copyright (c) 1996-2017 Texas Instruments Incorporated
C:\Users\Stryd\AppData\Local\Temp\{879FE331-A814-4A40-B693-7BEB0BC2D33C} PAGE   54

    2911                    
    2912                    $C$DW$T$334     .dwtag  DW_TAG_typedef
    2913                            .dwattr $C$DW$T$334, DW_AT_name("__TA_ti_sysbios_knl_Swi_Struct2____hookEnv")
    2914                            .dwattr $C$DW$T$334, DW_AT_type(*$C$DW$T$333)
    2915                            .dwattr $C$DW$T$334, DW_AT_language(DW_LANG_C)
    2916                            .dwattr $C$DW$T$334, DW_AT_decl_file("C:/ti/simplelink_cc13x0_sdk_2_30_00_20/kernel/tirtos/pac
    2917                            .dwattr $C$DW$T$334, DW_AT_decl_line(0x59)
    2918                            .dwattr $C$DW$T$334, DW_AT_decl_column(0x37)
    2919                    
    2920                    
    2921                    $C$DW$T$152     .dwtag  DW_TAG_subroutine_type
    2922                            .dwattr $C$DW$T$152, DW_AT_language(DW_LANG_C)
    2923                            .dwendtag $C$DW$T$152
    2924                    
    2925                    $C$DW$T$153     .dwtag  DW_TAG_pointer_type
    2926                            .dwattr $C$DW$T$153, DW_AT_type(*$C$DW$T$152)
    2927                            .dwattr $C$DW$T$153, DW_AT_address_class(0x20)
    2928                    
    2929                    $C$DW$T$171     .dwtag  DW_TAG_typedef
    2930                            .dwattr $C$DW$T$171, DW_AT_name("FPTR_HFSOURCESAFESWITCH_T")
    2931                            .dwattr $C$DW$T$171, DW_AT_type(*$C$DW$T$153)
    2932                            .dwattr $C$DW$T$171, DW_AT_language(DW_LANG_C)
    2933                            .dwattr $C$DW$T$171, DW_AT_decl_file("C:\ti\simplelink_cc13x0_sdk_2_30_00_20\source\ti\devices
    2934                            .dwattr $C$DW$T$171, DW_AT_decl_line(0x5f)
    2935                            .dwattr $C$DW$T$171, DW_AT_decl_column(0x19)
    2936                    
    2937                    $C$DW$T$154     .dwtag  DW_TAG_typedef
    2938                            .dwattr $C$DW$T$154, DW_AT_name("FPTR_RESETDEV_T")
    2939                            .dwattr $C$DW$T$154, DW_AT_type(*$C$DW$T$153)
    2940                            .dwattr $C$DW$T$154, DW_AT_language(DW_LANG_C)
    2941                            .dwattr $C$DW$T$154, DW_AT_decl_file("C:\ti\simplelink_cc13x0_sdk_2_30_00_20\source\ti\devices
    2942                            .dwattr $C$DW$T$154, DW_AT_decl_line(0x4d)
    2943                            .dwattr $C$DW$T$154, DW_AT_decl_column(0x19)
    2944                    
    2945                    $C$DW$T$590     .dwtag  DW_TAG_typedef
    2946                            .dwattr $C$DW$T$590, DW_AT_name("FPTR_VOID_VOID_T")
    2947                            .dwattr $C$DW$T$590, DW_AT_type(*$C$DW$T$153)
    2948                            .dwattr $C$DW$T$590, DW_AT_language(DW_LANG_C)
    2949                            .dwattr $C$DW$T$590, DW_AT_decl_file("C:\ti\simplelink_cc13x0_sdk_2_30_00_20\source\ti\devices
    2950                            .dwattr $C$DW$T$590, DW_AT_decl_line(0x33)
    2951                            .dwattr $C$DW$T$590, DW_AT_decl_column(0x11)
    2952                    
    2953                    $C$DW$T$591     .dwtag  DW_TAG_typedef
    2954                            .dwattr $C$DW$T$591, DW_AT_name("ti_sysbios_interfaces_ITimer_startup_FxnT")
    2955                            .dwattr $C$DW$T$591, DW_AT_type(*$C$DW$T$153)
    2956                            .dwattr $C$DW$T$591, DW_AT_language(DW_LANG_C)
    2957                            .dwattr $C$DW$T$591, DW_AT_decl_file("C:/ti/simplelink_cc13x0_sdk_2_30_00_20/kernel/tirtos/pac
    2958                            .dwattr $C$DW$T$591, DW_AT_decl_line(0x164)
    2959                            .dwattr $C$DW$T$591, DW_AT_decl_column(0x14)
    2960                    
    2961                    
    2962                    $C$DW$T$167     .dwtag  DW_TAG_subroutine_type
    2963                            .dwattr $C$DW$T$167, DW_AT_language(DW_LANG_C)
    2964                    $C$DW$220       .dwtag  DW_TAG_formal_parameter
    2965                            .dwattr $C$DW$220, DW_AT_type(*$C$DW$T$137)
TI ARM Assembler PC v16.9.9 Sun Nov 25 17:19:51 2018

Tools Copyright (c) 1996-2017 Texas Instruments Incorporated
C:\Users\Stryd\AppData\Local\Temp\{879FE331-A814-4A40-B693-7BEB0BC2D33C} PAGE   55

    2966                    
    2967                            .dwendtag $C$DW$T$167
    2968                    
    2969                    $C$DW$T$168     .dwtag  DW_TAG_pointer_type
    2970                            .dwattr $C$DW$T$168, DW_AT_type(*$C$DW$T$167)
    2971                            .dwattr $C$DW$T$168, DW_AT_address_class(0x20)
    2972                    
    2973                    $C$DW$T$169     .dwtag  DW_TAG_typedef
    2974                            .dwattr $C$DW$T$169, DW_AT_name("FPTR_RESERVED4_T")
    2975                            .dwattr $C$DW$T$169, DW_AT_type(*$C$DW$T$168)
    2976                            .dwattr $C$DW$T$169, DW_AT_language(DW_LANG_C)
    2977                            .dwattr $C$DW$T$169, DW_AT_decl_file("C:\ti\simplelink_cc13x0_sdk_2_30_00_20\source\ti\devices
    2978                            .dwattr $C$DW$T$169, DW_AT_decl_line(0x61)
    2979                            .dwattr $C$DW$T$169, DW_AT_decl_column(0x19)
    2980                    
    2981                    $C$DW$T$170     .dwtag  DW_TAG_typedef
    2982                            .dwattr $C$DW$T$170, DW_AT_name("FPTR_RESERVED5_T")
    2983                            .dwattr $C$DW$T$170, DW_AT_type(*$C$DW$T$168)
    2984                            .dwattr $C$DW$T$170, DW_AT_language(DW_LANG_C)
    2985                            .dwattr $C$DW$T$170, DW_AT_decl_file("C:\ti\simplelink_cc13x0_sdk_2_30_00_20\source\ti\devices
    2986                            .dwattr $C$DW$T$170, DW_AT_decl_line(0x63)
    2987                            .dwattr $C$DW$T$170, DW_AT_decl_column(0x19)
    2988                    
    2989                    
    2990                    $C$DW$T$172     .dwtag  DW_TAG_subroutine_type
    2991                            .dwattr $C$DW$T$172, DW_AT_language(DW_LANG_C)
    2992                    $C$DW$221       .dwtag  DW_TAG_formal_parameter
    2993                            .dwattr $C$DW$221, DW_AT_type(*$C$DW$T$138)
    2994                    
    2995                            .dwendtag $C$DW$T$172
    2996                    
    2997                    $C$DW$T$173     .dwtag  DW_TAG_pointer_type
    2998                            .dwattr $C$DW$T$173, DW_AT_type(*$C$DW$T$172)
    2999                            .dwattr $C$DW$T$173, DW_AT_address_class(0x20)
    3000                    
    3001                    $C$DW$T$592     .dwtag  DW_TAG_typedef
    3002                            .dwattr $C$DW$T$592, DW_AT_name("Board_Key_keysPressedCB_t")
    3003                            .dwattr $C$DW$T$592, DW_AT_type(*$C$DW$T$173)
    3004                            .dwattr $C$DW$T$592, DW_AT_language(DW_LANG_C)
    3005                            .dwattr $C$DW$T$592, DW_AT_decl_file("..\Application\LaunchPad\board_key.h")
    3006                            .dwattr $C$DW$T$592, DW_AT_decl_line(0x64)
    3007                            .dwattr $C$DW$T$592, DW_AT_decl_column(0x10)
    3008                    
    3009                    $C$DW$T$593     .dwtag  DW_TAG_const_type
    3010                            .dwattr $C$DW$T$593, DW_AT_type(*$C$DW$T$592)
    3011                    
    3012                    $C$DW$T$176     .dwtag  DW_TAG_typedef
    3013                            .dwattr $C$DW$T$176, DW_AT_name("FPTR_ADCCOMPBIN_T")
    3014                            .dwattr $C$DW$T$176, DW_AT_type(*$C$DW$T$173)
    3015                            .dwattr $C$DW$T$176, DW_AT_language(DW_LANG_C)
    3016                            .dwattr $C$DW$T$176, DW_AT_decl_file("C:\ti\simplelink_cc13x0_sdk_2_30_00_20\source\ti\devices
    3017                            .dwattr $C$DW$T$176, DW_AT_decl_line(0x69)
    3018                            .dwattr $C$DW$T$176, DW_AT_decl_column(0x19)
    3019                    
    3020                    $C$DW$T$174     .dwtag  DW_TAG_typedef
TI ARM Assembler PC v16.9.9 Sun Nov 25 17:19:51 2018

Tools Copyright (c) 1996-2017 Texas Instruments Incorporated
C:\Users\Stryd\AppData\Local\Temp\{879FE331-A814-4A40-B693-7BEB0BC2D33C} PAGE   56

