TI ARM Assembler PC v16.9.9 Sun Nov 25 17:19:51 2018

Tools Copyright (c) 1996-2017 Texas Instruments Incorporated
C:\Users\Stryd\AppData\Local\Temp\{F707AED4-2B3E-4DAD-8386-DB17F4B4B9A2} PAGE    1

       1                    ;******************************************************************************
       2                    ;* TI ARM C/C++ Codegen                                        PC v16.9.9.LTS *
       3                    ;* Date/Time created: Sun Nov 25 17:19:50 2018                                *
       4                    ;******************************************************************************
       5                            .compiler_opts --abi=eabi --arm_vmrs_si_workaround=off --code_state=16 --diag_wrap=off --embed
       6 00000000                   .thumb
       7                    
       8                    $C$DW$CU        .dwtag  DW_TAG_compile_unit
       9                            .dwattr $C$DW$CU, DW_AT_name("../Application/LaunchPad/board_gpio.c")
      10                            .dwattr $C$DW$CU, DW_AT_producer("TI TI ARM C/C++ Codegen PC v16.9.9.LTS Copyright (c) 1996-20
      11                            .dwattr $C$DW$CU, DW_AT_TI_version(0x01)
      12                            .dwattr $C$DW$CU, DW_AT_comp_dir("C:\CCSWorkspace\ECG603\sensor_cc1350lp\sensor_cc1350lp")
      13                    
      14                    $C$DW$1 .dwtag  DW_TAG_subprogram
      15                            .dwattr $C$DW$1, DW_AT_name("PIN_open")
      16                            .dwattr $C$DW$1, DW_AT_TI_symbol_name("PIN_open")
      17                            .dwattr $C$DW$1, DW_AT_type(*$C$DW$T$216)
      18                            .dwattr $C$DW$1, DW_AT_declaration
      19                            .dwattr $C$DW$1, DW_AT_external
      20                            .dwattr $C$DW$1, DW_AT_decl_file("C:/ti/simplelink_cc13x0_sdk_2_30_00_20/source/ti/drivers/PIN
      21                            .dwattr $C$DW$1, DW_AT_decl_line(0x2f5)
      22                            .dwattr $C$DW$1, DW_AT_decl_column(0x13)
      23                    $C$DW$2 .dwtag  DW_TAG_formal_parameter
      24                            .dwattr $C$DW$2, DW_AT_type(*$C$DW$T$215)
      25                    
      26                    $C$DW$3 .dwtag  DW_TAG_formal_parameter
      27                            .dwattr $C$DW$3, DW_AT_type(*$C$DW$T$759)
      28                    
      29                            .dwendtag $C$DW$1
      30                    
      31                    
      32                    $C$DW$4 .dwtag  DW_TAG_subprogram
      33                            .dwattr $C$DW$4, DW_AT_name("PIN_setOutputValue")
      34                            .dwattr $C$DW$4, DW_AT_TI_symbol_name("PIN_setOutputValue")
      35                            .dwattr $C$DW$4, DW_AT_type(*$C$DW$T$673)
      36                            .dwattr $C$DW$4, DW_AT_declaration
      37                            .dwattr $C$DW$4, DW_AT_external
      38                            .dwattr $C$DW$4, DW_AT_decl_file("C:/ti/simplelink_cc13x0_sdk_2_30_00_20/source/ti/drivers/PIN
      39                            .dwattr $C$DW$4, DW_AT_decl_line(0x367)
      40                            .dwattr $C$DW$4, DW_AT_decl_column(0x13)
      41                    $C$DW$5 .dwtag  DW_TAG_formal_parameter
      42                            .dwattr $C$DW$5, DW_AT_type(*$C$DW$T$216)
      43                    
      44                    $C$DW$6 .dwtag  DW_TAG_formal_parameter
      45                            .dwattr $C$DW$6, DW_AT_type(*$C$DW$T$217)
      46                    
      47                    $C$DW$7 .dwtag  DW_TAG_formal_parameter
      48                            .dwattr $C$DW$7, DW_AT_type(*$C$DW$T$137)
      49                    
      50                            .dwendtag $C$DW$4
      51                    
      52                    
      53                    $C$DW$8 .dwtag  DW_TAG_subprogram
      54                            .dwattr $C$DW$8, DW_AT_name("HwiP_disable")
      55                            .dwattr $C$DW$8, DW_AT_TI_symbol_name("HwiP_disable")
TI ARM Assembler PC v16.9.9 Sun Nov 25 17:19:51 2018

Tools Copyright (c) 1996-2017 Texas Instruments Incorporated
C:\Users\Stryd\AppData\Local\Temp\{F707AED4-2B3E-4DAD-8386-DB17F4B4B9A2} PAGE    2

      56                            .dwattr $C$DW$8, DW_AT_type(*$C$DW$T$208)
      57                            .dwattr $C$DW$8, DW_AT_declaration
      58                            .dwattr $C$DW$8, DW_AT_external
      59                            .dwattr $C$DW$8, DW_AT_decl_file("C:/ti/simplelink_cc13x0_sdk_2_30_00_20/source/ti/drivers/dpl
      60                            .dwattr $C$DW$8, DW_AT_decl_line(0xd1)
      61                            .dwattr $C$DW$8, DW_AT_decl_column(0x12)
      62                            .dwendtag $C$DW$8
      63                    
      64                    
      65                    $C$DW$9 .dwtag  DW_TAG_subprogram
      66                            .dwattr $C$DW$9, DW_AT_name("HwiP_restore")
      67                            .dwattr $C$DW$9, DW_AT_TI_symbol_name("HwiP_restore")
      68                            .dwattr $C$DW$9, DW_AT_declaration
      69                            .dwattr $C$DW$9, DW_AT_external
      70                            .dwattr $C$DW$9, DW_AT_decl_file("C:/ti/simplelink_cc13x0_sdk_2_30_00_20/source/ti/drivers/dpl
      71                            .dwattr $C$DW$9, DW_AT_decl_line(0x10f)
      72                            .dwattr $C$DW$9, DW_AT_decl_column(0x0d)
      73                    $C$DW$10        .dwtag  DW_TAG_formal_parameter
      74                            .dwattr $C$DW$10, DW_AT_type(*$C$DW$T$208)
      75                    
      76                            .dwendtag $C$DW$9
      77                    
      78 00000000                   .sect   ".data:$O1$$", RW
      79                            .align  4
      80                            .elfsym ||$O1$$||,SYM_SIZE(28)
      81 00000000           ||$O1$$||:
      82 00000000 00000000          .bits   0,32
      83 00000004 80C00801          .bits   -2134898687,32                  ; $O1$$.gpioPinTable[0] @ 32
      84 00000008 80C0081E          .bits   -2134898658,32                  ; $O1$$.gpioPinTable[1] @ 64
      85 0000000c 000000FE          .bits   254,32                  ; $O1$$.gpioPinTable[2] @ 96
      86 00000010                   .space  12
      87                    
      88                    
      89                    ;*********************************************************************
      90                    ;* GROUPED GLOBALS FOR $O1$$                                         *
      91                    ;*********************************************************************
      92          00000000! gpioPinHandle:  .set    ||$O1$$||+0
      93                    $C$DW$11        .dwtag  DW_TAG_variable
      94                            .dwattr $C$DW$11, DW_AT_name("gpioPinHandle")
      95                            .dwattr $C$DW$11, DW_AT_TI_symbol_name("gpioPinHandle")
      96                            .dwattr $C$DW$11, DW_AT_type(*$C$DW$T$216)
      97                            .dwattr $C$DW$11, DW_AT_location[DW_OP_addr gpioPinHandle]
      98                            .dwattr $C$DW$11, DW_AT_decl_file("../Application/LaunchPad/board_gpio.c")
      99                            .dwattr $C$DW$11, DW_AT_decl_line(0x68)
     100                            .dwattr $C$DW$11, DW_AT_decl_column(0x13)
     101                    
     102          00000004! gpioPinTable:   .set    ||$O1$$||+4
     103                    $C$DW$12        .dwtag  DW_TAG_variable
     104                            .dwattr $C$DW$12, DW_AT_name("gpioPinTable")
     105                            .dwattr $C$DW$12, DW_AT_TI_symbol_name("gpioPinTable")
     106                            .dwattr $C$DW$12, DW_AT_type(*$C$DW$T$1089)
     107                            .dwattr $C$DW$12, DW_AT_location[DW_OP_addr gpioPinTable]
     108                            .dwattr $C$DW$12, DW_AT_decl_file("../Application/LaunchPad/board_gpio.c")
     109                            .dwattr $C$DW$12, DW_AT_decl_line(0x50)
     110                            .dwattr $C$DW$12, DW_AT_decl_column(0x13)
TI ARM Assembler PC v16.9.9 Sun Nov 25 17:19:51 2018

Tools Copyright (c) 1996-2017 Texas Instruments Incorporated
C:\Users\Stryd\AppData\Local\Temp\{F707AED4-2B3E-4DAD-8386-DB17F4B4B9A2} PAGE    3

     111                    
     112          00000010! gpioPinState:   .set    ||$O1$$||+16
     113                    $C$DW$13        .dwtag  DW_TAG_variable
     114                            .dwattr $C$DW$13, DW_AT_name("gpioPinState")
     115                            .dwattr $C$DW$13, DW_AT_TI_symbol_name("gpioPinState")
     116                            .dwattr $C$DW$13, DW_AT_type(*$C$DW$T$214)
     117                            .dwattr $C$DW$13, DW_AT_location[DW_OP_addr gpioPinState]
     118                            .dwattr $C$DW$13, DW_AT_decl_file("../Application/LaunchPad/board_gpio.c")
     119                            .dwattr $C$DW$13, DW_AT_decl_line(0x65)
     120                            .dwattr $C$DW$13, DW_AT_decl_column(0x12)
     121                    
     122                    ;       C:\ti\ccsv7\tools\compiler\ti-cgt-arm_16.9.9.LTS\bin\armopt.exe C:/CCSWorkspace/ECG603/sensor_
     123 00000000                   .sect   ".text:Board_Gpio_initialize"
     124                            .clink
     125                            .thumbfunc Board_Gpio_initialize
     126 00000000                   .thumb
     127                            .global Board_Gpio_initialize
     128                    
     129                    $C$DW$14        .dwtag  DW_TAG_subprogram
     130                            .dwattr $C$DW$14, DW_AT_name("Board_Gpio_initialize")
     131                            .dwattr $C$DW$14, DW_AT_low_pc(Board_Gpio_initialize)
     132                            .dwattr $C$DW$14, DW_AT_high_pc(0x00)
     133                            .dwattr $C$DW$14, DW_AT_TI_symbol_name("Board_Gpio_initialize")
     134                            .dwattr $C$DW$14, DW_AT_external
     135                            .dwattr $C$DW$14, DW_AT_TI_begin_file("../Application/LaunchPad/board_gpio.c")
     136                            .dwattr $C$DW$14, DW_AT_TI_begin_line(0x77)
     137                            .dwattr $C$DW$14, DW_AT_TI_begin_column(0x06)
     138                            .dwattr $C$DW$14, DW_AT_decl_file("../Application/LaunchPad/board_gpio.c")
     139                            .dwattr $C$DW$14, DW_AT_decl_line(0x77)
     140                            .dwattr $C$DW$14, DW_AT_decl_column(0x06)
     141                            .dwattr $C$DW$14, DW_AT_TI_max_frame_size(0x08)
     142                            .dwpsn  file "../Application/LaunchPad/board_gpio.c",line 120,column 1,is_stmt,address Board_G
     143                    
     144                            .dwfde $C$DW$CIE, Board_Gpio_initialize
     145                    
     146                    ;*****************************************************************************
     147                    ;* FUNCTION NAME: Board_Gpio_initialize                                      *
     148                    ;*                                                                           *
     149                    ;*   Regs Modified     : A1,A2,A3,A4,V1,V9,SP,LR,SR                          *
     150                    ;*   Regs Used         : A1,A2,A3,A4,V1,V9,SP,LR,SR                          *
     151                    ;*   Local Frame Size  : 0 Args + 0 Auto + 8 Save = 8 byte                   *
     152                    ;*****************************************************************************
     153 00000000           Board_Gpio_initialize:
     154                    ;* --------------------------------------------------------------------------*
     155                    ;* V1    assigned to $O$C1
     156                            .dwcfi  cfa_offset, 0
     157 00000000 B510              PUSH      {V1, LR}              ; [DPU_3_PIPE]  ; [ORIG 16-BIT INS]
     158                            .dwcfi  cfa_offset, 8
     159                            .dwcfi  save_reg_to_mem, 14, -4
     160                            .dwcfi  save_reg_to_mem, 4, -8
     161                            .dwpsn  file "../Application/LaunchPad/board_gpio.c",line 122,column 5,is_stmt,isa 1
     162 00000002 4C04              LDR       V1, $C$CON1           ; [DPU_3_PIPE] |122|  ; [ORIG 16-BIT INS]
     163 00000004 0010F104          ADD       A1, V1, #16           ; [DPU_3_PIPE]  ; [KEEP 32-BIT INS]
     164 00000008 1D21              ADDS      A2, V1, #4            ; [DPU_3_PIPE]  ; [ORIG 16-BIT INS]
     165                    $C$DW$15        .dwtag  DW_TAG_TI_branch
TI ARM Assembler PC v16.9.9 Sun Nov 25 17:19:51 2018

Tools Copyright (c) 1996-2017 Texas Instruments Incorporated
C:\Users\Stryd\AppData\Local\Temp\{F707AED4-2B3E-4DAD-8386-DB17F4B4B9A2} PAGE    4

     166                            .dwattr $C$DW$15, DW_AT_low_pc(0x00)
     167                            .dwattr $C$DW$15, DW_AT_name("PIN_open")
     168                            .dwattr $C$DW$15, DW_AT_TI_call
     169                    
     170 0000000a FFFEF7FF!         BL        PIN_open              ; [DPU_3_PIPE] |122|  ; [KEEP 32-BIT INS]
     171                            ; CALL OCCURS {PIN_open }        ; [] |122| 
     172 0000000e 6020              STR       A1, [V1, #0]          ; [DPU_3_PIPE] |122|  ; [ORIG 16-BIT INS]
     173                    $C$DW$16        .dwtag  DW_TAG_TI_branch
     174                            .dwattr $C$DW$16, DW_AT_low_pc(0x00)
     175                            .dwattr $C$DW$16, DW_AT_TI_return
     176                    
     177 00000010 BD10              POP       {V1, PC}              ; [DPU_3_PIPE]  ; [ORIG 16-BIT INS]
     178                            .dwcfi  cfa_offset, 0
     179                            .dwcfi  restore_reg, 4
     180                            ; BRANCH OCCURS                  ; [] 
     181                            .dwattr $C$DW$14, DW_AT_TI_end_file("../Application/LaunchPad/board_gpio.c")
     182                            .dwattr $C$DW$14, DW_AT_TI_end_line(0x7b)
     183                            .dwattr $C$DW$14, DW_AT_TI_end_column(0x01)
     184                            .dwendentry
     185                            .dwendtag $C$DW$14
     186                    
     187 00000000                   .sect   ".text:Board_Gpio_control"
     188                            .clink
     189                            .thumbfunc Board_Gpio_control
     190 00000000                   .thumb
     191                            .global Board_Gpio_control
     192                    
     193                    $C$DW$17        .dwtag  DW_TAG_subprogram
     194                            .dwattr $C$DW$17, DW_AT_name("Board_Gpio_control")
     195                            .dwattr $C$DW$17, DW_AT_low_pc(Board_Gpio_control)
     196                            .dwattr $C$DW$17, DW_AT_high_pc(0x00)
     197                            .dwattr $C$DW$17, DW_AT_TI_symbol_name("Board_Gpio_control")
     198                            .dwattr $C$DW$17, DW_AT_external
     199                            .dwattr $C$DW$17, DW_AT_TI_begin_file("../Application/LaunchPad/board_gpio.c")
     200                            .dwattr $C$DW$17, DW_AT_TI_begin_line(0x82)
     201                            .dwattr $C$DW$17, DW_AT_TI_begin_column(0x06)
     202                            .dwattr $C$DW$17, DW_AT_decl_file("../Application/LaunchPad/board_gpio.c")
     203                            .dwattr $C$DW$17, DW_AT_decl_line(0x82)
     204                            .dwattr $C$DW$17, DW_AT_decl_column(0x06)
     205                            .dwattr $C$DW$17, DW_AT_TI_max_frame_size(0x10)
     206                            .dwpsn  file "../Application/LaunchPad/board_gpio.c",line 131,column 1,is_stmt,address Board_G
     207                    
     208                            .dwfde $C$DW$CIE, Board_Gpio_control
     209                    $C$DW$18        .dwtag  DW_TAG_formal_parameter
     210                            .dwattr $C$DW$18, DW_AT_name("gpio")
     211                            .dwattr $C$DW$18, DW_AT_TI_symbol_name("gpio")
     212                            .dwattr $C$DW$18, DW_AT_type(*$C$DW$T$10)
     213                            .dwattr $C$DW$18, DW_AT_location[DW_OP_reg0]
     214                    
     215                    $C$DW$19        .dwtag  DW_TAG_formal_parameter
     216                            .dwattr $C$DW$19, DW_AT_name("value")
     217                            .dwattr $C$DW$19, DW_AT_TI_symbol_name("value")
     218                            .dwattr $C$DW$19, DW_AT_type(*$C$DW$T$137)
     219                            .dwattr $C$DW$19, DW_AT_location[DW_OP_reg1]
     220                    
TI ARM Assembler PC v16.9.9 Sun Nov 25 17:19:51 2018

Tools Copyright (c) 1996-2017 Texas Instruments Incorporated
C:\Users\Stryd\AppData\Local\Temp\{F707AED4-2B3E-4DAD-8386-DB17F4B4B9A2} PAGE    5

     221                    
     222                    ;*****************************************************************************
     223                    ;* FUNCTION NAME: Board_Gpio_control                                         *
     224                    ;*                                                                           *
     225                    ;*   Regs Modified     : A1,A2,A3,A4,V1,V2,V3,V9,SP,LR,SR                    *
     226                    ;*   Regs Used         : A1,A2,A3,A4,V1,V2,V3,V9,SP,LR,SR                    *
     227                    ;*   Local Frame Size  : 0 Args + 0 Auto + 16 Save = 16 byte                 *
     228                    ;*****************************************************************************
     229                    Board_Gpio_control:
     230                    ;* --------------------------------------------------------------------------*
     231                    ;* V1    assigned to $O$C1
     232                    ;* V3    assigned to key
     233                    $C$DW$20        .dwtag  DW_TAG_variable
     234                            .dwattr $C$DW$20, DW_AT_name("key")
     235                            .dwattr $C$DW$20, DW_AT_TI_symbol_name("key")
     236                            .dwattr $C$DW$20, DW_AT_type(*$C$DW$T$137)
     237                            .dwattr $C$DW$20, DW_AT_location[DW_OP_reg6]
     238                    
     239                    ;* V1    assigned to $O$K4
     240                    ;* A1    assigned to gpio
     241                    $C$DW$21        .dwtag  DW_TAG_variable
     242                            .dwattr $C$DW$21, DW_AT_name("gpio")
     243                            .dwattr $C$DW$21, DW_AT_TI_symbol_name("gpio")
     244                            .dwattr $C$DW$21, DW_AT_type(*$C$DW$T$679)
     245                            .dwattr $C$DW$21, DW_AT_location[DW_OP_reg0]
     246                    
     247                    ;* V2    assigned to value
     248                    $C$DW$22        .dwtag  DW_TAG_variable
     249                            .dwattr $C$DW$22, DW_AT_name("value")
     250                            .dwattr $C$DW$22, DW_AT_TI_symbol_name("value")
     251                            .dwattr $C$DW$22, DW_AT_type(*$C$DW$T$1090)
     252                            .dwattr $C$DW$22, DW_AT_location[DW_OP_reg5]
     253                    
     254                            .dwcfi  cfa_offset, 0
     255 00000000 B570              PUSH      {V1, V2, V3, LR}      ; [DPU_3_PIPE]  ; [ORIG 16-BIT INS]
     256                            .dwcfi  cfa_offset, 16
     257                            .dwcfi  save_reg_to_mem, 14, -4
     258                            .dwcfi  save_reg_to_mem, 6, -8
     259                            .dwcfi  save_reg_to_mem, 5, -12
     260                            .dwcfi  save_reg_to_mem, 4, -16
     261                            .dwpsn  file "../Application/LaunchPad/board_gpio.c",line 136,column 5,is_stmt,isa 1
     262 00000002 4C0B              LDR       V1, $C$CON5           ; [DPU_3_PIPE] |136|  ; [ORIG 16-BIT INS]
     263                            .dwpsn  file "../Application/LaunchPad/board_gpio.c",line 131,column 1,is_stmt,isa 1
     264 00000004 460D              MOV       V2, A2                ; [DPU_3_PIPE] |131|  ; [ORIG 16-BIT INS]
     265                            .dwpsn  file "../Application/LaunchPad/board_gpio.c",line 136,column 5,is_stmt,isa 1
     266 00000006 6821              LDR       A2, [V1, #0]          ; [DPU_3_PIPE] |136|  ; [ORIG 16-BIT INS]
     267 00000008 B189              CBZ       A2, ||$C$L3||         ; []  ; [ORIG 16-BIT INS]
     268                            ; BRANCHCC OCCURS {||$C$L3||}    ; [] |136| 
     269                    ;* --------------------------------------------------------------------------*
     270 0000000a B128              CBZ       A1, ||$C$L1||         ; []  ; [ORIG 16-BIT INS]
     271                            .dwpsn  file "../Application/LaunchPad/board_gpio.c",line 142,column 5,is_stmt,isa 1
     272                            ; BRANCHCC OCCURS {||$C$L1||}    ; [] |142| 
     273                    ;* --------------------------------------------------------------------------*
     274                            .dwpsn  file "../Application/LaunchPad/board_gpio.c",line 152,column 5,is_stmt,isa 1
     275 0000000c 2801              CMP       A1, #1                ; [DPU_3_PIPE] |152|  ; [ORIG 16-BIT INS]
TI ARM Assembler PC v16.9.9 Sun Nov 25 17:19:51 2018

Tools Copyright (c) 1996-2017 Texas Instruments Incorporated
C:\Users\Stryd\AppData\Local\Temp\{F707AED4-2B3E-4DAD-8386-DB17F4B4B9A2} PAGE    6

     276 0000000e D10E              BNE       ||$C$L3||             ; [DPU_3_PIPE] |152|  ; [ORIG 16-BIT INS]
     277                            ; BRANCHCC OCCURS {||$C$L3||}    ; [] |152| 
     278                    ;* --------------------------------------------------------------------------*
     279                            .dwpsn  file "../Application/LaunchPad/board_gpio.c",line 154,column 9,is_stmt,isa 1
     280                    $C$DW$23        .dwtag  DW_TAG_TI_branch
     281                            .dwattr $C$DW$23, DW_AT_low_pc(0x00)
     282                            .dwattr $C$DW$23, DW_AT_name("HwiP_disable")
     283                            .dwattr $C$DW$23, DW_AT_TI_call
     284                    
     285 00000010 FFFEF7FF!         BL        HwiP_disable          ; [DPU_3_PIPE] |154|  ; [KEEP 32-BIT INS]
     286                            ; CALL OCCURS {HwiP_disable }    ; [] |154| 
     287                            .dwpsn  file "../Application/LaunchPad/board_gpio.c",line 155,column 9,is_stmt,isa 1
     288 00000014 211E              MOVS      A2, #30               ; [DPU_3_PIPE] |155|  ; [ORIG 16-BIT INS]
     289                            .dwpsn  file "../Application/LaunchPad/board_gpio.c",line 157,column 9,is_stmt,isa 1
     290 00000016 E002              B         ||$C$L2||             ; [DPU_3_PIPE] |157|  ; [ORIG 16-BIT INS]
     291                            ; BRANCH OCCURS {||$C$L2||}      ; [] |157| 
     292                    ;* --------------------------------------------------------------------------*
     293 00000018           ||$C$L1||:    
     294                            .dwpsn  file "../Application/LaunchPad/board_gpio.c",line 144,column 9,is_stmt,isa 1
     295                    $C$DW$24        .dwtag  DW_TAG_TI_branch
     296                            .dwattr $C$DW$24, DW_AT_low_pc(0x00)
     297                            .dwattr $C$DW$24, DW_AT_name("HwiP_disable")
     298                            .dwattr $C$DW$24, DW_AT_TI_call
     299                    
     300 00000018 FFFEF7FF!         BL        HwiP_disable          ; [DPU_3_PIPE] |144|  ; [KEEP 32-BIT INS]
     301                            ; CALL OCCURS {HwiP_disable }    ; [] |144| 
     302                            .dwpsn  file "../Application/LaunchPad/board_gpio.c",line 145,column 9,is_stmt,isa 1
     303 0000001c 2101              MOVS      A2, #1                ; [DPU_3_PIPE] |145|  ; [ORIG 16-BIT INS]
     304                    ;* --------------------------------------------------------------------------*
     305 0000001e           ||$C$L2||:    
     306                            .dwpsn  file "../Application/LaunchPad/board_gpio.c",line 144,column 9,is_stmt,isa 1
     307 0000001e 4606              MOV       V3, A1                ; [DPU_3_PIPE] |144|  ; [ORIG 16-BIT INS]
     308                            .dwpsn  file "../Application/LaunchPad/board_gpio.c",line 145,column 9,is_stmt,isa 1
     309 00000020 6820              LDR       A1, [V1, #0]          ; [DPU_3_PIPE] |145|  ; [ORIG 16-BIT INS]
     310 00000022 462A              MOV       A3, V2                ; [DPU_3_PIPE] |145|  ; [ORIG 16-BIT INS]
     311                    $C$DW$25        .dwtag  DW_TAG_TI_branch
     312                            .dwattr $C$DW$25, DW_AT_low_pc(0x00)
     313                            .dwattr $C$DW$25, DW_AT_name("PIN_setOutputValue")
     314                            .dwattr $C$DW$25, DW_AT_TI_call
     315                    
     316 00000024 FFFEF7FF!         BL        PIN_setOutputValue    ; [DPU_3_PIPE] |145|  ; [KEEP 32-BIT INS]
     317                            ; CALL OCCURS {PIN_setOutputValue }  ; [] |145| 
     318                            .dwpsn  file "../Application/LaunchPad/board_gpio.c",line 146,column 9,is_stmt,isa 1
     319 00000028 4630              MOV       A1, V3                ; [DPU_3_PIPE] |146|  ; [ORIG 16-BIT INS]
     320                    $C$DW$26        .dwtag  DW_TAG_TI_branch
     321                            .dwattr $C$DW$26, DW_AT_low_pc(0x00)
     322                            .dwattr $C$DW$26, DW_AT_name("HwiP_restore")
     323                            .dwattr $C$DW$26, DW_AT_TI_call
     324                    
     325 0000002a FFFEF7FF!         BL        HwiP_restore          ; [DPU_3_PIPE] |146|  ; [KEEP 32-BIT INS]
     326                            ; CALL OCCURS {HwiP_restore }    ; [] |146| 
     327                    ;* --------------------------------------------------------------------------*
     328                    ||$C$L3||:    
     329                    $C$DW$27        .dwtag  DW_TAG_TI_branch
     330                            .dwattr $C$DW$27, DW_AT_low_pc(0x00)
TI ARM Assembler PC v16.9.9 Sun Nov 25 17:19:51 2018

Tools Copyright (c) 1996-2017 Texas Instruments Incorporated
C:\Users\Stryd\AppData\Local\Temp\{F707AED4-2B3E-4DAD-8386-DB17F4B4B9A2} PAGE    7

     331                            .dwattr $C$DW$27, DW_AT_TI_return
     332                    
     333 0000002e BD70              POP       {V1, V2, V3, PC}      ; [DPU_3_PIPE]  ; [ORIG 16-BIT INS]
     334                            .dwcfi  cfa_offset, 0
     335                            .dwcfi  restore_reg, 6
     336                            .dwcfi  restore_reg, 5
     337                            .dwcfi  restore_reg, 4
     338                            ; BRANCH OCCURS                  ; [] 
     339                            .dwattr $C$DW$17, DW_AT_TI_end_file("../Application/LaunchPad/board_gpio.c")
     340                            .dwattr $C$DW$17, DW_AT_TI_end_line(0xa3)
     341                            .dwattr $C$DW$17, DW_AT_TI_end_column(0x01)
     342                            .dwendentry
     343                            .dwendtag $C$DW$17
     344                    
     345                    ;******************************************************************************
     346                    ;* CONSTANT TABLE                                                             *
     347                    ;******************************************************************************
     348 00000012                   .sect   ".text:Board_Gpio_initialize"
     349                            .align  4
     350 00000012 000046C0! ||$C$CON1||:    .bits   ||$O1$$||,32
         00000016 00000000 
     351                    ;******************************************************************************
     352                    ;* CONSTANT TABLE                                                             *
     353                    ;******************************************************************************
     354 00000030                   .sect   ".text:Board_Gpio_control"
     355                            .align  4
     356 00000030 00000000! ||$C$CON5||:    .bits   ||$O1$$||,32
     357                    ;*****************************************************************************
     358                    ;* UNDEFINED EXTERNAL REFERENCES                                             *
     359                    ;*****************************************************************************
     360                            .global PIN_open
     361                            .global PIN_setOutputValue
     362                            .global HwiP_disable
     363                            .global HwiP_restore
     364                    
     365                    ;******************************************************************************
     366                    ;* BUILD ATTRIBUTES                                                           *
     367                    ;******************************************************************************
     368                            .battr "aeabi", Tag_File, 1, Tag_ABI_PCS_wchar_t(2)
     369                            .battr "aeabi", Tag_File, 1, Tag_ABI_FP_rounding(0)
     370                            .battr "aeabi", Tag_File, 1, Tag_ABI_FP_denormal(0)
     371                            .battr "aeabi", Tag_File, 1, Tag_ABI_FP_exceptions(0)
     372                            .battr "aeabi", Tag_File, 1, Tag_ABI_FP_number_model(1)
     373                            .battr "aeabi", Tag_File, 1, Tag_ABI_enum_size(1)
     374                            .battr "aeabi", Tag_File, 1, Tag_ABI_optimization_goals(0)
     375                            .battr "aeabi", Tag_File, 1, Tag_ABI_FP_optimization_goals(0)
     376                            .battr "TI", Tag_File, 1, Tag_Bitfield_layout(2)
     377                            .battr "aeabi", Tag_File, 1, Tag_ABI_VFP_args(3)
     378                            .battr "TI", Tag_File, 1, Tag_FP_interface(1)
     379                    
     380                    ;******************************************************************************
     381                    ;* TYPE INFORMATION                                                           *
     382                    ;******************************************************************************
     383                    
     384                    $C$DW$T$185     .dwtag  DW_TAG_enumeration_type
TI ARM Assembler PC v16.9.9 Sun Nov 25 17:19:51 2018

Tools Copyright (c) 1996-2017 Texas Instruments Incorporated
C:\Users\Stryd\AppData\Local\Temp\{F707AED4-2B3E-4DAD-8386-DB17F4B4B9A2} PAGE    8

     385                            .dwattr $C$DW$T$185, DW_AT_byte_size(0x01)
     386                    $C$DW$28        .dwtag  DW_TAG_enumerator
     387                            .dwattr $C$DW$28, DW_AT_name("ApiMac_addrType_none")
     388                            .dwattr $C$DW$28, DW_AT_const_value(0x00)
     389                            .dwattr $C$DW$28, DW_AT_decl_file("C:/CCSWorkspace/ECG603/sensor_cc1350lp/Application/api_mac.
     390                            .dwattr $C$DW$28, DW_AT_decl_line(0x1a9)
     391                            .dwattr $C$DW$28, DW_AT_decl_column(0x05)
     392                    
     393                    $C$DW$29        .dwtag  DW_TAG_enumerator
     394                            .dwattr $C$DW$29, DW_AT_name("ApiMac_addrType_short")
     395                            .dwattr $C$DW$29, DW_AT_const_value(0x02)
     396                            .dwattr $C$DW$29, DW_AT_decl_file("C:/CCSWorkspace/ECG603/sensor_cc1350lp/Application/api_mac.
     397                            .dwattr $C$DW$29, DW_AT_decl_line(0x1ab)
     398                            .dwattr $C$DW$29, DW_AT_decl_column(0x05)
     399                    
     400                    $C$DW$30        .dwtag  DW_TAG_enumerator
     401                            .dwattr $C$DW$30, DW_AT_name("ApiMac_addrType_extended")
     402                            .dwattr $C$DW$30, DW_AT_const_value(0x03)
     403                            .dwattr $C$DW$30, DW_AT_decl_file("C:/CCSWorkspace/ECG603/sensor_cc1350lp/Application/api_mac.
     404                            .dwattr $C$DW$30, DW_AT_decl_line(0x1ad)
     405                            .dwattr $C$DW$30, DW_AT_decl_column(0x05)
     406                    
     407                            .dwattr $C$DW$T$185, DW_AT_decl_file("C:/CCSWorkspace/ECG603/sensor_cc1350lp/Application/api_m
     408                            .dwattr $C$DW$T$185, DW_AT_decl_line(0x1a7)
     409                            .dwattr $C$DW$T$185, DW_AT_decl_column(0x01)
     410                            .dwendtag $C$DW$T$185
     411                    
     412                    $C$DW$T$186     .dwtag  DW_TAG_typedef
     413                            .dwattr $C$DW$T$186, DW_AT_name("ApiMac_addrType_t")
     414                            .dwattr $C$DW$T$186, DW_AT_type(*$C$DW$T$185)
     415                            .dwattr $C$DW$T$186, DW_AT_language(DW_LANG_C)
     416                            .dwattr $C$DW$T$186, DW_AT_decl_file("C:/CCSWorkspace/ECG603/sensor_cc1350lp/Application/api_m
     417                            .dwattr $C$DW$T$186, DW_AT_decl_line(0x1ae)
     418                            .dwattr $C$DW$T$186, DW_AT_decl_column(0x03)
     419                    
     420                    
     421                    $C$DW$T$189     .dwtag  DW_TAG_enumeration_type
     422                            .dwattr $C$DW$T$189, DW_AT_byte_size(0x01)
     423                    $C$DW$31        .dwtag  DW_TAG_enumerator
     424                            .dwattr $C$DW$31, DW_AT_name("ApiMac_beaconType_normal")
     425                            .dwattr $C$DW$31, DW_AT_const_value(0x00)
     426                            .dwattr $C$DW$31, DW_AT_decl_file("C:/CCSWorkspace/ECG603/sensor_cc1350lp/Application/api_mac.
     427                            .dwattr $C$DW$31, DW_AT_decl_line(0x1b4)
     428                            .dwattr $C$DW$31, DW_AT_decl_column(0x05)
     429                    
     430                    $C$DW$32        .dwtag  DW_TAG_enumerator
     431                            .dwattr $C$DW$32, DW_AT_name("ApiMac_beaconType_enhanced")
     432                            .dwattr $C$DW$32, DW_AT_const_value(0x01)
     433                            .dwattr $C$DW$32, DW_AT_decl_file("C:/CCSWorkspace/ECG603/sensor_cc1350lp/Application/api_mac.
     434                            .dwattr $C$DW$32, DW_AT_decl_line(0x1b6)
     435                            .dwattr $C$DW$32, DW_AT_decl_column(0x05)
     436                    
     437                            .dwattr $C$DW$T$189, DW_AT_decl_file("C:/CCSWorkspace/ECG603/sensor_cc1350lp/Application/api_m
     438                            .dwattr $C$DW$T$189, DW_AT_decl_line(0x1b2)
     439                            .dwattr $C$DW$T$189, DW_AT_decl_column(0x01)
TI ARM Assembler PC v16.9.9 Sun Nov 25 17:19:51 2018

Tools Copyright (c) 1996-2017 Texas Instruments Incorporated
C:\Users\Stryd\AppData\Local\Temp\{F707AED4-2B3E-4DAD-8386-DB17F4B4B9A2} PAGE    9

     440                            .dwendtag $C$DW$T$189
     441                    
     442                    $C$DW$T$190     .dwtag  DW_TAG_typedef
     443                            .dwattr $C$DW$T$190, DW_AT_name("ApiMac_beaconType_t")
     444                            .dwattr $C$DW$T$190, DW_AT_type(*$C$DW$T$189)
     445                            .dwattr $C$DW$T$190, DW_AT_language(DW_LANG_C)
     446                            .dwattr $C$DW$T$190, DW_AT_decl_file("C:/CCSWorkspace/ECG603/sensor_cc1350lp/Application/api_m
     447                            .dwattr $C$DW$T$190, DW_AT_decl_line(0x1b7)
     448                            .dwattr $C$DW$T$190, DW_AT_decl_column(0x03)
     449                    
     450                    
     451                    $C$DW$T$334     .dwtag  DW_TAG_enumeration_type
     452                            .dwattr $C$DW$T$334, DW_AT_byte_size(0x01)
     453                    $C$DW$33        .dwtag  DW_TAG_enumerator
     454                            .dwattr $C$DW$33, DW_AT_name("ApiMac_status_success")
     455                            .dwattr $C$DW$33, DW_AT_const_value(0x00)
     456                            .dwattr $C$DW$33, DW_AT_decl_file("C:/CCSWorkspace/ECG603/sensor_cc1350lp/Application/api_mac.
     457                            .dwattr $C$DW$33, DW_AT_decl_line(0x1d7)
     458                            .dwattr $C$DW$33, DW_AT_decl_column(0x05)
     459                    
     460                    $C$DW$34        .dwtag  DW_TAG_enumerator
     461                            .dwattr $C$DW$34, DW_AT_name("ApiMac_status_subSystemError")
     462                            .dwattr $C$DW$34, DW_AT_const_value(0x25)
     463                            .dwattr $C$DW$34, DW_AT_decl_file("C:/CCSWorkspace/ECG603/sensor_cc1350lp/Application/api_mac.
     464                            .dwattr $C$DW$34, DW_AT_decl_line(0x1d9)
     465                            .dwattr $C$DW$34, DW_AT_decl_column(0x05)
     466                    
     467                    $C$DW$35        .dwtag  DW_TAG_enumerator
     468                            .dwattr $C$DW$35, DW_AT_name("ApiMac_status_commandIDError")
     469                            .dwattr $C$DW$35, DW_AT_const_value(0x26)
     470                            .dwattr $C$DW$35, DW_AT_decl_file("C:/CCSWorkspace/ECG603/sensor_cc1350lp/Application/api_mac.
     471                            .dwattr $C$DW$35, DW_AT_decl_line(0x1db)
     472                            .dwattr $C$DW$35, DW_AT_decl_column(0x05)
     473                    
     474                    $C$DW$36        .dwtag  DW_TAG_enumerator
     475                            .dwattr $C$DW$36, DW_AT_name("ApiMac_status_lengthError")
     476                            .dwattr $C$DW$36, DW_AT_const_value(0x27)
     477                            .dwattr $C$DW$36, DW_AT_decl_file("C:/CCSWorkspace/ECG603/sensor_cc1350lp/Application/api_mac.
     478                            .dwattr $C$DW$36, DW_AT_decl_line(0x1dd)
     479                            .dwattr $C$DW$36, DW_AT_decl_column(0x05)
     480                    
     481                    $C$DW$37        .dwtag  DW_TAG_enumerator
     482                            .dwattr $C$DW$37, DW_AT_name("ApiMac_status_unsupportedType")
     483                            .dwattr $C$DW$37, DW_AT_const_value(0x28)
     484                            .dwattr $C$DW$37, DW_AT_decl_file("C:/CCSWorkspace/ECG603/sensor_cc1350lp/Application/api_mac.
     485                            .dwattr $C$DW$37, DW_AT_decl_line(0x1df)
     486                            .dwattr $C$DW$37, DW_AT_decl_column(0x05)
     487                    
     488                    $C$DW$38        .dwtag  DW_TAG_enumerator
     489                            .dwattr $C$DW$38, DW_AT_name("ApiMac_status_autoAckPendingAllOn")
     490                            .dwattr $C$DW$38, DW_AT_const_value(0xfe)
     491                            .dwattr $C$DW$38, DW_AT_decl_file("C:/CCSWorkspace/ECG603/sensor_cc1350lp/Application/api_mac.
     492                            .dwattr $C$DW$38, DW_AT_decl_line(0x1e1)
     493                            .dwattr $C$DW$38, DW_AT_decl_column(0x05)
     494                    
TI ARM Assembler PC v16.9.9 Sun Nov 25 17:19:51 2018

Tools Copyright (c) 1996-2017 Texas Instruments Incorporated
C:\Users\Stryd\AppData\Local\Temp\{F707AED4-2B3E-4DAD-8386-DB17F4B4B9A2} PAGE   10

     495                    $C$DW$39        .dwtag  DW_TAG_enumerator
     496                            .dwattr $C$DW$39, DW_AT_name("ApiMac_status_autoAckPendingAllOff")
     497                            .dwattr $C$DW$39, DW_AT_const_value(0xff)
     498                            .dwattr $C$DW$39, DW_AT_decl_file("C:/CCSWorkspace/ECG603/sensor_cc1350lp/Application/api_mac.
     499                            .dwattr $C$DW$39, DW_AT_decl_line(0x1e3)
     500                            .dwattr $C$DW$39, DW_AT_decl_column(0x05)
     501                    
     502                    $C$DW$40        .dwtag  DW_TAG_enumerator
     503                            .dwattr $C$DW$40, DW_AT_name("ApiMac_status_beaconLoss")
     504                            .dwattr $C$DW$40, DW_AT_const_value(0xe0)
     505                            .dwattr $C$DW$40, DW_AT_decl_file("C:/CCSWorkspace/ECG603/sensor_cc1350lp/Application/api_mac.
     506                            .dwattr $C$DW$40, DW_AT_decl_line(0x1e5)
     507                            .dwattr $C$DW$40, DW_AT_decl_column(0x05)
     508                    
     509                    $C$DW$41        .dwtag  DW_TAG_enumerator
     510                            .dwattr $C$DW$41, DW_AT_name("ApiMac_status_channelAccessFailure")
     511                            .dwattr $C$DW$41, DW_AT_const_value(0xe1)
     512                            .dwattr $C$DW$41, DW_AT_decl_file("C:/CCSWorkspace/ECG603/sensor_cc1350lp/Application/api_mac.
     513                            .dwattr $C$DW$41, DW_AT_decl_line(0x1e9)
     514                            .dwattr $C$DW$41, DW_AT_decl_column(0x05)
     515                    
     516                    $C$DW$42        .dwtag  DW_TAG_enumerator
     517                            .dwattr $C$DW$42, DW_AT_name("ApiMac_status_counterError")
     518                            .dwattr $C$DW$42, DW_AT_const_value(0xdb)
     519                            .dwattr $C$DW$42, DW_AT_decl_file("C:/CCSWorkspace/ECG603/sensor_cc1350lp/Application/api_mac.
     520                            .dwattr $C$DW$42, DW_AT_decl_line(0x1ee)
     521                            .dwattr $C$DW$42, DW_AT_decl_column(0x05)
     522                    
     523                    $C$DW$43        .dwtag  DW_TAG_enumerator
     524                            .dwattr $C$DW$43, DW_AT_name("ApiMac_status_denied")
     525                            .dwattr $C$DW$43, DW_AT_const_value(0xe2)
     526                            .dwattr $C$DW$43, DW_AT_decl_file("C:/CCSWorkspace/ECG603/sensor_cc1350lp/Application/api_mac.
     527                            .dwattr $C$DW$43, DW_AT_decl_line(0x1f0)
     528                            .dwattr $C$DW$43, DW_AT_decl_column(0x05)
     529                    
     530                    $C$DW$44        .dwtag  DW_TAG_enumerator
     531                            .dwattr $C$DW$44, DW_AT_name("ApiMac_status_disabledTrxFailure")
     532                            .dwattr $C$DW$44, DW_AT_const_value(0xe3)
     533                            .dwattr $C$DW$44, DW_AT_decl_file("C:/CCSWorkspace/ECG603/sensor_cc1350lp/Application/api_mac.
     534                            .dwattr $C$DW$44, DW_AT_decl_line(0x1f2)
     535                            .dwattr $C$DW$44, DW_AT_decl_column(0x05)
     536                    
     537                    $C$DW$45        .dwtag  DW_TAG_enumerator
     538                            .dwattr $C$DW$45, DW_AT_name("ApiMac_status_frameTooLong")
     539                            .dwattr $C$DW$45, DW_AT_const_value(0xe5)
     540                            .dwattr $C$DW$45, DW_AT_decl_file("C:/CCSWorkspace/ECG603/sensor_cc1350lp/Application/api_mac.
     541                            .dwattr $C$DW$45, DW_AT_decl_line(0x1f7)
     542                            .dwattr $C$DW$45, DW_AT_decl_column(0x05)
     543                    
     544                    $C$DW$46        .dwtag  DW_TAG_enumerator
     545                            .dwattr $C$DW$46, DW_AT_name("ApiMac_status_improperKeyType")
     546                            .dwattr $C$DW$46, DW_AT_const_value(0xdc)
     547                            .dwattr $C$DW$46, DW_AT_decl_file("C:/CCSWorkspace/ECG603/sensor_cc1350lp/Application/api_mac.
     548                            .dwattr $C$DW$46, DW_AT_decl_line(0x1fc)
     549                            .dwattr $C$DW$46, DW_AT_decl_column(0x05)
TI ARM Assembler PC v16.9.9 Sun Nov 25 17:19:51 2018

Tools Copyright (c) 1996-2017 Texas Instruments Incorporated
C:\Users\Stryd\AppData\Local\Temp\{F707AED4-2B3E-4DAD-8386-DB17F4B4B9A2} PAGE   11

     550                    
     551                    $C$DW$47        .dwtag  DW_TAG_enumerator
     552                            .dwattr $C$DW$47, DW_AT_name("ApiMac_status_improperSecurityLevel")
     553                            .dwattr $C$DW$47, DW_AT_const_value(0xdd)
     554                            .dwattr $C$DW$47, DW_AT_decl_file("C:/CCSWorkspace/ECG603/sensor_cc1350lp/Application/api_mac.
     555                            .dwattr $C$DW$47, DW_AT_decl_line(0x201)
     556                            .dwattr $C$DW$47, DW_AT_decl_column(0x05)
     557                    
     558                    $C$DW$48        .dwtag  DW_TAG_enumerator
     559                            .dwattr $C$DW$48, DW_AT_name("ApiMac_status_invalidAddress")
     560                            .dwattr $C$DW$48, DW_AT_const_value(0xf5)
     561                            .dwattr $C$DW$48, DW_AT_decl_file("C:/CCSWorkspace/ECG603/sensor_cc1350lp/Application/api_mac.
     562                            .dwattr $C$DW$48, DW_AT_decl_line(0x206)
     563                            .dwattr $C$DW$48, DW_AT_decl_column(0x05)
     564                    
     565                    $C$DW$49        .dwtag  DW_TAG_enumerator
     566                            .dwattr $C$DW$49, DW_AT_name("ApiMac_status_invalidGts")
     567                            .dwattr $C$DW$49, DW_AT_const_value(0xe6)
     568                            .dwattr $C$DW$49, DW_AT_decl_file("C:/CCSWorkspace/ECG603/sensor_cc1350lp/Application/api_mac.
     569                            .dwattr $C$DW$49, DW_AT_decl_line(0x208)
     570                            .dwattr $C$DW$49, DW_AT_decl_column(0x05)
     571                    
     572                    $C$DW$50        .dwtag  DW_TAG_enumerator
     573                            .dwattr $C$DW$50, DW_AT_name("ApiMac_status_invalidHandle")
     574                            .dwattr $C$DW$50, DW_AT_const_value(0xe7)
     575                            .dwattr $C$DW$50, DW_AT_decl_file("C:/CCSWorkspace/ECG603/sensor_cc1350lp/Application/api_mac.
     576                            .dwattr $C$DW$50, DW_AT_decl_line(0x20a)
     577                            .dwattr $C$DW$50, DW_AT_decl_column(0x05)
     578                    
     579                    $C$DW$51        .dwtag  DW_TAG_enumerator
     580                            .dwattr $C$DW$51, DW_AT_name("ApiMac_status_invalidIndex")
     581                            .dwattr $C$DW$51, DW_AT_const_value(0xf9)
     582                            .dwattr $C$DW$51, DW_AT_decl_file("C:/CCSWorkspace/ECG603/sensor_cc1350lp/Application/api_mac.
     583                            .dwattr $C$DW$51, DW_AT_decl_line(0x20c)
     584                            .dwattr $C$DW$51, DW_AT_decl_column(0x05)
     585                    
     586                    $C$DW$52        .dwtag  DW_TAG_enumerator
     587                            .dwattr $C$DW$52, DW_AT_name("ApiMac_status_invalidParameter")
     588                            .dwattr $C$DW$52, DW_AT_const_value(0xe8)
     589                            .dwattr $C$DW$52, DW_AT_decl_file("C:/CCSWorkspace/ECG603/sensor_cc1350lp/Application/api_mac.
     590                            .dwattr $C$DW$52, DW_AT_decl_line(0x20e)
     591                            .dwattr $C$DW$52, DW_AT_decl_column(0x05)
     592                    
     593                    $C$DW$53        .dwtag  DW_TAG_enumerator
     594                            .dwattr $C$DW$53, DW_AT_name("ApiMac_status_limitReached")
     595                            .dwattr $C$DW$53, DW_AT_const_value(0xfa)
     596                            .dwattr $C$DW$53, DW_AT_decl_file("C:/CCSWorkspace/ECG603/sensor_cc1350lp/Application/api_mac.
     597                            .dwattr $C$DW$53, DW_AT_decl_line(0x213)
     598                            .dwattr $C$DW$53, DW_AT_decl_column(0x05)
     599                    
     600                    $C$DW$54        .dwtag  DW_TAG_enumerator
     601                            .dwattr $C$DW$54, DW_AT_name("ApiMac_status_noAck")
     602                            .dwattr $C$DW$54, DW_AT_const_value(0xe9)
     603                            .dwattr $C$DW$54, DW_AT_decl_file("C:/CCSWorkspace/ECG603/sensor_cc1350lp/Application/api_mac.
     604                            .dwattr $C$DW$54, DW_AT_decl_line(0x218)
TI ARM Assembler PC v16.9.9 Sun Nov 25 17:19:51 2018

Tools Copyright (c) 1996-2017 Texas Instruments Incorporated
C:\Users\Stryd\AppData\Local\Temp\{F707AED4-2B3E-4DAD-8386-DB17F4B4B9A2} PAGE   12

     605                            .dwattr $C$DW$54, DW_AT_decl_column(0x05)
     606                    
     607                    $C$DW$55        .dwtag  DW_TAG_enumerator
     608                            .dwattr $C$DW$55, DW_AT_name("ApiMac_status_noBeacon")
     609                            .dwattr $C$DW$55, DW_AT_const_value(0xea)
     610                            .dwattr $C$DW$55, DW_AT_decl_file("C:/CCSWorkspace/ECG603/sensor_cc1350lp/Application/api_mac.
     611                            .dwattr $C$DW$55, DW_AT_decl_line(0x21d)
     612                            .dwattr $C$DW$55, DW_AT_decl_column(0x05)
     613                    
     614                    $C$DW$56        .dwtag  DW_TAG_enumerator
     615                            .dwattr $C$DW$56, DW_AT_name("ApiMac_status_noData")
     616                            .dwattr $C$DW$56, DW_AT_const_value(0xeb)
     617                            .dwattr $C$DW$56, DW_AT_decl_file("C:/CCSWorkspace/ECG603/sensor_cc1350lp/Application/api_mac.
     618                            .dwattr $C$DW$56, DW_AT_decl_line(0x222)
     619                            .dwattr $C$DW$56, DW_AT_decl_column(0x05)
     620                    
     621                    $C$DW$57        .dwtag  DW_TAG_enumerator
     622                            .dwattr $C$DW$57, DW_AT_name("ApiMac_status_noShortAddress")
     623                            .dwattr $C$DW$57, DW_AT_const_value(0xec)
     624                            .dwattr $C$DW$57, DW_AT_decl_file("C:/CCSWorkspace/ECG603/sensor_cc1350lp/Application/api_mac.
     625                            .dwattr $C$DW$57, DW_AT_decl_line(0x224)
     626                            .dwattr $C$DW$57, DW_AT_decl_column(0x05)
     627                    
     628                    $C$DW$58        .dwtag  DW_TAG_enumerator
     629                            .dwattr $C$DW$58, DW_AT_name("ApiMac_status_onTimeTooLong")
     630                            .dwattr $C$DW$58, DW_AT_const_value(0xf6)
     631                            .dwattr $C$DW$58, DW_AT_decl_file("C:/CCSWorkspace/ECG603/sensor_cc1350lp/Application/api_mac.
     632                            .dwattr $C$DW$58, DW_AT_decl_line(0x226)
     633                            .dwattr $C$DW$58, DW_AT_decl_column(0x05)
     634                    
     635                    $C$DW$59        .dwtag  DW_TAG_enumerator
     636                            .dwattr $C$DW$59, DW_AT_name("ApiMac_status_outOfCap")
     637                            .dwattr $C$DW$59, DW_AT_const_value(0xed)
     638                            .dwattr $C$DW$59, DW_AT_decl_file("C:/CCSWorkspace/ECG603/sensor_cc1350lp/Application/api_mac.
     639                            .dwattr $C$DW$59, DW_AT_decl_line(0x228)
     640                            .dwattr $C$DW$59, DW_AT_decl_column(0x05)
     641                    
     642                    $C$DW$60        .dwtag  DW_TAG_enumerator
     643                            .dwattr $C$DW$60, DW_AT_name("ApiMac_status_panIdConflict")
     644                            .dwattr $C$DW$60, DW_AT_const_value(0xee)
     645                            .dwattr $C$DW$60, DW_AT_decl_file("C:/CCSWorkspace/ECG603/sensor_cc1350lp/Application/api_mac.
     646                            .dwattr $C$DW$60, DW_AT_decl_line(0x22d)
     647                            .dwattr $C$DW$60, DW_AT_decl_column(0x05)
     648                    
     649                    $C$DW$61        .dwtag  DW_TAG_enumerator
     650                            .dwattr $C$DW$61, DW_AT_name("ApiMac_status_pastTime")
     651                            .dwattr $C$DW$61, DW_AT_const_value(0xf7)
     652                            .dwattr $C$DW$61, DW_AT_decl_file("C:/CCSWorkspace/ECG603/sensor_cc1350lp/Application/api_mac.
     653                            .dwattr $C$DW$61, DW_AT_decl_line(0x22f)
     654                            .dwattr $C$DW$61, DW_AT_decl_column(0x05)
     655                    
     656                    $C$DW$62        .dwtag  DW_TAG_enumerator
     657                            .dwattr $C$DW$62, DW_AT_name("ApiMac_status_readOnly")
     658                            .dwattr $C$DW$62, DW_AT_const_value(0xfb)
     659                            .dwattr $C$DW$62, DW_AT_decl_file("C:/CCSWorkspace/ECG603/sensor_cc1350lp/Application/api_mac.
TI ARM Assembler PC v16.9.9 Sun Nov 25 17:19:51 2018

Tools Copyright (c) 1996-2017 Texas Instruments Incorporated
C:\Users\Stryd\AppData\Local\Temp\{F707AED4-2B3E-4DAD-8386-DB17F4B4B9A2} PAGE   13

     660                            .dwattr $C$DW$62, DW_AT_decl_line(0x231)
     661                            .dwattr $C$DW$62, DW_AT_decl_column(0x05)
     662                    
     663                    $C$DW$63        .dwtag  DW_TAG_enumerator
     664                            .dwattr $C$DW$63, DW_AT_name("ApiMac_status_realignment")
     665                            .dwattr $C$DW$63, DW_AT_const_value(0xef)
     666                            .dwattr $C$DW$63, DW_AT_decl_file("C:/CCSWorkspace/ECG603/sensor_cc1350lp/Application/api_mac.
     667                            .dwattr $C$DW$63, DW_AT_decl_line(0x233)
     668                            .dwattr $C$DW$63, DW_AT_decl_column(0x05)
     669                    
     670                    $C$DW$64        .dwtag  DW_TAG_enumerator
     671                            .dwattr $C$DW$64, DW_AT_name("ApiMac_status_scanInProgress")
     672                            .dwattr $C$DW$64, DW_AT_const_value(0xfc)
     673                            .dwattr $C$DW$64, DW_AT_decl_file("C:/CCSWorkspace/ECG603/sensor_cc1350lp/Application/api_mac.
     674                            .dwattr $C$DW$64, DW_AT_decl_line(0x235)
     675                            .dwattr $C$DW$64, DW_AT_decl_column(0x05)
     676                    
     677                    $C$DW$65        .dwtag  DW_TAG_enumerator
     678                            .dwattr $C$DW$65, DW_AT_name("ApiMac_status_securityError")
     679                            .dwattr $C$DW$65, DW_AT_const_value(0xe4)
     680                            .dwattr $C$DW$65, DW_AT_decl_file("C:/CCSWorkspace/ECG603/sensor_cc1350lp/Application/api_mac.
     681                            .dwattr $C$DW$65, DW_AT_decl_line(0x237)
     682                            .dwattr $C$DW$65, DW_AT_decl_column(0x05)
     683                    
     684                    $C$DW$66        .dwtag  DW_TAG_enumerator
     685                            .dwattr $C$DW$66, DW_AT_name("ApiMac_status_superframeOverlap")
     686                            .dwattr $C$DW$66, DW_AT_const_value(0xfd)
     687                            .dwattr $C$DW$66, DW_AT_decl_file("C:/CCSWorkspace/ECG603/sensor_cc1350lp/Application/api_mac.
     688                            .dwattr $C$DW$66, DW_AT_decl_line(0x239)
     689                            .dwattr $C$DW$66, DW_AT_decl_column(0x05)
     690                    
     691                    $C$DW$67        .dwtag  DW_TAG_enumerator
     692                            .dwattr $C$DW$67, DW_AT_name("ApiMac_status_trackingOff")
     693                            .dwattr $C$DW$67, DW_AT_const_value(0xf8)
     694                            .dwattr $C$DW$67, DW_AT_decl_file("C:/CCSWorkspace/ECG603/sensor_cc1350lp/Application/api_mac.
     695                            .dwattr $C$DW$67, DW_AT_decl_line(0x23e)
     696                            .dwattr $C$DW$67, DW_AT_decl_column(0x05)
     697                    
     698                    $C$DW$68        .dwtag  DW_TAG_enumerator
     699                            .dwattr $C$DW$68, DW_AT_name("ApiMac_status_transactionExpired")
     700                            .dwattr $C$DW$68, DW_AT_const_value(0xf0)
     701                            .dwattr $C$DW$68, DW_AT_decl_file("C:/CCSWorkspace/ECG603/sensor_cc1350lp/Application/api_mac.
     702                            .dwattr $C$DW$68, DW_AT_decl_line(0x244)
     703                            .dwattr $C$DW$68, DW_AT_decl_column(0x05)
     704                    
     705                    $C$DW$69        .dwtag  DW_TAG_enumerator
     706                            .dwattr $C$DW$69, DW_AT_name("ApiMac_status_transactionOverflow")
     707                            .dwattr $C$DW$69, DW_AT_const_value(0xf1)
     708                            .dwattr $C$DW$69, DW_AT_decl_file("C:/CCSWorkspace/ECG603/sensor_cc1350lp/Application/api_mac.
     709                            .dwattr $C$DW$69, DW_AT_decl_line(0x246)
     710                            .dwattr $C$DW$69, DW_AT_decl_column(0x05)
     711                    
     712                    $C$DW$70        .dwtag  DW_TAG_enumerator
     713                            .dwattr $C$DW$70, DW_AT_name("ApiMac_status_txActive")
     714                            .dwattr $C$DW$70, DW_AT_const_value(0xf2)
TI ARM Assembler PC v16.9.9 Sun Nov 25 17:19:51 2018

Tools Copyright (c) 1996-2017 Texas Instruments Incorporated
C:\Users\Stryd\AppData\Local\Temp\{F707AED4-2B3E-4DAD-8386-DB17F4B4B9A2} PAGE   14

     715                            .dwattr $C$DW$70, DW_AT_decl_file("C:/CCSWorkspace/ECG603/sensor_cc1350lp/Application/api_mac.
     716                            .dwattr $C$DW$70, DW_AT_decl_line(0x248)
     717                            .dwattr $C$DW$70, DW_AT_decl_column(0x05)
     718                    
     719                    $C$DW$71        .dwtag  DW_TAG_enumerator
     720                            .dwattr $C$DW$71, DW_AT_name("ApiMac_status_unavailableKey")
     721                            .dwattr $C$DW$71, DW_AT_const_value(0xf3)
     722                            .dwattr $C$DW$71, DW_AT_decl_file("C:/CCSWorkspace/ECG603/sensor_cc1350lp/Application/api_mac.
     723                            .dwattr $C$DW$71, DW_AT_decl_line(0x24d)
     724                            .dwattr $C$DW$71, DW_AT_decl_column(0x05)
     725                    
     726                    $C$DW$72        .dwtag  DW_TAG_enumerator
     727                            .dwattr $C$DW$72, DW_AT_name("ApiMac_status_unsupportedAttribute")
     728                            .dwattr $C$DW$72, DW_AT_const_value(0xf4)
     729                            .dwattr $C$DW$72, DW_AT_decl_file("C:/CCSWorkspace/ECG603/sensor_cc1350lp/Application/api_mac.
     730                            .dwattr $C$DW$72, DW_AT_decl_line(0x24f)
     731                            .dwattr $C$DW$72, DW_AT_decl_column(0x05)
     732                    
     733                    $C$DW$73        .dwtag  DW_TAG_enumerator
     734                            .dwattr $C$DW$73, DW_AT_name("ApiMac_status_unsupportedLegacy")
     735                            .dwattr $C$DW$73, DW_AT_const_value(0xde)
     736                            .dwattr $C$DW$73, DW_AT_decl_file("C:/CCSWorkspace/ECG603/sensor_cc1350lp/Application/api_mac.
     737                            .dwattr $C$DW$73, DW_AT_decl_line(0x254)
     738                            .dwattr $C$DW$73, DW_AT_decl_column(0x05)
     739                    
     740                    $C$DW$74        .dwtag  DW_TAG_enumerator
     741                            .dwattr $C$DW$74, DW_AT_name("ApiMac_status_unsupportedSecurity")
     742                            .dwattr $C$DW$74, DW_AT_const_value(0xdf)
     743                            .dwattr $C$DW$74, DW_AT_decl_file("C:/CCSWorkspace/ECG603/sensor_cc1350lp/Application/api_mac.
     744                            .dwattr $C$DW$74, DW_AT_decl_line(0x256)
     745                            .dwattr $C$DW$74, DW_AT_decl_column(0x05)
     746                    
     747                    $C$DW$75        .dwtag  DW_TAG_enumerator
     748                            .dwattr $C$DW$75, DW_AT_name("ApiMac_status_unsupported")
     749                            .dwattr $C$DW$75, DW_AT_const_value(0x18)
     750                            .dwattr $C$DW$75, DW_AT_decl_file("C:/CCSWorkspace/ECG603/sensor_cc1350lp/Application/api_mac.
     751                            .dwattr $C$DW$75, DW_AT_decl_line(0x258)
     752                            .dwattr $C$DW$75, DW_AT_decl_column(0x05)
     753                    
     754                    $C$DW$76        .dwtag  DW_TAG_enumerator
     755                            .dwattr $C$DW$76, DW_AT_name("ApiMac_status_badState")
     756                            .dwattr $C$DW$76, DW_AT_const_value(0x19)
     757                            .dwattr $C$DW$76, DW_AT_decl_file("C:/CCSWorkspace/ECG603/sensor_cc1350lp/Application/api_mac.
     758                            .dwattr $C$DW$76, DW_AT_decl_line(0x25a)
     759                            .dwattr $C$DW$76, DW_AT_decl_column(0x05)
     760                    
     761                    $C$DW$77        .dwtag  DW_TAG_enumerator
     762                            .dwattr $C$DW$77, DW_AT_name("ApiMac_status_noResources")
     763                            .dwattr $C$DW$77, DW_AT_const_value(0x1a)
     764                            .dwattr $C$DW$77, DW_AT_decl_file("C:/CCSWorkspace/ECG603/sensor_cc1350lp/Application/api_mac.
     765                            .dwattr $C$DW$77, DW_AT_decl_line(0x25f)
     766                            .dwattr $C$DW$77, DW_AT_decl_column(0x05)
     767                    
     768                    $C$DW$78        .dwtag  DW_TAG_enumerator
     769                            .dwattr $C$DW$78, DW_AT_name("ApiMac_status_ackPending")
TI ARM Assembler PC v16.9.9 Sun Nov 25 17:19:51 2018

Tools Copyright (c) 1996-2017 Texas Instruments Incorporated
C:\Users\Stryd\AppData\Local\Temp\{F707AED4-2B3E-4DAD-8386-DB17F4B4B9A2} PAGE   15

     770                            .dwattr $C$DW$78, DW_AT_const_value(0x1b)
     771                            .dwattr $C$DW$78, DW_AT_decl_file("C:/CCSWorkspace/ECG603/sensor_cc1350lp/Application/api_mac.
     772                            .dwattr $C$DW$78, DW_AT_decl_line(0x261)
     773                            .dwattr $C$DW$78, DW_AT_decl_column(0x05)
     774                    
     775                    $C$DW$79        .dwtag  DW_TAG_enumerator
     776                            .dwattr $C$DW$79, DW_AT_name("ApiMac_status_noTime")
     777                            .dwattr $C$DW$79, DW_AT_const_value(0x1c)
     778                            .dwattr $C$DW$79, DW_AT_decl_file("C:/CCSWorkspace/ECG603/sensor_cc1350lp/Application/api_mac.
     779                            .dwattr $C$DW$79, DW_AT_decl_line(0x263)
     780                            .dwattr $C$DW$79, DW_AT_decl_column(0x05)
     781                    
     782                    $C$DW$80        .dwtag  DW_TAG_enumerator
     783                            .dwattr $C$DW$80, DW_AT_name("ApiMac_status_txAborted")
     784                            .dwattr $C$DW$80, DW_AT_const_value(0x1d)
     785                            .dwattr $C$DW$80, DW_AT_decl_file("C:/CCSWorkspace/ECG603/sensor_cc1350lp/Application/api_mac.
     786                            .dwattr $C$DW$80, DW_AT_decl_line(0x265)
     787                            .dwattr $C$DW$80, DW_AT_decl_column(0x05)
     788                    
     789                    $C$DW$81        .dwtag  DW_TAG_enumerator
     790                            .dwattr $C$DW$81, DW_AT_name("ApiMac_status_duplicateEntry")
     791                            .dwattr $C$DW$81, DW_AT_const_value(0x1e)
     792                            .dwattr $C$DW$81, DW_AT_decl_file("C:/CCSWorkspace/ECG603/sensor_cc1350lp/Application/api_mac.
     793                            .dwattr $C$DW$81, DW_AT_decl_line(0x26a)
     794                            .dwattr $C$DW$81, DW_AT_decl_column(0x05)
     795                    
     796                    $C$DW$82        .dwtag  DW_TAG_enumerator
     797                            .dwattr $C$DW$82, DW_AT_name("ApiMac_status_fhError")
     798                            .dwattr $C$DW$82, DW_AT_const_value(0x61)
     799                            .dwattr $C$DW$82, DW_AT_decl_file("C:/CCSWorkspace/ECG603/sensor_cc1350lp/Application/api_mac.
     800                            .dwattr $C$DW$82, DW_AT_decl_line(0x26c)
     801                            .dwattr $C$DW$82, DW_AT_decl_column(0x05)
     802                    
     803                    $C$DW$83        .dwtag  DW_TAG_enumerator
     804                            .dwattr $C$DW$83, DW_AT_name("ApiMac_status_fhIeNotSupported")
     805                            .dwattr $C$DW$83, DW_AT_const_value(0x62)
     806                            .dwattr $C$DW$83, DW_AT_decl_file("C:/CCSWorkspace/ECG603/sensor_cc1350lp/Application/api_mac.
     807                            .dwattr $C$DW$83, DW_AT_decl_line(0x26e)
     808                            .dwattr $C$DW$83, DW_AT_decl_column(0x05)
     809                    
     810                    $C$DW$84        .dwtag  DW_TAG_enumerator
     811                            .dwattr $C$DW$84, DW_AT_name("ApiMac_status_fhNotInAsync")
     812                            .dwattr $C$DW$84, DW_AT_const_value(0x63)
     813                            .dwattr $C$DW$84, DW_AT_decl_file("C:/CCSWorkspace/ECG603/sensor_cc1350lp/Application/api_mac.
     814                            .dwattr $C$DW$84, DW_AT_decl_line(0x270)
     815                            .dwattr $C$DW$84, DW_AT_decl_column(0x05)
     816                    
     817                    $C$DW$85        .dwtag  DW_TAG_enumerator
     818                            .dwattr $C$DW$85, DW_AT_name("ApiMac_status_fhNotInNeighborTable")
     819                            .dwattr $C$DW$85, DW_AT_const_value(0x64)
     820                            .dwattr $C$DW$85, DW_AT_decl_file("C:/CCSWorkspace/ECG603/sensor_cc1350lp/Application/api_mac.
     821                            .dwattr $C$DW$85, DW_AT_decl_line(0x272)
     822                            .dwattr $C$DW$85, DW_AT_decl_column(0x05)
     823                    
     824                    $C$DW$86        .dwtag  DW_TAG_enumerator
TI ARM Assembler PC v16.9.9 Sun Nov 25 17:19:51 2018

Tools Copyright (c) 1996-2017 Texas Instruments Incorporated
C:\Users\Stryd\AppData\Local\Temp\{F707AED4-2B3E-4DAD-8386-DB17F4B4B9A2} PAGE   16

     825                            .dwattr $C$DW$86, DW_AT_name("ApiMac_status_fhOutSlot")
     826                            .dwattr $C$DW$86, DW_AT_const_value(0x65)
     827                            .dwattr $C$DW$86, DW_AT_decl_file("C:/CCSWorkspace/ECG603/sensor_cc1350lp/Application/api_mac.
     828                            .dwattr $C$DW$86, DW_AT_decl_line(0x274)
     829                            .dwattr $C$DW$86, DW_AT_decl_column(0x05)
     830                    
     831                    $C$DW$87        .dwtag  DW_TAG_enumerator
     832                            .dwattr $C$DW$87, DW_AT_name("ApiMac_status_fhInvalidAddress")
     833                            .dwattr $C$DW$87, DW_AT_const_value(0x66)
     834                            .dwattr $C$DW$87, DW_AT_decl_file("C:/CCSWorkspace/ECG603/sensor_cc1350lp/Application/api_mac.
     835                            .dwattr $C$DW$87, DW_AT_decl_line(0x276)
     836                            .dwattr $C$DW$87, DW_AT_decl_column(0x05)
     837                    
     838                    $C$DW$88        .dwtag  DW_TAG_enumerator
     839                            .dwattr $C$DW$88, DW_AT_name("ApiMac_status_fhIeFormatInvalid")
     840                            .dwattr $C$DW$88, DW_AT_const_value(0x67)
     841                            .dwattr $C$DW$88, DW_AT_decl_file("C:/CCSWorkspace/ECG603/sensor_cc1350lp/Application/api_mac.
     842                            .dwattr $C$DW$88, DW_AT_decl_line(0x278)
     843                            .dwattr $C$DW$88, DW_AT_decl_column(0x05)
     844                    
     845                    $C$DW$89        .dwtag  DW_TAG_enumerator
     846                            .dwattr $C$DW$89, DW_AT_name("ApiMac_status_fhPibNotSupported")
     847                            .dwattr $C$DW$89, DW_AT_const_value(0x68)
     848                            .dwattr $C$DW$89, DW_AT_decl_file("C:/CCSWorkspace/ECG603/sensor_cc1350lp/Application/api_mac.
     849                            .dwattr $C$DW$89, DW_AT_decl_line(0x27a)
     850                            .dwattr $C$DW$89, DW_AT_decl_column(0x05)
     851                    
     852                    $C$DW$90        .dwtag  DW_TAG_enumerator
     853                            .dwattr $C$DW$90, DW_AT_name("ApiMac_status_fhPibReadOnly")
     854                            .dwattr $C$DW$90, DW_AT_const_value(0x69)
     855                            .dwattr $C$DW$90, DW_AT_decl_file("C:/CCSWorkspace/ECG603/sensor_cc1350lp/Application/api_mac.
     856                            .dwattr $C$DW$90, DW_AT_decl_line(0x27c)
     857                            .dwattr $C$DW$90, DW_AT_decl_column(0x05)
     858                    
     859                    $C$DW$91        .dwtag  DW_TAG_enumerator
     860                            .dwattr $C$DW$91, DW_AT_name("ApiMac_status_fhPibInvalidParameter")
     861                            .dwattr $C$DW$91, DW_AT_const_value(0x6a)
     862                            .dwattr $C$DW$91, DW_AT_decl_file("C:/CCSWorkspace/ECG603/sensor_cc1350lp/Application/api_mac.
     863                            .dwattr $C$DW$91, DW_AT_decl_line(0x27e)
     864                            .dwattr $C$DW$91, DW_AT_decl_column(0x05)
     865                    
     866                    $C$DW$92        .dwtag  DW_TAG_enumerator
     867                            .dwattr $C$DW$92, DW_AT_name("ApiMac_status_fhInvalidFrameType")
     868                            .dwattr $C$DW$92, DW_AT_const_value(0x6b)
     869                            .dwattr $C$DW$92, DW_AT_decl_file("C:/CCSWorkspace/ECG603/sensor_cc1350lp/Application/api_mac.
     870                            .dwattr $C$DW$92, DW_AT_decl_line(0x280)
     871                            .dwattr $C$DW$92, DW_AT_decl_column(0x05)
     872                    
     873                    $C$DW$93        .dwtag  DW_TAG_enumerator
     874                            .dwattr $C$DW$93, DW_AT_name("ApiMac_status_fhExpiredNode")
     875                            .dwattr $C$DW$93, DW_AT_const_value(0x6c)
     876                            .dwattr $C$DW$93, DW_AT_decl_file("C:/CCSWorkspace/ECG603/sensor_cc1350lp/Application/api_mac.
     877                            .dwattr $C$DW$93, DW_AT_decl_line(0x282)
     878                            .dwattr $C$DW$93, DW_AT_decl_column(0x05)
     879                    
TI ARM Assembler PC v16.9.9 Sun Nov 25 17:19:51 2018

Tools Copyright (c) 1996-2017 Texas Instruments Incorporated
C:\Users\Stryd\AppData\Local\Temp\{F707AED4-2B3E-4DAD-8386-DB17F4B4B9A2} PAGE   17

     880                    $C$DW$94        .dwtag  DW_TAG_enumerator
     881                            .dwattr $C$DW$94, DW_AT_name("ApiMac_status_fhNoPatch")
     882                            .dwattr $C$DW$94, DW_AT_const_value(0x6d)
     883                            .dwattr $C$DW$94, DW_AT_decl_file("C:/CCSWorkspace/ECG603/sensor_cc1350lp/Application/api_mac.
     884                            .dwattr $C$DW$94, DW_AT_decl_line(0x284)
     885                            .dwattr $C$DW$94, DW_AT_decl_column(0x05)
     886                    
     887                            .dwattr $C$DW$T$334, DW_AT_decl_file("C:/CCSWorkspace/ECG603/sensor_cc1350lp/Application/api_m
     888                            .dwattr $C$DW$T$334, DW_AT_decl_line(0x1d5)
     889                            .dwattr $C$DW$T$334, DW_AT_decl_column(0x01)
     890                            .dwendtag $C$DW$T$334
     891                    
     892                    $C$DW$T$335     .dwtag  DW_TAG_typedef
     893                            .dwattr $C$DW$T$335, DW_AT_name("ApiMac_status_t")
     894                            .dwattr $C$DW$T$335, DW_AT_type(*$C$DW$T$334)
     895                            .dwattr $C$DW$T$335, DW_AT_language(DW_LANG_C)
     896                            .dwattr $C$DW$T$335, DW_AT_decl_file("C:/CCSWorkspace/ECG603/sensor_cc1350lp/Application/api_m
     897                            .dwattr $C$DW$T$335, DW_AT_decl_line(0x285)
     898                            .dwattr $C$DW$T$335, DW_AT_decl_column(0x03)
     899                    
     900                    
     901                    $C$DW$T$338     .dwtag  DW_TAG_enumeration_type
     902                            .dwattr $C$DW$T$338, DW_AT_byte_size(0x01)
     903                    $C$DW$95        .dwtag  DW_TAG_enumerator
     904                            .dwattr $C$DW$95, DW_AT_name("ApiMac_fhFrameType_panAdvert")
     905                            .dwattr $C$DW$95, DW_AT_const_value(0x00)
     906                            .dwattr $C$DW$95, DW_AT_decl_file("C:/CCSWorkspace/ECG603/sensor_cc1350lp/Application/api_mac.
     907                            .dwattr $C$DW$95, DW_AT_decl_line(0x44a)
     908                            .dwattr $C$DW$95, DW_AT_decl_column(0x05)
     909                    
     910                    $C$DW$96        .dwtag  DW_TAG_enumerator
     911                            .dwattr $C$DW$96, DW_AT_name("ApiMac_fhFrameType_panAdvertSolicit")
     912                            .dwattr $C$DW$96, DW_AT_const_value(0x01)
     913                            .dwattr $C$DW$96, DW_AT_decl_file("C:/CCSWorkspace/ECG603/sensor_cc1350lp/Application/api_mac.
     914                            .dwattr $C$DW$96, DW_AT_decl_line(0x44c)
     915                            .dwattr $C$DW$96, DW_AT_decl_column(0x05)
     916                    
     917                    $C$DW$97        .dwtag  DW_TAG_enumerator
     918                            .dwattr $C$DW$97, DW_AT_name("ApiMac_fhFrameType_config")
     919                            .dwattr $C$DW$97, DW_AT_const_value(0x02)
     920                            .dwattr $C$DW$97, DW_AT_decl_file("C:/CCSWorkspace/ECG603/sensor_cc1350lp/Application/api_mac.
     921                            .dwattr $C$DW$97, DW_AT_decl_line(0x44e)
     922                            .dwattr $C$DW$97, DW_AT_decl_column(0x05)
     923                    
     924                    $C$DW$98        .dwtag  DW_TAG_enumerator
     925                            .dwattr $C$DW$98, DW_AT_name("ApiMac_fhFrameType_configSolicit")
     926                            .dwattr $C$DW$98, DW_AT_const_value(0x03)
     927                            .dwattr $C$DW$98, DW_AT_decl_file("C:/CCSWorkspace/ECG603/sensor_cc1350lp/Application/api_mac.
     928                            .dwattr $C$DW$98, DW_AT_decl_line(0x450)
     929                            .dwattr $C$DW$98, DW_AT_decl_column(0x05)
     930                    
     931                    $C$DW$99        .dwtag  DW_TAG_enumerator
     932                            .dwattr $C$DW$99, DW_AT_name("ApiMac_fhFrameType_data")
     933                            .dwattr $C$DW$99, DW_AT_const_value(0x04)
     934                            .dwattr $C$DW$99, DW_AT_decl_file("C:/CCSWorkspace/ECG603/sensor_cc1350lp/Application/api_mac.
TI ARM Assembler PC v16.9.9 Sun Nov 25 17:19:51 2018

Tools Copyright (c) 1996-2017 Texas Instruments Incorporated
C:\Users\Stryd\AppData\Local\Temp\{F707AED4-2B3E-4DAD-8386-DB17F4B4B9A2} PAGE   18

     935                            .dwattr $C$DW$99, DW_AT_decl_line(0x452)
     936                            .dwattr $C$DW$99, DW_AT_decl_column(0x05)
     937                    
     938                    $C$DW$100       .dwtag  DW_TAG_enumerator
     939                            .dwattr $C$DW$100, DW_AT_name("ApiMac_fhFrameType_ack")
     940                            .dwattr $C$DW$100, DW_AT_const_value(0x05)
     941                            .dwattr $C$DW$100, DW_AT_decl_file("C:/CCSWorkspace/ECG603/sensor_cc1350lp/Application/api_mac
     942                            .dwattr $C$DW$100, DW_AT_decl_line(0x454)
     943                            .dwattr $C$DW$100, DW_AT_decl_column(0x05)
     944                    
     945                    $C$DW$101       .dwtag  DW_TAG_enumerator
     946                            .dwattr $C$DW$101, DW_AT_name("ApiMac_fhFrameType_eapol")
     947                            .dwattr $C$DW$101, DW_AT_const_value(0x06)
     948                            .dwattr $C$DW$101, DW_AT_decl_file("C:/CCSWorkspace/ECG603/sensor_cc1350lp/Application/api_mac
     949                            .dwattr $C$DW$101, DW_AT_decl_line(0x456)
     950                            .dwattr $C$DW$101, DW_AT_decl_column(0x05)
     951                    
     952                    $C$DW$102       .dwtag  DW_TAG_enumerator
     953                            .dwattr $C$DW$102, DW_AT_name("ApiMac_fhFrameType_invalid")
     954                            .dwattr $C$DW$102, DW_AT_const_value(0xff)
     955                            .dwattr $C$DW$102, DW_AT_decl_file("C:/CCSWorkspace/ECG603/sensor_cc1350lp/Application/api_mac
     956                            .dwattr $C$DW$102, DW_AT_decl_line(0x458)
     957                            .dwattr $C$DW$102, DW_AT_decl_column(0x05)
     958                    
     959                            .dwattr $C$DW$T$338, DW_AT_decl_file("C:/CCSWorkspace/ECG603/sensor_cc1350lp/Application/api_m
     960                            .dwattr $C$DW$T$338, DW_AT_decl_line(0x448)
     961                            .dwattr $C$DW$T$338, DW_AT_decl_column(0x01)
     962                            .dwendtag $C$DW$T$338
     963                    
     964                    $C$DW$T$339     .dwtag  DW_TAG_typedef
     965                            .dwattr $C$DW$T$339, DW_AT_name("ApiMac_fhFrameType_t")
     966                            .dwattr $C$DW$T$339, DW_AT_type(*$C$DW$T$338)
     967                            .dwattr $C$DW$T$339, DW_AT_language(DW_LANG_C)
     968                            .dwattr $C$DW$T$339, DW_AT_decl_file("C:/CCSWorkspace/ECG603/sensor_cc1350lp/Application/api_m
     969                            .dwattr $C$DW$T$339, DW_AT_decl_line(0x459)
     970                            .dwattr $C$DW$T$339, DW_AT_decl_column(0x03)
     971                    
     972                    
     973                    $C$DW$T$340     .dwtag  DW_TAG_enumeration_type
     974                            .dwattr $C$DW$T$340, DW_AT_byte_size(0x01)
     975                    $C$DW$103       .dwtag  DW_TAG_enumerator
     976                            .dwattr $C$DW$103, DW_AT_name("ApiMac_fhDispatchType_none")
     977                            .dwattr $C$DW$103, DW_AT_const_value(0x00)
     978                            .dwattr $C$DW$103, DW_AT_decl_file("C:/CCSWorkspace/ECG603/sensor_cc1350lp/Application/api_mac
     979                            .dwattr $C$DW$103, DW_AT_decl_line(0x4c0)
     980                            .dwattr $C$DW$103, DW_AT_decl_column(0x05)
     981                    
     982                    $C$DW$104       .dwtag  DW_TAG_enumerator
     983                            .dwattr $C$DW$104, DW_AT_name("ApiMac_fhDispatchType_MHD_PDU")
     984                            .dwattr $C$DW$104, DW_AT_const_value(0x01)
     985                            .dwattr $C$DW$104, DW_AT_decl_file("C:/CCSWorkspace/ECG603/sensor_cc1350lp/Application/api_mac
     986                            .dwattr $C$DW$104, DW_AT_decl_line(0x4c2)
     987                            .dwattr $C$DW$104, DW_AT_decl_column(0x05)
     988                    
     989                    $C$DW$105       .dwtag  DW_TAG_enumerator
TI ARM Assembler PC v16.9.9 Sun Nov 25 17:19:51 2018

Tools Copyright (c) 1996-2017 Texas Instruments Incorporated
C:\Users\Stryd\AppData\Local\Temp\{F707AED4-2B3E-4DAD-8386-DB17F4B4B9A2} PAGE   19

     990                            .dwattr $C$DW$105, DW_AT_name("ApiMac_fhDispatchType_6LowPAN")
     991                            .dwattr $C$DW$105, DW_AT_const_value(0x02)
     992                            .dwattr $C$DW$105, DW_AT_decl_file("C:/CCSWorkspace/ECG603/sensor_cc1350lp/Application/api_mac
     993                            .dwattr $C$DW$105, DW_AT_decl_line(0x4c4)
     994                            .dwattr $C$DW$105, DW_AT_decl_column(0x05)
     995                    
     996                            .dwattr $C$DW$T$340, DW_AT_decl_file("C:/CCSWorkspace/ECG603/sensor_cc1350lp/Application/api_m
     997                            .dwattr $C$DW$T$340, DW_AT_decl_line(0x4be)
     998                            .dwattr $C$DW$T$340, DW_AT_decl_column(0x01)
     999                            .dwendtag $C$DW$T$340
    1000                    
    1001                    $C$DW$T$341     .dwtag  DW_TAG_typedef
    1002                            .dwattr $C$DW$T$341, DW_AT_name("ApiMac_fhDispatchType_t")
    1003                            .dwattr $C$DW$T$341, DW_AT_type(*$C$DW$T$340)
    1004                            .dwattr $C$DW$T$341, DW_AT_language(DW_LANG_C)
    1005                            .dwattr $C$DW$T$341, DW_AT_decl_file("C:/CCSWorkspace/ECG603/sensor_cc1350lp/Application/api_m
    1006                            .dwattr $C$DW$T$341, DW_AT_decl_line(0x4c5)
    1007                            .dwattr $C$DW$T$341, DW_AT_decl_column(0x03)
    1008                    
    1009                    
    1010                    $C$DW$T$347     .dwtag  DW_TAG_enumeration_type
    1011                            .dwattr $C$DW$T$347, DW_AT_byte_size(0x01)
    1012                    $C$DW$106       .dwtag  DW_TAG_enumerator
    1013                            .dwattr $C$DW$106, DW_AT_name("ApiMac_assocStatus_success")
    1014                            .dwattr $C$DW$106, DW_AT_const_value(0x00)
    1015                            .dwattr $C$DW$106, DW_AT_decl_file("C:/CCSWorkspace/ECG603/sensor_cc1350lp/Application/api_mac
    1016                            .dwattr $C$DW$106, DW_AT_decl_line(0x19c)
    1017                            .dwattr $C$DW$106, DW_AT_decl_column(0x05)
    1018                    
    1019                    $C$DW$107       .dwtag  DW_TAG_enumerator
    1020                            .dwattr $C$DW$107, DW_AT_name("ApiMac_assocStatus_panAtCapacity")
    1021                            .dwattr $C$DW$107, DW_AT_const_value(0x01)
    1022                            .dwattr $C$DW$107, DW_AT_decl_file("C:/CCSWorkspace/ECG603/sensor_cc1350lp/Application/api_mac
    1023                            .dwattr $C$DW$107, DW_AT_decl_line(0x19e)
    1024                            .dwattr $C$DW$107, DW_AT_decl_column(0x05)
    1025                    
    1026                    $C$DW$108       .dwtag  DW_TAG_enumerator
    1027                            .dwattr $C$DW$108, DW_AT_name("ApiMac_assocStatus_panAccessDenied")
    1028                            .dwattr $C$DW$108, DW_AT_const_value(0x02)
    1029                            .dwattr $C$DW$108, DW_AT_decl_file("C:/CCSWorkspace/ECG603/sensor_cc1350lp/Application/api_mac
    1030                            .dwattr $C$DW$108, DW_AT_decl_line(0x1a0)
    1031                            .dwattr $C$DW$108, DW_AT_decl_column(0x05)
    1032                    
    1033                            .dwattr $C$DW$T$347, DW_AT_decl_file("C:/CCSWorkspace/ECG603/sensor_cc1350lp/Application/api_m
    1034                            .dwattr $C$DW$T$347, DW_AT_decl_line(0x19a)
    1035                            .dwattr $C$DW$T$347, DW_AT_decl_column(0x01)
    1036                            .dwendtag $C$DW$T$347
    1037                    
    1038                    $C$DW$T$348     .dwtag  DW_TAG_typedef
    1039                            .dwattr $C$DW$T$348, DW_AT_name("ApiMac_assocStatus_t")
    1040                            .dwattr $C$DW$T$348, DW_AT_type(*$C$DW$T$347)
    1041                            .dwattr $C$DW$T$348, DW_AT_language(DW_LANG_C)
    1042                            .dwattr $C$DW$T$348, DW_AT_decl_file("C:/CCSWorkspace/ECG603/sensor_cc1350lp/Application/api_m
    1043                            .dwattr $C$DW$T$348, DW_AT_decl_line(0x1a1)
    1044                            .dwattr $C$DW$T$348, DW_AT_decl_column(0x03)
TI ARM Assembler PC v16.9.9 Sun Nov 25 17:19:51 2018

Tools Copyright (c) 1996-2017 Texas Instruments Incorporated
C:\Users\Stryd\AppData\Local\Temp\{F707AED4-2B3E-4DAD-8386-DB17F4B4B9A2} PAGE   20

    1045                    
    1046                    
    1047                    $C$DW$T$352     .dwtag  DW_TAG_enumeration_type
    1048                            .dwattr $C$DW$T$352, DW_AT_byte_size(0x01)
    1049                    $C$DW$109       .dwtag  DW_TAG_enumerator
    1050                            .dwattr $C$DW$109, DW_AT_name("ApiMac_commStatusReason_assocRsp")
    1051                            .dwattr $C$DW$109, DW_AT_const_value(0x00)
    1052                            .dwattr $C$DW$109, DW_AT_decl_file("C:/CCSWorkspace/ECG603/sensor_cc1350lp/Application/api_mac
    1053                            .dwattr $C$DW$109, DW_AT_decl_line(0x1c8)
    1054                            .dwattr $C$DW$109, DW_AT_decl_column(0x05)
    1055                    
    1056                    $C$DW$110       .dwtag  DW_TAG_enumerator
    1057                            .dwattr $C$DW$110, DW_AT_name("ApiMac_commStatusReason_orphanRsp")
    1058                            .dwattr $C$DW$110, DW_AT_const_value(0x01)
    1059                            .dwattr $C$DW$110, DW_AT_decl_file("C:/CCSWorkspace/ECG603/sensor_cc1350lp/Application/api_mac
    1060                            .dwattr $C$DW$110, DW_AT_decl_line(0x1cc)
    1061                            .dwattr $C$DW$110, DW_AT_decl_column(0x05)
    1062                    
    1063                    $C$DW$111       .dwtag  DW_TAG_enumerator
    1064                            .dwattr $C$DW$111, DW_AT_name("ApiMac_commStatusReason_rxSecure")
    1065                            .dwattr $C$DW$111, DW_AT_const_value(0x02)
    1066                            .dwattr $C$DW$111, DW_AT_decl_file("C:/CCSWorkspace/ECG603/sensor_cc1350lp/Application/api_mac
    1067                            .dwattr $C$DW$111, DW_AT_decl_line(0x1d0)
    1068                            .dwattr $C$DW$111, DW_AT_decl_column(0x05)
    1069                    
    1070                            .dwattr $C$DW$T$352, DW_AT_decl_file("C:/CCSWorkspace/ECG603/sensor_cc1350lp/Application/api_m
    1071                            .dwattr $C$DW$T$352, DW_AT_decl_line(0x1c4)
    1072                            .dwattr $C$DW$T$352, DW_AT_decl_column(0x01)
    1073                            .dwendtag $C$DW$T$352
    1074                    
    1075                    $C$DW$T$353     .dwtag  DW_TAG_typedef
    1076                            .dwattr $C$DW$T$353, DW_AT_name("ApiMac_commStatusReason_t")
    1077                            .dwattr $C$DW$T$353, DW_AT_type(*$C$DW$T$352)
    1078                            .dwattr $C$DW$T$353, DW_AT_language(DW_LANG_C)
    1079                            .dwattr $C$DW$T$353, DW_AT_decl_file("C:/CCSWorkspace/ECG603/sensor_cc1350lp/Application/api_m
    1080                            .dwattr $C$DW$T$353, DW_AT_decl_line(0x1d1)
    1081                            .dwattr $C$DW$T$353, DW_AT_decl_column(0x03)
    1082                    
    1083                    
    1084                    $C$DW$T$356     .dwtag  DW_TAG_enumeration_type
    1085                            .dwattr $C$DW$T$356, DW_AT_byte_size(0x01)
    1086                    $C$DW$112       .dwtag  DW_TAG_enumerator
    1087                            .dwattr $C$DW$112, DW_AT_name("ApiMac_disassocateReason_coord")
    1088                            .dwattr $C$DW$112, DW_AT_const_value(0x01)
    1089                            .dwattr $C$DW$112, DW_AT_decl_file("C:/CCSWorkspace/ECG603/sensor_cc1350lp/Application/api_mac
    1090                            .dwattr $C$DW$112, DW_AT_decl_line(0x1bd)
    1091                            .dwattr $C$DW$112, DW_AT_decl_column(0x05)
    1092                    
    1093                    $C$DW$113       .dwtag  DW_TAG_enumerator
    1094                            .dwattr $C$DW$113, DW_AT_name("ApiMac_disassocateReason_device")
    1095                            .dwattr $C$DW$113, DW_AT_const_value(0x02)
    1096                            .dwattr $C$DW$113, DW_AT_decl_file("C:/CCSWorkspace/ECG603/sensor_cc1350lp/Application/api_mac
    1097                            .dwattr $C$DW$113, DW_AT_decl_line(0x1bf)
    1098                            .dwattr $C$DW$113, DW_AT_decl_column(0x05)
    1099                    
TI ARM Assembler PC v16.9.9 Sun Nov 25 17:19:51 2018

Tools Copyright (c) 1996-2017 Texas Instruments Incorporated
C:\Users\Stryd\AppData\Local\Temp\{F707AED4-2B3E-4DAD-8386-DB17F4B4B9A2} PAGE   21

    1100                            .dwattr $C$DW$T$356, DW_AT_decl_file("C:/CCSWorkspace/ECG603/sensor_cc1350lp/Application/api_m
    1101                            .dwattr $C$DW$T$356, DW_AT_decl_line(0x1bb)
    1102                            .dwattr $C$DW$T$356, DW_AT_decl_column(0x01)
    1103                            .dwendtag $C$DW$T$356
    1104                    
    1105                    $C$DW$T$357     .dwtag  DW_TAG_typedef
    1106                            .dwattr $C$DW$T$357, DW_AT_name("ApiMac_disassocateReason_t")
    1107                            .dwattr $C$DW$T$357, DW_AT_type(*$C$DW$T$356)
    1108                            .dwattr $C$DW$T$357, DW_AT_language(DW_LANG_C)
    1109                            .dwattr $C$DW$T$357, DW_AT_decl_file("C:/CCSWorkspace/ECG603/sensor_cc1350lp/Application/api_m
    1110                            .dwattr $C$DW$T$357, DW_AT_decl_line(0x1c0)
    1111                            .dwattr $C$DW$T$357, DW_AT_decl_column(0x03)
    1112                    
    1113                    
    1114                    $C$DW$T$365     .dwtag  DW_TAG_enumeration_type
    1115                            .dwattr $C$DW$T$365, DW_AT_byte_size(0x01)
    1116                    $C$DW$114       .dwtag  DW_TAG_enumerator
    1117                            .dwattr $C$DW$114, DW_AT_name("ApiMac_scantype_energyDetect")
    1118                            .dwattr $C$DW$114, DW_AT_const_value(0x00)
    1119                            .dwattr $C$DW$114, DW_AT_decl_file("C:/CCSWorkspace/ECG603/sensor_cc1350lp/Application/api_mac
    1120                            .dwattr $C$DW$114, DW_AT_decl_line(0x48c)
    1121                            .dwattr $C$DW$114, DW_AT_decl_column(0x05)
    1122                    
    1123                    $C$DW$115       .dwtag  DW_TAG_enumerator
    1124                            .dwattr $C$DW$115, DW_AT_name("ApiMac_scantype_active")
    1125                            .dwattr $C$DW$115, DW_AT_const_value(0x01)
    1126                            .dwattr $C$DW$115, DW_AT_decl_file("C:/CCSWorkspace/ECG603/sensor_cc1350lp/Application/api_mac
    1127                            .dwattr $C$DW$115, DW_AT_decl_line(0x492)
    1128                            .dwattr $C$DW$115, DW_AT_decl_column(0x05)
    1129                    
    1130                    $C$DW$116       .dwtag  DW_TAG_enumerator
    1131                            .dwattr $C$DW$116, DW_AT_name("ApiMac_scantype_passive")
    1132                            .dwattr $C$DW$116, DW_AT_const_value(0x02)
    1133                            .dwattr $C$DW$116, DW_AT_decl_file("C:/CCSWorkspace/ECG603/sensor_cc1350lp/Application/api_mac
    1134                            .dwattr $C$DW$116, DW_AT_decl_line(0x497)
    1135                            .dwattr $C$DW$116, DW_AT_decl_column(0x05)
    1136                    
    1137                    $C$DW$117       .dwtag  DW_TAG_enumerator
    1138                            .dwattr $C$DW$117, DW_AT_name("ApiMac_scantype_orphan")
    1139                            .dwattr $C$DW$117, DW_AT_const_value(0x03)
    1140                            .dwattr $C$DW$117, DW_AT_decl_file("C:/CCSWorkspace/ECG603/sensor_cc1350lp/Application/api_mac
    1141                            .dwattr $C$DW$117, DW_AT_decl_line(0x49d)
    1142                            .dwattr $C$DW$117, DW_AT_decl_column(0x05)
    1143                    
    1144                    $C$DW$118       .dwtag  DW_TAG_enumerator
    1145                            .dwattr $C$DW$118, DW_AT_name("ApiMac_scantype_activeEnhanced")
    1146                            .dwattr $C$DW$118, DW_AT_const_value(0x05)
    1147                            .dwattr $C$DW$118, DW_AT_decl_file("C:/CCSWorkspace/ECG603/sensor_cc1350lp/Application/api_mac
    1148                            .dwattr $C$DW$118, DW_AT_decl_line(0x4a3)
    1149                            .dwattr $C$DW$118, DW_AT_decl_column(0x05)
    1150                    
    1151                            .dwattr $C$DW$T$365, DW_AT_decl_file("C:/CCSWorkspace/ECG603/sensor_cc1350lp/Application/api_m
    1152                            .dwattr $C$DW$T$365, DW_AT_decl_line(0x486)
    1153                            .dwattr $C$DW$T$365, DW_AT_decl_column(0x01)
    1154                            .dwendtag $C$DW$T$365
TI ARM Assembler PC v16.9.9 Sun Nov 25 17:19:51 2018

Tools Copyright (c) 1996-2017 Texas Instruments Incorporated
C:\Users\Stryd\AppData\Local\Temp\{F707AED4-2B3E-4DAD-8386-DB17F4B4B9A2} PAGE   22

    1155                    
    1156                    $C$DW$T$366     .dwtag  DW_TAG_typedef
    1157                            .dwattr $C$DW$T$366, DW_AT_name("ApiMac_scantype_t")
    1158                            .dwattr $C$DW$T$366, DW_AT_type(*$C$DW$T$365)
    1159                            .dwattr $C$DW$T$366, DW_AT_language(DW_LANG_C)
    1160                            .dwattr $C$DW$T$366, DW_AT_decl_file("C:/CCSWorkspace/ECG603/sensor_cc1350lp/Application/api_m
    1161                            .dwattr $C$DW$T$366, DW_AT_decl_line(0x4a4)
    1162                            .dwattr $C$DW$T$366, DW_AT_decl_column(0x03)
    1163                    
    1164                    
    1165                    $C$DW$T$376     .dwtag  DW_TAG_enumeration_type
    1166                            .dwattr $C$DW$T$376, DW_AT_byte_size(0x01)
    1167                    $C$DW$119       .dwtag  DW_TAG_enumerator
    1168                            .dwattr $C$DW$119, DW_AT_name("ApiMac_wisunAsycnOperation_start")
    1169                            .dwattr $C$DW$119, DW_AT_const_value(0x00)
    1170                            .dwattr $C$DW$119, DW_AT_decl_file("C:/CCSWorkspace/ECG603/sensor_cc1350lp/Application/api_mac
    1171                            .dwattr $C$DW$119, DW_AT_decl_line(0x4aa)
    1172                            .dwattr $C$DW$119, DW_AT_decl_column(0x05)
    1173                    
    1174                    $C$DW$120       .dwtag  DW_TAG_enumerator
    1175                            .dwattr $C$DW$120, DW_AT_name("ApiMac_wisunAsycnOperation_stop")
    1176                            .dwattr $C$DW$120, DW_AT_const_value(0x01)
    1177                            .dwattr $C$DW$120, DW_AT_decl_file("C:/CCSWorkspace/ECG603/sensor_cc1350lp/Application/api_mac
    1178                            .dwattr $C$DW$120, DW_AT_decl_line(0x4ac)
    1179                            .dwattr $C$DW$120, DW_AT_decl_column(0x05)
    1180                    
    1181                            .dwattr $C$DW$T$376, DW_AT_decl_file("C:/CCSWorkspace/ECG603/sensor_cc1350lp/Application/api_m
    1182                            .dwattr $C$DW$T$376, DW_AT_decl_line(0x4a8)
    1183                            .dwattr $C$DW$T$376, DW_AT_decl_column(0x01)
    1184                            .dwendtag $C$DW$T$376
    1185                    
    1186                    $C$DW$T$377     .dwtag  DW_TAG_typedef
    1187                            .dwattr $C$DW$T$377, DW_AT_name("ApiMac_wisunAsycnOperation_t")
    1188                            .dwattr $C$DW$T$377, DW_AT_type(*$C$DW$T$376)
    1189                            .dwattr $C$DW$T$377, DW_AT_language(DW_LANG_C)
    1190                            .dwattr $C$DW$T$377, DW_AT_decl_file("C:/CCSWorkspace/ECG603/sensor_cc1350lp/Application/api_m
    1191                            .dwattr $C$DW$T$377, DW_AT_decl_line(0x4ad)
    1192                            .dwattr $C$DW$T$377, DW_AT_decl_column(0x03)
    1193                    
    1194                    
    1195                    $C$DW$T$378     .dwtag  DW_TAG_enumeration_type
    1196                            .dwattr $C$DW$T$378, DW_AT_byte_size(0x01)
    1197                    $C$DW$121       .dwtag  DW_TAG_enumerator
    1198                            .dwattr $C$DW$121, DW_AT_name("ApiMac_wisunAsyncFrame_advertisement")
    1199                            .dwattr $C$DW$121, DW_AT_const_value(0x00)
    1200                            .dwattr $C$DW$121, DW_AT_decl_file("C:/CCSWorkspace/ECG603/sensor_cc1350lp/Application/api_mac
    1201                            .dwattr $C$DW$121, DW_AT_decl_line(0x4b3)
    1202                            .dwattr $C$DW$121, DW_AT_decl_column(0x05)
    1203                    
    1204                    $C$DW$122       .dwtag  DW_TAG_enumerator
    1205                            .dwattr $C$DW$122, DW_AT_name("ApiMac_wisunAsyncFrame_advertisementSolicit")
    1206                            .dwattr $C$DW$122, DW_AT_const_value(0x01)
    1207                            .dwattr $C$DW$122, DW_AT_decl_file("C:/CCSWorkspace/ECG603/sensor_cc1350lp/Application/api_mac
    1208                            .dwattr $C$DW$122, DW_AT_decl_line(0x4b5)
    1209                            .dwattr $C$DW$122, DW_AT_decl_column(0x05)
TI ARM Assembler PC v16.9.9 Sun Nov 25 17:19:51 2018

Tools Copyright (c) 1996-2017 Texas Instruments Incorporated
C:\Users\Stryd\AppData\Local\Temp\{F707AED4-2B3E-4DAD-8386-DB17F4B4B9A2} PAGE   23

    1210                    
    1211                    $C$DW$123       .dwtag  DW_TAG_enumerator
    1212                            .dwattr $C$DW$123, DW_AT_name("ApiMac_wisunAsyncFrame_config")
    1213                            .dwattr $C$DW$123, DW_AT_const_value(0x02)
    1214                            .dwattr $C$DW$123, DW_AT_decl_file("C:/CCSWorkspace/ECG603/sensor_cc1350lp/Application/api_mac
    1215                            .dwattr $C$DW$123, DW_AT_decl_line(0x4b7)
    1216                            .dwattr $C$DW$123, DW_AT_decl_column(0x05)
    1217                    
    1218                    $C$DW$124       .dwtag  DW_TAG_enumerator
    1219                            .dwattr $C$DW$124, DW_AT_name("ApiMac_wisunAsyncFrame_configSolicit")
    1220                            .dwattr $C$DW$124, DW_AT_const_value(0x03)
    1221                            .dwattr $C$DW$124, DW_AT_decl_file("C:/CCSWorkspace/ECG603/sensor_cc1350lp/Application/api_mac
    1222                            .dwattr $C$DW$124, DW_AT_decl_line(0x4b9)
    1223                            .dwattr $C$DW$124, DW_AT_decl_column(0x05)
    1224                    
    1225                            .dwattr $C$DW$T$378, DW_AT_decl_file("C:/CCSWorkspace/ECG603/sensor_cc1350lp/Application/api_m
    1226                            .dwattr $C$DW$T$378, DW_AT_decl_line(0x4b1)
    1227                            .dwattr $C$DW$T$378, DW_AT_decl_column(0x01)
    1228                            .dwendtag $C$DW$T$378
    1229                    
    1230                    $C$DW$T$379     .dwtag  DW_TAG_typedef
    1231                            .dwattr $C$DW$T$379, DW_AT_name("ApiMac_wisunAsyncFrame_t")
    1232                            .dwattr $C$DW$T$379, DW_AT_type(*$C$DW$T$378)
    1233                            .dwattr $C$DW$T$379, DW_AT_language(DW_LANG_C)
    1234                            .dwattr $C$DW$T$379, DW_AT_decl_file("C:/CCSWorkspace/ECG603/sensor_cc1350lp/Application/api_m
    1235                            .dwattr $C$DW$T$379, DW_AT_decl_line(0x4ba)
    1236                            .dwattr $C$DW$T$379, DW_AT_decl_column(0x03)
    1237                    
    1238                    
    1239                    $C$DW$T$672     .dwtag  DW_TAG_enumeration_type
    1240                            .dwattr $C$DW$T$672, DW_AT_byte_size(0x01)
    1241                    $C$DW$125       .dwtag  DW_TAG_enumerator
    1242                            .dwattr $C$DW$125, DW_AT_name("PIN_SUCCESS")
    1243                            .dwattr $C$DW$125, DW_AT_const_value(0x00)
    1244                            .dwattr $C$DW$125, DW_AT_decl_file("C:/ti/simplelink_cc13x0_sdk_2_30_00_20/source/ti/drivers/P
    1245                            .dwattr $C$DW$125, DW_AT_decl_line(0x2cd)
    1246                            .dwattr $C$DW$125, DW_AT_decl_column(0x05)
    1247                    
    1248                    $C$DW$126       .dwtag  DW_TAG_enumerator
    1249                            .dwattr $C$DW$126, DW_AT_name("PIN_ALREADY_ALLOCATED")
    1250                            .dwattr $C$DW$126, DW_AT_const_value(0x01)
    1251                            .dwattr $C$DW$126, DW_AT_decl_file("C:/ti/simplelink_cc13x0_sdk_2_30_00_20/source/ti/drivers/P
    1252                            .dwattr $C$DW$126, DW_AT_decl_line(0x2ce)
    1253                            .dwattr $C$DW$126, DW_AT_decl_column(0x05)
    1254                    
    1255                    $C$DW$127       .dwtag  DW_TAG_enumerator
    1256                            .dwattr $C$DW$127, DW_AT_name("PIN_NO_ACCESS")
    1257                            .dwattr $C$DW$127, DW_AT_const_value(0x02)
    1258                            .dwattr $C$DW$127, DW_AT_decl_file("C:/ti/simplelink_cc13x0_sdk_2_30_00_20/source/ti/drivers/P
    1259                            .dwattr $C$DW$127, DW_AT_decl_line(0x2cf)
    1260                            .dwattr $C$DW$127, DW_AT_decl_column(0x05)
    1261                    
    1262                    $C$DW$128       .dwtag  DW_TAG_enumerator
    1263                            .dwattr $C$DW$128, DW_AT_name("PIN_UNSUPPORTED")
    1264                            .dwattr $C$DW$128, DW_AT_const_value(0x03)
TI ARM Assembler PC v16.9.9 Sun Nov 25 17:19:51 2018

Tools Copyright (c) 1996-2017 Texas Instruments Incorporated
C:\Users\Stryd\AppData\Local\Temp\{F707AED4-2B3E-4DAD-8386-DB17F4B4B9A2} PAGE   24

    1265                            .dwattr $C$DW$128, DW_AT_decl_file("C:/ti/simplelink_cc13x0_sdk_2_30_00_20/source/ti/drivers/P
    1266                            .dwattr $C$DW$128, DW_AT_decl_line(0x2d0)
    1267                            .dwattr $C$DW$128, DW_AT_decl_column(0x05)
    1268                    
    1269                            .dwattr $C$DW$T$672, DW_AT_decl_file("C:/ti/simplelink_cc13x0_sdk_2_30_00_20/source/ti/drivers
    1270                            .dwattr $C$DW$T$672, DW_AT_decl_line(0x2cc)
    1271                            .dwattr $C$DW$T$672, DW_AT_decl_column(0x0e)
    1272                            .dwendtag $C$DW$T$672
    1273                    
    1274                    $C$DW$T$673     .dwtag  DW_TAG_typedef
    1275                            .dwattr $C$DW$T$673, DW_AT_name("PIN_Status")
    1276                            .dwattr $C$DW$T$673, DW_AT_type(*$C$DW$T$672)
    1277                            .dwattr $C$DW$T$673, DW_AT_language(DW_LANG_C)
    1278                            .dwattr $C$DW$T$673, DW_AT_decl_file("C:/ti/simplelink_cc13x0_sdk_2_30_00_20/source/ti/drivers
    1279                            .dwattr $C$DW$T$673, DW_AT_decl_line(0x2d1)
    1280                            .dwattr $C$DW$T$673, DW_AT_decl_column(0x03)
    1281                    
    1282                    
    1283                    $C$DW$T$677     .dwtag  DW_TAG_enumeration_type
    1284                            .dwattr $C$DW$T$677, DW_AT_byte_size(0x01)
    1285                    $C$DW$129       .dwtag  DW_TAG_enumerator
    1286                            .dwattr $C$DW$129, DW_AT_name("board_rfSwitch_select")
    1287                            .dwattr $C$DW$129, DW_AT_const_value(0x00)
    1288                            .dwattr $C$DW$129, DW_AT_decl_file("..\Application\LaunchPad\board_gpio.h")
    1289                            .dwattr $C$DW$129, DW_AT_decl_line(0x51)
    1290                            .dwattr $C$DW$129, DW_AT_decl_column(0x05)
    1291                    
    1292                    $C$DW$130       .dwtag  DW_TAG_enumerator
    1293                            .dwattr $C$DW$130, DW_AT_name("board_rfSwitch_pwr")
    1294                            .dwattr $C$DW$130, DW_AT_const_value(0x01)
    1295                            .dwattr $C$DW$130, DW_AT_decl_file("..\Application\LaunchPad\board_gpio.h")
    1296                            .dwattr $C$DW$130, DW_AT_decl_line(0x54)
    1297                            .dwattr $C$DW$130, DW_AT_decl_column(0x05)
    1298                    
    1299                    $C$DW$131       .dwtag  DW_TAG_enumerator
    1300                            .dwattr $C$DW$131, DW_AT_name("NO_OF_GPIOS")
    1301                            .dwattr $C$DW$131, DW_AT_const_value(0x02)
    1302                            .dwattr $C$DW$131, DW_AT_decl_file("..\Application\LaunchPad\board_gpio.h")
    1303                            .dwattr $C$DW$131, DW_AT_decl_line(0x58)
    1304                            .dwattr $C$DW$131, DW_AT_decl_column(0x05)
    1305                    
    1306                            .dwattr $C$DW$T$677, DW_AT_decl_file("..\Application\LaunchPad\board_gpio.h")
    1307                            .dwattr $C$DW$T$677, DW_AT_decl_line(0x4f)
    1308                            .dwattr $C$DW$T$677, DW_AT_decl_column(0x01)
    1309                            .dwendtag $C$DW$T$677
    1310                    
    1311                    $C$DW$T$678     .dwtag  DW_TAG_typedef
    1312                            .dwattr $C$DW$T$678, DW_AT_name("board_gpio_type")
    1313                            .dwattr $C$DW$T$678, DW_AT_type(*$C$DW$T$677)
    1314                            .dwattr $C$DW$T$678, DW_AT_language(DW_LANG_C)
    1315                            .dwattr $C$DW$T$678, DW_AT_decl_file("..\Application\LaunchPad\board_gpio.h")
    1316                            .dwattr $C$DW$T$678, DW_AT_decl_line(0x59)
    1317                            .dwattr $C$DW$T$678, DW_AT_decl_column(0x03)
    1318                    
    1319                    $C$DW$T$679     .dwtag  DW_TAG_const_type
TI ARM Assembler PC v16.9.9 Sun Nov 25 17:19:51 2018

Tools Copyright (c) 1996-2017 Texas Instruments Incorporated
C:\Users\Stryd\AppData\Local\Temp\{F707AED4-2B3E-4DAD-8386-DB17F4B4B9A2} PAGE   25

    1320                            .dwattr $C$DW$T$679, DW_AT_type(*$C$DW$T$678)
    1321                    
    1322                    
    1323                    $C$DW$T$680     .dwtag  DW_TAG_enumeration_type
    1324                            .dwattr $C$DW$T$680, DW_AT_byte_size(0x01)
    1325                    $C$DW$132       .dwtag  DW_TAG_enumerator
    1326                            .dwattr $C$DW$132, DW_AT_name("ApiMac_secLevel_none")
    1327                            .dwattr $C$DW$132, DW_AT_const_value(0x00)
    1328                            .dwattr $C$DW$132, DW_AT_decl_file("C:/CCSWorkspace/ECG603/sensor_cc1350lp/Application/api_mac
    1329                            .dwattr $C$DW$132, DW_AT_decl_line(0x28b)
    1330                            .dwattr $C$DW$132, DW_AT_decl_column(0x05)
    1331                    
    1332                    $C$DW$133       .dwtag  DW_TAG_enumerator
    1333                            .dwattr $C$DW$133, DW_AT_name("ApiMac_secLevel_mic32")
    1334                            .dwattr $C$DW$133, DW_AT_const_value(0x01)
    1335                            .dwattr $C$DW$133, DW_AT_decl_file("C:/CCSWorkspace/ECG603/sensor_cc1350lp/Application/api_mac
    1336                            .dwattr $C$DW$133, DW_AT_decl_line(0x28d)
    1337                            .dwattr $C$DW$133, DW_AT_decl_column(0x05)
    1338                    
    1339                    $C$DW$134       .dwtag  DW_TAG_enumerator
    1340                            .dwattr $C$DW$134, DW_AT_name("ApiMac_secLevel_mic64")
    1341                            .dwattr $C$DW$134, DW_AT_const_value(0x02)
    1342                            .dwattr $C$DW$134, DW_AT_decl_file("C:/CCSWorkspace/ECG603/sensor_cc1350lp/Application/api_mac
    1343                            .dwattr $C$DW$134, DW_AT_decl_line(0x28f)
    1344                            .dwattr $C$DW$134, DW_AT_decl_column(0x05)
    1345                    
    1346                    $C$DW$135       .dwtag  DW_TAG_enumerator
    1347                            .dwattr $C$DW$135, DW_AT_name("ApiMac_secLevel_mic128")
    1348                            .dwattr $C$DW$135, DW_AT_const_value(0x03)
    1349                            .dwattr $C$DW$135, DW_AT_decl_file("C:/CCSWorkspace/ECG603/sensor_cc1350lp/Application/api_mac
    1350                            .dwattr $C$DW$135, DW_AT_decl_line(0x291)
    1351                            .dwattr $C$DW$135, DW_AT_decl_column(0x05)
    1352                    
    1353                    $C$DW$136       .dwtag  DW_TAG_enumerator
    1354                            .dwattr $C$DW$136, DW_AT_name("ApiMac_secLevel_enc")
    1355                            .dwattr $C$DW$136, DW_AT_const_value(0x04)
    1356                            .dwattr $C$DW$136, DW_AT_decl_file("C:/CCSWorkspace/ECG603/sensor_cc1350lp/Application/api_mac
    1357                            .dwattr $C$DW$136, DW_AT_decl_line(0x293)
    1358                            .dwattr $C$DW$136, DW_AT_decl_column(0x05)
    1359                    
    1360                    $C$DW$137       .dwtag  DW_TAG_enumerator
    1361                            .dwattr $C$DW$137, DW_AT_name("ApiMac_secLevel_encMic32")
    1362                            .dwattr $C$DW$137, DW_AT_const_value(0x05)
    1363                            .dwattr $C$DW$137, DW_AT_decl_file("C:/CCSWorkspace/ECG603/sensor_cc1350lp/Application/api_mac
    1364                            .dwattr $C$DW$137, DW_AT_decl_line(0x295)
    1365                            .dwattr $C$DW$137, DW_AT_decl_column(0x05)
    1366                    
    1367                    $C$DW$138       .dwtag  DW_TAG_enumerator
    1368                            .dwattr $C$DW$138, DW_AT_name("ApiMac_secLevel_encMic64")
    1369                            .dwattr $C$DW$138, DW_AT_const_value(0x06)
    1370                            .dwattr $C$DW$138, DW_AT_decl_file("C:/CCSWorkspace/ECG603/sensor_cc1350lp/Application/api_mac
    1371                            .dwattr $C$DW$138, DW_AT_decl_line(0x297)
    1372                            .dwattr $C$DW$138, DW_AT_decl_column(0x05)
    1373                    
    1374                    $C$DW$139       .dwtag  DW_TAG_enumerator
TI ARM Assembler PC v16.9.9 Sun Nov 25 17:19:51 2018

Tools Copyright (c) 1996-2017 Texas Instruments Incorporated
C:\Users\Stryd\AppData\Local\Temp\{F707AED4-2B3E-4DAD-8386-DB17F4B4B9A2} PAGE   26

    1375                            .dwattr $C$DW$139, DW_AT_name("ApiMac_secLevel_encMic128")
    1376                            .dwattr $C$DW$139, DW_AT_const_value(0x07)
    1377                            .dwattr $C$DW$139, DW_AT_decl_file("C:/CCSWorkspace/ECG603/sensor_cc1350lp/Application/api_mac
    1378                            .dwattr $C$DW$139, DW_AT_decl_line(0x299)
    1379                            .dwattr $C$DW$139, DW_AT_decl_column(0x05)
    1380                    
    1381                            .dwattr $C$DW$T$680, DW_AT_decl_file("C:/CCSWorkspace/ECG603/sensor_cc1350lp/Application/api_m
    1382                            .dwattr $C$DW$T$680, DW_AT_decl_line(0x289)
    1383                            .dwattr $C$DW$T$680, DW_AT_decl_column(0x01)
    1384                            .dwendtag $C$DW$T$680
    1385                    
    1386                    $C$DW$T$681     .dwtag  DW_TAG_typedef
    1387                            .dwattr $C$DW$T$681, DW_AT_name("ApiMac_secLevel_t")
    1388                            .dwattr $C$DW$T$681, DW_AT_type(*$C$DW$T$680)
    1389                            .dwattr $C$DW$T$681, DW_AT_language(DW_LANG_C)
    1390                            .dwattr $C$DW$T$681, DW_AT_decl_file("C:/CCSWorkspace/ECG603/sensor_cc1350lp/Application/api_m
    1391                            .dwattr $C$DW$T$681, DW_AT_decl_line(0x29a)
    1392                            .dwattr $C$DW$T$681, DW_AT_decl_column(0x03)
    1393                    
    1394                    
    1395                    $C$DW$T$682     .dwtag  DW_TAG_enumeration_type
    1396                            .dwattr $C$DW$T$682, DW_AT_byte_size(0x01)
    1397                    $C$DW$140       .dwtag  DW_TAG_enumerator
    1398                            .dwattr $C$DW$140, DW_AT_name("ApiMac_keyIdMode_implicit")
    1399                            .dwattr $C$DW$140, DW_AT_const_value(0x00)
    1400                            .dwattr $C$DW$140, DW_AT_decl_file("C:/CCSWorkspace/ECG603/sensor_cc1350lp/Application/api_mac
    1401                            .dwattr $C$DW$140, DW_AT_decl_line(0x2a0)
    1402                            .dwattr $C$DW$140, DW_AT_decl_column(0x05)
    1403                    
    1404                    $C$DW$141       .dwtag  DW_TAG_enumerator
    1405                            .dwattr $C$DW$141, DW_AT_name("ApiMac_keyIdMode_1")
    1406                            .dwattr $C$DW$141, DW_AT_const_value(0x01)
    1407                            .dwattr $C$DW$141, DW_AT_decl_file("C:/CCSWorkspace/ECG603/sensor_cc1350lp/Application/api_mac
    1408                            .dwattr $C$DW$141, DW_AT_decl_line(0x2a2)
    1409                            .dwattr $C$DW$141, DW_AT_decl_column(0x05)
    1410                    
    1411                    $C$DW$142       .dwtag  DW_TAG_enumerator
    1412                            .dwattr $C$DW$142, DW_AT_name("ApiMac_keyIdMode_4")
    1413                            .dwattr $C$DW$142, DW_AT_const_value(0x02)
    1414                            .dwattr $C$DW$142, DW_AT_decl_file("C:/CCSWorkspace/ECG603/sensor_cc1350lp/Application/api_mac
    1415                            .dwattr $C$DW$142, DW_AT_decl_line(0x2a4)
    1416                            .dwattr $C$DW$142, DW_AT_decl_column(0x05)
    1417                    
    1418                    $C$DW$143       .dwtag  DW_TAG_enumerator
    1419                            .dwattr $C$DW$143, DW_AT_name("ApiMac_keyIdMode_8")
    1420                            .dwattr $C$DW$143, DW_AT_const_value(0x03)
    1421                            .dwattr $C$DW$143, DW_AT_decl_file("C:/CCSWorkspace/ECG603/sensor_cc1350lp/Application/api_mac
    1422                            .dwattr $C$DW$143, DW_AT_decl_line(0x2a6)
    1423                            .dwattr $C$DW$143, DW_AT_decl_column(0x05)
    1424                    
    1425                            .dwattr $C$DW$T$682, DW_AT_decl_file("C:/CCSWorkspace/ECG603/sensor_cc1350lp/Application/api_m
    1426                            .dwattr $C$DW$T$682, DW_AT_decl_line(0x29e)
    1427                            .dwattr $C$DW$T$682, DW_AT_decl_column(0x01)
    1428                            .dwendtag $C$DW$T$682
    1429                    
TI ARM Assembler PC v16.9.9 Sun Nov 25 17:19:51 2018

Tools Copyright (c) 1996-2017 Texas Instruments Incorporated
C:\Users\Stryd\AppData\Local\Temp\{F707AED4-2B3E-4DAD-8386-DB17F4B4B9A2} PAGE   27

    1430                    $C$DW$T$683     .dwtag  DW_TAG_typedef
    1431                            .dwattr $C$DW$T$683, DW_AT_name("ApiMac_keyIdMode_t")
    1432                            .dwattr $C$DW$T$683, DW_AT_type(*$C$DW$T$682)
    1433                            .dwattr $C$DW$T$683, DW_AT_language(DW_LANG_C)
    1434                            .dwattr $C$DW$T$683, DW_AT_decl_file("C:/CCSWorkspace/ECG603/sensor_cc1350lp/Application/api_m
    1435                            .dwattr $C$DW$T$683, DW_AT_decl_line(0x2a7)
    1436                            .dwattr $C$DW$T$683, DW_AT_decl_column(0x03)
    1437                    
    1438                    
    1439                    $C$DW$T$684     .dwtag  DW_TAG_enumeration_type
    1440                            .dwattr $C$DW$T$684, DW_AT_byte_size(0x01)
    1441                    $C$DW$144       .dwtag  DW_TAG_enumerator
    1442                            .dwattr $C$DW$144, DW_AT_name("ApiMac_attribute_associatePermit")
    1443                            .dwattr $C$DW$144, DW_AT_const_value(0x41)
    1444                            .dwattr $C$DW$144, DW_AT_decl_file("C:/CCSWorkspace/ECG603/sensor_cc1350lp/Application/api_mac
    1445                            .dwattr $C$DW$144, DW_AT_decl_line(0x2ad)
    1446                            .dwattr $C$DW$144, DW_AT_decl_column(0x05)
    1447                    
    1448                    $C$DW$145       .dwtag  DW_TAG_enumerator
    1449                            .dwattr $C$DW$145, DW_AT_name("ApiMac_attribute_autoRequest")
    1450                            .dwattr $C$DW$145, DW_AT_const_value(0x42)
    1451                            .dwattr $C$DW$145, DW_AT_decl_file("C:/CCSWorkspace/ECG603/sensor_cc1350lp/Application/api_mac
    1452                            .dwattr $C$DW$145, DW_AT_decl_line(0x2b2)
    1453                            .dwattr $C$DW$145, DW_AT_decl_column(0x05)
    1454                    
    1455                    $C$DW$146       .dwtag  DW_TAG_enumerator
    1456                            .dwattr $C$DW$146, DW_AT_name("ApiMac_attribute_battLifeExt")
    1457                            .dwattr $C$DW$146, DW_AT_const_value(0x43)
    1458                            .dwattr $C$DW$146, DW_AT_decl_file("C:/CCSWorkspace/ECG603/sensor_cc1350lp/Application/api_mac
    1459                            .dwattr $C$DW$146, DW_AT_decl_line(0x2b4)
    1460                            .dwattr $C$DW$146, DW_AT_decl_column(0x05)
    1461                    
    1462                    $C$DW$147       .dwtag  DW_TAG_enumerator
    1463                            .dwattr $C$DW$147, DW_AT_name("ApiMac_attribute_gtsPermit")
    1464                            .dwattr $C$DW$147, DW_AT_const_value(0x4d)
    1465                            .dwattr $C$DW$147, DW_AT_decl_file("C:/CCSWorkspace/ECG603/sensor_cc1350lp/Application/api_mac
    1466                            .dwattr $C$DW$147, DW_AT_decl_line(0x2b6)
    1467                            .dwattr $C$DW$147, DW_AT_decl_column(0x05)
    1468                    
    1469                    $C$DW$148       .dwtag  DW_TAG_enumerator
    1470                            .dwattr $C$DW$148, DW_AT_name("ApiMac_attribute_promiscuousMode")
    1471                            .dwattr $C$DW$148, DW_AT_const_value(0x51)
    1472                            .dwattr $C$DW$148, DW_AT_decl_file("C:/CCSWorkspace/ECG603/sensor_cc1350lp/Application/api_mac
    1473                            .dwattr $C$DW$148, DW_AT_decl_line(0x2b8)
    1474                            .dwattr $C$DW$148, DW_AT_decl_column(0x05)
    1475                    
    1476                    $C$DW$149       .dwtag  DW_TAG_enumerator
    1477                            .dwattr $C$DW$149, DW_AT_name("ApiMac_attribute_RxOnWhenIdle")
    1478                            .dwattr $C$DW$149, DW_AT_const_value(0x52)
    1479                            .dwattr $C$DW$149, DW_AT_decl_file("C:/CCSWorkspace/ECG603/sensor_cc1350lp/Application/api_mac
    1480                            .dwattr $C$DW$149, DW_AT_decl_line(0x2ba)
    1481                            .dwattr $C$DW$149, DW_AT_decl_column(0x05)
    1482                    
    1483                    $C$DW$150       .dwtag  DW_TAG_enumerator
    1484                            .dwattr $C$DW$150, DW_AT_name("ApiMac_attribute_associatedPanCoord")
TI ARM Assembler PC v16.9.9 Sun Nov 25 17:19:51 2018

Tools Copyright (c) 1996-2017 Texas Instruments Incorporated
C:\Users\Stryd\AppData\Local\Temp\{F707AED4-2B3E-4DAD-8386-DB17F4B4B9A2} PAGE   28

    1485                            .dwattr $C$DW$150, DW_AT_const_value(0x56)
    1486                            .dwattr $C$DW$150, DW_AT_decl_file("C:/CCSWorkspace/ECG603/sensor_cc1350lp/Application/api_mac
    1487                            .dwattr $C$DW$150, DW_AT_decl_line(0x2bc)
    1488                            .dwattr $C$DW$150, DW_AT_decl_column(0x05)
    1489                    
    1490                    $C$DW$151       .dwtag  DW_TAG_enumerator
    1491                            .dwattr $C$DW$151, DW_AT_name("ApiMac_attribute_timestampSupported")
    1492                            .dwattr $C$DW$151, DW_AT_const_value(0x5c)
    1493                            .dwattr $C$DW$151, DW_AT_decl_file("C:/CCSWorkspace/ECG603/sensor_cc1350lp/Application/api_mac
    1494                            .dwattr $C$DW$151, DW_AT_decl_line(0x2be)
    1495                            .dwattr $C$DW$151, DW_AT_decl_column(0x05)
    1496                    
    1497                    $C$DW$152       .dwtag  DW_TAG_enumerator
    1498                            .dwattr $C$DW$152, DW_AT_name("ApiMac_attribute_securityEnabled")
    1499                            .dwattr $C$DW$152, DW_AT_const_value(0x5d)
    1500                            .dwattr $C$DW$152, DW_AT_decl_file("C:/CCSWorkspace/ECG603/sensor_cc1350lp/Application/api_mac
    1501                            .dwattr $C$DW$152, DW_AT_decl_line(0x2c0)
    1502                            .dwattr $C$DW$152, DW_AT_decl_column(0x05)
    1503                    
    1504                    $C$DW$153       .dwtag  DW_TAG_enumerator
    1505                            .dwattr $C$DW$153, DW_AT_name("ApiMac_attribute_includeMPMIE")
    1506                            .dwattr $C$DW$153, DW_AT_const_value(0x62)
    1507                            .dwattr $C$DW$153, DW_AT_decl_file("C:/CCSWorkspace/ECG603/sensor_cc1350lp/Application/api_mac
    1508                            .dwattr $C$DW$153, DW_AT_decl_line(0x2c2)
    1509                            .dwattr $C$DW$153, DW_AT_decl_column(0x05)
    1510                    
    1511                    $C$DW$154       .dwtag  DW_TAG_enumerator
    1512                            .dwattr $C$DW$154, DW_AT_name("ApiMac_attribute_fcsType")
    1513                            .dwattr $C$DW$154, DW_AT_const_value(0xe9)
    1514                            .dwattr $C$DW$154, DW_AT_decl_file("C:/CCSWorkspace/ECG603/sensor_cc1350lp/Application/api_mac
    1515                            .dwattr $C$DW$154, DW_AT_decl_line(0x2c4)
    1516                            .dwattr $C$DW$154, DW_AT_decl_column(0x05)
    1517                    
    1518                            .dwattr $C$DW$T$684, DW_AT_decl_file("C:/CCSWorkspace/ECG603/sensor_cc1350lp/Application/api_m
    1519                            .dwattr $C$DW$T$684, DW_AT_decl_line(0x2ab)
    1520                            .dwattr $C$DW$T$684, DW_AT_decl_column(0x01)
    1521                            .dwendtag $C$DW$T$684
    1522                    
    1523                    $C$DW$T$685     .dwtag  DW_TAG_typedef
    1524                            .dwattr $C$DW$T$685, DW_AT_name("ApiMac_attribute_bool_t")
    1525                            .dwattr $C$DW$T$685, DW_AT_type(*$C$DW$T$684)
    1526                            .dwattr $C$DW$T$685, DW_AT_language(DW_LANG_C)
    1527                            .dwattr $C$DW$T$685, DW_AT_decl_file("C:/CCSWorkspace/ECG603/sensor_cc1350lp/Application/api_m
    1528                            .dwattr $C$DW$T$685, DW_AT_decl_line(0x2c5)
    1529                            .dwattr $C$DW$T$685, DW_AT_decl_column(0x03)
    1530                    
    1531                    
    1532                    $C$DW$T$686     .dwtag  DW_TAG_enumeration_type
    1533                            .dwattr $C$DW$T$686, DW_AT_byte_size(0x01)
    1534                    $C$DW$155       .dwtag  DW_TAG_enumerator
    1535                            .dwattr $C$DW$155, DW_AT_name("ApiMac_attribute_ackWaitDuration")
    1536                            .dwattr $C$DW$155, DW_AT_const_value(0x40)
    1537                            .dwattr $C$DW$155, DW_AT_decl_file("C:/CCSWorkspace/ECG603/sensor_cc1350lp/Application/api_mac
    1538                            .dwattr $C$DW$155, DW_AT_decl_line(0x2cb)
    1539                            .dwattr $C$DW$155, DW_AT_decl_column(0x05)
TI ARM Assembler PC v16.9.9 Sun Nov 25 17:19:51 2018

Tools Copyright (c) 1996-2017 Texas Instruments Incorporated
C:\Users\Stryd\AppData\Local\Temp\{F707AED4-2B3E-4DAD-8386-DB17F4B4B9A2} PAGE   29

    1540                    
    1541                    $C$DW$156       .dwtag  DW_TAG_enumerator
    1542                            .dwattr $C$DW$156, DW_AT_name("ApiMac_attribute_battLifeExtPeriods")
    1543                            .dwattr $C$DW$156, DW_AT_const_value(0x44)
    1544                            .dwattr $C$DW$156, DW_AT_decl_file("C:/CCSWorkspace/ECG603/sensor_cc1350lp/Application/api_mac
    1545                            .dwattr $C$DW$156, DW_AT_decl_line(0x2d0)
    1546                            .dwattr $C$DW$156, DW_AT_decl_column(0x05)
    1547                    
    1548                    $C$DW$157       .dwtag  DW_TAG_enumerator
    1549                            .dwattr $C$DW$157, DW_AT_name("ApiMac_attribute_beaconPayloadLength")
    1550                            .dwattr $C$DW$157, DW_AT_const_value(0x46)
    1551                            .dwattr $C$DW$157, DW_AT_decl_file("C:/CCSWorkspace/ECG603/sensor_cc1350lp/Application/api_mac
    1552                            .dwattr $C$DW$157, DW_AT_decl_line(0x2d5)
    1553                            .dwattr $C$DW$157, DW_AT_decl_column(0x05)
    1554                    
    1555                    $C$DW$158       .dwtag  DW_TAG_enumerator
    1556                            .dwattr $C$DW$158, DW_AT_name("ApiMac_attribute_beaconOrder")
    1557                            .dwattr $C$DW$158, DW_AT_const_value(0x47)
    1558                            .dwattr $C$DW$158, DW_AT_decl_file("C:/CCSWorkspace/ECG603/sensor_cc1350lp/Application/api_mac
    1559                            .dwattr $C$DW$158, DW_AT_decl_line(0x2d7)
    1560                            .dwattr $C$DW$158, DW_AT_decl_column(0x05)
    1561                    
    1562                    $C$DW$159       .dwtag  DW_TAG_enumerator
    1563                            .dwattr $C$DW$159, DW_AT_name("ApiMac_attribute_bsn")
    1564                            .dwattr $C$DW$159, DW_AT_const_value(0x49)
    1565                            .dwattr $C$DW$159, DW_AT_decl_file("C:/CCSWorkspace/ECG603/sensor_cc1350lp/Application/api_mac
    1566                            .dwattr $C$DW$159, DW_AT_decl_line(0x2d9)
    1567                            .dwattr $C$DW$159, DW_AT_decl_column(0x05)
    1568                    
    1569                    $C$DW$160       .dwtag  DW_TAG_enumerator
    1570                            .dwattr $C$DW$160, DW_AT_name("ApiMac_attribute_dsn")
    1571                            .dwattr $C$DW$160, DW_AT_const_value(0x4c)
    1572                            .dwattr $C$DW$160, DW_AT_decl_file("C:/CCSWorkspace/ECG603/sensor_cc1350lp/Application/api_mac
    1573                            .dwattr $C$DW$160, DW_AT_decl_line(0x2db)
    1574                            .dwattr $C$DW$160, DW_AT_decl_column(0x05)
    1575                    
    1576                    $C$DW$161       .dwtag  DW_TAG_enumerator
    1577                            .dwattr $C$DW$161, DW_AT_name("ApiMac_attribute_maxCsmaBackoffs")
    1578                            .dwattr $C$DW$161, DW_AT_const_value(0x4e)
    1579                            .dwattr $C$DW$161, DW_AT_decl_file("C:/CCSWorkspace/ECG603/sensor_cc1350lp/Application/api_mac
    1580                            .dwattr $C$DW$161, DW_AT_decl_line(0x2e0)
    1581                            .dwattr $C$DW$161, DW_AT_decl_column(0x05)
    1582                    
    1583                    $C$DW$162       .dwtag  DW_TAG_enumerator
    1584                            .dwattr $C$DW$162, DW_AT_name("ApiMac_attribute_backoffExponent")
    1585                            .dwattr $C$DW$162, DW_AT_const_value(0x4f)
    1586                            .dwattr $C$DW$162, DW_AT_decl_file("C:/CCSWorkspace/ECG603/sensor_cc1350lp/Application/api_mac
    1587                            .dwattr $C$DW$162, DW_AT_decl_line(0x2e8)
    1588                            .dwattr $C$DW$162, DW_AT_decl_column(0x05)
    1589                    
    1590                    $C$DW$163       .dwtag  DW_TAG_enumerator
    1591                            .dwattr $C$DW$163, DW_AT_name("ApiMac_attribute_superframeOrder")
    1592                            .dwattr $C$DW$163, DW_AT_const_value(0x54)
    1593                            .dwattr $C$DW$163, DW_AT_decl_file("C:/CCSWorkspace/ECG603/sensor_cc1350lp/Application/api_mac
    1594                            .dwattr $C$DW$163, DW_AT_decl_line(0x2ea)
TI ARM Assembler PC v16.9.9 Sun Nov 25 17:19:51 2018

Tools Copyright (c) 1996-2017 Texas Instruments Incorporated
C:\Users\Stryd\AppData\Local\Temp\{F707AED4-2B3E-4DAD-8386-DB17F4B4B9A2} PAGE   30

    1595                            .dwattr $C$DW$163, DW_AT_decl_column(0x05)
    1596                    
    1597                    $C$DW$164       .dwtag  DW_TAG_enumerator
    1598                            .dwattr $C$DW$164, DW_AT_name("ApiMac_attribute_maxBackoffExponent")
    1599                            .dwattr $C$DW$164, DW_AT_const_value(0x57)
    1600                            .dwattr $C$DW$164, DW_AT_decl_file("C:/CCSWorkspace/ECG603/sensor_cc1350lp/Application/api_mac
    1601                            .dwattr $C$DW$164, DW_AT_decl_line(0x2ec)
    1602                            .dwattr $C$DW$164, DW_AT_decl_column(0x05)
    1603                    
    1604                    $C$DW$165       .dwtag  DW_TAG_enumerator
    1605                            .dwattr $C$DW$165, DW_AT_name("ApiMac_attribute_maxFrameRetries")
    1606                            .dwattr $C$DW$165, DW_AT_const_value(0x59)
    1607                            .dwattr $C$DW$165, DW_AT_decl_file("C:/CCSWorkspace/ECG603/sensor_cc1350lp/Application/api_mac
    1608                            .dwattr $C$DW$165, DW_AT_decl_line(0x2ee)
    1609                            .dwattr $C$DW$165, DW_AT_decl_column(0x05)
    1610                    
    1611                    $C$DW$166       .dwtag  DW_TAG_enumerator
    1612                            .dwattr $C$DW$166, DW_AT_name("ApiMac_attribute_responseWaitTime")
    1613                            .dwattr $C$DW$166, DW_AT_const_value(0x5a)
    1614                            .dwattr $C$DW$166, DW_AT_decl_file("C:/CCSWorkspace/ECG603/sensor_cc1350lp/Application/api_mac
    1615                            .dwattr $C$DW$166, DW_AT_decl_line(0x2f4)
    1616                            .dwattr $C$DW$166, DW_AT_decl_column(0x05)
    1617                    
    1618                    $C$DW$167       .dwtag  DW_TAG_enumerator
    1619                            .dwattr $C$DW$167, DW_AT_name("ApiMac_attribute_syncSymbolOffset")
    1620                            .dwattr $C$DW$167, DW_AT_const_value(0x5b)
    1621                            .dwattr $C$DW$167, DW_AT_decl_file("C:/CCSWorkspace/ECG603/sensor_cc1350lp/Application/api_mac
    1622                            .dwattr $C$DW$167, DW_AT_decl_line(0x2f6)
    1623                            .dwattr $C$DW$167, DW_AT_decl_column(0x05)
    1624                    
    1625                    $C$DW$168       .dwtag  DW_TAG_enumerator
    1626                            .dwattr $C$DW$168, DW_AT_name("ApiMac_attribute_eBeaconSequenceNumber")
    1627                            .dwattr $C$DW$168, DW_AT_const_value(0x5e)
    1628                            .dwattr $C$DW$168, DW_AT_decl_file("C:/CCSWorkspace/ECG603/sensor_cc1350lp/Application/api_mac
    1629                            .dwattr $C$DW$168, DW_AT_decl_line(0x2f8)
    1630                            .dwattr $C$DW$168, DW_AT_decl_column(0x05)
    1631                    
    1632                    $C$DW$169       .dwtag  DW_TAG_enumerator
    1633                            .dwattr $C$DW$169, DW_AT_name("ApiMac_attribute_eBeaconOrder")
    1634                            .dwattr $C$DW$169, DW_AT_const_value(0x5f)
    1635                            .dwattr $C$DW$169, DW_AT_decl_file("C:/CCSWorkspace/ECG603/sensor_cc1350lp/Application/api_mac
    1636                            .dwattr $C$DW$169, DW_AT_decl_line(0x2fa)
    1637                            .dwattr $C$DW$169, DW_AT_decl_column(0x05)
    1638                    
    1639                    $C$DW$170       .dwtag  DW_TAG_enumerator
    1640                            .dwattr $C$DW$170, DW_AT_name("ApiMac_attribute_offsetTimeslot")
    1641                            .dwattr $C$DW$170, DW_AT_const_value(0x61)
    1642                            .dwattr $C$DW$170, DW_AT_decl_file("C:/CCSWorkspace/ECG603/sensor_cc1350lp/Application/api_mac
    1643                            .dwattr $C$DW$170, DW_AT_decl_line(0x2fc)
    1644                            .dwattr $C$DW$170, DW_AT_decl_column(0x05)
    1645                    
    1646                    $C$DW$171       .dwtag  DW_TAG_enumerator
    1647                            .dwattr $C$DW$171, DW_AT_name("ApiMac_attribute_phyTransmitPowerSigned")
    1648                            .dwattr $C$DW$171, DW_AT_const_value(0xe0)
    1649                            .dwattr $C$DW$171, DW_AT_decl_file("C:/CCSWorkspace/ECG603/sensor_cc1350lp/Application/api_mac
TI ARM Assembler PC v16.9.9 Sun Nov 25 17:19:51 2018

Tools Copyright (c) 1996-2017 Texas Instruments Incorporated
C:\Users\Stryd\AppData\Local\Temp\{F707AED4-2B3E-4DAD-8386-DB17F4B4B9A2} PAGE   31

    1650                            .dwattr $C$DW$171, DW_AT_decl_line(0x301)
    1651                            .dwattr $C$DW$171, DW_AT_decl_column(0x05)
    1652                    
    1653                    $C$DW$172       .dwtag  DW_TAG_enumerator
    1654                            .dwattr $C$DW$172, DW_AT_name("ApiMac_attribute_logicalChannel")
    1655                            .dwattr $C$DW$172, DW_AT_const_value(0xe1)
    1656                            .dwattr $C$DW$172, DW_AT_decl_file("C:/CCSWorkspace/ECG603/sensor_cc1350lp/Application/api_mac
    1657                            .dwattr $C$DW$172, DW_AT_decl_line(0x303)
    1658                            .dwattr $C$DW$172, DW_AT_decl_column(0x05)
    1659                    
    1660                    $C$DW$173       .dwtag  DW_TAG_enumerator
    1661                            .dwattr $C$DW$173, DW_AT_name("ApiMac_attribute_altBackoffExponent")
    1662                            .dwattr $C$DW$173, DW_AT_const_value(0xe3)
    1663                            .dwattr $C$DW$173, DW_AT_decl_file("C:/CCSWorkspace/ECG603/sensor_cc1350lp/Application/api_mac
    1664                            .dwattr $C$DW$173, DW_AT_decl_line(0x305)
    1665                            .dwattr $C$DW$173, DW_AT_decl_column(0x05)
    1666                    
    1667                    $C$DW$174       .dwtag  DW_TAG_enumerator
    1668                            .dwattr $C$DW$174, DW_AT_name("ApiMac_attribute_deviceBeaconOrder")
    1669                            .dwattr $C$DW$174, DW_AT_const_value(0xe4)
    1670                            .dwattr $C$DW$174, DW_AT_decl_file("C:/CCSWorkspace/ECG603/sensor_cc1350lp/Application/api_mac
    1671                            .dwattr $C$DW$174, DW_AT_decl_line(0x307)
    1672                            .dwattr $C$DW$174, DW_AT_decl_column(0x05)
    1673                    
    1674                    $C$DW$175       .dwtag  DW_TAG_enumerator
    1675                            .dwattr $C$DW$175, DW_AT_name("ApiMac_attribute_rf4cePowerSavings")
    1676                            .dwattr $C$DW$175, DW_AT_const_value(0xe5)
    1677                            .dwattr $C$DW$175, DW_AT_decl_file("C:/CCSWorkspace/ECG603/sensor_cc1350lp/Application/api_mac
    1678                            .dwattr $C$DW$175, DW_AT_decl_line(0x309)
    1679                            .dwattr $C$DW$175, DW_AT_decl_column(0x05)
    1680                    
    1681                    $C$DW$176       .dwtag  DW_TAG_enumerator
    1682                            .dwattr $C$DW$176, DW_AT_name("ApiMac_attribute_frameVersionSupport")
    1683                            .dwattr $C$DW$176, DW_AT_const_value(0xe6)
    1684                            .dwattr $C$DW$176, DW_AT_decl_file("C:/CCSWorkspace/ECG603/sensor_cc1350lp/Application/api_mac
    1685                            .dwattr $C$DW$176, DW_AT_decl_line(0x310)
    1686                            .dwattr $C$DW$176, DW_AT_decl_column(0x05)
    1687                    
    1688                    $C$DW$177       .dwtag  DW_TAG_enumerator
    1689                            .dwattr $C$DW$177, DW_AT_name("ApiMac_attribute_channelPage")
    1690                            .dwattr $C$DW$177, DW_AT_const_value(0xe7)
    1691                            .dwattr $C$DW$177, DW_AT_decl_file("C:/CCSWorkspace/ECG603/sensor_cc1350lp/Application/api_mac
    1692                            .dwattr $C$DW$177, DW_AT_decl_line(0x312)
    1693                            .dwattr $C$DW$177, DW_AT_decl_column(0x05)
    1694                    
    1695                    $C$DW$178       .dwtag  DW_TAG_enumerator
    1696                            .dwattr $C$DW$178, DW_AT_name("ApiMac_attribute_phyCurrentDescriptorId")
    1697                            .dwattr $C$DW$178, DW_AT_const_value(0xe8)
    1698                            .dwattr $C$DW$178, DW_AT_decl_file("C:/CCSWorkspace/ECG603/sensor_cc1350lp/Application/api_mac
    1699                            .dwattr $C$DW$178, DW_AT_decl_line(0x317)
    1700                            .dwattr $C$DW$178, DW_AT_decl_column(0x05)
    1701                    
    1702                    $C$DW$179       .dwtag  DW_TAG_enumerator
    1703                            .dwattr $C$DW$179, DW_AT_name("ApiMac_attribute_rssiThreshold")
    1704                            .dwattr $C$DW$179, DW_AT_const_value(0xf4)
TI ARM Assembler PC v16.9.9 Sun Nov 25 17:19:51 2018

Tools Copyright (c) 1996-2017 Texas Instruments Incorporated
C:\Users\Stryd\AppData\Local\Temp\{F707AED4-2B3E-4DAD-8386-DB17F4B4B9A2} PAGE   32

    1705                            .dwattr $C$DW$179, DW_AT_decl_file("C:/CCSWorkspace/ECG603/sensor_cc1350lp/Application/api_mac
    1706                            .dwattr $C$DW$179, DW_AT_decl_line(0x31b)
    1707                            .dwattr $C$DW$179, DW_AT_decl_column(0x05)
    1708                    
    1709                    $C$DW$180       .dwtag  DW_TAG_enumerator
    1710                            .dwattr $C$DW$180, DW_AT_name("ApiMac_attribute_rangeExtender")
    1711                            .dwattr $C$DW$180, DW_AT_const_value(0xf5)
    1712                            .dwattr $C$DW$180, DW_AT_decl_file("C:/CCSWorkspace/ECG603/sensor_cc1350lp/Application/api_mac
    1713                            .dwattr $C$DW$180, DW_AT_decl_line(0x31f)
    1714                            .dwattr $C$DW$180, DW_AT_decl_column(0x05)
    1715                    
    1716                    $C$DW$181       .dwtag  DW_TAG_enumerator
    1717                            .dwattr $C$DW$181, DW_AT_name("ApiMac_attribute_enDataAckPending")
    1718                            .dwattr $C$DW$181, DW_AT_const_value(0xf6)
    1719                            .dwattr $C$DW$181, DW_AT_decl_file("C:/CCSWorkspace/ECG603/sensor_cc1350lp/Application/api_mac
    1720                            .dwattr $C$DW$181, DW_AT_decl_line(0x323)
    1721                            .dwattr $C$DW$181, DW_AT_decl_column(0x05)
    1722                    
    1723                    $C$DW$182       .dwtag  DW_TAG_enumerator
    1724                            .dwattr $C$DW$182, DW_AT_name("ApiMac_attribute_rfFreq")
    1725                            .dwattr $C$DW$182, DW_AT_const_value(0xf7)
    1726                            .dwattr $C$DW$182, DW_AT_decl_file("C:/CCSWorkspace/ECG603/sensor_cc1350lp/Application/api_mac
    1727                            .dwattr $C$DW$182, DW_AT_decl_line(0x327)
    1728                            .dwattr $C$DW$182, DW_AT_decl_column(0x05)
    1729                    
    1730                    $C$DW$183       .dwtag  DW_TAG_enumerator
    1731                            .dwattr $C$DW$183, DW_AT_name("ApiMac_attribute_paType")
    1732                            .dwattr $C$DW$183, DW_AT_const_value(0xf8)
    1733                            .dwattr $C$DW$183, DW_AT_decl_file("C:/CCSWorkspace/ECG603/sensor_cc1350lp/Application/api_mac
    1734                            .dwattr $C$DW$183, DW_AT_decl_line(0x32b)
    1735                            .dwattr $C$DW$183, DW_AT_decl_column(0x05)
    1736                    
    1737                            .dwattr $C$DW$T$686, DW_AT_decl_file("C:/CCSWorkspace/ECG603/sensor_cc1350lp/Application/api_m
    1738                            .dwattr $C$DW$T$686, DW_AT_decl_line(0x2c9)
    1739                            .dwattr $C$DW$T$686, DW_AT_decl_column(0x01)
    1740                            .dwendtag $C$DW$T$686
    1741                    
    1742                    $C$DW$T$687     .dwtag  DW_TAG_typedef
    1743                            .dwattr $C$DW$T$687, DW_AT_name("ApiMac_attribute_uint8_t")
    1744                            .dwattr $C$DW$T$687, DW_AT_type(*$C$DW$T$686)
    1745                            .dwattr $C$DW$T$687, DW_AT_language(DW_LANG_C)
    1746                            .dwattr $C$DW$T$687, DW_AT_decl_file("C:/CCSWorkspace/ECG603/sensor_cc1350lp/Application/api_m
    1747                            .dwattr $C$DW$T$687, DW_AT_decl_line(0x32c)
    1748                            .dwattr $C$DW$T$687, DW_AT_decl_column(0x03)
    1749                    
    1750                    
    1751                    $C$DW$T$688     .dwtag  DW_TAG_enumeration_type
    1752                            .dwattr $C$DW$T$688, DW_AT_byte_size(0x01)
    1753                    $C$DW$184       .dwtag  DW_TAG_enumerator
    1754                            .dwattr $C$DW$184, DW_AT_name("ApiMac_attribute_coordShortAddress")
    1755                            .dwattr $C$DW$184, DW_AT_const_value(0x4b)
    1756                            .dwattr $C$DW$184, DW_AT_decl_file("C:/CCSWorkspace/ECG603/sensor_cc1350lp/Application/api_mac
    1757                            .dwattr $C$DW$184, DW_AT_decl_line(0x336)
    1758                            .dwattr $C$DW$184, DW_AT_decl_column(0x05)
    1759                    
TI ARM Assembler PC v16.9.9 Sun Nov 25 17:19:51 2018

Tools Copyright (c) 1996-2017 Texas Instruments Incorporated
C:\Users\Stryd\AppData\Local\Temp\{F707AED4-2B3E-4DAD-8386-DB17F4B4B9A2} PAGE   33

    1760                    $C$DW$185       .dwtag  DW_TAG_enumerator
    1761                            .dwattr $C$DW$185, DW_AT_name("ApiMac_attribute_panId")
    1762                            .dwattr $C$DW$185, DW_AT_const_value(0x50)
    1763                            .dwattr $C$DW$185, DW_AT_decl_file("C:/CCSWorkspace/ECG603/sensor_cc1350lp/Application/api_mac
    1764                            .dwattr $C$DW$185, DW_AT_decl_line(0x33b)
    1765                            .dwattr $C$DW$185, DW_AT_decl_column(0x05)
    1766                    
    1767                    $C$DW$186       .dwtag  DW_TAG_enumerator
    1768                            .dwattr $C$DW$186, DW_AT_name("ApiMac_attribute_shortAddress")
    1769                            .dwattr $C$DW$186, DW_AT_const_value(0x53)
    1770                            .dwattr $C$DW$186, DW_AT_decl_file("C:/CCSWorkspace/ECG603/sensor_cc1350lp/Application/api_mac
    1771                            .dwattr $C$DW$186, DW_AT_decl_line(0x343)
    1772                            .dwattr $C$DW$186, DW_AT_decl_column(0x05)
    1773                    
    1774                    $C$DW$187       .dwtag  DW_TAG_enumerator
    1775                            .dwattr $C$DW$187, DW_AT_name("ApiMac_attribute_transactionPersistenceTime")
    1776                            .dwattr $C$DW$187, DW_AT_const_value(0x55)
    1777                            .dwattr $C$DW$187, DW_AT_decl_file("C:/CCSWorkspace/ECG603/sensor_cc1350lp/Application/api_mac
    1778                            .dwattr $C$DW$187, DW_AT_decl_line(0x348)
    1779                            .dwattr $C$DW$187, DW_AT_decl_column(0x05)
    1780                    
    1781                    $C$DW$188       .dwtag  DW_TAG_enumerator
    1782                            .dwattr $C$DW$188, DW_AT_name("ApiMac_attribute_maxFrameTotalWaitTime")
    1783                            .dwattr $C$DW$188, DW_AT_const_value(0x58)
    1784                            .dwattr $C$DW$188, DW_AT_decl_file("C:/CCSWorkspace/ECG603/sensor_cc1350lp/Application/api_mac
    1785                            .dwattr $C$DW$188, DW_AT_decl_line(0x34e)
    1786                            .dwattr $C$DW$188, DW_AT_decl_column(0x05)
    1787                    
    1788                    $C$DW$189       .dwtag  DW_TAG_enumerator
    1789                            .dwattr $C$DW$189, DW_AT_name("ApiMac_attribute_eBeaconOrderNBPAN")
    1790                            .dwattr $C$DW$189, DW_AT_const_value(0x60)
    1791                            .dwattr $C$DW$189, DW_AT_decl_file("C:/CCSWorkspace/ECG603/sensor_cc1350lp/Application/api_mac
    1792                            .dwattr $C$DW$189, DW_AT_decl_line(0x350)
    1793                            .dwattr $C$DW$189, DW_AT_decl_column(0x05)
    1794                    
    1795                            .dwattr $C$DW$T$688, DW_AT_decl_file("C:/CCSWorkspace/ECG603/sensor_cc1350lp/Application/api_m
    1796                            .dwattr $C$DW$T$688, DW_AT_decl_line(0x330)
    1797                            .dwattr $C$DW$T$688, DW_AT_decl_column(0x01)
    1798                            .dwendtag $C$DW$T$688
    1799                    
    1800                    $C$DW$T$689     .dwtag  DW_TAG_typedef
    1801                            .dwattr $C$DW$T$689, DW_AT_name("ApiMac_attribute_uint16_t")
    1802                            .dwattr $C$DW$T$689, DW_AT_type(*$C$DW$T$688)
    1803                            .dwattr $C$DW$T$689, DW_AT_language(DW_LANG_C)
    1804                            .dwattr $C$DW$T$689, DW_AT_decl_file("C:/CCSWorkspace/ECG603/sensor_cc1350lp/Application/api_m
    1805                            .dwattr $C$DW$T$689, DW_AT_decl_line(0x351)
    1806                            .dwattr $C$DW$T$689, DW_AT_decl_column(0x03)
    1807                    
    1808                    
    1809                    $C$DW$T$690     .dwtag  DW_TAG_enumeration_type
    1810                            .dwattr $C$DW$T$690, DW_AT_byte_size(0x01)
    1811                    $C$DW$190       .dwtag  DW_TAG_enumerator
    1812                            .dwattr $C$DW$190, DW_AT_name("ApiMac_attribute_beaconTxTime")
    1813                            .dwattr $C$DW$190, DW_AT_const_value(0x48)
    1814                            .dwattr $C$DW$190, DW_AT_decl_file("C:/CCSWorkspace/ECG603/sensor_cc1350lp/Application/api_mac
TI ARM Assembler PC v16.9.9 Sun Nov 25 17:19:51 2018

Tools Copyright (c) 1996-2017 Texas Instruments Incorporated
C:\Users\Stryd\AppData\Local\Temp\{F707AED4-2B3E-4DAD-8386-DB17F4B4B9A2} PAGE   34

    1815                            .dwattr $C$DW$190, DW_AT_decl_line(0x35b)
    1816                            .dwattr $C$DW$190, DW_AT_decl_column(0x05)
    1817                    
    1818                    $C$DW$191       .dwtag  DW_TAG_enumerator
    1819                            .dwattr $C$DW$191, DW_AT_name("ApiMac_attribute_diagRxCrcPass")
    1820                            .dwattr $C$DW$191, DW_AT_const_value(0xea)
    1821                            .dwattr $C$DW$191, DW_AT_decl_file("C:/CCSWorkspace/ECG603/sensor_cc1350lp/Application/api_mac
    1822                            .dwattr $C$DW$191, DW_AT_decl_line(0x35d)
    1823                            .dwattr $C$DW$191, DW_AT_decl_column(0x05)
    1824                    
    1825                    $C$DW$192       .dwtag  DW_TAG_enumerator
    1826                            .dwattr $C$DW$192, DW_AT_name("ApiMac_attribute_diagRxCrcFail")
    1827                            .dwattr $C$DW$192, DW_AT_const_value(0xeb)
    1828                            .dwattr $C$DW$192, DW_AT_decl_file("C:/CCSWorkspace/ECG603/sensor_cc1350lp/Application/api_mac
    1829                            .dwattr $C$DW$192, DW_AT_decl_line(0x35f)
    1830                            .dwattr $C$DW$192, DW_AT_decl_column(0x05)
    1831                    
    1832                    $C$DW$193       .dwtag  DW_TAG_enumerator
    1833                            .dwattr $C$DW$193, DW_AT_name("ApiMac_attribute_diagRxBroadcast")
    1834                            .dwattr $C$DW$193, DW_AT_const_value(0xec)
    1835                            .dwattr $C$DW$193, DW_AT_decl_file("C:/CCSWorkspace/ECG603/sensor_cc1350lp/Application/api_mac
    1836                            .dwattr $C$DW$193, DW_AT_decl_line(0x361)
    1837                            .dwattr $C$DW$193, DW_AT_decl_column(0x05)
    1838                    
    1839                    $C$DW$194       .dwtag  DW_TAG_enumerator
    1840                            .dwattr $C$DW$194, DW_AT_name("ApiMac_attribute_diagTxBroadcast")
    1841                            .dwattr $C$DW$194, DW_AT_const_value(0xed)
    1842                            .dwattr $C$DW$194, DW_AT_decl_file("C:/CCSWorkspace/ECG603/sensor_cc1350lp/Application/api_mac
    1843                            .dwattr $C$DW$194, DW_AT_decl_line(0x363)
    1844                            .dwattr $C$DW$194, DW_AT_decl_column(0x05)
    1845                    
    1846                    $C$DW$195       .dwtag  DW_TAG_enumerator
    1847                            .dwattr $C$DW$195, DW_AT_name("ApiMac_attribute_diagRxUnicast")
    1848                            .dwattr $C$DW$195, DW_AT_const_value(0xee)
    1849                            .dwattr $C$DW$195, DW_AT_decl_file("C:/CCSWorkspace/ECG603/sensor_cc1350lp/Application/api_mac
    1850                            .dwattr $C$DW$195, DW_AT_decl_line(0x365)
    1851                            .dwattr $C$DW$195, DW_AT_decl_column(0x05)
    1852                    
    1853                    $C$DW$196       .dwtag  DW_TAG_enumerator
    1854                            .dwattr $C$DW$196, DW_AT_name("ApiMac_attribute_diagTxUnicast")
    1855                            .dwattr $C$DW$196, DW_AT_const_value(0xef)
    1856                            .dwattr $C$DW$196, DW_AT_decl_file("C:/CCSWorkspace/ECG603/sensor_cc1350lp/Application/api_mac
    1857                            .dwattr $C$DW$196, DW_AT_decl_line(0x367)
    1858                            .dwattr $C$DW$196, DW_AT_decl_column(0x05)
    1859                    
    1860                    $C$DW$197       .dwtag  DW_TAG_enumerator
    1861                            .dwattr $C$DW$197, DW_AT_name("ApiMac_attribute_diagTxUnicastRetry")
    1862                            .dwattr $C$DW$197, DW_AT_const_value(0xf0)
    1863                            .dwattr $C$DW$197, DW_AT_decl_file("C:/CCSWorkspace/ECG603/sensor_cc1350lp/Application/api_mac
    1864                            .dwattr $C$DW$197, DW_AT_decl_line(0x369)
    1865                            .dwattr $C$DW$197, DW_AT_decl_column(0x05)
    1866                    
    1867                    $C$DW$198       .dwtag  DW_TAG_enumerator
    1868                            .dwattr $C$DW$198, DW_AT_name("ApiMac_attribute_diagTxUnicastFail")
    1869                            .dwattr $C$DW$198, DW_AT_const_value(0xf1)
TI ARM Assembler PC v16.9.9 Sun Nov 25 17:19:51 2018

Tools Copyright (c) 1996-2017 Texas Instruments Incorporated
C:\Users\Stryd\AppData\Local\Temp\{F707AED4-2B3E-4DAD-8386-DB17F4B4B9A2} PAGE   35

    1870                            .dwattr $C$DW$198, DW_AT_decl_file("C:/CCSWorkspace/ECG603/sensor_cc1350lp/Application/api_mac
    1871                            .dwattr $C$DW$198, DW_AT_decl_line(0x36b)
    1872                            .dwattr $C$DW$198, DW_AT_decl_column(0x05)
    1873                    
    1874                    $C$DW$199       .dwtag  DW_TAG_enumerator
    1875                            .dwattr $C$DW$199, DW_AT_name("ApiMac_attribute_diagRxSecureFail")
    1876                            .dwattr $C$DW$199, DW_AT_const_value(0xf2)
    1877                            .dwattr $C$DW$199, DW_AT_decl_file("C:/CCSWorkspace/ECG603/sensor_cc1350lp/Application/api_mac
    1878                            .dwattr $C$DW$199, DW_AT_decl_line(0x36d)
    1879                            .dwattr $C$DW$199, DW_AT_decl_column(0x05)
    1880                    
    1881                    $C$DW$200       .dwtag  DW_TAG_enumerator
    1882                            .dwattr $C$DW$200, DW_AT_name("ApiMac_attribute_diagTxSecureFail")
    1883                            .dwattr $C$DW$200, DW_AT_const_value(0xf3)
    1884                            .dwattr $C$DW$200, DW_AT_decl_file("C:/CCSWorkspace/ECG603/sensor_cc1350lp/Application/api_mac
    1885                            .dwattr $C$DW$200, DW_AT_decl_line(0x36f)
    1886                            .dwattr $C$DW$200, DW_AT_decl_column(0x05)
    1887                    
    1888                            .dwattr $C$DW$T$690, DW_AT_decl_file("C:/CCSWorkspace/ECG603/sensor_cc1350lp/Application/api_m
    1889                            .dwattr $C$DW$T$690, DW_AT_decl_line(0x356)
    1890                            .dwattr $C$DW$T$690, DW_AT_decl_column(0x01)
    1891                            .dwendtag $C$DW$T$690
    1892                    
    1893                    $C$DW$T$691     .dwtag  DW_TAG_typedef
    1894                            .dwattr $C$DW$T$691, DW_AT_name("ApiMac_attribute_uint32_t")
    1895                            .dwattr $C$DW$T$691, DW_AT_type(*$C$DW$T$690)
    1896                            .dwattr $C$DW$T$691, DW_AT_language(DW_LANG_C)
    1897                            .dwattr $C$DW$T$691, DW_AT_decl_file("C:/CCSWorkspace/ECG603/sensor_cc1350lp/Application/api_m
    1898                            .dwattr $C$DW$T$691, DW_AT_decl_line(0x370)
    1899                            .dwattr $C$DW$T$691, DW_AT_decl_column(0x03)
    1900                    
    1901                    
    1902                    $C$DW$T$692     .dwtag  DW_TAG_enumeration_type
    1903                            .dwattr $C$DW$T$692, DW_AT_byte_size(0x01)
    1904                    $C$DW$201       .dwtag  DW_TAG_enumerator
    1905                            .dwattr $C$DW$201, DW_AT_name("ApiMac_attribute_beaconPayload")
    1906                            .dwattr $C$DW$201, DW_AT_const_value(0x45)
    1907                            .dwattr $C$DW$201, DW_AT_decl_file("C:/CCSWorkspace/ECG603/sensor_cc1350lp/Application/api_mac
    1908                            .dwattr $C$DW$201, DW_AT_decl_line(0x376)
    1909                            .dwattr $C$DW$201, DW_AT_decl_column(0x05)
    1910                    
    1911                    $C$DW$202       .dwtag  DW_TAG_enumerator
    1912                            .dwattr $C$DW$202, DW_AT_name("ApiMac_attribute_coordExtendedAddress")
    1913                            .dwattr $C$DW$202, DW_AT_const_value(0x4a)
    1914                            .dwattr $C$DW$202, DW_AT_decl_file("C:/CCSWorkspace/ECG603/sensor_cc1350lp/Application/api_mac
    1915                            .dwattr $C$DW$202, DW_AT_decl_line(0x37b)
    1916                            .dwattr $C$DW$202, DW_AT_decl_column(0x05)
    1917                    
    1918                    $C$DW$203       .dwtag  DW_TAG_enumerator
    1919                            .dwattr $C$DW$203, DW_AT_name("ApiMac_attribute_extendedAddress")
    1920                            .dwattr $C$DW$203, DW_AT_const_value(0xe2)
    1921                            .dwattr $C$DW$203, DW_AT_decl_file("C:/CCSWorkspace/ECG603/sensor_cc1350lp/Application/api_mac
    1922                            .dwattr $C$DW$203, DW_AT_decl_line(0x37d)
    1923                            .dwattr $C$DW$203, DW_AT_decl_column(0x05)
    1924                    
TI ARM Assembler PC v16.9.9 Sun Nov 25 17:19:51 2018

Tools Copyright (c) 1996-2017 Texas Instruments Incorporated
C:\Users\Stryd\AppData\Local\Temp\{F707AED4-2B3E-4DAD-8386-DB17F4B4B9A2} PAGE   36

    1925                            .dwattr $C$DW$T$692, DW_AT_decl_file("C:/CCSWorkspace/ECG603/sensor_cc1350lp/Application/api_m
    1926                            .dwattr $C$DW$T$692, DW_AT_decl_line(0x374)
    1927                            .dwattr $C$DW$T$692, DW_AT_decl_column(0x01)
    1928                            .dwendtag $C$DW$T$692
    1929                    
    1930                    $C$DW$T$693     .dwtag  DW_TAG_typedef
    1931                            .dwattr $C$DW$T$693, DW_AT_name("ApiMac_attribute_array_t")
    1932                            .dwattr $C$DW$T$693, DW_AT_type(*$C$DW$T$692)
    1933                            .dwattr $C$DW$T$693, DW_AT_language(DW_LANG_C)
    1934                            .dwattr $C$DW$T$693, DW_AT_decl_file("C:/CCSWorkspace/ECG603/sensor_cc1350lp/Application/api_m
    1935                            .dwattr $C$DW$T$693, DW_AT_decl_line(0x37e)
    1936                            .dwattr $C$DW$T$693, DW_AT_decl_column(0x03)
    1937                    
    1938                    
    1939                    $C$DW$T$694     .dwtag  DW_TAG_enumeration_type
    1940                            .dwattr $C$DW$T$694, DW_AT_byte_size(0x01)
    1941                    $C$DW$204       .dwtag  DW_TAG_enumerator
    1942                            .dwattr $C$DW$204, DW_AT_name("ApiMac_securityAttribute_securityLevelTableEntries")
    1943                            .dwattr $C$DW$204, DW_AT_const_value(0x83)
    1944                            .dwattr $C$DW$204, DW_AT_decl_file("C:/CCSWorkspace/ECG603/sensor_cc1350lp/Application/api_mac
    1945                            .dwattr $C$DW$204, DW_AT_decl_line(0x384)
    1946                            .dwattr $C$DW$204, DW_AT_decl_column(0x05)
    1947                    
    1948                    $C$DW$205       .dwtag  DW_TAG_enumerator
    1949                            .dwattr $C$DW$205, DW_AT_name("ApiMac_securityAttribute_autoRequestSecurityLevel")
    1950                            .dwattr $C$DW$205, DW_AT_const_value(0x85)
    1951                            .dwattr $C$DW$205, DW_AT_decl_file("C:/CCSWorkspace/ECG603/sensor_cc1350lp/Application/api_mac
    1952                            .dwattr $C$DW$205, DW_AT_decl_line(0x386)
    1953                            .dwattr $C$DW$205, DW_AT_decl_column(0x05)
    1954                    
    1955                    $C$DW$206       .dwtag  DW_TAG_enumerator
    1956                            .dwattr $C$DW$206, DW_AT_name("ApiMac_securityAttribute_autoRequestKeyIdMode")
    1957                            .dwattr $C$DW$206, DW_AT_const_value(0x86)
    1958                            .dwattr $C$DW$206, DW_AT_decl_file("C:/CCSWorkspace/ECG603/sensor_cc1350lp/Application/api_mac
    1959                            .dwattr $C$DW$206, DW_AT_decl_line(0x388)
    1960                            .dwattr $C$DW$206, DW_AT_decl_column(0x05)
    1961                    
    1962                    $C$DW$207       .dwtag  DW_TAG_enumerator
    1963                            .dwattr $C$DW$207, DW_AT_name("ApiMac_securityAttribute_autoRequestKeyIndex")
    1964                            .dwattr $C$DW$207, DW_AT_const_value(0x88)
    1965                            .dwattr $C$DW$207, DW_AT_decl_file("C:/CCSWorkspace/ECG603/sensor_cc1350lp/Application/api_mac
    1966                            .dwattr $C$DW$207, DW_AT_decl_line(0x38a)
    1967                            .dwattr $C$DW$207, DW_AT_decl_column(0x05)
    1968                    
    1969                            .dwattr $C$DW$T$694, DW_AT_decl_file("C:/CCSWorkspace/ECG603/sensor_cc1350lp/Application/api_m
    1970                            .dwattr $C$DW$T$694, DW_AT_decl_line(0x382)
    1971                            .dwattr $C$DW$T$694, DW_AT_decl_column(0x01)
    1972                            .dwendtag $C$DW$T$694
    1973                    
    1974                    $C$DW$T$695     .dwtag  DW_TAG_typedef
    1975                            .dwattr $C$DW$T$695, DW_AT_name("ApiMac_securityAttribute_uint8_t")
    1976                            .dwattr $C$DW$T$695, DW_AT_type(*$C$DW$T$694)
    1977                            .dwattr $C$DW$T$695, DW_AT_language(DW_LANG_C)
    1978                            .dwattr $C$DW$T$695, DW_AT_decl_file("C:/CCSWorkspace/ECG603/sensor_cc1350lp/Application/api_m
    1979                            .dwattr $C$DW$T$695, DW_AT_decl_line(0x38b)
TI ARM Assembler PC v16.9.9 Sun Nov 25 17:19:51 2018

Tools Copyright (c) 1996-2017 Texas Instruments Incorporated
C:\Users\Stryd\AppData\Local\Temp\{F707AED4-2B3E-4DAD-8386-DB17F4B4B9A2} PAGE   37

    1980                            .dwattr $C$DW$T$695, DW_AT_decl_column(0x03)
    1981                    
    1982                    
    1983                    $C$DW$T$696     .dwtag  DW_TAG_enumeration_type
    1984                            .dwattr $C$DW$T$696, DW_AT_byte_size(0x01)
    1985                    $C$DW$208       .dwtag  DW_TAG_enumerator
    1986                            .dwattr $C$DW$208, DW_AT_name("ApiMac_securityAttribute_keyTableEntries")
    1987                            .dwattr $C$DW$208, DW_AT_const_value(0x81)
    1988                            .dwattr $C$DW$208, DW_AT_decl_file("C:/CCSWorkspace/ECG603/sensor_cc1350lp/Application/api_mac
    1989                            .dwattr $C$DW$208, DW_AT_decl_line(0x391)
    1990                            .dwattr $C$DW$208, DW_AT_decl_column(0x05)
    1991                    
    1992                    $C$DW$209       .dwtag  DW_TAG_enumerator
    1993                            .dwattr $C$DW$209, DW_AT_name("ApiMac_securityAttribute_deviceTableEntries")
    1994                            .dwattr $C$DW$209, DW_AT_const_value(0x82)
    1995                            .dwattr $C$DW$209, DW_AT_decl_file("C:/CCSWorkspace/ECG603/sensor_cc1350lp/Application/api_mac
    1996                            .dwattr $C$DW$209, DW_AT_decl_line(0x394)
    1997                            .dwattr $C$DW$209, DW_AT_decl_column(0x05)
    1998                    
    1999                    $C$DW$210       .dwtag  DW_TAG_enumerator
    2000                            .dwattr $C$DW$210, DW_AT_name("ApiMac_securityAttribute_panCoordShortAddress")
    2001                            .dwattr $C$DW$210, DW_AT_const_value(0x8b)
    2002                            .dwattr $C$DW$210, DW_AT_decl_file("C:/CCSWorkspace/ECG603/sensor_cc1350lp/Application/api_mac
    2003                            .dwattr $C$DW$210, DW_AT_decl_line(0x397)
    2004                            .dwattr $C$DW$210, DW_AT_decl_column(0x05)
    2005                    
    2006                            .dwattr $C$DW$T$696, DW_AT_decl_file("C:/CCSWorkspace/ECG603/sensor_cc1350lp/Application/api_m
    2007                            .dwattr $C$DW$T$696, DW_AT_decl_line(0x38f)
    2008                            .dwattr $C$DW$T$696, DW_AT_decl_column(0x01)
    2009                            .dwendtag $C$DW$T$696
    2010                    
    2011                    $C$DW$T$697     .dwtag  DW_TAG_typedef
    2012                            .dwattr $C$DW$T$697, DW_AT_name("ApiMac_securityAttribute_uint16_t")
    2013                            .dwattr $C$DW$T$697, DW_AT_type(*$C$DW$T$696)
    2014                            .dwattr $C$DW$T$697, DW_AT_language(DW_LANG_C)
    2015                            .dwattr $C$DW$T$697, DW_AT_decl_file("C:/CCSWorkspace/ECG603/sensor_cc1350lp/Application/api_m
    2016                            .dwattr $C$DW$T$697, DW_AT_decl_line(0x399)
    2017                            .dwattr $C$DW$T$697, DW_AT_decl_column(0x03)
    2018                    
    2019                    
    2020                    $C$DW$T$698     .dwtag  DW_TAG_enumeration_type
    2021                            .dwattr $C$DW$T$698, DW_AT_byte_size(0x01)
    2022                    $C$DW$211       .dwtag  DW_TAG_enumerator
    2023                            .dwattr $C$DW$211, DW_AT_name("ApiMac_securityAttribute_autoRequestKeySource")
    2024                            .dwattr $C$DW$211, DW_AT_const_value(0x87)
    2025                            .dwattr $C$DW$211, DW_AT_decl_file("C:/CCSWorkspace/ECG603/sensor_cc1350lp/Application/api_mac
    2026                            .dwattr $C$DW$211, DW_AT_decl_line(0x39f)
    2027                            .dwattr $C$DW$211, DW_AT_decl_column(0x05)
    2028                    
    2029                    $C$DW$212       .dwtag  DW_TAG_enumerator
    2030                            .dwattr $C$DW$212, DW_AT_name("ApiMac_securityAttribute_defaultKeySource")
    2031                            .dwattr $C$DW$212, DW_AT_const_value(0x89)
    2032                            .dwattr $C$DW$212, DW_AT_decl_file("C:/CCSWorkspace/ECG603/sensor_cc1350lp/Application/api_mac
    2033                            .dwattr $C$DW$212, DW_AT_decl_line(0x3a1)
    2034                            .dwattr $C$DW$212, DW_AT_decl_column(0x05)
TI ARM Assembler PC v16.9.9 Sun Nov 25 17:19:51 2018

Tools Copyright (c) 1996-2017 Texas Instruments Incorporated
C:\Users\Stryd\AppData\Local\Temp\{F707AED4-2B3E-4DAD-8386-DB17F4B4B9A2} PAGE   38

    2035                    
    2036                    $C$DW$213       .dwtag  DW_TAG_enumerator
    2037                            .dwattr $C$DW$213, DW_AT_name("ApiMac_securityAttribute_panCoordExtendedAddress")
    2038                            .dwattr $C$DW$213, DW_AT_const_value(0x8a)
    2039                            .dwattr $C$DW$213, DW_AT_decl_file("C:/CCSWorkspace/ECG603/sensor_cc1350lp/Application/api_mac
    2040                            .dwattr $C$DW$213, DW_AT_decl_line(0x3a3)
    2041                            .dwattr $C$DW$213, DW_AT_decl_column(0x05)
    2042                    
    2043                            .dwattr $C$DW$T$698, DW_AT_decl_file("C:/CCSWorkspace/ECG603/sensor_cc1350lp/Application/api_m
    2044                            .dwattr $C$DW$T$698, DW_AT_decl_line(0x39d)
    2045                            .dwattr $C$DW$T$698, DW_AT_decl_column(0x01)
    2046                            .dwendtag $C$DW$T$698
    2047                    
    2048                    $C$DW$T$699     .dwtag  DW_TAG_typedef
    2049                            .dwattr $C$DW$T$699, DW_AT_name("ApiMac_securityAttribute_array_t")
    2050                            .dwattr $C$DW$T$699, DW_AT_type(*$C$DW$T$698)
    2051                            .dwattr $C$DW$T$699, DW_AT_language(DW_LANG_C)
    2052                            .dwattr $C$DW$T$699, DW_AT_decl_file("C:/CCSWorkspace/ECG603/sensor_cc1350lp/Application/api_m
    2053                            .dwattr $C$DW$T$699, DW_AT_decl_line(0x3a4)
    2054                            .dwattr $C$DW$T$699, DW_AT_decl_column(0x03)
    2055                    
    2056                    
    2057                    $C$DW$T$700     .dwtag  DW_TAG_enumeration_type
    2058                            .dwattr $C$DW$T$700, DW_AT_byte_size(0x01)
    2059                    $C$DW$214       .dwtag  DW_TAG_enumerator
    2060                            .dwattr $C$DW$214, DW_AT_name("ApiMac_securityAttribute_keyTable")
    2061                            .dwattr $C$DW$214, DW_AT_const_value(0x71)
    2062                            .dwattr $C$DW$214, DW_AT_decl_file("C:/CCSWorkspace/ECG603/sensor_cc1350lp/Application/api_mac
    2063                            .dwattr $C$DW$214, DW_AT_decl_line(0x3af)
    2064                            .dwattr $C$DW$214, DW_AT_decl_column(0x05)
    2065                    
    2066                    $C$DW$215       .dwtag  DW_TAG_enumerator
    2067                            .dwattr $C$DW$215, DW_AT_name("ApiMac_securityAttribute_keyIdLookupEntry")
    2068                            .dwattr $C$DW$215, DW_AT_const_value(0xd0)
    2069                            .dwattr $C$DW$215, DW_AT_decl_file("C:/CCSWorkspace/ECG603/sensor_cc1350lp/Application/api_mac
    2070                            .dwattr $C$DW$215, DW_AT_decl_line(0x3b8)
    2071                            .dwattr $C$DW$215, DW_AT_decl_column(0x05)
    2072                    
    2073                    $C$DW$216       .dwtag  DW_TAG_enumerator
    2074                            .dwattr $C$DW$216, DW_AT_name("ApiMac_securityAttribute_keyDeviceEntry")
    2075                            .dwattr $C$DW$216, DW_AT_const_value(0xd1)
    2076                            .dwattr $C$DW$216, DW_AT_decl_file("C:/CCSWorkspace/ECG603/sensor_cc1350lp/Application/api_mac
    2077                            .dwattr $C$DW$216, DW_AT_decl_line(0x3c1)
    2078                            .dwattr $C$DW$216, DW_AT_decl_column(0x05)
    2079                    
    2080                    $C$DW$217       .dwtag  DW_TAG_enumerator
    2081                            .dwattr $C$DW$217, DW_AT_name("ApiMac_securityAttribute_keyUsageEntry")
    2082                            .dwattr $C$DW$217, DW_AT_const_value(0xd2)
    2083                            .dwattr $C$DW$217, DW_AT_decl_file("C:/CCSWorkspace/ECG603/sensor_cc1350lp/Application/api_mac
    2084                            .dwattr $C$DW$217, DW_AT_decl_line(0x3ca)
    2085                            .dwattr $C$DW$217, DW_AT_decl_column(0x05)
    2086                    
    2087                    $C$DW$218       .dwtag  DW_TAG_enumerator
    2088                            .dwattr $C$DW$218, DW_AT_name("ApiMac_securityAttribute_keyEntry")
    2089                            .dwattr $C$DW$218, DW_AT_const_value(0xd3)
TI ARM Assembler PC v16.9.9 Sun Nov 25 17:19:51 2018

Tools Copyright (c) 1996-2017 Texas Instruments Incorporated
C:\Users\Stryd\AppData\Local\Temp\{F707AED4-2B3E-4DAD-8386-DB17F4B4B9A2} PAGE   39

    2090                            .dwattr $C$DW$218, DW_AT_decl_file("C:/CCSWorkspace/ECG603/sensor_cc1350lp/Application/api_mac
    2091                            .dwattr $C$DW$218, DW_AT_decl_line(0x3d3)
    2092                            .dwattr $C$DW$218, DW_AT_decl_column(0x05)
    2093                    
    2094                    $C$DW$219       .dwtag  DW_TAG_enumerator
    2095                            .dwattr $C$DW$219, DW_AT_name("ApiMac_securityAttribute_deviceEntry")
    2096                            .dwattr $C$DW$219, DW_AT_const_value(0xd4)
    2097                            .dwattr $C$DW$219, DW_AT_decl_file("C:/CCSWorkspace/ECG603/sensor_cc1350lp/Application/api_mac
    2098                            .dwattr $C$DW$219, DW_AT_decl_line(0x3dc)
    2099                            .dwattr $C$DW$219, DW_AT_decl_column(0x05)
    2100                    
    2101                    $C$DW$220       .dwtag  DW_TAG_enumerator
    2102                            .dwattr $C$DW$220, DW_AT_name("ApiMac_securityAttribute_securityLevelEntry")
    2103                            .dwattr $C$DW$220, DW_AT_const_value(0xd5)
    2104                            .dwattr $C$DW$220, DW_AT_decl_file("C:/CCSWorkspace/ECG603/sensor_cc1350lp/Application/api_mac
    2105                            .dwattr $C$DW$220, DW_AT_decl_line(0x3e5)
    2106                            .dwattr $C$DW$220, DW_AT_decl_column(0x05)
    2107                    
    2108                            .dwattr $C$DW$T$700, DW_AT_decl_file("C:/CCSWorkspace/ECG603/sensor_cc1350lp/Application/api_m
    2109                            .dwattr $C$DW$T$700, DW_AT_decl_line(0x3a8)
    2110                            .dwattr $C$DW$T$700, DW_AT_decl_column(0x01)
    2111                            .dwendtag $C$DW$T$700
    2112                    
    2113                    $C$DW$T$701     .dwtag  DW_TAG_typedef
    2114                            .dwattr $C$DW$T$701, DW_AT_name("ApiMac_securityAttribute_struct_t")
    2115                            .dwattr $C$DW$T$701, DW_AT_type(*$C$DW$T$700)
    2116                            .dwattr $C$DW$T$701, DW_AT_language(DW_LANG_C)
    2117                            .dwattr $C$DW$T$701, DW_AT_decl_file("C:/CCSWorkspace/ECG603/sensor_cc1350lp/Application/api_m
    2118                            .dwattr $C$DW$T$701, DW_AT_decl_line(0x3e6)
    2119                            .dwattr $C$DW$T$701, DW_AT_decl_column(0x03)
    2120                    
    2121                    
    2122                    $C$DW$T$702     .dwtag  DW_TAG_enumeration_type
    2123                            .dwattr $C$DW$T$702, DW_AT_byte_size(0x02)
    2124                    $C$DW$221       .dwtag  DW_TAG_enumerator
    2125                            .dwattr $C$DW$221, DW_AT_name("ApiMac_FHAttribute_unicastDwellInterval")
    2126                            .dwattr $C$DW$221, DW_AT_const_value(0x2004)
    2127                            .dwattr $C$DW$221, DW_AT_decl_file("C:/CCSWorkspace/ECG603/sensor_cc1350lp/Application/api_mac
    2128                            .dwattr $C$DW$221, DW_AT_decl_line(0x3ec)
    2129                            .dwattr $C$DW$221, DW_AT_decl_column(0x05)
    2130                    
    2131                    $C$DW$222       .dwtag  DW_TAG_enumerator
    2132                            .dwattr $C$DW$222, DW_AT_name("ApiMac_FHAttribute_broadcastDwellInterval")
    2133                            .dwattr $C$DW$222, DW_AT_const_value(0x2005)
    2134                            .dwattr $C$DW$222, DW_AT_decl_file("C:/CCSWorkspace/ECG603/sensor_cc1350lp/Application/api_mac
    2135                            .dwattr $C$DW$222, DW_AT_decl_line(0x3ee)
    2136                            .dwattr $C$DW$222, DW_AT_decl_column(0x05)
    2137                    
    2138                    $C$DW$223       .dwtag  DW_TAG_enumerator
    2139                            .dwattr $C$DW$223, DW_AT_name("ApiMac_FHAttribute_clockDrift")
    2140                            .dwattr $C$DW$223, DW_AT_const_value(0x2006)
    2141                            .dwattr $C$DW$223, DW_AT_decl_file("C:/CCSWorkspace/ECG603/sensor_cc1350lp/Application/api_mac
    2142                            .dwattr $C$DW$223, DW_AT_decl_line(0x3f0)
    2143                            .dwattr $C$DW$223, DW_AT_decl_column(0x05)
    2144                    
TI ARM Assembler PC v16.9.9 Sun Nov 25 17:19:51 2018

Tools Copyright (c) 1996-2017 Texas Instruments Incorporated
C:\Users\Stryd\AppData\Local\Temp\{F707AED4-2B3E-4DAD-8386-DB17F4B4B9A2} PAGE   40

    2145                    $C$DW$224       .dwtag  DW_TAG_enumerator
    2146                            .dwattr $C$DW$224, DW_AT_name("ApiMac_FHAttribute_timingAccuracy")
    2147                            .dwattr $C$DW$224, DW_AT_const_value(0x2007)
    2148                            .dwattr $C$DW$224, DW_AT_decl_file("C:/CCSWorkspace/ECG603/sensor_cc1350lp/Application/api_mac
    2149                            .dwattr $C$DW$224, DW_AT_decl_line(0x3f2)
    2150                            .dwattr $C$DW$224, DW_AT_decl_column(0x05)
    2151                    
    2152                    $C$DW$225       .dwtag  DW_TAG_enumerator
    2153                            .dwattr $C$DW$225, DW_AT_name("ApiMac_FHAttribute_unicastChannelFunction")
    2154                            .dwattr $C$DW$225, DW_AT_const_value(0x2008)
    2155                            .dwattr $C$DW$225, DW_AT_decl_file("C:/CCSWorkspace/ECG603/sensor_cc1350lp/Application/api_mac
    2156                            .dwattr $C$DW$225, DW_AT_decl_line(0x3f4)
    2157                            .dwattr $C$DW$225, DW_AT_decl_column(0x05)
    2158                    
    2159                    $C$DW$226       .dwtag  DW_TAG_enumerator
    2160                            .dwattr $C$DW$226, DW_AT_name("ApiMac_FHAttribute_broadcastChannelFunction")
    2161                            .dwattr $C$DW$226, DW_AT_const_value(0x2009)
    2162                            .dwattr $C$DW$226, DW_AT_decl_file("C:/CCSWorkspace/ECG603/sensor_cc1350lp/Application/api_mac
    2163                            .dwattr $C$DW$226, DW_AT_decl_line(0x3f6)
    2164                            .dwattr $C$DW$226, DW_AT_decl_column(0x05)
    2165                    
    2166                    $C$DW$227       .dwtag  DW_TAG_enumerator
    2167                            .dwattr $C$DW$227, DW_AT_name("ApiMac_FHAttribute_useParentBSIE")
    2168                            .dwattr $C$DW$227, DW_AT_const_value(0x200a)
    2169                            .dwattr $C$DW$227, DW_AT_decl_file("C:/CCSWorkspace/ECG603/sensor_cc1350lp/Application/api_mac
    2170                            .dwattr $C$DW$227, DW_AT_decl_line(0x3f8)
    2171                            .dwattr $C$DW$227, DW_AT_decl_column(0x05)
    2172                    
    2173                    $C$DW$228       .dwtag  DW_TAG_enumerator
    2174                            .dwattr $C$DW$228, DW_AT_name("ApiMac_FHAttribute_routingCost")
    2175                            .dwattr $C$DW$228, DW_AT_const_value(0x200f)
    2176                            .dwattr $C$DW$228, DW_AT_decl_file("C:/CCSWorkspace/ECG603/sensor_cc1350lp/Application/api_mac
    2177                            .dwattr $C$DW$228, DW_AT_decl_line(0x3fa)
    2178                            .dwattr $C$DW$228, DW_AT_decl_column(0x05)
    2179                    
    2180                    $C$DW$229       .dwtag  DW_TAG_enumerator
    2181                            .dwattr $C$DW$229, DW_AT_name("ApiMac_FHAttribute_routingMethod")
    2182                            .dwattr $C$DW$229, DW_AT_const_value(0x2010)
    2183                            .dwattr $C$DW$229, DW_AT_decl_file("C:/CCSWorkspace/ECG603/sensor_cc1350lp/Application/api_mac
    2184                            .dwattr $C$DW$229, DW_AT_decl_line(0x3fc)
    2185                            .dwattr $C$DW$229, DW_AT_decl_column(0x05)
    2186                    
    2187                    $C$DW$230       .dwtag  DW_TAG_enumerator
    2188                            .dwattr $C$DW$230, DW_AT_name("ApiMac_FHAttribute_eapolReady")
    2189                            .dwattr $C$DW$230, DW_AT_const_value(0x2011)
    2190                            .dwattr $C$DW$230, DW_AT_decl_file("C:/CCSWorkspace/ECG603/sensor_cc1350lp/Application/api_mac
    2191                            .dwattr $C$DW$230, DW_AT_decl_line(0x3fe)
    2192                            .dwattr $C$DW$230, DW_AT_decl_column(0x05)
    2193                    
    2194                    $C$DW$231       .dwtag  DW_TAG_enumerator
    2195                            .dwattr $C$DW$231, DW_AT_name("ApiMac_FHAttribute_fanTPSVersion")
    2196                            .dwattr $C$DW$231, DW_AT_const_value(0x2012)
    2197                            .dwattr $C$DW$231, DW_AT_decl_file("C:/CCSWorkspace/ECG603/sensor_cc1350lp/Application/api_mac
    2198                            .dwattr $C$DW$231, DW_AT_decl_line(0x400)
    2199                            .dwattr $C$DW$231, DW_AT_decl_column(0x05)
TI ARM Assembler PC v16.9.9 Sun Nov 25 17:19:51 2018

Tools Copyright (c) 1996-2017 Texas Instruments Incorporated
C:\Users\Stryd\AppData\Local\Temp\{F707AED4-2B3E-4DAD-8386-DB17F4B4B9A2} PAGE   41

    2200                    
    2201                    $C$DW$232       .dwtag  DW_TAG_enumerator
    2202                            .dwattr $C$DW$232, DW_AT_name("ApiMac_FHAttribute_CsmaBaseBacoff")
    2203                            .dwattr $C$DW$232, DW_AT_const_value(0x201a)
    2204                            .dwattr $C$DW$232, DW_AT_decl_file("C:/CCSWorkspace/ECG603/sensor_cc1350lp/Application/api_mac
    2205                            .dwattr $C$DW$232, DW_AT_decl_line(0x402)
    2206                            .dwattr $C$DW$232, DW_AT_decl_column(0x05)
    2207                    
    2208                            .dwattr $C$DW$T$702, DW_AT_decl_file("C:/CCSWorkspace/ECG603/sensor_cc1350lp/Application/api_m
    2209                            .dwattr $C$DW$T$702, DW_AT_decl_line(0x3ea)
    2210                            .dwattr $C$DW$T$702, DW_AT_decl_column(0x01)
    2211                            .dwendtag $C$DW$T$702
    2212                    
    2213                    $C$DW$T$703     .dwtag  DW_TAG_typedef
    2214                            .dwattr $C$DW$T$703, DW_AT_name("ApiMac_FHAttribute_uint8_t")
    2215                            .dwattr $C$DW$T$703, DW_AT_type(*$C$DW$T$702)
    2216                            .dwattr $C$DW$T$703, DW_AT_language(DW_LANG_C)
    2217                            .dwattr $C$DW$T$703, DW_AT_decl_file("C:/CCSWorkspace/ECG603/sensor_cc1350lp/Application/api_m
    2218                            .dwattr $C$DW$T$703, DW_AT_decl_line(0x404)
    2219                            .dwattr $C$DW$T$703, DW_AT_decl_column(0x03)
    2220                    
    2221                    
    2222                    $C$DW$T$704     .dwtag  DW_TAG_enumeration_type
    2223                            .dwattr $C$DW$T$704, DW_AT_byte_size(0x02)
    2224                    $C$DW$233       .dwtag  DW_TAG_enumerator
    2225                            .dwattr $C$DW$233, DW_AT_name("ApiMac_FHAttribute_broadcastSchedId")
    2226                            .dwattr $C$DW$233, DW_AT_const_value(0x200b)
    2227                            .dwattr $C$DW$233, DW_AT_decl_file("C:/CCSWorkspace/ECG603/sensor_cc1350lp/Application/api_mac
    2228                            .dwattr $C$DW$233, DW_AT_decl_line(0x40c)
    2229                            .dwattr $C$DW$233, DW_AT_decl_column(0x05)
    2230                    
    2231                    $C$DW$234       .dwtag  DW_TAG_enumerator
    2232                            .dwattr $C$DW$234, DW_AT_name("ApiMac_FHAttribute_unicastFixedChannel")
    2233                            .dwattr $C$DW$234, DW_AT_const_value(0x200c)
    2234                            .dwattr $C$DW$234, DW_AT_decl_file("C:/CCSWorkspace/ECG603/sensor_cc1350lp/Application/api_mac
    2235                            .dwattr $C$DW$234, DW_AT_decl_line(0x40e)
    2236                            .dwattr $C$DW$234, DW_AT_decl_column(0x05)
    2237                    
    2238                    $C$DW$235       .dwtag  DW_TAG_enumerator
    2239                            .dwattr $C$DW$235, DW_AT_name("ApiMac_FHAttribute_broadcastFixedChannel")
    2240                            .dwattr $C$DW$235, DW_AT_const_value(0x200d)
    2241                            .dwattr $C$DW$235, DW_AT_decl_file("C:/CCSWorkspace/ECG603/sensor_cc1350lp/Application/api_mac
    2242                            .dwattr $C$DW$235, DW_AT_decl_line(0x410)
    2243                            .dwattr $C$DW$235, DW_AT_decl_column(0x05)
    2244                    
    2245                    $C$DW$236       .dwtag  DW_TAG_enumerator
    2246                            .dwattr $C$DW$236, DW_AT_name("ApiMac_FHAttribute_panSize")
    2247                            .dwattr $C$DW$236, DW_AT_const_value(0x200e)
    2248                            .dwattr $C$DW$236, DW_AT_decl_file("C:/CCSWorkspace/ECG603/sensor_cc1350lp/Application/api_mac
    2249                            .dwattr $C$DW$236, DW_AT_decl_line(0x412)
    2250                            .dwattr $C$DW$236, DW_AT_decl_column(0x05)
    2251                    
    2252                    $C$DW$237       .dwtag  DW_TAG_enumerator
    2253                            .dwattr $C$DW$237, DW_AT_name("ApiMac_FHAttribute_panVersion")
    2254                            .dwattr $C$DW$237, DW_AT_const_value(0x2014)
TI ARM Assembler PC v16.9.9 Sun Nov 25 17:19:51 2018

Tools Copyright (c) 1996-2017 Texas Instruments Incorporated
C:\Users\Stryd\AppData\Local\Temp\{F707AED4-2B3E-4DAD-8386-DB17F4B4B9A2} PAGE   42

    2255                            .dwattr $C$DW$237, DW_AT_decl_file("C:/CCSWorkspace/ECG603/sensor_cc1350lp/Application/api_mac
    2256                            .dwattr $C$DW$237, DW_AT_decl_line(0x414)
    2257                            .dwattr $C$DW$237, DW_AT_decl_column(0x05)
    2258                    
    2259                    $C$DW$238       .dwtag  DW_TAG_enumerator
    2260                            .dwattr $C$DW$238, DW_AT_name("ApiMac_FHAttribute_neighborValidTime")
    2261                            .dwattr $C$DW$238, DW_AT_const_value(0x2019)
    2262                            .dwattr $C$DW$238, DW_AT_decl_file("C:/CCSWorkspace/ECG603/sensor_cc1350lp/Application/api_mac
    2263                            .dwattr $C$DW$238, DW_AT_decl_line(0x416)
    2264                            .dwattr $C$DW$238, DW_AT_decl_column(0x05)
    2265                    
    2266                    $C$DW$239       .dwtag  DW_TAG_enumerator
    2267                            .dwattr $C$DW$239, DW_AT_name("ApiMac_FHAttribute_numNonSleepDevice")
    2268                            .dwattr $C$DW$239, DW_AT_const_value(0x201b)
    2269                            .dwattr $C$DW$239, DW_AT_decl_file("C:/CCSWorkspace/ECG603/sensor_cc1350lp/Application/api_mac
    2270                            .dwattr $C$DW$239, DW_AT_decl_line(0x418)
    2271                            .dwattr $C$DW$239, DW_AT_decl_column(0x05)
    2272                    
    2273                    $C$DW$240       .dwtag  DW_TAG_enumerator
    2274                            .dwattr $C$DW$240, DW_AT_name("ApiMac_FHAttribute_numSleepDevice")
    2275                            .dwattr $C$DW$240, DW_AT_const_value(0x201c)
    2276                            .dwattr $C$DW$240, DW_AT_decl_file("C:/CCSWorkspace/ECG603/sensor_cc1350lp/Application/api_mac
    2277                            .dwattr $C$DW$240, DW_AT_decl_line(0x41a)
    2278                            .dwattr $C$DW$240, DW_AT_decl_column(0x05)
    2279                    
    2280                    $C$DW$241       .dwtag  DW_TAG_enumerator
    2281                            .dwattr $C$DW$241, DW_AT_name("ApiMac_FHAttribute_numTempTableNode")
    2282                            .dwattr $C$DW$241, DW_AT_const_value(0x201d)
    2283                            .dwattr $C$DW$241, DW_AT_decl_file("C:/CCSWorkspace/ECG603/sensor_cc1350lp/Application/api_mac
    2284                            .dwattr $C$DW$241, DW_AT_decl_line(0x41c)
    2285                            .dwattr $C$DW$241, DW_AT_decl_column(0x05)
    2286                    
    2287                            .dwattr $C$DW$T$704, DW_AT_decl_file("C:/CCSWorkspace/ECG603/sensor_cc1350lp/Application/api_m
    2288                            .dwattr $C$DW$T$704, DW_AT_decl_line(0x408)
    2289                            .dwattr $C$DW$T$704, DW_AT_decl_column(0x01)
    2290                            .dwendtag $C$DW$T$704
    2291                    
    2292                    $C$DW$T$705     .dwtag  DW_TAG_typedef
    2293                            .dwattr $C$DW$T$705, DW_AT_name("ApiMac_FHAttribute_uint16_t")
    2294                            .dwattr $C$DW$T$705, DW_AT_type(*$C$DW$T$704)
    2295                            .dwattr $C$DW$T$705, DW_AT_language(DW_LANG_C)
    2296                            .dwattr $C$DW$T$705, DW_AT_decl_file("C:/CCSWorkspace/ECG603/sensor_cc1350lp/Application/api_m
    2297                            .dwattr $C$DW$T$705, DW_AT_decl_line(0x41e)
    2298                            .dwattr $C$DW$T$705, DW_AT_decl_column(0x03)
    2299                    
    2300                    
    2301                    $C$DW$T$706     .dwtag  DW_TAG_enumeration_type
    2302                            .dwattr $C$DW$T$706, DW_AT_byte_size(0x02)
    2303                    $C$DW$242       .dwtag  DW_TAG_enumerator
    2304                            .dwattr $C$DW$242, DW_AT_name("ApiMac_FHAttribute_BCInterval")
    2305                            .dwattr $C$DW$242, DW_AT_const_value(0x2001)
    2306                            .dwattr $C$DW$242, DW_AT_decl_file("C:/CCSWorkspace/ECG603/sensor_cc1350lp/Application/api_mac
    2307                            .dwattr $C$DW$242, DW_AT_decl_line(0x426)
    2308                            .dwattr $C$DW$242, DW_AT_decl_column(0x05)
    2309                    
TI ARM Assembler PC v16.9.9 Sun Nov 25 17:19:51 2018

Tools Copyright (c) 1996-2017 Texas Instruments Incorporated
C:\Users\Stryd\AppData\Local\Temp\{F707AED4-2B3E-4DAD-8386-DB17F4B4B9A2} PAGE   43

    2310                            .dwattr $C$DW$T$706, DW_AT_decl_file("C:/CCSWorkspace/ECG603/sensor_cc1350lp/Application/api_m
    2311                            .dwattr $C$DW$T$706, DW_AT_decl_line(0x422)
    2312                            .dwattr $C$DW$T$706, DW_AT_decl_column(0x01)
    2313                            .dwendtag $C$DW$T$706
    2314                    
    2315                    $C$DW$T$707     .dwtag  DW_TAG_typedef
    2316                            .dwattr $C$DW$T$707, DW_AT_name("ApiMac_FHAttribute_uint32_t")
    2317                            .dwattr $C$DW$T$707, DW_AT_type(*$C$DW$T$706)
    2318                            .dwattr $C$DW$T$707, DW_AT_language(DW_LANG_C)
    2319                            .dwattr $C$DW$T$707, DW_AT_decl_file("C:/CCSWorkspace/ECG603/sensor_cc1350lp/Application/api_m
    2320                            .dwattr $C$DW$T$707, DW_AT_decl_line(0x427)
    2321                            .dwattr $C$DW$T$707, DW_AT_decl_column(0x03)
    2322                    
    2323                    
    2324                    $C$DW$T$708     .dwtag  DW_TAG_enumeration_type
    2325                            .dwattr $C$DW$T$708, DW_AT_byte_size(0x02)
    2326                    $C$DW$243       .dwtag  DW_TAG_enumerator
    2327                            .dwattr $C$DW$243, DW_AT_name("ApiMac_FHAttribute_trackParentEUI")
    2328                            .dwattr $C$DW$243, DW_AT_const_value(0x2000)
    2329                            .dwattr $C$DW$243, DW_AT_decl_file("C:/CCSWorkspace/ECG603/sensor_cc1350lp/Application/api_mac
    2330                            .dwattr $C$DW$243, DW_AT_decl_line(0x42d)
    2331                            .dwattr $C$DW$243, DW_AT_decl_column(0x05)
    2332                    
    2333                    $C$DW$244       .dwtag  DW_TAG_enumerator
    2334                            .dwattr $C$DW$244, DW_AT_name("ApiMac_FHAttribute_unicastExcludedChannels")
    2335                            .dwattr $C$DW$244, DW_AT_const_value(0x2002)
    2336                            .dwattr $C$DW$244, DW_AT_decl_file("C:/CCSWorkspace/ECG603/sensor_cc1350lp/Application/api_mac
    2337                            .dwattr $C$DW$244, DW_AT_decl_line(0x42f)
    2338                            .dwattr $C$DW$244, DW_AT_decl_column(0x05)
    2339                    
    2340                    $C$DW$245       .dwtag  DW_TAG_enumerator
    2341                            .dwattr $C$DW$245, DW_AT_name("ApiMac_FHAttribute_broadcastExcludedChannels")
    2342                            .dwattr $C$DW$245, DW_AT_const_value(0x2003)
    2343                            .dwattr $C$DW$245, DW_AT_decl_file("C:/CCSWorkspace/ECG603/sensor_cc1350lp/Application/api_mac
    2344                            .dwattr $C$DW$245, DW_AT_decl_line(0x431)
    2345                            .dwattr $C$DW$245, DW_AT_decl_column(0x05)
    2346                    
    2347                    $C$DW$246       .dwtag  DW_TAG_enumerator
    2348                            .dwattr $C$DW$246, DW_AT_name("ApiMac_FHAttribute_netName")
    2349                            .dwattr $C$DW$246, DW_AT_const_value(0x2013)
    2350                            .dwattr $C$DW$246, DW_AT_decl_file("C:/CCSWorkspace/ECG603/sensor_cc1350lp/Application/api_mac
    2351                            .dwattr $C$DW$246, DW_AT_decl_line(0x433)
    2352                            .dwattr $C$DW$246, DW_AT_decl_column(0x05)
    2353                    
    2354                    $C$DW$247       .dwtag  DW_TAG_enumerator
    2355                            .dwattr $C$DW$247, DW_AT_name("ApiMac_FHAttribute_gtk0Hash")
    2356                            .dwattr $C$DW$247, DW_AT_const_value(0x2015)
    2357                            .dwattr $C$DW$247, DW_AT_decl_file("C:/CCSWorkspace/ECG603/sensor_cc1350lp/Application/api_mac
    2358                            .dwattr $C$DW$247, DW_AT_decl_line(0x437)
    2359                            .dwattr $C$DW$247, DW_AT_decl_column(0x05)
    2360                    
    2361                    $C$DW$248       .dwtag  DW_TAG_enumerator
    2362                            .dwattr $C$DW$248, DW_AT_name("ApiMac_FHAttribute_gtk1Hash")
    2363                            .dwattr $C$DW$248, DW_AT_const_value(0x2016)
    2364                            .dwattr $C$DW$248, DW_AT_decl_file("C:/CCSWorkspace/ECG603/sensor_cc1350lp/Application/api_mac
TI ARM Assembler PC v16.9.9 Sun Nov 25 17:19:51 2018

Tools Copyright (c) 1996-2017 Texas Instruments Incorporated
C:\Users\Stryd\AppData\Local\Temp\{F707AED4-2B3E-4DAD-8386-DB17F4B4B9A2} PAGE   44

    2365                            .dwattr $C$DW$248, DW_AT_decl_line(0x43b)
    2366                            .dwattr $C$DW$248, DW_AT_decl_column(0x05)
    2367                    
    2368                    $C$DW$249       .dwtag  DW_TAG_enumerator
    2369                            .dwattr $C$DW$249, DW_AT_name("ApiMac_FHAttribute_gtk2Hash")
    2370                            .dwattr $C$DW$249, DW_AT_const_value(0x2017)
    2371                            .dwattr $C$DW$249, DW_AT_decl_file("C:/CCSWorkspace/ECG603/sensor_cc1350lp/Application/api_mac
    2372                            .dwattr $C$DW$249, DW_AT_decl_line(0x43f)
    2373                            .dwattr $C$DW$249, DW_AT_decl_column(0x05)
    2374                    
    2375                    $C$DW$250       .dwtag  DW_TAG_enumerator
    2376                            .dwattr $C$DW$250, DW_AT_name("ApiMac_FHAttribute_gtk3Hash")
    2377                            .dwattr $C$DW$250, DW_AT_const_value(0x2018)
    2378                            .dwattr $C$DW$250, DW_AT_decl_file("C:/CCSWorkspace/ECG603/sensor_cc1350lp/Application/api_mac
    2379                            .dwattr $C$DW$250, DW_AT_decl_line(0x443)
    2380                            .dwattr $C$DW$250, DW_AT_decl_column(0x05)
    2381                    
    2382                            .dwattr $C$DW$T$708, DW_AT_decl_file("C:/CCSWorkspace/ECG603/sensor_cc1350lp/Application/api_m
    2383                            .dwattr $C$DW$T$708, DW_AT_decl_line(0x42b)
    2384                            .dwattr $C$DW$T$708, DW_AT_decl_column(0x01)
    2385                            .dwendtag $C$DW$T$708
    2386                    
    2387                    $C$DW$T$709     .dwtag  DW_TAG_typedef
    2388                            .dwattr $C$DW$T$709, DW_AT_name("ApiMac_FHAttribute_array_t")
    2389                            .dwattr $C$DW$T$709, DW_AT_type(*$C$DW$T$708)
    2390                            .dwattr $C$DW$T$709, DW_AT_language(DW_LANG_C)
    2391                            .dwattr $C$DW$T$709, DW_AT_decl_file("C:/CCSWorkspace/ECG603/sensor_cc1350lp/Application/api_m
    2392                            .dwattr $C$DW$T$709, DW_AT_decl_line(0x444)
    2393                            .dwattr $C$DW$T$709, DW_AT_decl_column(0x03)
    2394                    
    2395                    
    2396                    $C$DW$T$710     .dwtag  DW_TAG_enumeration_type
    2397                            .dwattr $C$DW$T$710, DW_AT_byte_size(0x01)
    2398                    $C$DW$251       .dwtag  DW_TAG_enumerator
    2399                            .dwattr $C$DW$251, DW_AT_name("ApiMac_payloadIEGroup_ESDU")
    2400                            .dwattr $C$DW$251, DW_AT_const_value(0x00)
    2401                            .dwattr $C$DW$251, DW_AT_decl_file("C:/CCSWorkspace/ECG603/sensor_cc1350lp/Application/api_mac
    2402                            .dwattr $C$DW$251, DW_AT_decl_line(0x45f)
    2403                            .dwattr $C$DW$251, DW_AT_decl_column(0x05)
    2404                    
    2405                    $C$DW$252       .dwtag  DW_TAG_enumerator
    2406                            .dwattr $C$DW$252, DW_AT_name("ApiMac_payloadIEGroup_MLME")
    2407                            .dwattr $C$DW$252, DW_AT_const_value(0x01)
    2408                            .dwattr $C$DW$252, DW_AT_decl_file("C:/CCSWorkspace/ECG603/sensor_cc1350lp/Application/api_mac
    2409                            .dwattr $C$DW$252, DW_AT_decl_line(0x461)
    2410                            .dwattr $C$DW$252, DW_AT_decl_column(0x05)
    2411                    
    2412                    $C$DW$253       .dwtag  DW_TAG_enumerator
    2413                            .dwattr $C$DW$253, DW_AT_name("ApiMac_payloadIEGroup_WiSUN")
    2414                            .dwattr $C$DW$253, DW_AT_const_value(0x04)
    2415                            .dwattr $C$DW$253, DW_AT_decl_file("C:/CCSWorkspace/ECG603/sensor_cc1350lp/Application/api_mac
    2416                            .dwattr $C$DW$253, DW_AT_decl_line(0x463)
    2417                            .dwattr $C$DW$253, DW_AT_decl_column(0x05)
    2418                    
    2419                    $C$DW$254       .dwtag  DW_TAG_enumerator
TI ARM Assembler PC v16.9.9 Sun Nov 25 17:19:51 2018

Tools Copyright (c) 1996-2017 Texas Instruments Incorporated
C:\Users\Stryd\AppData\Local\Temp\{F707AED4-2B3E-4DAD-8386-DB17F4B4B9A2} PAGE   45

    2420                            .dwattr $C$DW$254, DW_AT_name("ApiMac_payloadIEGroup_term")
    2421                            .dwattr $C$DW$254, DW_AT_const_value(0x0f)
    2422                            .dwattr $C$DW$254, DW_AT_decl_file("C:/CCSWorkspace/ECG603/sensor_cc1350lp/Application/api_mac
    2423                            .dwattr $C$DW$254, DW_AT_decl_line(0x465)
    2424                            .dwattr $C$DW$254, DW_AT_decl_column(0x05)
    2425                    
    2426                            .dwattr $C$DW$T$710, DW_AT_decl_file("C:/CCSWorkspace/ECG603/sensor_cc1350lp/Application/api_m
    2427                            .dwattr $C$DW$T$710, DW_AT_decl_line(0x45d)
    2428                            .dwattr $C$DW$T$710, DW_AT_decl_column(0x01)
    2429                            .dwendtag $C$DW$T$710
    2430                    
    2431                    $C$DW$T$711     .dwtag  DW_TAG_typedef
    2432                            .dwattr $C$DW$T$711, DW_AT_name("ApiMac_payloadIEGroup_t")
    2433                            .dwattr $C$DW$T$711, DW_AT_type(*$C$DW$T$710)
    2434                            .dwattr $C$DW$T$711, DW_AT_language(DW_LANG_C)
    2435                            .dwattr $C$DW$T$711, DW_AT_decl_file("C:/CCSWorkspace/ECG603/sensor_cc1350lp/Application/api_m
    2436                            .dwattr $C$DW$T$711, DW_AT_decl_line(0x466)
    2437                            .dwattr $C$DW$T$711, DW_AT_decl_column(0x03)
    2438                    
    2439                    
    2440                    $C$DW$T$712     .dwtag  DW_TAG_enumeration_type
    2441                            .dwattr $C$DW$T$712, DW_AT_byte_size(0x01)
    2442                    $C$DW$255       .dwtag  DW_TAG_enumerator
    2443                            .dwattr $C$DW$255, DW_AT_name("ApiMac_MLMESubIE_coexist")
    2444                            .dwattr $C$DW$255, DW_AT_const_value(0x21)
    2445                            .dwattr $C$DW$255, DW_AT_decl_file("C:/CCSWorkspace/ECG603/sensor_cc1350lp/Application/api_mac
    2446                            .dwattr $C$DW$255, DW_AT_decl_line(0x46c)
    2447                            .dwattr $C$DW$255, DW_AT_decl_column(0x05)
    2448                    
    2449                    $C$DW$256       .dwtag  DW_TAG_enumerator
    2450                            .dwattr $C$DW$256, DW_AT_name("ApiMac_MLMESubIE_sunDevCap")
    2451                            .dwattr $C$DW$256, DW_AT_const_value(0x22)
    2452                            .dwattr $C$DW$256, DW_AT_decl_file("C:/CCSWorkspace/ECG603/sensor_cc1350lp/Application/api_mac
    2453                            .dwattr $C$DW$256, DW_AT_decl_line(0x46e)
    2454                            .dwattr $C$DW$256, DW_AT_decl_column(0x05)
    2455                    
    2456                    $C$DW$257       .dwtag  DW_TAG_enumerator
    2457                            .dwattr $C$DW$257, DW_AT_name("ApiMac_MLMESubIE_sunFSKGenPhy")
    2458                            .dwattr $C$DW$257, DW_AT_const_value(0x23)
    2459                            .dwattr $C$DW$257, DW_AT_decl_file("C:/CCSWorkspace/ECG603/sensor_cc1350lp/Application/api_mac
    2460                            .dwattr $C$DW$257, DW_AT_decl_line(0x470)
    2461                            .dwattr $C$DW$257, DW_AT_decl_column(0x05)
    2462                    
    2463                            .dwattr $C$DW$T$712, DW_AT_decl_file("C:/CCSWorkspace/ECG603/sensor_cc1350lp/Application/api_m
    2464                            .dwattr $C$DW$T$712, DW_AT_decl_line(0x46a)
    2465                            .dwattr $C$DW$T$712, DW_AT_decl_column(0x01)
    2466                            .dwendtag $C$DW$T$712
    2467                    
    2468                    $C$DW$T$713     .dwtag  DW_TAG_typedef
    2469                            .dwattr $C$DW$T$713, DW_AT_name("ApiMac_MLMESubIE_t")
    2470                            .dwattr $C$DW$T$713, DW_AT_type(*$C$DW$T$712)
    2471                            .dwattr $C$DW$T$713, DW_AT_language(DW_LANG_C)
    2472                            .dwattr $C$DW$T$713, DW_AT_decl_file("C:/CCSWorkspace/ECG603/sensor_cc1350lp/Application/api_m
    2473                            .dwattr $C$DW$T$713, DW_AT_decl_line(0x471)
    2474                            .dwattr $C$DW$T$713, DW_AT_decl_column(0x03)
TI ARM Assembler PC v16.9.9 Sun Nov 25 17:19:51 2018

Tools Copyright (c) 1996-2017 Texas Instruments Incorporated
C:\Users\Stryd\AppData\Local\Temp\{F707AED4-2B3E-4DAD-8386-DB17F4B4B9A2} PAGE   46

    2475                    
    2476                    
    2477                    $C$DW$T$714     .dwtag  DW_TAG_enumeration_type
    2478                            .dwattr $C$DW$T$714, DW_AT_byte_size(0x01)
    2479                    $C$DW$258       .dwtag  DW_TAG_enumerator
    2480                            .dwattr $C$DW$258, DW_AT_name("ApiMac_wisunSubIE_USIE")
    2481                            .dwattr $C$DW$258, DW_AT_const_value(0x01)
    2482                            .dwattr $C$DW$258, DW_AT_decl_file("C:/CCSWorkspace/ECG603/sensor_cc1350lp/Application/api_mac
    2483                            .dwattr $C$DW$258, DW_AT_decl_line(0x477)
    2484                            .dwattr $C$DW$258, DW_AT_decl_column(0x05)
    2485                    
    2486                    $C$DW$259       .dwtag  DW_TAG_enumerator
    2487                            .dwattr $C$DW$259, DW_AT_name("ApiMac_wisunSubIE_BSIE")
    2488                            .dwattr $C$DW$259, DW_AT_const_value(0x02)
    2489                            .dwattr $C$DW$259, DW_AT_decl_file("C:/CCSWorkspace/ECG603/sensor_cc1350lp/Application/api_mac
    2490                            .dwattr $C$DW$259, DW_AT_decl_line(0x479)
    2491                            .dwattr $C$DW$259, DW_AT_decl_column(0x05)
    2492                    
    2493                    $C$DW$260       .dwtag  DW_TAG_enumerator
    2494                            .dwattr $C$DW$260, DW_AT_name("ApiMac_wisunSubIE_PANIE")
    2495                            .dwattr $C$DW$260, DW_AT_const_value(0x04)
    2496                            .dwattr $C$DW$260, DW_AT_decl_file("C:/CCSWorkspace/ECG603/sensor_cc1350lp/Application/api_mac
    2497                            .dwattr $C$DW$260, DW_AT_decl_line(0x47b)
    2498                            .dwattr $C$DW$260, DW_AT_decl_column(0x05)
    2499                    
    2500                    $C$DW$261       .dwtag  DW_TAG_enumerator
    2501                            .dwattr $C$DW$261, DW_AT_name("ApiMac_wisunSubIE_netNameIE")
    2502                            .dwattr $C$DW$261, DW_AT_const_value(0x05)
    2503                            .dwattr $C$DW$261, DW_AT_decl_file("C:/CCSWorkspace/ECG603/sensor_cc1350lp/Application/api_mac
    2504                            .dwattr $C$DW$261, DW_AT_decl_line(0x47d)
    2505                            .dwattr $C$DW$261, DW_AT_decl_column(0x05)
    2506                    
    2507                    $C$DW$262       .dwtag  DW_TAG_enumerator
    2508                            .dwattr $C$DW$262, DW_AT_name("ApiMac_wisunSubIE_PANVersionIE")
    2509                            .dwattr $C$DW$262, DW_AT_const_value(0x06)
    2510                            .dwattr $C$DW$262, DW_AT_decl_file("C:/CCSWorkspace/ECG603/sensor_cc1350lp/Application/api_mac
    2511                            .dwattr $C$DW$262, DW_AT_decl_line(0x47f)
    2512                            .dwattr $C$DW$262, DW_AT_decl_column(0x05)
    2513                    
    2514                    $C$DW$263       .dwtag  DW_TAG_enumerator
    2515                            .dwattr $C$DW$263, DW_AT_name("ApiMac_wisunSubIE_GTKHashIE")
    2516                            .dwattr $C$DW$263, DW_AT_const_value(0x07)
    2517                            .dwattr $C$DW$263, DW_AT_decl_file("C:/CCSWorkspace/ECG603/sensor_cc1350lp/Application/api_mac
    2518                            .dwattr $C$DW$263, DW_AT_decl_line(0x481)
    2519                            .dwattr $C$DW$263, DW_AT_decl_column(0x05)
    2520                    
    2521                            .dwattr $C$DW$T$714, DW_AT_decl_file("C:/CCSWorkspace/ECG603/sensor_cc1350lp/Application/api_m
    2522                            .dwattr $C$DW$T$714, DW_AT_decl_line(0x475)
    2523                            .dwattr $C$DW$T$714, DW_AT_decl_column(0x01)
    2524                            .dwendtag $C$DW$T$714
    2525                    
    2526                    $C$DW$T$715     .dwtag  DW_TAG_typedef
    2527                            .dwattr $C$DW$T$715, DW_AT_name("ApiMac_wisunSubIE_t")
    2528                            .dwattr $C$DW$T$715, DW_AT_type(*$C$DW$T$714)
    2529                            .dwattr $C$DW$T$715, DW_AT_language(DW_LANG_C)
TI ARM Assembler PC v16.9.9 Sun Nov 25 17:19:51 2018

Tools Copyright (c) 1996-2017 Texas Instruments Incorporated
C:\Users\Stryd\AppData\Local\Temp\{F707AED4-2B3E-4DAD-8386-DB17F4B4B9A2} PAGE   47

    2530                            .dwattr $C$DW$T$715, DW_AT_decl_file("C:/CCSWorkspace/ECG603/sensor_cc1350lp/Application/api_m
    2531                            .dwattr $C$DW$T$715, DW_AT_decl_line(0x482)
    2532                            .dwattr $C$DW$T$715, DW_AT_decl_column(0x03)
    2533                    
    2534                    
    2535                    $C$DW$T$178     .dwtag  DW_TAG_structure_type
    2536                            .dwattr $C$DW$T$178, DW_AT_byte_size(0x4c)
    2537                    $C$DW$264       .dwtag  DW_TAG_member
    2538                            .dwattr $C$DW$264, DW_AT_type(*$C$DW$T$142)
    2539                            .dwattr $C$DW$264, DW_AT_name("Crc32")
    2540                            .dwattr $C$DW$264, DW_AT_TI_symbol_name("Crc32")
    2541                            .dwattr $C$DW$264, DW_AT_data_member_location[DW_OP_plus_uconst 0x0]
    2542                            .dwattr $C$DW$264, DW_AT_accessibility(DW_ACCESS_public)
    2543                            .dwattr $C$DW$264, DW_AT_decl_file("C:\ti\simplelink_cc13x0_sdk_2_30_00_20\source\ti\devices\c
    2544                            .dwattr $C$DW$264, DW_AT_decl_line(0x76)
    2545                            .dwattr $C$DW$264, DW_AT_decl_column(0x25)
    2546                    
    2547                    $C$DW$265       .dwtag  DW_TAG_member
    2548                            .dwattr $C$DW$265, DW_AT_type(*$C$DW$T$145)
    2549                            .dwattr $C$DW$265, DW_AT_name("FlashGetSize")
    2550                            .dwattr $C$DW$265, DW_AT_TI_symbol_name("FlashGetSize")
    2551                            .dwattr $C$DW$265, DW_AT_data_member_location[DW_OP_plus_uconst 0x4]
    2552                            .dwattr $C$DW$265, DW_AT_accessibility(DW_ACCESS_public)
    2553                            .dwattr $C$DW$265, DW_AT_decl_file("C:\ti\simplelink_cc13x0_sdk_2_30_00_20\source\ti\devices\c
    2554                            .dwattr $C$DW$265, DW_AT_decl_line(0x77)
    2555                            .dwattr $C$DW$265, DW_AT_decl_column(0x25)
    2556                    
    2557                    $C$DW$266       .dwtag  DW_TAG_member
    2558                            .dwattr $C$DW$266, DW_AT_type(*$C$DW$T$146)
    2559                            .dwattr $C$DW$266, DW_AT_name("GetChipId")
    2560                            .dwattr $C$DW$266, DW_AT_TI_symbol_name("GetChipId")
    2561                            .dwattr $C$DW$266, DW_AT_data_member_location[DW_OP_plus_uconst 0x8]
    2562                            .dwattr $C$DW$266, DW_AT_accessibility(DW_ACCESS_public)
    2563                            .dwattr $C$DW$266, DW_AT_decl_file("C:\ti\simplelink_cc13x0_sdk_2_30_00_20\source\ti\devices\c
    2564                            .dwattr $C$DW$266, DW_AT_decl_line(0x78)
    2565                            .dwattr $C$DW$266, DW_AT_decl_column(0x25)
    2566                    
    2567                    $C$DW$267       .dwtag  DW_TAG_member
    2568                            .dwattr $C$DW$267, DW_AT_type(*$C$DW$T$149)
    2569                            .dwattr $C$DW$267, DW_AT_name("ReservedLocation1")
    2570                            .dwattr $C$DW$267, DW_AT_TI_symbol_name("ReservedLocation1")
    2571                            .dwattr $C$DW$267, DW_AT_data_member_location[DW_OP_plus_uconst 0xc]
    2572                            .dwattr $C$DW$267, DW_AT_accessibility(DW_ACCESS_public)
    2573                            .dwattr $C$DW$267, DW_AT_decl_file("C:\ti\simplelink_cc13x0_sdk_2_30_00_20\source\ti\devices\c
    2574                            .dwattr $C$DW$267, DW_AT_decl_line(0x79)
    2575                            .dwattr $C$DW$267, DW_AT_decl_column(0x25)
    2576                    
    2577                    $C$DW$268       .dwtag  DW_TAG_member
    2578                            .dwattr $C$DW$268, DW_AT_type(*$C$DW$T$150)
    2579                            .dwattr $C$DW$268, DW_AT_name("ReservedLocation2")
    2580                            .dwattr $C$DW$268, DW_AT_TI_symbol_name("ReservedLocation2")
    2581                            .dwattr $C$DW$268, DW_AT_data_member_location[DW_OP_plus_uconst 0x10]
    2582                            .dwattr $C$DW$268, DW_AT_accessibility(DW_ACCESS_public)
    2583                            .dwattr $C$DW$268, DW_AT_decl_file("C:\ti\simplelink_cc13x0_sdk_2_30_00_20\source\ti\devices\c
    2584                            .dwattr $C$DW$268, DW_AT_decl_line(0x7a)
TI ARM Assembler PC v16.9.9 Sun Nov 25 17:19:51 2018

Tools Copyright (c) 1996-2017 Texas Instruments Incorporated
C:\Users\Stryd\AppData\Local\Temp\{F707AED4-2B3E-4DAD-8386-DB17F4B4B9A2} PAGE   48

    2585                            .dwattr $C$DW$268, DW_AT_decl_column(0x25)
    2586                    
    2587                    $C$DW$269       .dwtag  DW_TAG_member
    2588                            .dwattr $C$DW$269, DW_AT_type(*$C$DW$T$151)
    2589                            .dwattr $C$DW$269, DW_AT_name("ReservedLocation3")
    2590                            .dwattr $C$DW$269, DW_AT_TI_symbol_name("ReservedLocation3")
    2591                            .dwattr $C$DW$269, DW_AT_data_member_location[DW_OP_plus_uconst 0x14]
    2592                            .dwattr $C$DW$269, DW_AT_accessibility(DW_ACCESS_public)
    2593                            .dwattr $C$DW$269, DW_AT_decl_file("C:\ti\simplelink_cc13x0_sdk_2_30_00_20\source\ti\devices\c
    2594                            .dwattr $C$DW$269, DW_AT_decl_line(0x7b)
    2595                            .dwattr $C$DW$269, DW_AT_decl_column(0x25)
    2596                    
    2597                    $C$DW$270       .dwtag  DW_TAG_member
    2598                            .dwattr $C$DW$270, DW_AT_type(*$C$DW$T$154)
    2599                            .dwattr $C$DW$270, DW_AT_name("ResetDevice")
    2600                            .dwattr $C$DW$270, DW_AT_TI_symbol_name("ResetDevice")
    2601                            .dwattr $C$DW$270, DW_AT_data_member_location[DW_OP_plus_uconst 0x18]
    2602                            .dwattr $C$DW$270, DW_AT_accessibility(DW_ACCESS_public)
    2603                            .dwattr $C$DW$270, DW_AT_decl_file("C:\ti\simplelink_cc13x0_sdk_2_30_00_20\source\ti\devices\c
    2604                            .dwattr $C$DW$270, DW_AT_decl_line(0x7c)
    2605                            .dwattr $C$DW$270, DW_AT_decl_column(0x25)
    2606                    
    2607                    $C$DW$271       .dwtag  DW_TAG_member
    2608                            .dwattr $C$DW$271, DW_AT_type(*$C$DW$T$159)
    2609                            .dwattr $C$DW$271, DW_AT_name("Fletcher32")
    2610                            .dwattr $C$DW$271, DW_AT_TI_symbol_name("Fletcher32")
    2611                            .dwattr $C$DW$271, DW_AT_data_member_location[DW_OP_plus_uconst 0x1c]
    2612                            .dwattr $C$DW$271, DW_AT_accessibility(DW_ACCESS_public)
    2613                            .dwattr $C$DW$271, DW_AT_decl_file("C:\ti\simplelink_cc13x0_sdk_2_30_00_20\source\ti\devices\c
    2614                            .dwattr $C$DW$271, DW_AT_decl_line(0x7d)
    2615                            .dwattr $C$DW$271, DW_AT_decl_column(0x25)
    2616                    
    2617                    $C$DW$272       .dwtag  DW_TAG_member
    2618                            .dwattr $C$DW$272, DW_AT_type(*$C$DW$T$163)
    2619                            .dwattr $C$DW$272, DW_AT_name("MinValue")
    2620                            .dwattr $C$DW$272, DW_AT_TI_symbol_name("MinValue")
    2621                            .dwattr $C$DW$272, DW_AT_data_member_location[DW_OP_plus_uconst 0x20]
    2622                            .dwattr $C$DW$272, DW_AT_accessibility(DW_ACCESS_public)
    2623                            .dwattr $C$DW$272, DW_AT_decl_file("C:\ti\simplelink_cc13x0_sdk_2_30_00_20\source\ti\devices\c
    2624                            .dwattr $C$DW$272, DW_AT_decl_line(0x7e)
    2625                            .dwattr $C$DW$272, DW_AT_decl_column(0x25)
    2626                    
    2627                    $C$DW$273       .dwtag  DW_TAG_member
    2628                            .dwattr $C$DW$273, DW_AT_type(*$C$DW$T$164)
    2629                            .dwattr $C$DW$273, DW_AT_name("MaxValue")
    2630                            .dwattr $C$DW$273, DW_AT_TI_symbol_name("MaxValue")
    2631                            .dwattr $C$DW$273, DW_AT_data_member_location[DW_OP_plus_uconst 0x24]
    2632                            .dwattr $C$DW$273, DW_AT_accessibility(DW_ACCESS_public)
    2633                            .dwattr $C$DW$273, DW_AT_decl_file("C:\ti\simplelink_cc13x0_sdk_2_30_00_20\source\ti\devices\c
    2634                            .dwattr $C$DW$273, DW_AT_decl_line(0x7f)
    2635                            .dwattr $C$DW$273, DW_AT_decl_column(0x25)
    2636                    
    2637                    $C$DW$274       .dwtag  DW_TAG_member
    2638                            .dwattr $C$DW$274, DW_AT_type(*$C$DW$T$165)
    2639                            .dwattr $C$DW$274, DW_AT_name("MeanValue")
TI ARM Assembler PC v16.9.9 Sun Nov 25 17:19:51 2018

Tools Copyright (c) 1996-2017 Texas Instruments Incorporated
C:\Users\Stryd\AppData\Local\Temp\{F707AED4-2B3E-4DAD-8386-DB17F4B4B9A2} PAGE   49

    2640                            .dwattr $C$DW$274, DW_AT_TI_symbol_name("MeanValue")
    2641                            .dwattr $C$DW$274, DW_AT_data_member_location[DW_OP_plus_uconst 0x28]
    2642                            .dwattr $C$DW$274, DW_AT_accessibility(DW_ACCESS_public)
    2643                            .dwattr $C$DW$274, DW_AT_decl_file("C:\ti\simplelink_cc13x0_sdk_2_30_00_20\source\ti\devices\c
    2644                            .dwattr $C$DW$274, DW_AT_decl_line(0x80)
    2645                            .dwattr $C$DW$274, DW_AT_decl_column(0x25)
    2646                    
    2647                    $C$DW$275       .dwtag  DW_TAG_member
    2648                            .dwattr $C$DW$275, DW_AT_type(*$C$DW$T$166)
    2649                            .dwattr $C$DW$275, DW_AT_name("StandDeviationValue")
    2650                            .dwattr $C$DW$275, DW_AT_TI_symbol_name("StandDeviationValue")
    2651                            .dwattr $C$DW$275, DW_AT_data_member_location[DW_OP_plus_uconst 0x2c]
    2652                            .dwattr $C$DW$275, DW_AT_accessibility(DW_ACCESS_public)
    2653                            .dwattr $C$DW$275, DW_AT_decl_file("C:\ti\simplelink_cc13x0_sdk_2_30_00_20\source\ti\devices\c
    2654                            .dwattr $C$DW$275, DW_AT_decl_line(0x81)
    2655                            .dwattr $C$DW$275, DW_AT_decl_column(0x25)
    2656                    
    2657                    $C$DW$276       .dwtag  DW_TAG_member
    2658                            .dwattr $C$DW$276, DW_AT_type(*$C$DW$T$169)
    2659                            .dwattr $C$DW$276, DW_AT_name("ReservedLocation4")
    2660                            .dwattr $C$DW$276, DW_AT_TI_symbol_name("ReservedLocation4")
    2661                            .dwattr $C$DW$276, DW_AT_data_member_location[DW_OP_plus_uconst 0x30]
    2662                            .dwattr $C$DW$276, DW_AT_accessibility(DW_ACCESS_public)
    2663                            .dwattr $C$DW$276, DW_AT_decl_file("C:\ti\simplelink_cc13x0_sdk_2_30_00_20\source\ti\devices\c
    2664                            .dwattr $C$DW$276, DW_AT_decl_line(0x82)
    2665                            .dwattr $C$DW$276, DW_AT_decl_column(0x25)
    2666                    
    2667                    $C$DW$277       .dwtag  DW_TAG_member
    2668                            .dwattr $C$DW$277, DW_AT_type(*$C$DW$T$170)
    2669                            .dwattr $C$DW$277, DW_AT_name("ReservedLocation5")
    2670                            .dwattr $C$DW$277, DW_AT_TI_symbol_name("ReservedLocation5")
    2671                            .dwattr $C$DW$277, DW_AT_data_member_location[DW_OP_plus_uconst 0x34]
    2672                            .dwattr $C$DW$277, DW_AT_accessibility(DW_ACCESS_public)
    2673                            .dwattr $C$DW$277, DW_AT_decl_file("C:\ti\simplelink_cc13x0_sdk_2_30_00_20\source\ti\devices\c
    2674                            .dwattr $C$DW$277, DW_AT_decl_line(0x83)
    2675                            .dwattr $C$DW$277, DW_AT_decl_column(0x25)
    2676                    
    2677                    $C$DW$278       .dwtag  DW_TAG_member
    2678                            .dwattr $C$DW$278, DW_AT_type(*$C$DW$T$171)
    2679                            .dwattr $C$DW$278, DW_AT_name("HFSourceSafeSwitch")
    2680                            .dwattr $C$DW$278, DW_AT_TI_symbol_name("HFSourceSafeSwitch")
    2681                            .dwattr $C$DW$278, DW_AT_data_member_location[DW_OP_plus_uconst 0x38]
    2682                            .dwattr $C$DW$278, DW_AT_accessibility(DW_ACCESS_public)
    2683                            .dwattr $C$DW$278, DW_AT_decl_file("C:\ti\simplelink_cc13x0_sdk_2_30_00_20\source\ti\devices\c
    2684                            .dwattr $C$DW$278, DW_AT_decl_line(0x84)
    2685                            .dwattr $C$DW$278, DW_AT_decl_column(0x25)
    2686                    
    2687                    $C$DW$279       .dwtag  DW_TAG_member
    2688                            .dwattr $C$DW$279, DW_AT_type(*$C$DW$T$174)
    2689                            .dwattr $C$DW$279, DW_AT_name("SelectCompAInput")
    2690                            .dwattr $C$DW$279, DW_AT_TI_symbol_name("SelectCompAInput")
    2691                            .dwattr $C$DW$279, DW_AT_data_member_location[DW_OP_plus_uconst 0x3c]
    2692                            .dwattr $C$DW$279, DW_AT_accessibility(DW_ACCESS_public)
    2693                            .dwattr $C$DW$279, DW_AT_decl_file("C:\ti\simplelink_cc13x0_sdk_2_30_00_20\source\ti\devices\c
    2694                            .dwattr $C$DW$279, DW_AT_decl_line(0x85)
TI ARM Assembler PC v16.9.9 Sun Nov 25 17:19:51 2018

Tools Copyright (c) 1996-2017 Texas Instruments Incorporated
C:\Users\Stryd\AppData\Local\Temp\{F707AED4-2B3E-4DAD-8386-DB17F4B4B9A2} PAGE   50

    2695                            .dwattr $C$DW$279, DW_AT_decl_column(0x25)
    2696                    
    2697                    $C$DW$280       .dwtag  DW_TAG_member
    2698                            .dwattr $C$DW$280, DW_AT_type(*$C$DW$T$175)
    2699                            .dwattr $C$DW$280, DW_AT_name("SelectCompARef")
    2700                            .dwattr $C$DW$280, DW_AT_TI_symbol_name("SelectCompARef")
    2701                            .dwattr $C$DW$280, DW_AT_data_member_location[DW_OP_plus_uconst 0x40]
    2702                            .dwattr $C$DW$280, DW_AT_accessibility(DW_ACCESS_public)
    2703                            .dwattr $C$DW$280, DW_AT_decl_file("C:\ti\simplelink_cc13x0_sdk_2_30_00_20\source\ti\devices\c
    2704                            .dwattr $C$DW$280, DW_AT_decl_line(0x86)
    2705                            .dwattr $C$DW$280, DW_AT_decl_column(0x25)
    2706                    
    2707                    $C$DW$281       .dwtag  DW_TAG_member
    2708                            .dwattr $C$DW$281, DW_AT_type(*$C$DW$T$176)
    2709                            .dwattr $C$DW$281, DW_AT_name("SelectADCCompBInput")
    2710                            .dwattr $C$DW$281, DW_AT_TI_symbol_name("SelectADCCompBInput")
    2711                            .dwattr $C$DW$281, DW_AT_data_member_location[DW_OP_plus_uconst 0x44]
    2712                            .dwattr $C$DW$281, DW_AT_accessibility(DW_ACCESS_public)
    2713                            .dwattr $C$DW$281, DW_AT_decl_file("C:\ti\simplelink_cc13x0_sdk_2_30_00_20\source\ti\devices\c
    2714                            .dwattr $C$DW$281, DW_AT_decl_line(0x87)
    2715                            .dwattr $C$DW$281, DW_AT_decl_column(0x25)
    2716                    
    2717                    $C$DW$282       .dwtag  DW_TAG_member
    2718                            .dwattr $C$DW$282, DW_AT_type(*$C$DW$T$177)
    2719                            .dwattr $C$DW$282, DW_AT_name("SelectCompBRef")
    2720                            .dwattr $C$DW$282, DW_AT_TI_symbol_name("SelectCompBRef")
    2721                            .dwattr $C$DW$282, DW_AT_data_member_location[DW_OP_plus_uconst 0x48]
    2722                            .dwattr $C$DW$282, DW_AT_accessibility(DW_ACCESS_public)
    2723                            .dwattr $C$DW$282, DW_AT_decl_file("C:\ti\simplelink_cc13x0_sdk_2_30_00_20\source\ti\devices\c
    2724                            .dwattr $C$DW$282, DW_AT_decl_line(0x88)
    2725                            .dwattr $C$DW$282, DW_AT_decl_column(0x25)
    2726                    
    2727                            .dwattr $C$DW$T$178, DW_AT_decl_file("C:\ti\simplelink_cc13x0_sdk_2_30_00_20\source\ti\devices
    2728                            .dwattr $C$DW$T$178, DW_AT_decl_line(0x75)
    2729                            .dwattr $C$DW$T$178, DW_AT_decl_column(0x01)
    2730                            .dwendtag $C$DW$T$178
    2731                    
    2732                    $C$DW$T$716     .dwtag  DW_TAG_typedef
    2733                            .dwattr $C$DW$T$716, DW_AT_name("HARD_API_T")
    2734                            .dwattr $C$DW$T$716, DW_AT_type(*$C$DW$T$178)
    2735                            .dwattr $C$DW$T$716, DW_AT_language(DW_LANG_C)
    2736                            .dwattr $C$DW$T$716, DW_AT_decl_file("C:\ti\simplelink_cc13x0_sdk_2_30_00_20\source\ti\devices
    2737                            .dwattr $C$DW$T$716, DW_AT_decl_line(0x89)
    2738                            .dwattr $C$DW$T$716, DW_AT_decl_column(0x03)
    2739                    
    2740                    
    2741                    $C$DW$T$181     .dwtag  DW_TAG_structure_type
    2742                            .dwattr $C$DW$T$181, DW_AT_byte_size(0x08)
    2743                    $C$DW$283       .dwtag  DW_TAG_member
    2744                            .dwattr $C$DW$283, DW_AT_type(*$C$DW$T$10)
    2745                            .dwattr $C$DW$283, DW_AT_name("length")
    2746                            .dwattr $C$DW$283, DW_AT_TI_symbol_name("length")
    2747                            .dwattr $C$DW$283, DW_AT_data_member_location[DW_OP_plus_uconst 0x0]
    2748                            .dwattr $C$DW$283, DW_AT_accessibility(DW_ACCESS_public)
    2749                            .dwattr $C$DW$283, DW_AT_decl_file("C:/ti/simplelink_cc13x0_sdk_2_30_00_20/kernel/tirtos/packa
TI ARM Assembler PC v16.9.9 Sun Nov 25 17:19:51 2018

Tools Copyright (c) 1996-2017 Texas Instruments Incorporated
C:\Users\Stryd\AppData\Local\Temp\{F707AED4-2B3E-4DAD-8386-DB17F4B4B9A2} PAGE   51

    2750                            .dwattr $C$DW$283, DW_AT_decl_line(0x165)
    2751                            .dwattr $C$DW$283, DW_AT_decl_column(0x16)
    2752                    
    2753                    $C$DW$284       .dwtag  DW_TAG_member
    2754                            .dwattr $C$DW$284, DW_AT_type(*$C$DW$T$180)
    2755                            .dwattr $C$DW$284, DW_AT_name("elem")
    2756                            .dwattr $C$DW$284, DW_AT_TI_symbol_name("elem")
    2757                            .dwattr $C$DW$284, DW_AT_data_member_location[DW_OP_plus_uconst 0x4]
    2758                            .dwattr $C$DW$284, DW_AT_accessibility(DW_ACCESS_public)
    2759                            .dwattr $C$DW$284, DW_AT_decl_file("C:/ti/simplelink_cc13x0_sdk_2_30_00_20/kernel/tirtos/packa
    2760                            .dwattr $C$DW$284, DW_AT_decl_line(0x165)
    2761                            .dwattr $C$DW$284, DW_AT_decl_column(0x3a)
    2762                    
    2763                            .dwattr $C$DW$T$181, DW_AT_decl_file("C:/ti/simplelink_cc13x0_sdk_2_30_00_20/kernel/tirtos/pac
    2764                            .dwattr $C$DW$T$181, DW_AT_decl_line(0x165)
    2765                            .dwattr $C$DW$T$181, DW_AT_decl_column(0x10)
    2766                            .dwendtag $C$DW$T$181
    2767                    
    2768                    $C$DW$T$717     .dwtag  DW_TAG_typedef
    2769                            .dwattr $C$DW$T$717, DW_AT_name("ARRAY1_ti_sysbios_knl_Swi_hooks")
    2770                            .dwattr $C$DW$T$717, DW_AT_type(*$C$DW$T$181)
    2771                            .dwattr $C$DW$T$717, DW_AT_language(DW_LANG_C)
    2772                            .dwattr $C$DW$T$717, DW_AT_decl_file("C:/ti/simplelink_cc13x0_sdk_2_30_00_20/kernel/tirtos/pac
    2773                            .dwattr $C$DW$T$717, DW_AT_decl_line(0x165)
    2774                            .dwattr $C$DW$T$717, DW_AT_decl_column(0x42)
    2775                    
    2776                    
    2777                    $C$DW$T$184     .dwtag  DW_TAG_structure_type
    2778                            .dwattr $C$DW$T$184, DW_AT_byte_size(0x08)
    2779                    $C$DW$285       .dwtag  DW_TAG_member
    2780                            .dwattr $C$DW$285, DW_AT_type(*$C$DW$T$10)
    2781                            .dwattr $C$DW$285, DW_AT_name("length")
    2782                            .dwattr $C$DW$285, DW_AT_TI_symbol_name("length")
    2783                            .dwattr $C$DW$285, DW_AT_data_member_location[DW_OP_plus_uconst 0x0]
    2784                            .dwattr $C$DW$285, DW_AT_accessibility(DW_ACCESS_public)
    2785                            .dwattr $C$DW$285, DW_AT_decl_file("C:/ti/simplelink_cc13x0_sdk_2_30_00_20/kernel/tirtos/packa
    2786                            .dwattr $C$DW$285, DW_AT_decl_line(0x166)
    2787                            .dwattr $C$DW$285, DW_AT_decl_column(0x16)
    2788                    
    2789                    $C$DW$286       .dwtag  DW_TAG_member
    2790                            .dwattr $C$DW$286, DW_AT_type(*$C$DW$T$183)
    2791                            .dwattr $C$DW$286, DW_AT_name("elem")
    2792                            .dwattr $C$DW$286, DW_AT_TI_symbol_name("elem")
    2793                            .dwattr $C$DW$286, DW_AT_data_member_location[DW_OP_plus_uconst 0x4]
    2794                            .dwattr $C$DW$286, DW_AT_accessibility(DW_ACCESS_public)
    2795                            .dwattr $C$DW$286, DW_AT_decl_file("C:/ti/simplelink_cc13x0_sdk_2_30_00_20/kernel/tirtos/packa
    2796                            .dwattr $C$DW$286, DW_AT_decl_line(0x166)
    2797                            .dwattr $C$DW$286, DW_AT_decl_column(0x40)
    2798                    
    2799                            .dwattr $C$DW$T$184, DW_AT_decl_file("C:/ti/simplelink_cc13x0_sdk_2_30_00_20/kernel/tirtos/pac
    2800                            .dwattr $C$DW$T$184, DW_AT_decl_line(0x166)
    2801                            .dwattr $C$DW$T$184, DW_AT_decl_column(0x10)
    2802                            .dwendtag $C$DW$T$184
    2803                    
    2804                    $C$DW$T$718     .dwtag  DW_TAG_typedef
TI ARM Assembler PC v16.9.9 Sun Nov 25 17:19:51 2018

Tools Copyright (c) 1996-2017 Texas Instruments Incorporated
C:\Users\Stryd\AppData\Local\Temp\{F707AED4-2B3E-4DAD-8386-DB17F4B4B9A2} PAGE   52

    2805                            .dwattr $C$DW$T$718, DW_AT_name("CARRAY1_ti_sysbios_knl_Swi_hooks")
    2806                            .dwattr $C$DW$T$718, DW_AT_type(*$C$DW$T$184)
    2807                            .dwattr $C$DW$T$718, DW_AT_language(DW_LANG_C)
    2808                            .dwattr $C$DW$T$718, DW_AT_decl_file("C:/ti/simplelink_cc13x0_sdk_2_30_00_20/kernel/tirtos/pac
    2809                            .dwattr $C$DW$T$718, DW_AT_decl_line(0x166)
    2810                            .dwattr $C$DW$T$718, DW_AT_decl_column(0x48)
    2811                    
    2812                    $C$DW$T$719     .dwtag  DW_TAG_typedef
    2813                            .dwattr $C$DW$T$719, DW_AT_name("CT__ti_sysbios_knl_Swi_hooks")
    2814                            .dwattr $C$DW$T$719, DW_AT_type(*$C$DW$T$718)
    2815                            .dwattr $C$DW$T$719, DW_AT_language(DW_LANG_C)
    2816                            .dwattr $C$DW$T$719, DW_AT_decl_file("C:/ti/simplelink_cc13x0_sdk_2_30_00_20/kernel/tirtos/pac
    2817                            .dwattr $C$DW$T$719, DW_AT_decl_line(0x168)
    2818                            .dwattr $C$DW$T$719, DW_AT_decl_column(0x2a)
    2819                    
    2820                    $C$DW$T$720     .dwtag  DW_TAG_typedef
    2821                            .dwattr $C$DW$T$720, DW_AT_name("__TA_ti_sysbios_knl_Swi_hooks")
    2822                            .dwattr $C$DW$T$720, DW_AT_type(*$C$DW$T$718)
    2823                            .dwattr $C$DW$T$720, DW_AT_language(DW_LANG_C)
    2824                            .dwattr $C$DW$T$720, DW_AT_decl_file("C:/ti/simplelink_cc13x0_sdk_2_30_00_20/kernel/tirtos/pac
    2825                            .dwattr $C$DW$T$720, DW_AT_decl_line(0x167)
    2826                            .dwattr $C$DW$T$720, DW_AT_decl_column(0x2a)
    2827                    
    2828                    
    2829                    $C$DW$T$187     .dwtag  DW_TAG_structure_type
    2830                            .dwattr $C$DW$T$187, DW_AT_byte_size(0x0a)
    2831                    $C$DW$287       .dwtag  DW_TAG_member
    2832                            .dwattr $C$DW$287, DW_AT_type(*$C$DW$T$199)
    2833                            .dwattr $C$DW$287, DW_AT_name("addr")
    2834                            .dwattr $C$DW$287, DW_AT_TI_symbol_name("addr")
    2835                            .dwattr $C$DW$287, DW_AT_data_member_location[DW_OP_plus_uconst 0x0]
    2836                            .dwattr $C$DW$287, DW_AT_accessibility(DW_ACCESS_public)
    2837                            .dwattr $C$DW$287, DW_AT_decl_file("C:/CCSWorkspace/ECG603/sensor_cc1350lp/Application/api_mac
    2838                            .dwattr $C$DW$287, DW_AT_decl_line(0x4db)
    2839                            .dwattr $C$DW$287, DW_AT_decl_column(0x07)
    2840                    
    2841                    $C$DW$288       .dwtag  DW_TAG_member
    2842                            .dwattr $C$DW$288, DW_AT_type(*$C$DW$T$186)
    2843                            .dwattr $C$DW$288, DW_AT_name("addrMode")
    2844                            .dwattr $C$DW$288, DW_AT_TI_symbol_name("addrMode")
    2845                            .dwattr $C$DW$288, DW_AT_data_member_location[DW_OP_plus_uconst 0x8]
    2846                            .dwattr $C$DW$288, DW_AT_accessibility(DW_ACCESS_public)
    2847                            .dwattr $C$DW$288, DW_AT_decl_file("C:/CCSWorkspace/ECG603/sensor_cc1350lp/Application/api_mac
    2848                            .dwattr $C$DW$288, DW_AT_decl_line(0x4de)
    2849                            .dwattr $C$DW$288, DW_AT_decl_column(0x17)
    2850                    
    2851                            .dwattr $C$DW$T$187, DW_AT_decl_file("C:/CCSWorkspace/ECG603/sensor_cc1350lp/Application/api_m
    2852                            .dwattr $C$DW$T$187, DW_AT_decl_line(0x4d0)
    2853                            .dwattr $C$DW$T$187, DW_AT_decl_column(0x01)
    2854                            .dwendtag $C$DW$T$187
    2855                    
    2856                    $C$DW$T$331     .dwtag  DW_TAG_typedef
    2857                            .dwattr $C$DW$T$331, DW_AT_name("ApiMac_sAddr_t")
    2858                            .dwattr $C$DW$T$331, DW_AT_type(*$C$DW$T$187)
    2859                            .dwattr $C$DW$T$331, DW_AT_language(DW_LANG_C)
TI ARM Assembler PC v16.9.9 Sun Nov 25 17:19:51 2018

Tools Copyright (c) 1996-2017 Texas Instruments Incorporated
C:\Users\Stryd\AppData\Local\Temp\{F707AED4-2B3E-4DAD-8386-DB17F4B4B9A2} PAGE   53

    2860                            .dwattr $C$DW$T$331, DW_AT_decl_file("C:/CCSWorkspace/ECG603/sensor_cc1350lp/Application/api_m
    2861                            .dwattr $C$DW$T$331, DW_AT_decl_line(0x4df)
    2862                            .dwattr $C$DW$T$331, DW_AT_decl_column(0x03)
    2863                    
    2864                    
    2865                    $C$DW$T$188     .dwtag  DW_TAG_structure_type
    2866                            .dwattr $C$DW$T$188, DW_AT_byte_size(0x08)
    2867                    $C$DW$289       .dwtag  DW_TAG_member
    2868                            .dwattr $C$DW$289, DW_AT_type(*$C$DW$T$137)
    2869                            .dwattr $C$DW$289, DW_AT_name("frameCounter")
    2870                            .dwattr $C$DW$289, DW_AT_TI_symbol_name("frameCounter")
    2871                            .dwattr $C$DW$289, DW_AT_data_member_location[DW_OP_plus_uconst 0x0]
    2872                            .dwattr $C$DW$289, DW_AT_accessibility(DW_ACCESS_public)
    2873                            .dwattr $C$DW$289, DW_AT_decl_file("C:/CCSWorkspace/ECG603/sensor_cc1350lp/Application/api_mac
    2874                            .dwattr $C$DW$289, DW_AT_decl_line(0x575)
    2875                            .dwattr $C$DW$289, DW_AT_decl_column(0x1a)
    2876                    
    2877                    $C$DW$290       .dwtag  DW_TAG_member
    2878                            .dwattr $C$DW$290, DW_AT_type(*$C$DW$T$155)
    2879                            .dwattr $C$DW$290, DW_AT_name("keyIdx")
    2880                            .dwattr $C$DW$290, DW_AT_TI_symbol_name("keyIdx")
    2881                            .dwattr $C$DW$290, DW_AT_data_member_location[DW_OP_plus_uconst 0x4]
    2882                            .dwattr $C$DW$290, DW_AT_accessibility(DW_ACCESS_public)
    2883                            .dwattr $C$DW$290, DW_AT_decl_file("C:/CCSWorkspace/ECG603/sensor_cc1350lp/Application/api_mac
    2884                            .dwattr $C$DW$290, DW_AT_decl_line(0x576)
    2885                            .dwattr $C$DW$290, DW_AT_decl_column(0x1a)
    2886                    
    2887                            .dwattr $C$DW$T$188, DW_AT_decl_file("C:/CCSWorkspace/ECG603/sensor_cc1350lp/Application/api_m
    2888                            .dwattr $C$DW$T$188, DW_AT_decl_line(0x574)
    2889                            .dwattr $C$DW$T$188, DW_AT_decl_column(0x01)
    2890                            .dwendtag $C$DW$T$188
    2891                    
    2892                    $C$DW$T$392     .dwtag  DW_TAG_typedef
    2893                            .dwattr $C$DW$T$392, DW_AT_name("ApiMac_frameCntr_t")
    2894                            .dwattr $C$DW$T$392, DW_AT_type(*$C$DW$T$188)
    2895                            .dwattr $C$DW$T$392, DW_AT_language(DW_LANG_C)
    2896                            .dwattr $C$DW$T$392, DW_AT_decl_file("C:/CCSWorkspace/ECG603/sensor_cc1350lp/Application/api_m
    2897                            .dwattr $C$DW$T$392, DW_AT_decl_line(0x577)
    2898                            .dwattr $C$DW$T$392, DW_AT_decl_column(0x03)
    2899                    
    2900                    $C$DW$T$393     .dwtag  DW_TAG_pointer_type
    2901                            .dwattr $C$DW$T$393, DW_AT_type(*$C$DW$T$392)
    2902                            .dwattr $C$DW$T$393, DW_AT_address_class(0x20)
    2903                    
    2904                    
    2905                    $C$DW$T$192     .dwtag  DW_TAG_structure_type
    2906                            .dwattr $C$DW$T$192, DW_AT_byte_size(0x40)
    2907                    $C$DW$291       .dwtag  DW_TAG_member
    2908                            .dwattr $C$DW$291, DW_AT_type(*$C$DW$T$190)
    2909                            .dwattr $C$DW$291, DW_AT_name("beaconType")
    2910                            .dwattr $C$DW$291, DW_AT_TI_symbol_name("beaconType")
    2911                            .dwattr $C$DW$291, DW_AT_data_member_location[DW_OP_plus_uconst 0x0]
    2912                            .dwattr $C$DW$291, DW_AT_accessibility(DW_ACCESS_public)
    2913                            .dwattr $C$DW$291, DW_AT_decl_file("C:/CCSWorkspace/ECG603/sensor_cc1350lp/Application/api_mac
    2914                            .dwattr $C$DW$291, DW_AT_decl_line(0x886)
TI ARM Assembler PC v16.9.9 Sun Nov 25 17:19:51 2018

Tools Copyright (c) 1996-2017 Texas Instruments Incorporated
C:\Users\Stryd\AppData\Local\Temp\{F707AED4-2B3E-4DAD-8386-DB17F4B4B9A2} PAGE   54

    2915                            .dwattr $C$DW$291, DW_AT_decl_column(0x19)
    2916                    
    2917                    $C$DW$292       .dwtag  DW_TAG_member
    2918                            .dwattr $C$DW$292, DW_AT_type(*$C$DW$T$138)
    2919                            .dwattr $C$DW$292, DW_AT_name("bsn")
    2920                            .dwattr $C$DW$292, DW_AT_TI_symbol_name("bsn")
    2921                            .dwattr $C$DW$292, DW_AT_data_member_location[DW_OP_plus_uconst 0x1]
    2922                            .dwattr $C$DW$292, DW_AT_accessibility(DW_ACCESS_public)
    2923                            .dwattr $C$DW$292, DW_AT_decl_file("C:/CCSWorkspace/ECG603/sensor_cc1350lp/Application/api_mac
    2924                            .dwattr $C$DW$292, DW_AT_decl_line(0x888)
    2925                            .dwattr $C$DW$292, DW_AT_decl_column(0x0d)
    2926                    
    2927                    $C$DW$293       .dwtag  DW_TAG_member
    2928                            .dwattr $C$DW$293, DW_AT_type(*$C$DW$T$191)
    2929                            .dwattr $C$DW$293, DW_AT_name("panDesc")
    2930                            .dwattr $C$DW$293, DW_AT_TI_symbol_name("panDesc")
    2931                            .dwattr $C$DW$293, DW_AT_data_member_location[DW_OP_plus_uconst 0x4]
    2932                            .dwattr $C$DW$293, DW_AT_accessibility(DW_ACCESS_public)
    2933                            .dwattr $C$DW$293, DW_AT_decl_file("C:/CCSWorkspace/ECG603/sensor_cc1350lp/Application/api_mac
    2934                            .dwattr $C$DW$293, DW_AT_decl_line(0x88a)
    2935                            .dwattr $C$DW$293, DW_AT_decl_column(0x16)
    2936                    
    2937                    $C$DW$294       .dwtag  DW_TAG_member
    2938                            .dwattr $C$DW$294, DW_AT_type(*$C$DW$T$202)
    2939                            .dwattr $C$DW$294, DW_AT_name("beaconData")
    2940                            .dwattr $C$DW$294, DW_AT_TI_symbol_name("beaconData")
    2941                            .dwattr $C$DW$294, DW_AT_data_member_location[DW_OP_plus_uconst 0x28]
    2942                            .dwattr $C$DW$294, DW_AT_accessibility(DW_ACCESS_public)
    2943                            .dwattr $C$DW$294, DW_AT_decl_file("C:/CCSWorkspace/ECG603/sensor_cc1350lp/Application/api_mac
    2944                            .dwattr $C$DW$294, DW_AT_decl_line(0x895)
    2945                            .dwattr $C$DW$294, DW_AT_decl_column(0x07)
    2946                    
    2947                            .dwattr $C$DW$T$192, DW_AT_decl_file("C:/CCSWorkspace/ECG603/sensor_cc1350lp/Application/api_m
    2948                            .dwattr $C$DW$T$192, DW_AT_decl_line(0x884)
    2949                            .dwattr $C$DW$T$192, DW_AT_decl_column(0x01)
    2950                            .dwendtag $C$DW$T$192
    2951                    
    2952                    $C$DW$T$244     .dwtag  DW_TAG_typedef
    2953                            .dwattr $C$DW$T$244, DW_AT_name("ApiMac_mlmeBeaconNotifyInd_t")
    2954                            .dwattr $C$DW$T$244, DW_AT_type(*$C$DW$T$192)
    2955                            .dwattr $C$DW$T$244, DW_AT_language(DW_LANG_C)
    2956                            .dwattr $C$DW$T$244, DW_AT_decl_file("C:/CCSWorkspace/ECG603/sensor_cc1350lp/Application/api_m
    2957                            .dwattr $C$DW$T$244, DW_AT_decl_line(0x896)
    2958                            .dwattr $C$DW$T$244, DW_AT_decl_column(0x03)
    2959                    
    2960                    $C$DW$T$245     .dwtag  DW_TAG_pointer_type
    2961                            .dwattr $C$DW$T$245, DW_AT_type(*$C$DW$T$244)
    2962                            .dwattr $C$DW$T$245, DW_AT_address_class(0x20)
    2963                    
    2964                    
    2965                    $C$DW$T$196     .dwtag  DW_TAG_union_type
    2966                            .dwattr $C$DW$T$196, DW_AT_byte_size(0x04)
    2967                    $C$DW$295       .dwtag  DW_TAG_member
    2968                            .dwattr $C$DW$295, DW_AT_type(*$C$DW$T$193)
    2969                            .dwattr $C$DW$295, DW_AT_name("f")
TI ARM Assembler PC v16.9.9 Sun Nov 25 17:19:51 2018

Tools Copyright (c) 1996-2017 Texas Instruments Incorporated
C:\Users\Stryd\AppData\Local\Temp\{F707AED4-2B3E-4DAD-8386-DB17F4B4B9A2} PAGE   55

    2970                            .dwattr $C$DW$295, DW_AT_TI_symbol_name("f")
    2971                            .dwattr $C$DW$295, DW_AT_data_member_location[DW_OP_plus_uconst 0x0]
    2972                            .dwattr $C$DW$295, DW_AT_accessibility(DW_ACCESS_public)
    2973                            .dwattr $C$DW$295, DW_AT_decl_file("C:/ti/xdctools_3_50_08_24_core/packages/xdc/std.h")
    2974                            .dwattr $C$DW$295, DW_AT_decl_line(0xb7)
    2975                            .dwattr $C$DW$295, DW_AT_decl_column(0x0f)
    2976                    
    2977                    $C$DW$296       .dwtag  DW_TAG_member
    2978                            .dwattr $C$DW$296, DW_AT_type(*$C$DW$T$195)
    2979                            .dwattr $C$DW$296, DW_AT_name("a")
    2980                            .dwattr $C$DW$296, DW_AT_TI_symbol_name("a")
    2981                            .dwattr $C$DW$296, DW_AT_data_member_location[DW_OP_plus_uconst 0x0]
    2982                            .dwattr $C$DW$296, DW_AT_accessibility(DW_ACCESS_public)
    2983                            .dwattr $C$DW$296, DW_AT_decl_file("C:/ti/xdctools_3_50_08_24_core/packages/xdc/std.h")
    2984                            .dwattr $C$DW$296, DW_AT_decl_line(0xb8)
    2985                            .dwattr $C$DW$296, DW_AT_decl_column(0x0f)
    2986                    
    2987                            .dwattr $C$DW$T$196, DW_AT_decl_file("C:/ti/xdctools_3_50_08_24_core/packages/xdc/std.h")
    2988                            .dwattr $C$DW$T$196, DW_AT_decl_line(0xb6)
    2989                            .dwattr $C$DW$T$196, DW_AT_decl_column(0x0f)
    2990                            .dwendtag $C$DW$T$196
    2991                    
    2992                    $C$DW$T$721     .dwtag  DW_TAG_typedef
    2993                            .dwattr $C$DW$T$721, DW_AT_name("xdc_FloatData")
    2994                            .dwattr $C$DW$T$721, DW_AT_type(*$C$DW$T$196)
    2995                            .dwattr $C$DW$T$721, DW_AT_language(DW_LANG_C)
    2996                            .dwattr $C$DW$T$721, DW_AT_decl_file("C:/ti/xdctools_3_50_08_24_core/packages/xdc/std.h")
    2997                            .dwattr $C$DW$T$721, DW_AT_decl_line(0xb9)
    2998                            .dwattr $C$DW$T$721, DW_AT_decl_column(0x03)
    2999                    
    3000                    
    3001                    $C$DW$T$199     .dwtag  DW_TAG_union_type
    3002                            .dwattr $C$DW$T$199, DW_AT_byte_size(0x08)
    3003                    $C$DW$297       .dwtag  DW_TAG_member
    3004                            .dwattr $C$DW$297, DW_AT_type(*$C$DW$T$155)
    3005                            .dwattr $C$DW$297, DW_AT_name("shortAddr")
