TI ARM Assembler PC v16.9.9 Sun Nov 25 17:19:55 2018

Tools Copyright (c) 1996-2017 Texas Instruments Incorporated
C:\Users\Stryd\AppData\Local\Temp\{520067B0-6478-47D1-A9CE-DCA5FFBBC378} PAGE    1

       1                    ;******************************************************************************
       2                    ;* TI ARM C/C++ Codegen                                        PC v16.9.9.LTS *
       3                    ;* Date/Time created: Sun Nov 25 17:19:54 2018                                *
       4                    ;******************************************************************************
       5                            .compiler_opts --abi=eabi --arm_vmrs_si_workaround=off --code_state=16 --diag_wrap=off --embed
       6 00000000                   .thumb
       7                    
       8                    $C$DW$CU        .dwtag  DW_TAG_compile_unit
       9                            .dwattr $C$DW$CU, DW_AT_name("../Application/sensor.c")
      10                            .dwattr $C$DW$CU, DW_AT_producer("TI TI ARM C/C++ Codegen PC v16.9.9.LTS Copyright (c) 1996-20
      11                            .dwattr $C$DW$CU, DW_AT_TI_version(0x01)
      12                            .dwattr $C$DW$CU, DW_AT_comp_dir("C:\CCSWorkspace\ECG603\sensor_cc1350lp\sensor_cc1350lp")
      13                    
      14                    $C$DW$1 .dwtag  DW_TAG_subprogram
      15                            .dwattr $C$DW$1, DW_AT_name("memcpy")
      16                            .dwattr $C$DW$1, DW_AT_TI_symbol_name("memcpy")
      17                            .dwattr $C$DW$1, DW_AT_type(*$C$DW$T$3)
      18                            .dwattr $C$DW$1, DW_AT_declaration
      19                            .dwattr $C$DW$1, DW_AT_external
      20                            .dwattr $C$DW$1, DW_AT_decl_file("C:/ti/ccsv7/tools/compiler/ti-cgt-arm_16.9.9.LTS/include/str
      21                            .dwattr $C$DW$1, DW_AT_decl_line(0x6b)
      22                            .dwattr $C$DW$1, DW_AT_decl_column(0x16)
      23                    $C$DW$2 .dwtag  DW_TAG_formal_parameter
      24                            .dwattr $C$DW$2, DW_AT_type(*$C$DW$T$3)
      25                    
      26                    $C$DW$3 .dwtag  DW_TAG_formal_parameter
      27                            .dwattr $C$DW$3, DW_AT_type(*$C$DW$T$363)
      28                    
      29                    $C$DW$4 .dwtag  DW_TAG_formal_parameter
      30                            .dwattr $C$DW$4, DW_AT_type(*$C$DW$T$295)
      31                    
      32                            .dwendtag $C$DW$1
      33                    
      34                    
      35                    $C$DW$5 .dwtag  DW_TAG_subprogram
      36                            .dwattr $C$DW$5, DW_AT_name("memset")
      37                            .dwattr $C$DW$5, DW_AT_TI_symbol_name("memset")
      38                            .dwattr $C$DW$5, DW_AT_type(*$C$DW$T$3)
      39                            .dwattr $C$DW$5, DW_AT_declaration
      40                            .dwattr $C$DW$5, DW_AT_external
      41                            .dwattr $C$DW$5, DW_AT_decl_file("C:/ti/ccsv7/tools/compiler/ti-cgt-arm_16.9.9.LTS/include/str
      42                            .dwattr $C$DW$5, DW_AT_decl_line(0x71)
      43                            .dwattr $C$DW$5, DW_AT_decl_column(0x16)
      44                    $C$DW$6 .dwtag  DW_TAG_formal_parameter
      45                            .dwattr $C$DW$6, DW_AT_type(*$C$DW$T$3)
      46                    
      47                    $C$DW$7 .dwtag  DW_TAG_formal_parameter
      48                            .dwattr $C$DW$7, DW_AT_type(*$C$DW$T$10)
      49                    
      50                    $C$DW$8 .dwtag  DW_TAG_formal_parameter
      51                            .dwattr $C$DW$8, DW_AT_type(*$C$DW$T$295)
      52                    
      53                            .dwendtag $C$DW$5
      54                    
      55                    
TI ARM Assembler PC v16.9.9 Sun Nov 25 17:19:55 2018

Tools Copyright (c) 1996-2017 Texas Instruments Incorporated
C:\Users\Stryd\AppData\Local\Temp\{520067B0-6478-47D1-A9CE-DCA5FFBBC378} PAGE    2

      56                    $C$DW$9 .dwtag  DW_TAG_subprogram
      57                            .dwattr $C$DW$9, DW_AT_name("Util_parseUint16")
      58                            .dwattr $C$DW$9, DW_AT_TI_symbol_name("Util_parseUint16")
      59                            .dwattr $C$DW$9, DW_AT_type(*$C$DW$T$30)
      60                            .dwattr $C$DW$9, DW_AT_declaration
      61                            .dwattr $C$DW$9, DW_AT_external
      62                            .dwattr $C$DW$9, DW_AT_decl_file("..\Application\util.h")
      63                            .dwattr $C$DW$9, DW_AT_decl_line(0xd4)
      64                            .dwattr $C$DW$9, DW_AT_decl_column(0x11)
      65                    $C$DW$10        .dwtag  DW_TAG_formal_parameter
      66                            .dwattr $C$DW$10, DW_AT_type(*$C$DW$T$52)
      67                    
      68                            .dwendtag $C$DW$9
      69                    
      70                    
      71                    $C$DW$11        .dwtag  DW_TAG_subprogram
      72                            .dwattr $C$DW$11, DW_AT_name("Util_parseUint32")
      73                            .dwattr $C$DW$11, DW_AT_TI_symbol_name("Util_parseUint32")
      74                            .dwattr $C$DW$11, DW_AT_type(*$C$DW$T$31)
      75                            .dwattr $C$DW$11, DW_AT_declaration
      76                            .dwattr $C$DW$11, DW_AT_external
      77                            .dwattr $C$DW$11, DW_AT_decl_file("..\Application\util.h")
      78                            .dwattr $C$DW$11, DW_AT_decl_line(0xdd)
      79                            .dwattr $C$DW$11, DW_AT_decl_column(0x11)
      80                    $C$DW$12        .dwtag  DW_TAG_formal_parameter
      81                            .dwattr $C$DW$12, DW_AT_type(*$C$DW$T$52)
      82                    
      83                            .dwendtag $C$DW$11
      84                    
      85                    
      86                    $C$DW$13        .dwtag  DW_TAG_subprogram
      87                            .dwattr $C$DW$13, DW_AT_name("Util_bufferUint16")
      88                            .dwattr $C$DW$13, DW_AT_TI_symbol_name("Util_bufferUint16")
      89                            .dwattr $C$DW$13, DW_AT_type(*$C$DW$T$52)
      90                            .dwattr $C$DW$13, DW_AT_declaration
      91                            .dwattr $C$DW$13, DW_AT_external
      92                            .dwattr $C$DW$13, DW_AT_decl_file("..\Application\util.h")
      93                            .dwattr $C$DW$13, DW_AT_decl_line(0xe7)
      94                            .dwattr $C$DW$13, DW_AT_decl_column(0x11)
      95                    $C$DW$14        .dwtag  DW_TAG_formal_parameter
      96                            .dwattr $C$DW$14, DW_AT_type(*$C$DW$T$52)
      97                    
      98                    $C$DW$15        .dwtag  DW_TAG_formal_parameter
      99                            .dwattr $C$DW$15, DW_AT_type(*$C$DW$T$30)
     100                    
     101                            .dwendtag $C$DW$13
     102                    
     103                    
     104                    $C$DW$16        .dwtag  DW_TAG_subprogram
     105                            .dwattr $C$DW$16, DW_AT_name("Util_bufferUint32")
     106                            .dwattr $C$DW$16, DW_AT_TI_symbol_name("Util_bufferUint32")
     107                            .dwattr $C$DW$16, DW_AT_type(*$C$DW$T$52)
     108                            .dwattr $C$DW$16, DW_AT_declaration
     109                            .dwattr $C$DW$16, DW_AT_external
     110                            .dwattr $C$DW$16, DW_AT_decl_file("..\Application\util.h")
TI ARM Assembler PC v16.9.9 Sun Nov 25 17:19:55 2018

Tools Copyright (c) 1996-2017 Texas Instruments Incorporated
C:\Users\Stryd\AppData\Local\Temp\{520067B0-6478-47D1-A9CE-DCA5FFBBC378} PAGE    3

     111                            .dwattr $C$DW$16, DW_AT_decl_line(0xf1)
     112                            .dwattr $C$DW$16, DW_AT_decl_column(0x11)
     113                    $C$DW$17        .dwtag  DW_TAG_formal_parameter
     114                            .dwattr $C$DW$17, DW_AT_type(*$C$DW$T$52)
     115                    
     116                    $C$DW$18        .dwtag  DW_TAG_formal_parameter
     117                            .dwattr $C$DW$18, DW_AT_type(*$C$DW$T$31)
     118                    
     119                            .dwendtag $C$DW$16
     120                    
     121                    
     122                    $C$DW$19        .dwtag  DW_TAG_subprogram
     123                            .dwattr $C$DW$19, DW_AT_name("Util_clearEvent")
     124                            .dwattr $C$DW$19, DW_AT_TI_symbol_name("Util_clearEvent")
     125                            .dwattr $C$DW$19, DW_AT_declaration
     126                            .dwattr $C$DW$19, DW_AT_external
     127                            .dwattr $C$DW$19, DW_AT_decl_file("..\Application\util.h")
     128                            .dwattr $C$DW$19, DW_AT_decl_line(0xf9)
     129                            .dwattr $C$DW$19, DW_AT_decl_column(0x0d)
     130                    $C$DW$20        .dwtag  DW_TAG_formal_parameter
     131                            .dwattr $C$DW$20, DW_AT_type(*$C$DW$T$115)
     132                    
     133                    $C$DW$21        .dwtag  DW_TAG_formal_parameter
     134                            .dwattr $C$DW$21, DW_AT_type(*$C$DW$T$30)
     135                    
     136                            .dwendtag $C$DW$19
     137                    
     138                    
     139                    $C$DW$22        .dwtag  DW_TAG_subprogram
     140                            .dwattr $C$DW$22, DW_AT_name("Util_setEvent")
     141                            .dwattr $C$DW$22, DW_AT_TI_symbol_name("Util_setEvent")
     142                            .dwattr $C$DW$22, DW_AT_declaration
     143                            .dwattr $C$DW$22, DW_AT_external
     144                            .dwattr $C$DW$22, DW_AT_decl_file("..\Application\util.h")
     145                            .dwattr $C$DW$22, DW_AT_decl_line(0x101)
     146                            .dwattr $C$DW$22, DW_AT_decl_column(0x0d)
     147                    $C$DW$23        .dwtag  DW_TAG_formal_parameter
     148                            .dwattr $C$DW$23, DW_AT_type(*$C$DW$T$115)
     149                    
     150                    $C$DW$24        .dwtag  DW_TAG_formal_parameter
     151                            .dwattr $C$DW$24, DW_AT_type(*$C$DW$T$30)
     152                    
     153                            .dwendtag $C$DW$22
     154                    
     155                    
     156                    $C$DW$25        .dwtag  DW_TAG_subprogram
     157                            .dwattr $C$DW$25, DW_AT_name("ApiMac_init")
     158                            .dwattr $C$DW$25, DW_AT_TI_symbol_name("ApiMac_init")
     159                            .dwattr $C$DW$25, DW_AT_type(*$C$DW$T$3)
     160                            .dwattr $C$DW$25, DW_AT_declaration
     161                            .dwattr $C$DW$25, DW_AT_external
     162                            .dwattr $C$DW$25, DW_AT_decl_file("..\Application\api_mac.h")
     163                            .dwattr $C$DW$25, DW_AT_decl_line(0x9b1)
     164                            .dwattr $C$DW$25, DW_AT_decl_column(0x0e)
     165                    $C$DW$26        .dwtag  DW_TAG_formal_parameter
TI ARM Assembler PC v16.9.9 Sun Nov 25 17:19:55 2018

Tools Copyright (c) 1996-2017 Texas Instruments Incorporated
C:\Users\Stryd\AppData\Local\Temp\{520067B0-6478-47D1-A9CE-DCA5FFBBC378} PAGE    4

     166                            .dwattr $C$DW$26, DW_AT_type(*$C$DW$T$28)
     167                    
     168                            .dwendtag $C$DW$25
     169                    
     170                    
     171                    $C$DW$27        .dwtag  DW_TAG_subprogram
     172                            .dwattr $C$DW$27, DW_AT_name("ApiMac_registerCallbacks")
     173                            .dwattr $C$DW$27, DW_AT_TI_symbol_name("ApiMac_registerCallbacks")
     174                            .dwattr $C$DW$27, DW_AT_declaration
     175                            .dwattr $C$DW$27, DW_AT_external
     176                            .dwattr $C$DW$27, DW_AT_decl_file("..\Application\api_mac.h")
     177                            .dwattr $C$DW$27, DW_AT_decl_line(0x9b8)
     178                            .dwattr $C$DW$27, DW_AT_decl_column(0x0d)
     179                    $C$DW$28        .dwtag  DW_TAG_formal_parameter
     180                            .dwattr $C$DW$28, DW_AT_type(*$C$DW$T$497)
     181                    
     182                            .dwendtag $C$DW$27
     183                    
     184                    
     185                    $C$DW$29        .dwtag  DW_TAG_subprogram
     186                            .dwattr $C$DW$29, DW_AT_name("ApiMac_processIncoming")
     187                            .dwattr $C$DW$29, DW_AT_TI_symbol_name("ApiMac_processIncoming")
     188                            .dwattr $C$DW$29, DW_AT_declaration
     189                            .dwattr $C$DW$29, DW_AT_external
     190                            .dwattr $C$DW$29, DW_AT_decl_file("..\Application\api_mac.h")
     191                            .dwattr $C$DW$29, DW_AT_decl_line(0x9bd)
     192                            .dwattr $C$DW$29, DW_AT_decl_column(0x0d)
     193                            .dwendtag $C$DW$29
     194                    
     195                    
     196                    $C$DW$30        .dwtag  DW_TAG_subprogram
     197                            .dwattr $C$DW$30, DW_AT_name("ApiMac_mcpsDataReq")
     198                            .dwattr $C$DW$30, DW_AT_TI_symbol_name("ApiMac_mcpsDataReq")
     199                            .dwattr $C$DW$30, DW_AT_type(*$C$DW$T$80)
     200                            .dwattr $C$DW$30, DW_AT_declaration
     201                            .dwattr $C$DW$30, DW_AT_external
     202                            .dwattr $C$DW$30, DW_AT_decl_file("..\Application\api_mac.h")
     203                            .dwattr $C$DW$30, DW_AT_decl_line(0x9d8)
     204                            .dwattr $C$DW$30, DW_AT_decl_column(0x18)
     205                    $C$DW$31        .dwtag  DW_TAG_formal_parameter
     206                            .dwattr $C$DW$31, DW_AT_type(*$C$DW$T$372)
     207                    
     208                            .dwendtag $C$DW$30
     209                    
     210                    
     211                    $C$DW$32        .dwtag  DW_TAG_subprogram
     212                            .dwattr $C$DW$32, DW_AT_name("ApiMac_mlmeGetReqUint16")
     213                            .dwattr $C$DW$32, DW_AT_TI_symbol_name("ApiMac_mlmeGetReqUint16")
     214                            .dwattr $C$DW$32, DW_AT_type(*$C$DW$T$80)
     215                            .dwattr $C$DW$32, DW_AT_declaration
     216                            .dwattr $C$DW$32, DW_AT_external
     217                            .dwattr $C$DW$32, DW_AT_decl_file("..\Application\api_mac.h")
     218                            .dwattr $C$DW$32, DW_AT_decl_line(0xa4b)
     219                            .dwattr $C$DW$32, DW_AT_decl_column(0x18)
     220                    $C$DW$33        .dwtag  DW_TAG_formal_parameter
TI ARM Assembler PC v16.9.9 Sun Nov 25 17:19:55 2018

Tools Copyright (c) 1996-2017 Texas Instruments Incorporated
C:\Users\Stryd\AppData\Local\Temp\{520067B0-6478-47D1-A9CE-DCA5FFBBC378} PAGE    5

     221                            .dwattr $C$DW$33, DW_AT_type(*$C$DW$T$375)
     222                    
     223                    $C$DW$34        .dwtag  DW_TAG_formal_parameter
     224                            .dwattr $C$DW$34, DW_AT_type(*$C$DW$T$115)
     225                    
     226                            .dwendtag $C$DW$32
     227                    
     228                    
     229                    $C$DW$35        .dwtag  DW_TAG_subprogram
     230                            .dwattr $C$DW$35, DW_AT_name("ApiMac_mlmeGetReqUint32")
     231                            .dwattr $C$DW$35, DW_AT_TI_symbol_name("ApiMac_mlmeGetReqUint32")
     232                            .dwattr $C$DW$35, DW_AT_type(*$C$DW$T$80)
     233                            .dwattr $C$DW$35, DW_AT_declaration
     234                            .dwattr $C$DW$35, DW_AT_external
     235                            .dwattr $C$DW$35, DW_AT_decl_file("..\Application\api_mac.h")
     236                            .dwattr $C$DW$35, DW_AT_decl_line(0xa58)
     237                            .dwattr $C$DW$35, DW_AT_decl_column(0x18)
     238                    $C$DW$36        .dwtag  DW_TAG_formal_parameter
     239                            .dwattr $C$DW$36, DW_AT_type(*$C$DW$T$378)
     240                    
     241                    $C$DW$37        .dwtag  DW_TAG_formal_parameter
     242                            .dwattr $C$DW$37, DW_AT_type(*$C$DW$T$379)
     243                    
     244                            .dwendtag $C$DW$35
     245                    
     246                    
     247                    $C$DW$38        .dwtag  DW_TAG_subprogram
     248                            .dwattr $C$DW$38, DW_AT_name("ApiMac_mlmeGetReqArray")
     249                            .dwattr $C$DW$38, DW_AT_TI_symbol_name("ApiMac_mlmeGetReqArray")
     250                            .dwattr $C$DW$38, DW_AT_type(*$C$DW$T$80)
     251                            .dwattr $C$DW$38, DW_AT_declaration
     252                            .dwattr $C$DW$38, DW_AT_external
     253                            .dwattr $C$DW$38, DW_AT_decl_file("..\Application\api_mac.h")
     254                            .dwattr $C$DW$38, DW_AT_decl_line(0xa65)
     255                            .dwattr $C$DW$38, DW_AT_decl_column(0x18)
     256                    $C$DW$39        .dwtag  DW_TAG_formal_parameter
     257                            .dwattr $C$DW$39, DW_AT_type(*$C$DW$T$382)
     258                    
     259                    $C$DW$40        .dwtag  DW_TAG_formal_parameter
     260                            .dwattr $C$DW$40, DW_AT_type(*$C$DW$T$52)
     261                    
     262                            .dwendtag $C$DW$38
     263                    
     264                    
     265                    $C$DW$41        .dwtag  DW_TAG_subprogram
     266                            .dwattr $C$DW$41, DW_AT_name("ApiMac_mlmeSetReqUint8")
     267                            .dwattr $C$DW$41, DW_AT_TI_symbol_name("ApiMac_mlmeSetReqUint8")
     268                            .dwattr $C$DW$41, DW_AT_type(*$C$DW$T$80)
     269                            .dwattr $C$DW$41, DW_AT_declaration
     270                            .dwattr $C$DW$41, DW_AT_external
     271                            .dwattr $C$DW$41, DW_AT_decl_file("..\Application\api_mac.h")
     272                            .dwattr $C$DW$41, DW_AT_decl_line(0xb6d)
     273                            .dwattr $C$DW$41, DW_AT_decl_column(0x18)
     274                    $C$DW$42        .dwtag  DW_TAG_formal_parameter
     275                            .dwattr $C$DW$42, DW_AT_type(*$C$DW$T$385)
TI ARM Assembler PC v16.9.9 Sun Nov 25 17:19:55 2018

Tools Copyright (c) 1996-2017 Texas Instruments Incorporated
C:\Users\Stryd\AppData\Local\Temp\{520067B0-6478-47D1-A9CE-DCA5FFBBC378} PAGE    6

     276                    
     277                    $C$DW$43        .dwtag  DW_TAG_formal_parameter
     278                            .dwattr $C$DW$43, DW_AT_type(*$C$DW$T$24)
     279                    
     280                            .dwendtag $C$DW$41
     281                    
     282                    
     283                    $C$DW$44        .dwtag  DW_TAG_subprogram
     284                            .dwattr $C$DW$44, DW_AT_name("ApiMac_randomByte")
     285                            .dwattr $C$DW$44, DW_AT_TI_symbol_name("ApiMac_randomByte")
     286                            .dwattr $C$DW$44, DW_AT_type(*$C$DW$T$24)
     287                            .dwattr $C$DW$44, DW_AT_declaration
     288                            .dwattr $C$DW$44, DW_AT_external
     289                            .dwattr $C$DW$44, DW_AT_decl_file("..\Application\api_mac.h")
     290                            .dwattr $C$DW$44, DW_AT_decl_line(0xc6b)
     291                            .dwattr $C$DW$44, DW_AT_decl_column(0x10)
     292                            .dwendtag $C$DW$44
     293                    
     294                    
     295                    $C$DW$45        .dwtag  DW_TAG_subprogram
     296                            .dwattr $C$DW$45, DW_AT_name("Jdllc_init")
     297                            .dwattr $C$DW$45, DW_AT_TI_symbol_name("Jdllc_init")
     298                            .dwattr $C$DW$45, DW_AT_declaration
     299                            .dwattr $C$DW$45, DW_AT_external
     300                            .dwattr $C$DW$45, DW_AT_decl_file("..\Application\jdllc.h")
     301                            .dwattr $C$DW$45, DW_AT_decl_line(0xd2)
     302                            .dwattr $C$DW$45, DW_AT_decl_column(0x0d)
     303                    $C$DW$46        .dwtag  DW_TAG_formal_parameter
     304                            .dwattr $C$DW$46, DW_AT_type(*$C$DW$T$497)
     305                    
     306                    $C$DW$47        .dwtag  DW_TAG_formal_parameter
     307                            .dwattr $C$DW$47, DW_AT_type(*$C$DW$T$462)
     308                    
     309                            .dwendtag $C$DW$45
     310                    
     311                    
     312                    $C$DW$48        .dwtag  DW_TAG_subprogram
     313                            .dwattr $C$DW$48, DW_AT_name("Jdllc_process")
     314                            .dwattr $C$DW$48, DW_AT_TI_symbol_name("Jdllc_process")
     315                            .dwattr $C$DW$48, DW_AT_declaration
     316                            .dwattr $C$DW$48, DW_AT_external
     317                            .dwattr $C$DW$48, DW_AT_decl_file("..\Application\jdllc.h")
     318                            .dwattr $C$DW$48, DW_AT_decl_line(0xd8)
     319                            .dwattr $C$DW$48, DW_AT_decl_column(0x0d)
     320                            .dwendtag $C$DW$48
     321                    
     322                    
     323                    $C$DW$49        .dwtag  DW_TAG_subprogram
     324                            .dwattr $C$DW$49, DW_AT_name("Jdllc_join")
     325                            .dwattr $C$DW$49, DW_AT_TI_symbol_name("Jdllc_join")
     326                            .dwattr $C$DW$49, DW_AT_declaration
     327                            .dwattr $C$DW$49, DW_AT_external
     328                            .dwattr $C$DW$49, DW_AT_decl_file("..\Application\jdllc.h")
     329                            .dwattr $C$DW$49, DW_AT_decl_line(0xe3)
     330                            .dwattr $C$DW$49, DW_AT_decl_column(0x0d)
TI ARM Assembler PC v16.9.9 Sun Nov 25 17:19:55 2018

Tools Copyright (c) 1996-2017 Texas Instruments Incorporated
C:\Users\Stryd\AppData\Local\Temp\{520067B0-6478-47D1-A9CE-DCA5FFBBC378} PAGE    7

     331                            .dwendtag $C$DW$49
     332                    
     333                    
     334                    $C$DW$50        .dwtag  DW_TAG_subprogram
     335                            .dwattr $C$DW$50, DW_AT_name("Jdllc_rejoin")
     336                            .dwattr $C$DW$50, DW_AT_TI_symbol_name("Jdllc_rejoin")
     337                            .dwattr $C$DW$50, DW_AT_declaration
     338                            .dwattr $C$DW$50, DW_AT_external
     339                            .dwattr $C$DW$50, DW_AT_decl_file("..\Application\jdllc.h")
     340                            .dwattr $C$DW$50, DW_AT_decl_line(0xf3)
     341                            .dwattr $C$DW$50, DW_AT_decl_column(0x0d)
     342                    $C$DW$51        .dwtag  DW_TAG_formal_parameter
     343                            .dwattr $C$DW$51, DW_AT_type(*$C$DW$T$67)
     344                    
     345                    $C$DW$52        .dwtag  DW_TAG_formal_parameter
     346                            .dwattr $C$DW$52, DW_AT_type(*$C$DW$T$69)
     347                    
     348                            .dwendtag $C$DW$50
     349                    
     350                    
     351                    $C$DW$53        .dwtag  DW_TAG_subprogram
     352                            .dwattr $C$DW$53, DW_AT_name("Jdllc_setPollRate")
     353                            .dwattr $C$DW$53, DW_AT_TI_symbol_name("Jdllc_setPollRate")
     354                            .dwattr $C$DW$53, DW_AT_declaration
     355                            .dwattr $C$DW$53, DW_AT_external
     356                            .dwattr $C$DW$53, DW_AT_decl_file("..\Application\jdllc.h")
     357                            .dwattr $C$DW$53, DW_AT_decl_line(0xfd)
     358                            .dwattr $C$DW$53, DW_AT_decl_column(0x0d)
     359                    $C$DW$54        .dwtag  DW_TAG_formal_parameter
     360                            .dwattr $C$DW$54, DW_AT_type(*$C$DW$T$31)
     361                    
     362                            .dwendtag $C$DW$53
     363                    
     364                    
     365                    $C$DW$55        .dwtag  DW_TAG_subprogram
     366                            .dwattr $C$DW$55, DW_AT_name("Jdllc_securityInit")
     367                            .dwattr $C$DW$55, DW_AT_TI_symbol_name("Jdllc_securityInit")
     368                            .dwattr $C$DW$55, DW_AT_declaration
     369                            .dwattr $C$DW$55, DW_AT_external
     370                            .dwattr $C$DW$55, DW_AT_decl_file("..\Application\jdllc.h")
     371                            .dwattr $C$DW$55, DW_AT_decl_line(0x109)
     372                            .dwattr $C$DW$55, DW_AT_decl_column(0x0d)
     373                    $C$DW$56        .dwtag  DW_TAG_formal_parameter
     374                            .dwattr $C$DW$56, DW_AT_type(*$C$DW$T$31)
     375                    
     376                            .dwendtag $C$DW$55
     377                    
     378                    
     379                    $C$DW$57        .dwtag  DW_TAG_subprogram
     380                            .dwattr $C$DW$57, DW_AT_name("Jdllc_securityFill")
     381                            .dwattr $C$DW$57, DW_AT_TI_symbol_name("Jdllc_securityFill")
     382                            .dwattr $C$DW$57, DW_AT_declaration
     383                            .dwattr $C$DW$57, DW_AT_external
     384                            .dwattr $C$DW$57, DW_AT_decl_file("..\Application\jdllc.h")
     385                            .dwattr $C$DW$57, DW_AT_decl_line(0x110)
TI ARM Assembler PC v16.9.9 Sun Nov 25 17:19:55 2018

Tools Copyright (c) 1996-2017 Texas Instruments Incorporated
C:\Users\Stryd\AppData\Local\Temp\{520067B0-6478-47D1-A9CE-DCA5FFBBC378} PAGE    8

     386                            .dwattr $C$DW$57, DW_AT_decl_column(0x0d)
     387                    $C$DW$58        .dwtag  DW_TAG_formal_parameter
     388                            .dwattr $C$DW$58, DW_AT_type(*$C$DW$T$504)
     389                    
     390                            .dwendtag $C$DW$57
     391                    
     392                    
     393                    $C$DW$59        .dwtag  DW_TAG_subprogram
     394                            .dwattr $C$DW$59, DW_AT_name("Jdllc_securityCheck")
     395                            .dwattr $C$DW$59, DW_AT_TI_symbol_name("Jdllc_securityCheck")
     396                            .dwattr $C$DW$59, DW_AT_type(*$C$DW$T$28)
     397                            .dwattr $C$DW$59, DW_AT_declaration
     398                            .dwattr $C$DW$59, DW_AT_external
     399                            .dwattr $C$DW$59, DW_AT_decl_file("..\Application\jdllc.h")
     400                            .dwattr $C$DW$59, DW_AT_decl_line(0x119)
     401                            .dwattr $C$DW$59, DW_AT_decl_column(0x0d)
     402                    $C$DW$60        .dwtag  DW_TAG_formal_parameter
     403                            .dwattr $C$DW$60, DW_AT_type(*$C$DW$T$504)
     404                    
     405                            .dwendtag $C$DW$59
     406                    
     407                    
     408                    $C$DW$61        .dwtag  DW_TAG_subprogram
     409                            .dwattr $C$DW$61, DW_AT_name("Jdllc_addSecDevice")
     410                            .dwattr $C$DW$61, DW_AT_TI_symbol_name("Jdllc_addSecDevice")
     411                            .dwattr $C$DW$61, DW_AT_type(*$C$DW$T$80)
     412                            .dwattr $C$DW$61, DW_AT_declaration
     413                            .dwattr $C$DW$61, DW_AT_external
     414                            .dwattr $C$DW$61, DW_AT_decl_file("..\Application\jdllc.h")
     415                            .dwattr $C$DW$61, DW_AT_decl_line(0x125)
     416                            .dwattr $C$DW$61, DW_AT_decl_column(0x18)
     417                    $C$DW$62        .dwtag  DW_TAG_formal_parameter
     418                            .dwattr $C$DW$62, DW_AT_type(*$C$DW$T$30)
     419                    
     420                    $C$DW$63        .dwtag  DW_TAG_formal_parameter
     421                            .dwattr $C$DW$63, DW_AT_type(*$C$DW$T$30)
     422                    
     423                    $C$DW$64        .dwtag  DW_TAG_formal_parameter
     424                            .dwattr $C$DW$64, DW_AT_type(*$C$DW$T$73)
     425                    
     426                    $C$DW$65        .dwtag  DW_TAG_formal_parameter
     427                            .dwattr $C$DW$65, DW_AT_type(*$C$DW$T$31)
     428                    
     429                            .dwendtag $C$DW$61
     430                    
     431                    
     432                    $C$DW$66        .dwtag  DW_TAG_subprogram
     433                            .dwattr $C$DW$66, DW_AT_name("Ssf_init")
     434                            .dwattr $C$DW$66, DW_AT_TI_symbol_name("Ssf_init")
     435                            .dwattr $C$DW$66, DW_AT_declaration
     436                            .dwattr $C$DW$66, DW_AT_external
     437                            .dwattr $C$DW$66, DW_AT_decl_file("..\Application\ssf.h")
     438                            .dwattr $C$DW$66, DW_AT_decl_line(0x62)
     439                            .dwattr $C$DW$66, DW_AT_decl_column(0x0d)
     440                    $C$DW$67        .dwtag  DW_TAG_formal_parameter
TI ARM Assembler PC v16.9.9 Sun Nov 25 17:19:55 2018

Tools Copyright (c) 1996-2017 Texas Instruments Incorporated
C:\Users\Stryd\AppData\Local\Temp\{520067B0-6478-47D1-A9CE-DCA5FFBBC378} PAGE    9

     441                            .dwattr $C$DW$67, DW_AT_type(*$C$DW$T$3)
     442                    
     443                            .dwendtag $C$DW$66
     444                    
     445                    
     446                    $C$DW$68        .dwtag  DW_TAG_subprogram
     447                            .dwattr $C$DW$68, DW_AT_name("Ssf_processEvents")
     448                            .dwattr $C$DW$68, DW_AT_TI_symbol_name("Ssf_processEvents")
     449                            .dwattr $C$DW$68, DW_AT_declaration
     450                            .dwattr $C$DW$68, DW_AT_external
     451                            .dwattr $C$DW$68, DW_AT_decl_file("..\Application\ssf.h")
     452                            .dwattr $C$DW$68, DW_AT_decl_line(0x68)
     453                            .dwattr $C$DW$68, DW_AT_decl_column(0x0d)
     454                            .dwendtag $C$DW$68
     455                    
     456                    
     457                    $C$DW$69        .dwtag  DW_TAG_subprogram
     458                            .dwattr $C$DW$69, DW_AT_name("Ssf_networkUpdate")
     459                            .dwattr $C$DW$69, DW_AT_TI_symbol_name("Ssf_networkUpdate")
     460                            .dwattr $C$DW$69, DW_AT_declaration
     461                            .dwattr $C$DW$69, DW_AT_external
     462                            .dwattr $C$DW$69, DW_AT_decl_file("..\Application\ssf.h")
     463                            .dwattr $C$DW$69, DW_AT_decl_line(0x76)
     464                            .dwattr $C$DW$69, DW_AT_decl_column(0x0d)
     465                    $C$DW$70        .dwtag  DW_TAG_formal_parameter
     466                            .dwattr $C$DW$70, DW_AT_type(*$C$DW$T$28)
     467                    
     468                    $C$DW$71        .dwtag  DW_TAG_formal_parameter
     469                            .dwattr $C$DW$71, DW_AT_type(*$C$DW$T$67)
     470                    
     471                    $C$DW$72        .dwtag  DW_TAG_formal_parameter
     472                            .dwattr $C$DW$72, DW_AT_type(*$C$DW$T$69)
     473                    
     474                            .dwendtag $C$DW$69
     475                    
     476                    
     477                    $C$DW$73        .dwtag  DW_TAG_subprogram
     478                            .dwattr $C$DW$73, DW_AT_name("Ssf_getNetworkInfo")
     479                            .dwattr $C$DW$73, DW_AT_TI_symbol_name("Ssf_getNetworkInfo")
     480                            .dwattr $C$DW$73, DW_AT_type(*$C$DW$T$28)
     481                            .dwattr $C$DW$73, DW_AT_declaration
     482                            .dwattr $C$DW$73, DW_AT_external
     483                            .dwattr $C$DW$73, DW_AT_decl_file("..\Application\ssf.h")
     484                            .dwattr $C$DW$73, DW_AT_decl_line(0x83)
     485                            .dwattr $C$DW$73, DW_AT_decl_column(0x0d)
     486                    $C$DW$74        .dwtag  DW_TAG_formal_parameter
     487                            .dwattr $C$DW$74, DW_AT_type(*$C$DW$T$67)
     488                    
     489                    $C$DW$75        .dwtag  DW_TAG_formal_parameter
     490                            .dwattr $C$DW$75, DW_AT_type(*$C$DW$T$69)
     491                    
     492                            .dwendtag $C$DW$73
     493                    
     494                    
     495                    $C$DW$76        .dwtag  DW_TAG_subprogram
TI ARM Assembler PC v16.9.9 Sun Nov 25 17:19:55 2018

Tools Copyright (c) 1996-2017 Texas Instruments Incorporated
C:\Users\Stryd\AppData\Local\Temp\{520067B0-6478-47D1-A9CE-DCA5FFBBC378} PAGE   10

     496                            .dwattr $C$DW$76, DW_AT_name("Ssf_stateChangeUpdate")
     497                            .dwattr $C$DW$76, DW_AT_TI_symbol_name("Ssf_stateChangeUpdate")
     498                            .dwattr $C$DW$76, DW_AT_declaration
     499                            .dwattr $C$DW$76, DW_AT_external
     500                            .dwattr $C$DW$76, DW_AT_decl_file("..\Application\ssf.h")
     501                            .dwattr $C$DW$76, DW_AT_decl_line(0xac)
     502                            .dwattr $C$DW$76, DW_AT_decl_column(0x0d)
     503                    $C$DW$77        .dwtag  DW_TAG_formal_parameter
     504                            .dwattr $C$DW$77, DW_AT_type(*$C$DW$T$85)
     505                    
     506                            .dwendtag $C$DW$76
     507                    
     508                    
     509                    $C$DW$78        .dwtag  DW_TAG_subprogram
     510                            .dwattr $C$DW$78, DW_AT_name("Ssf_initializeReadingClock")
     511                            .dwattr $C$DW$78, DW_AT_TI_symbol_name("Ssf_initializeReadingClock")
     512                            .dwattr $C$DW$78, DW_AT_declaration
     513                            .dwattr $C$DW$78, DW_AT_external
     514                            .dwattr $C$DW$78, DW_AT_decl_file("..\Application\ssf.h")
     515                            .dwattr $C$DW$78, DW_AT_decl_line(0xb1)
     516                            .dwattr $C$DW$78, DW_AT_decl_column(0x0d)
     517                            .dwendtag $C$DW$78
     518                    
     519                    
     520                    $C$DW$79        .dwtag  DW_TAG_subprogram
     521                            .dwattr $C$DW$79, DW_AT_name("Ssf_setReadingClock")
     522                            .dwattr $C$DW$79, DW_AT_TI_symbol_name("Ssf_setReadingClock")
     523                            .dwattr $C$DW$79, DW_AT_declaration
     524                            .dwattr $C$DW$79, DW_AT_external
     525                            .dwattr $C$DW$79, DW_AT_decl_file("..\Application\ssf.h")
     526                            .dwattr $C$DW$79, DW_AT_decl_line(0xb8)
     527                            .dwattr $C$DW$79, DW_AT_decl_column(0x0d)
     528                    $C$DW$80        .dwtag  DW_TAG_formal_parameter
     529                            .dwattr $C$DW$80, DW_AT_type(*$C$DW$T$31)
     530                    
     531                            .dwendtag $C$DW$79
     532                    
     533                    
     534                    $C$DW$81        .dwtag  DW_TAG_subprogram
     535                            .dwattr $C$DW$81, DW_AT_name("Ssf_configurationUpdate")
     536                            .dwattr $C$DW$81, DW_AT_TI_symbol_name("Ssf_configurationUpdate")
     537                            .dwattr $C$DW$81, DW_AT_declaration
     538                            .dwattr $C$DW$81, DW_AT_external
     539                            .dwattr $C$DW$81, DW_AT_decl_file("..\Application\ssf.h")
     540                            .dwattr $C$DW$81, DW_AT_decl_line(0xca)
     541                            .dwattr $C$DW$81, DW_AT_decl_column(0x0d)
     542                    $C$DW$82        .dwtag  DW_TAG_formal_parameter
     543                            .dwattr $C$DW$82, DW_AT_type(*$C$DW$T$469)
     544                    
     545                            .dwendtag $C$DW$81
     546                    
     547                    
     548                    $C$DW$83        .dwtag  DW_TAG_subprogram
     549                            .dwattr $C$DW$83, DW_AT_name("Ssf_getConfigInfo")
     550                            .dwattr $C$DW$83, DW_AT_TI_symbol_name("Ssf_getConfigInfo")
TI ARM Assembler PC v16.9.9 Sun Nov 25 17:19:55 2018

Tools Copyright (c) 1996-2017 Texas Instruments Incorporated
C:\Users\Stryd\AppData\Local\Temp\{520067B0-6478-47D1-A9CE-DCA5FFBBC378} PAGE   11

     551                            .dwattr $C$DW$83, DW_AT_type(*$C$DW$T$28)
     552                            .dwattr $C$DW$83, DW_AT_declaration
     553                            .dwattr $C$DW$83, DW_AT_external
     554                            .dwattr $C$DW$83, DW_AT_decl_file("..\Application\ssf.h")
     555                            .dwattr $C$DW$83, DW_AT_decl_line(0xd4)
     556                            .dwattr $C$DW$83, DW_AT_decl_column(0x0d)
     557                    $C$DW$84        .dwtag  DW_TAG_formal_parameter
     558                            .dwattr $C$DW$84, DW_AT_type(*$C$DW$T$450)
     559                    
     560                            .dwendtag $C$DW$83
     561                    
     562                    
     563                    $C$DW$85        .dwtag  DW_TAG_subprogram
     564                            .dwattr $C$DW$85, DW_AT_name("Ssf_sensorReadingUpdate")
     565                            .dwattr $C$DW$85, DW_AT_TI_symbol_name("Ssf_sensorReadingUpdate")
     566                            .dwattr $C$DW$85, DW_AT_declaration
     567                            .dwattr $C$DW$85, DW_AT_external
     568                            .dwattr $C$DW$85, DW_AT_decl_file("..\Application\ssf.h")
     569                            .dwattr $C$DW$85, DW_AT_decl_line(0xdb)
     570                            .dwattr $C$DW$85, DW_AT_decl_column(0x0d)
     571                    $C$DW$86        .dwtag  DW_TAG_formal_parameter
     572                            .dwattr $C$DW$86, DW_AT_type(*$C$DW$T$477)
     573                    
     574                            .dwendtag $C$DW$85
     575                    
     576                    
     577                    $C$DW$87        .dwtag  DW_TAG_subprogram
     578                            .dwattr $C$DW$87, DW_AT_name("Ssf_trackingUpdate")
     579                            .dwattr $C$DW$87, DW_AT_TI_symbol_name("Ssf_trackingUpdate")
     580                            .dwattr $C$DW$87, DW_AT_declaration
     581                            .dwattr $C$DW$87, DW_AT_external
     582                            .dwattr $C$DW$87, DW_AT_decl_file("..\Application\ssf.h")
     583                            .dwattr $C$DW$87, DW_AT_decl_line(0xe4)
     584                            .dwattr $C$DW$87, DW_AT_decl_column(0x0d)
     585                    $C$DW$88        .dwtag  DW_TAG_formal_parameter
     586                            .dwattr $C$DW$88, DW_AT_type(*$C$DW$T$442)
     587                    
     588                            .dwendtag $C$DW$87
     589                    
     590                    
     591                    $C$DW$89        .dwtag  DW_TAG_subprogram
     592                            .dwattr $C$DW$89, DW_AT_name("Ssf_malloc")
     593                            .dwattr $C$DW$89, DW_AT_TI_symbol_name("Ssf_malloc")
     594                            .dwattr $C$DW$89, DW_AT_type(*$C$DW$T$3)
     595                            .dwattr $C$DW$89, DW_AT_declaration
     596                            .dwattr $C$DW$89, DW_AT_external
     597                            .dwattr $C$DW$89, DW_AT_decl_file("..\Application\ssf.h")
     598                            .dwattr $C$DW$89, DW_AT_decl_line(0xed)
     599                            .dwattr $C$DW$89, DW_AT_decl_column(0x0e)
     600                    $C$DW$90        .dwtag  DW_TAG_formal_parameter
     601                            .dwattr $C$DW$90, DW_AT_type(*$C$DW$T$30)
     602                    
     603                            .dwendtag $C$DW$89
     604                    
     605                    
TI ARM Assembler PC v16.9.9 Sun Nov 25 17:19:55 2018

Tools Copyright (c) 1996-2017 Texas Instruments Incorporated
C:\Users\Stryd\AppData\Local\Temp\{520067B0-6478-47D1-A9CE-DCA5FFBBC378} PAGE   12

     606                    $C$DW$91        .dwtag  DW_TAG_subprogram
     607                            .dwattr $C$DW$91, DW_AT_name("Ssf_free")
     608                            .dwattr $C$DW$91, DW_AT_TI_symbol_name("Ssf_free")
     609                            .dwattr $C$DW$91, DW_AT_declaration
     610                            .dwattr $C$DW$91, DW_AT_external
     611                            .dwattr $C$DW$91, DW_AT_decl_file("..\Application\ssf.h")
     612                            .dwattr $C$DW$91, DW_AT_decl_line(0xf4)
     613                            .dwattr $C$DW$91, DW_AT_decl_column(0x0d)
     614                    $C$DW$92        .dwtag  DW_TAG_formal_parameter
     615                            .dwattr $C$DW$92, DW_AT_type(*$C$DW$T$3)
     616                    
     617                            .dwendtag $C$DW$91
     618                    
     619                    
     620                    $C$DW$93        .dwtag  DW_TAG_subprogram
     621                            .dwattr $C$DW$93, DW_AT_name("Ssf_updateFrameCounter")
     622                            .dwattr $C$DW$93, DW_AT_TI_symbol_name("Ssf_updateFrameCounter")
     623                            .dwattr $C$DW$93, DW_AT_declaration
     624                            .dwattr $C$DW$93, DW_AT_external
     625                            .dwattr $C$DW$93, DW_AT_decl_file("..\Application\ssf.h")
     626                            .dwattr $C$DW$93, DW_AT_decl_line(0x156)
     627                            .dwattr $C$DW$93, DW_AT_decl_column(0x0d)
     628                    $C$DW$94        .dwtag  DW_TAG_formal_parameter
     629                            .dwattr $C$DW$94, DW_AT_type(*$C$DW$T$442)
     630                    
     631                    $C$DW$95        .dwtag  DW_TAG_formal_parameter
     632                            .dwattr $C$DW$95, DW_AT_type(*$C$DW$T$31)
     633                    
     634                            .dwendtag $C$DW$93
     635                    
     636                    
     637                    $C$DW$96        .dwtag  DW_TAG_subprogram
     638                            .dwattr $C$DW$96, DW_AT_name("Ssf_getFrameCounter")
     639                            .dwattr $C$DW$96, DW_AT_TI_symbol_name("Ssf_getFrameCounter")
     640                            .dwattr $C$DW$96, DW_AT_type(*$C$DW$T$28)
     641                            .dwattr $C$DW$96, DW_AT_declaration
     642                            .dwattr $C$DW$96, DW_AT_external
     643                            .dwattr $C$DW$96, DW_AT_decl_file("..\Application\ssf.h")
     644                            .dwattr $C$DW$96, DW_AT_decl_line(0x163)
     645                            .dwattr $C$DW$96, DW_AT_decl_column(0x0d)
     646                    $C$DW$97        .dwtag  DW_TAG_formal_parameter
     647                            .dwattr $C$DW$97, DW_AT_type(*$C$DW$T$442)
     648                    
     649                    $C$DW$98        .dwtag  DW_TAG_formal_parameter
     650                            .dwattr $C$DW$98, DW_AT_type(*$C$DW$T$379)
     651                    
     652                            .dwendtag $C$DW$96
     653                    
     654                    
     655                    $C$DW$99        .dwtag  DW_TAG_subprogram
     656                            .dwattr $C$DW$99, DW_AT_name("Ssf_displayError")
     657                            .dwattr $C$DW$99, DW_AT_TI_symbol_name("Ssf_displayError")
     658                            .dwattr $C$DW$99, DW_AT_declaration
     659                            .dwattr $C$DW$99, DW_AT_external
     660                            .dwattr $C$DW$99, DW_AT_decl_file("..\Application\ssf.h")
TI ARM Assembler PC v16.9.9 Sun Nov 25 17:19:55 2018

Tools Copyright (c) 1996-2017 Texas Instruments Incorporated
C:\Users\Stryd\AppData\Local\Temp\{520067B0-6478-47D1-A9CE-DCA5FFBBC378} PAGE   13

     661                            .dwattr $C$DW$99, DW_AT_decl_line(0x16d)
     662                            .dwattr $C$DW$99, DW_AT_decl_column(0x0d)
     663                    $C$DW$100       .dwtag  DW_TAG_formal_parameter
     664                            .dwattr $C$DW$100, DW_AT_type(*$C$DW$T$52)
     665                    
     666                    $C$DW$101       .dwtag  DW_TAG_formal_parameter
     667                            .dwattr $C$DW$101, DW_AT_type(*$C$DW$T$24)
     668                    
     669                            .dwendtag $C$DW$99
     670                    
     671                    
     672                    $C$DW$102       .dwtag  DW_TAG_subprogram
     673                            .dwattr $C$DW$102, DW_AT_name("Ssf_clearNetworkInfo")
     674                            .dwattr $C$DW$102, DW_AT_TI_symbol_name("Ssf_clearNetworkInfo")
     675                            .dwattr $C$DW$102, DW_AT_declaration
     676                            .dwattr $C$DW$102, DW_AT_external
     677                            .dwattr $C$DW$102, DW_AT_decl_file("..\Application\ssf.h")
     678                            .dwattr $C$DW$102, DW_AT_decl_line(0x17d)
     679                            .dwattr $C$DW$102, DW_AT_decl_column(0x0d)
     680                            .dwendtag $C$DW$102
     681                    
     682                    
     683                    $C$DW$103       .dwtag  DW_TAG_subprogram
     684                            .dwattr $C$DW$103, DW_AT_name("Ssf_readTempSensor")
     685                            .dwattr $C$DW$103, DW_AT_TI_symbol_name("Ssf_readTempSensor")
     686                            .dwattr $C$DW$103, DW_AT_type(*$C$DW$T$109)
     687                            .dwattr $C$DW$103, DW_AT_declaration
     688                            .dwattr $C$DW$103, DW_AT_external
     689                            .dwattr $C$DW$103, DW_AT_decl_file("..\Application\ssf.h")
     690                            .dwattr $C$DW$103, DW_AT_decl_line(0x18a)
     691                            .dwattr $C$DW$103, DW_AT_decl_column(0x10)
     692                            .dwendtag $C$DW$103
     693                    
     694                    
     695                    $C$DW$104       .dwtag  DW_TAG_subprogram
     696                            .dwattr $C$DW$104, DW_AT_name("Ssf_toggleLED")
     697                            .dwattr $C$DW$104, DW_AT_TI_symbol_name("Ssf_toggleLED")
     698                            .dwattr $C$DW$104, DW_AT_type(*$C$DW$T$28)
     699                            .dwattr $C$DW$104, DW_AT_declaration
     700                            .dwattr $C$DW$104, DW_AT_external
     701                            .dwattr $C$DW$104, DW_AT_decl_file("..\Application\ssf.h")
     702                            .dwattr $C$DW$104, DW_AT_decl_line(0x191)
     703                            .dwattr $C$DW$104, DW_AT_decl_column(0x0d)
     704                            .dwendtag $C$DW$104
     705                    
     706                    
     707                    $C$DW$105       .dwtag  DW_TAG_subprogram
     708                            .dwattr $C$DW$105, DW_AT_name("Ssf_OnLED")
     709                            .dwattr $C$DW$105, DW_AT_TI_symbol_name("Ssf_OnLED")
     710                            .dwattr $C$DW$105, DW_AT_declaration
     711                            .dwattr $C$DW$105, DW_AT_external
     712                            .dwattr $C$DW$105, DW_AT_decl_file("..\Application\ssf.h")
     713                            .dwattr $C$DW$105, DW_AT_decl_line(0x196)
     714                            .dwattr $C$DW$105, DW_AT_decl_column(0x0d)
     715                            .dwendtag $C$DW$105
TI ARM Assembler PC v16.9.9 Sun Nov 25 17:19:55 2018

Tools Copyright (c) 1996-2017 Texas Instruments Incorporated
C:\Users\Stryd\AppData\Local\Temp\{520067B0-6478-47D1-A9CE-DCA5FFBBC378} PAGE   14

     716                    
     717                    
     718                    $C$DW$106       .dwtag  DW_TAG_subprogram
     719                            .dwattr $C$DW$106, DW_AT_name("Ssf_OffLED")
     720                            .dwattr $C$DW$106, DW_AT_TI_symbol_name("Ssf_OffLED")
     721                            .dwattr $C$DW$106, DW_AT_declaration
     722                            .dwattr $C$DW$106, DW_AT_external
     723                            .dwattr $C$DW$106, DW_AT_decl_file("..\Application\ssf.h")
     724                            .dwattr $C$DW$106, DW_AT_decl_line(0x19b)
     725                            .dwattr $C$DW$106, DW_AT_decl_column(0x0d)
     726                            .dwendtag $C$DW$106
     727                    
     728                    $C$DW$107       .dwtag  DW_TAG_variable
     729                            .dwattr $C$DW$107, DW_AT_name("Ssf_resetReseason")
     730                            .dwattr $C$DW$107, DW_AT_TI_symbol_name("Ssf_resetReseason")
     731                            .dwattr $C$DW$107, DW_AT_type(*$C$DW$T$24)
     732                            .dwattr $C$DW$107, DW_AT_declaration
     733                            .dwattr $C$DW$107, DW_AT_external
     734                            .dwattr $C$DW$107, DW_AT_decl_file("..\Application\ssf.h")
     735                            .dwattr $C$DW$107, DW_AT_decl_line(0x54)
     736                            .dwattr $C$DW$107, DW_AT_decl_column(0x10)
     737                    
     738                    $C$DW$108       .dwtag  DW_TAG_variable
     739                            .dwattr $C$DW$108, DW_AT_name("Ssf_resetCount")
     740                            .dwattr $C$DW$108, DW_AT_TI_symbol_name("Ssf_resetCount")
     741                            .dwattr $C$DW$108, DW_AT_type(*$C$DW$T$30)
     742                            .dwattr $C$DW$108, DW_AT_declaration
     743                            .dwattr $C$DW$108, DW_AT_external
     744                            .dwattr $C$DW$108, DW_AT_decl_file("..\Application\ssf.h")
     745                            .dwattr $C$DW$108, DW_AT_decl_line(0x57)
     746                            .dwattr $C$DW$108, DW_AT_decl_column(0x11)
     747                    
     748                    $C$DW$109       .dwtag  DW_TAG_variable
     749                            .dwattr $C$DW$109, DW_AT_name("ICall_dispatcher")
     750                            .dwattr $C$DW$109, DW_AT_TI_symbol_name("ICall_dispatcher")
     751                            .dwattr $C$DW$109, DW_AT_type(*$C$DW$T$341)
     752                            .dwattr $C$DW$109, DW_AT_declaration
     753                            .dwattr $C$DW$109, DW_AT_external
     754                            .dwattr $C$DW$109, DW_AT_decl_file("C:/ti/simplelink_cc13x0_sdk_2_30_00_20/source/ti/ti154stac
     755                            .dwattr $C$DW$109, DW_AT_decl_line(0x381)
     756                            .dwattr $C$DW$109, DW_AT_decl_column(0x19)
     757                    
     758                    $C$DW$110       .dwtag  DW_TAG_variable
     759                            .dwattr $C$DW$110, DW_AT_name("initBroadcastMsg")
     760                            .dwattr $C$DW$110, DW_AT_TI_symbol_name("initBroadcastMsg")
     761                            .dwattr $C$DW$110, DW_AT_type(*$C$DW$T$28)
     762                            .dwattr $C$DW$110, DW_AT_declaration
     763                            .dwattr $C$DW$110, DW_AT_external
     764                            .dwattr $C$DW$110, DW_AT_decl_file("../Application/sensor.c")
     765                            .dwattr $C$DW$110, DW_AT_decl_line(0x84)
     766                            .dwattr $C$DW$110, DW_AT_decl_column(0x0d)
     767                    
     768                    $C$DW$111       .dwtag  DW_TAG_variable
     769                            .dwattr $C$DW$111, DW_AT_name("parentFound")
     770                            .dwattr $C$DW$111, DW_AT_TI_symbol_name("parentFound")
TI ARM Assembler PC v16.9.9 Sun Nov 25 17:19:55 2018

Tools Copyright (c) 1996-2017 Texas Instruments Incorporated
C:\Users\Stryd\AppData\Local\Temp\{520067B0-6478-47D1-A9CE-DCA5FFBBC378} PAGE   15

     771                            .dwattr $C$DW$111, DW_AT_type(*$C$DW$T$28)
     772                            .dwattr $C$DW$111, DW_AT_declaration
     773                            .dwattr $C$DW$111, DW_AT_external
     774                            .dwattr $C$DW$111, DW_AT_decl_file("../Application/sensor.c")
     775                            .dwattr $C$DW$111, DW_AT_decl_line(0x85)
     776                            .dwattr $C$DW$111, DW_AT_decl_column(0x0d)
     777                    
     778 00000000                   .sect   ".data:$O1$$", RW
     779                            .align  4
     780                            .elfsym ||$O1$$||,SYM_SIZE(204)
     781 00000000           ||$O1$$||:
     782 00000000 00000000          .bits   0,8                     ; $O1$$.rejoining @ 0
     783 00000000 00000000          .bits   0,8                     ; $O1$$.deviceTxMsduHandle @ 8
     784 00000000 00000000          .bits   0,16                    ; $O1$$.Sensor_events @ 16
     785 00000004 00000000          .bits   0,16                    ; $O1$$.lightSensor.rawData @ 32
     786 00000004 00000000          .bits   0,16                    ; $O1$$.lastRcvdBroadcastMsgId @ 48
     787 00000008 00000000          .bits   0,32
     788 0000000c 00000000          .bits   0,32                    ; $O1$$.joinTimeTicks @ 96
     789 00000010 00000000          .bits   0,32                    ; $O1$$.startSensorMsgTimeStamp @ 128
     790 00000014 00000000          .bits   0,16                    ; $O1$$.tempSensor.ambienceTemp @ 160
     791 00000014 00000000          .bits   0,16
     792 00000018 00000000          .bits   0,16                    ; $O1$$.humiditySensor.temp @ 192
     793 00000018 00000000          .bits   0,16
     794 0000001c 00000000          .bits   0,16                    ; $O1$$.collectorAddr.addr.shortAddr @ 224
     795 0000001e                   .space  22
     796 00000034 00000000          .bits   0,16                    ; $O1$$.parentInfo.devInfo.panID @ 416
     797 00000036                   .space  14
     798 00000044 00000000!         .bits   jdllcJoinedCb,32                ; $O1$$.jdllcCallbacks.pJoinedCb @ 544
     799 00000048 00000000!         .bits   jdllcDisassocIndCb,32           ; $O1$$.jdllcCallbacks.pDisassocIndCb @ 576
     800 0000004c 00000000!         .bits   jdllcDisassocCnfCb,32           ; $O1$$.jdllcCallbacks.pDisassocCnfCb @ 608
     801 00000050 00000000!         .bits   jdllcStateChangeCb,32           ; $O1$$.jdllcCallbacks.pStateChangeCb @ 640
     802 00000054 00000000          .bits   0,16                    ; $O1$$.Sensor_msgStats.joinAttempts @ 672
     803 00000056                   .space  46
     804 00000084 00000000          .bits   0,32                    ; $O1$$.Sensor_macCallbacks.pAssocIndCb @ 1056
     805 00000088 00000000          .bits   0,32                    ; $O1$$.Sensor_macCallbacks.pAssocCnfCb @ 1088
     806 0000008c 00000000          .bits   0,32                    ; $O1$$.Sensor_macCallbacks.pDisassociateIndCb @ 1120
     807 00000090 00000000          .bits   0,32                    ; $O1$$.Sensor_macCallbacks.pDisassociateCnfCb @ 1152
     808 00000094 00000000          .bits   0,32                    ; $O1$$.Sensor_macCallbacks.pBeaconNotifyIndCb @ 1184
     809 00000098 00000000          .bits   0,32                    ; $O1$$.Sensor_macCallbacks.pOrphanIndCb @ 1216
     810 0000009c 00000000          .bits   0,32                    ; $O1$$.Sensor_macCallbacks.pScanCnfCb @ 1248
     811 000000a0 00000000          .bits   0,32                    ; $O1$$.Sensor_macCallbacks.pStartCnfCb @ 1280
     812 000000a4 00000000          .bits   0,32                    ; $O1$$.Sensor_macCallbacks.pSyncLossIndCb @ 1312
     813 000000a8 00000000          .bits   0,32                    ; $O1$$.Sensor_macCallbacks.pPollCnfCb @ 1344
     814 000000ac 00000000          .bits   0,32                    ; $O1$$.Sensor_macCallbacks.pCommStatusCb @ 1376
     815 000000b0 00000000          .bits   0,32                    ; $O1$$.Sensor_macCallbacks.pPollIndCb @ 1408
     816 000000b4 00000000!         .bits   dataCnfCB,32            ; $O1$$.Sensor_macCallbacks.pDataCnfCb @ 1440
     817 000000b8 00000000!         .bits   dataIndCB,32            ; $O1$$.Sensor_macCallbacks.pDataIndCb @ 1472
     818 000000bc 00000000          .bits   0,32                    ; $O1$$.Sensor_macCallbacks.pPurgeCnfCb @ 1504
     819 000000c0 00000000          .bits   0,32                    ; $O1$$.Sensor_macCallbacks.pWsAsyncIndCb @ 1536
     820 000000c4 00000000          .bits   0,32                    ; $O1$$.Sensor_macCallbacks.pWsAsyncCnfCb @ 1568
     821 000000c8 00000000          .bits   0,32                    ; $O1$$.Sensor_macCallbacks.pUnprocessedCb @ 1600
     822                    
     823                    
     824                    ;*********************************************************************
     825                    ;* GROUPED GLOBALS FOR $O1$$                                         *
TI ARM Assembler PC v16.9.9 Sun Nov 25 17:19:55 2018

Tools Copyright (c) 1996-2017 Texas Instruments Incorporated
C:\Users\Stryd\AppData\Local\Temp\{520067B0-6478-47D1-A9CE-DCA5FFBBC378} PAGE   16

     826                    ;*********************************************************************
     827          00000000! rejoining:      .set    ||$O1$$||+0
     828                    $C$DW$112       .dwtag  DW_TAG_variable
     829                            .dwattr $C$DW$112, DW_AT_name("rejoining")
     830                            .dwattr $C$DW$112, DW_AT_TI_symbol_name("rejoining")
     831                            .dwattr $C$DW$112, DW_AT_type(*$C$DW$T$28)
     832                            .dwattr $C$DW$112, DW_AT_location[DW_OP_addr rejoining]
     833                            .dwattr $C$DW$112, DW_AT_decl_file("../Application/sensor.c")
     834                            .dwattr $C$DW$112, DW_AT_decl_line(0x92)
     835                            .dwattr $C$DW$112, DW_AT_decl_column(0x0d)
     836                    
     837          00000001! deviceTxMsduHandle:     .set    ||$O1$$||+1
     838                    $C$DW$113       .dwtag  DW_TAG_variable
     839                            .dwattr $C$DW$113, DW_AT_name("deviceTxMsduHandle")
     840                            .dwattr $C$DW$113, DW_AT_TI_symbol_name("deviceTxMsduHandle")
     841                            .dwattr $C$DW$113, DW_AT_type(*$C$DW$T$24)
     842                            .dwattr $C$DW$113, DW_AT_location[DW_OP_addr deviceTxMsduHandle]
     843                            .dwattr $C$DW$113, DW_AT_decl_file("../Application/sensor.c")
     844                            .dwattr $C$DW$113, DW_AT_decl_line(0x9e)
     845                            .dwattr $C$DW$113, DW_AT_decl_column(0x10)
     846                    
     847          00000002! Sensor_events:  .set    ||$O1$$||+2
     848                            .global Sensor_events
     849                    $C$DW$114       .dwtag  DW_TAG_variable
     850                            .dwattr $C$DW$114, DW_AT_name("Sensor_events")
     851                            .dwattr $C$DW$114, DW_AT_TI_symbol_name("Sensor_events")
     852                            .dwattr $C$DW$114, DW_AT_location[DW_OP_addr Sensor_events]
     853                            .dwattr $C$DW$114, DW_AT_type(*$C$DW$T$30)
     854                            .dwattr $C$DW$114, DW_AT_external
     855                            .dwattr $C$DW$114, DW_AT_decl_file("../Application/sensor.c")
     856                            .dwattr $C$DW$114, DW_AT_decl_line(0x7f)
     857                            .dwattr $C$DW$114, DW_AT_decl_column(0x0a)
     858                    
     859          00000004! lightSensor:    .set    ||$O1$$||+4
     860                    $C$DW$115       .dwtag  DW_TAG_variable
     861                            .dwattr $C$DW$115, DW_AT_name("lightSensor")
     862                            .dwattr $C$DW$115, DW_AT_TI_symbol_name("lightSensor")
     863                            .dwattr $C$DW$115, DW_AT_type(*$C$DW$T$104)
     864                            .dwattr $C$DW$115, DW_AT_location[DW_OP_addr lightSensor]
     865                            .dwattr $C$DW$115, DW_AT_decl_file("../Application/sensor.c")
     866                            .dwattr $C$DW$115, DW_AT_decl_line(0xad)
     867                            .dwattr $C$DW$115, DW_AT_decl_column(0x21)
     868                    
     869          00000006! lastRcvdBroadcastMsgId: .set    ||$O1$$||+6
     870                    $C$DW$116       .dwtag  DW_TAG_variable
     871                            .dwattr $C$DW$116, DW_AT_name("lastRcvdBroadcastMsgId")
     872                            .dwattr $C$DW$116, DW_AT_TI_symbol_name("lastRcvdBroadcastMsgId")
     873                            .dwattr $C$DW$116, DW_AT_type(*$C$DW$T$30)
     874                            .dwattr $C$DW$116, DW_AT_location[DW_OP_addr lastRcvdBroadcastMsgId]
     875                            .dwattr $C$DW$116, DW_AT_decl_file("../Application/sensor.c")
     876                            .dwattr $C$DW$116, DW_AT_decl_line(0xb9)
     877                            .dwattr $C$DW$116, DW_AT_decl_column(0x11)
     878                    
     879          00000008! sem:    .set    ||$O1$$||+8
     880                    $C$DW$117       .dwtag  DW_TAG_variable
TI ARM Assembler PC v16.9.9 Sun Nov 25 17:19:55 2018

Tools Copyright (c) 1996-2017 Texas Instruments Incorporated
C:\Users\Stryd\AppData\Local\Temp\{520067B0-6478-47D1-A9CE-DCA5FFBBC378} PAGE   17

     881                            .dwattr $C$DW$117, DW_AT_name("sem")
     882                            .dwattr $C$DW$117, DW_AT_TI_symbol_name("sem")
     883                            .dwattr $C$DW$117, DW_AT_type(*$C$DW$T$3)
     884                            .dwattr $C$DW$117, DW_AT_location[DW_OP_addr sem]
     885                            .dwattr $C$DW$117, DW_AT_decl_file("../Application/sensor.c")
     886                            .dwattr $C$DW$117, DW_AT_decl_line(0x8f)
     887                            .dwattr $C$DW$117, DW_AT_decl_column(0x0e)
     888                    
     889          0000000C! joinTimeTicks:  .set    ||$O1$$||+12
     890                    $C$DW$118       .dwtag  DW_TAG_variable
     891                            .dwattr $C$DW$118, DW_AT_name("joinTimeTicks")
     892                            .dwattr $C$DW$118, DW_AT_TI_symbol_name("joinTimeTicks")
     893                            .dwattr $C$DW$118, DW_AT_type(*$C$DW$T$320)
     894                            .dwattr $C$DW$118, DW_AT_location[DW_OP_addr joinTimeTicks]
     895                            .dwattr $C$DW$118, DW_AT_decl_file("../Application/sensor.c")
     896                            .dwattr $C$DW$118, DW_AT_decl_line(0x98)
     897                            .dwattr $C$DW$118, DW_AT_decl_column(0x16)
     898                    
     899          00000010! startSensorMsgTimeStamp:        .set    ||$O1$$||+16
     900                    $C$DW$119       .dwtag  DW_TAG_variable
     901                            .dwattr $C$DW$119, DW_AT_name("startSensorMsgTimeStamp")
     902                            .dwattr $C$DW$119, DW_AT_TI_symbol_name("startSensorMsgTimeStamp")
     903                            .dwattr $C$DW$119, DW_AT_type(*$C$DW$T$31)
     904                            .dwattr $C$DW$119, DW_AT_location[DW_OP_addr startSensorMsgTimeStamp]
     905                            .dwattr $C$DW$119, DW_AT_decl_file("../Application/sensor.c")
     906                            .dwattr $C$DW$119, DW_AT_decl_line(0x9b)
     907                            .dwattr $C$DW$119, DW_AT_decl_column(0x11)
     908                    
     909          00000014! tempSensor:     .set    ||$O1$$||+20
     910                    $C$DW$120       .dwtag  DW_TAG_variable
     911                            .dwattr $C$DW$120, DW_AT_name("tempSensor")
     912                            .dwattr $C$DW$120, DW_AT_TI_symbol_name("tempSensor")
     913                            .dwattr $C$DW$120, DW_AT_type(*$C$DW$T$103)
     914                            .dwattr $C$DW$120, DW_AT_location[DW_OP_addr tempSensor]
     915                            .dwattr $C$DW$120, DW_AT_decl_file("../Application/sensor.c")
     916                            .dwattr $C$DW$120, DW_AT_decl_line(0xa6)
     917                            .dwattr $C$DW$120, DW_AT_decl_column(0x20)
     918                    
     919          00000018! humiditySensor: .set    ||$O1$$||+24
     920                    $C$DW$121       .dwtag  DW_TAG_variable
     921                            .dwattr $C$DW$121, DW_AT_name("humiditySensor")
     922                            .dwattr $C$DW$121, DW_AT_TI_symbol_name("humiditySensor")
     923                            .dwattr $C$DW$121, DW_AT_type(*$C$DW$T$105)
     924                            .dwattr $C$DW$121, DW_AT_location[DW_OP_addr humiditySensor]
     925                            .dwattr $C$DW$121, DW_AT_decl_file("../Application/sensor.c")
     926                            .dwattr $C$DW$121, DW_AT_decl_line(0xb4)
     927                            .dwattr $C$DW$121, DW_AT_decl_column(0x24)
     928                    
     929          0000001C! collectorAddr:  .set    ||$O1$$||+28
     930                    $C$DW$122       .dwtag  DW_TAG_variable
     931                            .dwattr $C$DW$122, DW_AT_name("collectorAddr")
     932                            .dwattr $C$DW$122, DW_AT_TI_symbol_name("collectorAddr")
     933                            .dwattr $C$DW$122, DW_AT_type(*$C$DW$T$224)
     934                            .dwattr $C$DW$122, DW_AT_location[DW_OP_addr collectorAddr]
     935                            .dwattr $C$DW$122, DW_AT_decl_file("../Application/sensor.c")
TI ARM Assembler PC v16.9.9 Sun Nov 25 17:19:55 2018

Tools Copyright (c) 1996-2017 Texas Instruments Incorporated
C:\Users\Stryd\AppData\Local\Temp\{520067B0-6478-47D1-A9CE-DCA5FFBBC378} PAGE   18

     936                            .dwattr $C$DW$122, DW_AT_decl_line(0x95)
     937                            .dwattr $C$DW$122, DW_AT_decl_column(0x17)
     938                    
     939          00000028! configSettings: .set    ||$O1$$||+40
     940                    $C$DW$123       .dwtag  DW_TAG_variable
     941                            .dwattr $C$DW$123, DW_AT_name("configSettings")
     942                            .dwattr $C$DW$123, DW_AT_TI_symbol_name("configSettings")
     943                            .dwattr $C$DW$123, DW_AT_type(*$C$DW$T$466)
     944                            .dwattr $C$DW$123, DW_AT_location[DW_OP_addr configSettings]
     945                            .dwattr $C$DW$123, DW_AT_decl_file("../Application/sensor.c")
     946                            .dwattr $C$DW$123, DW_AT_decl_line(0xa0)
     947                            .dwattr $C$DW$123, DW_AT_decl_column(0x1d)
     948                    
     949          00000034! parentInfo:     .set    ||$O1$$||+52
     950                    $C$DW$124       .dwtag  DW_TAG_variable
     951                            .dwattr $C$DW$124, DW_AT_name("parentInfo")
     952                            .dwattr $C$DW$124, DW_AT_TI_symbol_name("parentInfo")
     953                            .dwattr $C$DW$124, DW_AT_type(*$C$DW$T$68)
     954                            .dwattr $C$DW$124, DW_AT_location[DW_OP_addr parentInfo]
     955                            .dwattr $C$DW$124, DW_AT_decl_file("../Application/sensor.c")
     956                            .dwattr $C$DW$124, DW_AT_decl_line(0xb7)
     957                            .dwattr $C$DW$124, DW_AT_decl_column(0x16)
     958                    
     959          00000044! jdllcCallbacks: .set    ||$O1$$||+68
     960                    $C$DW$125       .dwtag  DW_TAG_variable
     961                            .dwattr $C$DW$125, DW_AT_name("jdllcCallbacks")
     962                            .dwattr $C$DW$125, DW_AT_TI_symbol_name("jdllcCallbacks")
     963                            .dwattr $C$DW$125, DW_AT_type(*$C$DW$T$461)
     964                            .dwattr $C$DW$125, DW_AT_location[DW_OP_addr jdllcCallbacks]
     965                            .dwattr $C$DW$125, DW_AT_decl_file("../Application/sensor.c")
     966                            .dwattr $C$DW$125, DW_AT_decl_line(0x102)
     967                            .dwattr $C$DW$125, DW_AT_decl_column(0x1a)
     968                    
     969          00000054! Sensor_msgStats:        .set    ||$O1$$||+84
     970                            .global Sensor_msgStats
     971                    $C$DW$126       .dwtag  DW_TAG_variable
     972                            .dwattr $C$DW$126, DW_AT_name("Sensor_msgStats")
     973                            .dwattr $C$DW$126, DW_AT_TI_symbol_name("Sensor_msgStats")
     974                            .dwattr $C$DW$126, DW_AT_location[DW_OP_addr Sensor_msgStats]
     975                            .dwattr $C$DW$126, DW_AT_type(*$C$DW$T$106)
     976                            .dwattr $C$DW$126, DW_AT_external
     977                            .dwattr $C$DW$126, DW_AT_decl_file("../Application/sensor.c")
     978                            .dwattr $C$DW$126, DW_AT_decl_line(0x82)
     979                            .dwattr $C$DW$126, DW_AT_decl_column(0x17)
     980                    
     981          00000084! Sensor_macCallbacks:    .set    ||$O1$$||+132
     982                    $C$DW$127       .dwtag  DW_TAG_variable
     983                            .dwattr $C$DW$127, DW_AT_name("Sensor_macCallbacks")
     984                            .dwattr $C$DW$127, DW_AT_TI_symbol_name("Sensor_macCallbacks")
     985                            .dwattr $C$DW$127, DW_AT_type(*$C$DW$T$496)
     986                            .dwattr $C$DW$127, DW_AT_location[DW_OP_addr Sensor_macCallbacks]
     987                            .dwattr $C$DW$127, DW_AT_decl_file("../Application/sensor.c")
     988                            .dwattr $C$DW$127, DW_AT_decl_line(0xda)
     989                            .dwattr $C$DW$127, DW_AT_decl_column(0x1b)
     990                    
TI ARM Assembler PC v16.9.9 Sun Nov 25 17:19:55 2018

Tools Copyright (c) 1996-2017 Texas Instruments Incorporated
C:\Users\Stryd\AppData\Local\Temp\{520067B0-6478-47D1-A9CE-DCA5FFBBC378} PAGE   19

     991                    ;       C:\ti\ccsv7\tools\compiler\ti-cgt-arm_16.9.9.LTS\bin\armopt.exe C:/CCSWorkspace/ECG603/sensor_
     992 00000000                   .sect   ".text:jdllcStateChangeCb"
     993                            .clink
     994                            .thumbfunc jdllcStateChangeCb
     995 00000000                   .thumb
     996                    
     997                    $C$DW$128       .dwtag  DW_TAG_subprogram
     998                            .dwattr $C$DW$128, DW_AT_name("jdllcStateChangeCb")
     999                            .dwattr $C$DW$128, DW_AT_low_pc(jdllcStateChangeCb)
    1000                            .dwattr $C$DW$128, DW_AT_high_pc(0x00)
    1001                            .dwattr $C$DW$128, DW_AT_TI_symbol_name("jdllcStateChangeCb")
    1002                            .dwattr $C$DW$128, DW_AT_TI_begin_file("../Application/sensor.c")
    1003                            .dwattr $C$DW$128, DW_AT_TI_begin_line(0x55a)
    1004                            .dwattr $C$DW$128, DW_AT_TI_begin_column(0x0d)
    1005                            .dwattr $C$DW$128, DW_AT_decl_file("../Application/sensor.c")
    1006                            .dwattr $C$DW$128, DW_AT_decl_line(0x55a)
    1007                            .dwattr $C$DW$128, DW_AT_decl_column(0x0d)
    1008                            .dwattr $C$DW$128, DW_AT_TI_max_frame_size(0x00)
    1009                            .dwpsn  file "../Application/sensor.c",line 1371,column 1,is_stmt,address jdllcStateChangeCb,i
    1010                    
    1011                            .dwfde $C$DW$CIE, jdllcStateChangeCb
    1012                    $C$DW$129       .dwtag  DW_TAG_formal_parameter
    1013                            .dwattr $C$DW$129, DW_AT_name("state")
    1014                            .dwattr $C$DW$129, DW_AT_TI_symbol_name("state")
    1015                            .dwattr $C$DW$129, DW_AT_type(*$C$DW$T$10)
    1016                            .dwattr $C$DW$129, DW_AT_location[DW_OP_reg0]
    1017                    
    1018                    
    1019                    ;*****************************************************************************
    1020                    ;* FUNCTION NAME: jdllcStateChangeCb                                         *
    1021                    ;*                                                                           *
    1022                    ;*   Regs Modified     : A1,A2,A3,A4,V9,LR,SR                                *
    1023                    ;*   Regs Used         : A1,A2,A3,A4,V9,SP,LR,SR                             *
    1024                    ;*   Local Frame Size  : 0 Args + 0 Auto + 0 Save = 0 byte                   *
    1025                    ;*****************************************************************************
    1026 00000000           jdllcStateChangeCb:
    1027                    ;* --------------------------------------------------------------------------*
    1028                            .dwcfi  cfa_offset, 0
    1029                            .dwpsn  file "../Application/sensor.c",line 1390,column 5,is_stmt,isa 1
    1030                    $C$DW$130       .dwtag  DW_TAG_TI_branch
    1031                            .dwattr $C$DW$130, DW_AT_low_pc(0x00)
    1032                            .dwattr $C$DW$130, DW_AT_name("Ssf_stateChangeUpdate")
    1033                            .dwattr $C$DW$130, DW_AT_TI_call
    1034                            .dwattr $C$DW$130, DW_AT_TI_return
    1035                    
    1036 00000000 BFFEF7FF!         CRET      Ssf_stateChangeUpdate ; [DPU_3_PIPE] |1390|  ; [KEEP 32-BIT INS]
    1037                            ; CALL OCCURS {Ssf_stateChangeUpdate }  ; [] |1390| 
    1038                            .dwattr $C$DW$128, DW_AT_TI_end_file("../Application/sensor.c")
    1039                            .dwattr $C$DW$128, DW_AT_TI_end_line(0x56f)
    1040                            .dwattr $C$DW$128, DW_AT_TI_end_column(0x01)
    1041                            .dwendentry
    1042                            .dwendtag $C$DW$128
    1043                    
    1044 00000000                   .sect   ".text:jdllcDisassocCnfCb"
    1045                            .clink
TI ARM Assembler PC v16.9.9 Sun Nov 25 17:19:55 2018

Tools Copyright (c) 1996-2017 Texas Instruments Incorporated
C:\Users\Stryd\AppData\Local\Temp\{520067B0-6478-47D1-A9CE-DCA5FFBBC378} PAGE   20

    1046                            .thumbfunc jdllcDisassocCnfCb
    1047 00000000                   .thumb
    1048                    
    1049                    $C$DW$131       .dwtag  DW_TAG_subprogram
    1050                            .dwattr $C$DW$131, DW_AT_name("jdllcDisassocCnfCb")
    1051                            .dwattr $C$DW$131, DW_AT_low_pc(jdllcDisassocCnfCb)
    1052                            .dwattr $C$DW$131, DW_AT_high_pc(0x00)
    1053                            .dwattr $C$DW$131, DW_AT_TI_symbol_name("jdllcDisassocCnfCb")
    1054                            .dwattr $C$DW$131, DW_AT_TI_begin_file("../Application/sensor.c")
    1055                            .dwattr $C$DW$131, DW_AT_TI_begin_line(0x548)
    1056                            .dwattr $C$DW$131, DW_AT_TI_begin_column(0x0d)
    1057                            .dwattr $C$DW$131, DW_AT_decl_file("../Application/sensor.c")
    1058                            .dwattr $C$DW$131, DW_AT_decl_line(0x548)
    1059                            .dwattr $C$DW$131, DW_AT_decl_column(0x0d)
    1060                            .dwattr $C$DW$131, DW_AT_TI_max_frame_size(0x08)
    1061                            .dwpsn  file "../Application/sensor.c",line 1354,column 1,is_stmt,address jdllcDisassocCnfCb,i
    1062                    
    1063                            .dwfde $C$DW$CIE, jdllcDisassocCnfCb
    1064                    $C$DW$132       .dwtag  DW_TAG_formal_parameter
    1065                            .dwattr $C$DW$132, DW_AT_name("pExtAddress")
    1066                            .dwattr $C$DW$132, DW_AT_TI_symbol_name("pExtAddress")
    1067                            .dwattr $C$DW$132, DW_AT_type(*$C$DW$T$73)
    1068                            .dwattr $C$DW$132, DW_AT_location[DW_OP_reg0]
    1069                    
    1070                    $C$DW$133       .dwtag  DW_TAG_formal_parameter
    1071                            .dwattr $C$DW$133, DW_AT_name("status")
    1072                            .dwattr $C$DW$133, DW_AT_TI_symbol_name("status")
    1073                            .dwattr $C$DW$133, DW_AT_type(*$C$DW$T$10)
    1074                            .dwattr $C$DW$133, DW_AT_location[DW_OP_reg1]
    1075                    
    1076                    
    1077                    ;*****************************************************************************
    1078                    ;* FUNCTION NAME: jdllcDisassocCnfCb                                         *
    1079                    ;*                                                                           *
    1080                    ;*   Regs Modified     : A1,A2,A3,A4,V9,SP,LR,SR                             *
    1081                    ;*   Regs Used         : A1,A2,A3,A4,V9,SP,LR,SR                             *
    1082                    ;*   Local Frame Size  : 0 Args + 0 Auto + 4 Save = 4 byte                   *
    1083                    ;*****************************************************************************
    1084 00000000           jdllcDisassocCnfCb:
    1085                    ;* --------------------------------------------------------------------------*
    1086                            .dwcfi  cfa_offset, 0
    1087 00000000 B508              PUSH      {A4, LR}              ; [DPU_3_PIPE]  ; [ORIG 16-BIT INS]
    1088                            .dwcfi  cfa_offset, 8
    1089                            .dwcfi  save_reg_to_mem, 14, -4
    1090                            .dwcfi  save_reg_to_mem, 3, -8
    1091                            .dwpsn  file "../Application/sensor.c",line 1356,column 5,is_stmt,isa 1
    1092 00000002 2000              MOVS      A1, #0                ; [DPU_3_PIPE] |1356|  ; [ORIG 16-BIT INS]
    1093                    $C$DW$134       .dwtag  DW_TAG_TI_branch
    1094                            .dwattr $C$DW$134, DW_AT_low_pc(0x00)
    1095                            .dwattr $C$DW$134, DW_AT_name("Ssf_setReadingClock")
    1096                            .dwattr $C$DW$134, DW_AT_TI_call
    1097                    
    1098 00000004 FFFEF7FF!         BL        Ssf_setReadingClock   ; [DPU_3_PIPE] |1356|  ; [KEEP 32-BIT INS]
    1099                            ; CALL OCCURS {Ssf_setReadingClock }  ; [] |1356| 
    1100                            .dwpsn  file "../Application/sensor.c",line 1357,column 5,is_stmt,isa 1
TI ARM Assembler PC v16.9.9 Sun Nov 25 17:19:55 2018

Tools Copyright (c) 1996-2017 Texas Instruments Incorporated
C:\Users\Stryd\AppData\Local\Temp\{520067B0-6478-47D1-A9CE-DCA5FFBBC378} PAGE   21

    1101                    $C$DW$135       .dwtag  DW_TAG_TI_branch
    1102                            .dwattr $C$DW$135, DW_AT_low_pc(0x00)
    1103                            .dwattr $C$DW$135, DW_AT_name("Ssf_clearNetworkInfo")
    1104                            .dwattr $C$DW$135, DW_AT_TI_call
    1105                    
    1106 00000008 FFFEF7FF!         BL        Ssf_clearNetworkInfo  ; [DPU_3_PIPE] |1357|  ; [KEEP 32-BIT INS]
    1107                            ; CALL OCCURS {Ssf_clearNetworkInfo }  ; [] |1357| 
    1108                    $C$DW$136       .dwtag  DW_TAG_TI_branch
    1109                            .dwattr $C$DW$136, DW_AT_low_pc(0x00)
    1110                            .dwattr $C$DW$136, DW_AT_TI_return
    1111                    
    1112 0000000c BD08              POP       {A4, PC}              ; [DPU_3_PIPE]  ; [ORIG 16-BIT INS]
    1113                            .dwcfi  cfa_offset, 0
    1114                            .dwcfi  restore_reg, 3
    1115                            ; BRANCH OCCURS                  ; [] 
    1116                            .dwattr $C$DW$131, DW_AT_TI_end_file("../Application/sensor.c")
    1117                            .dwattr $C$DW$131, DW_AT_TI_end_line(0x553)
    1118                            .dwattr $C$DW$131, DW_AT_TI_end_column(0x01)
    1119                            .dwendentry
    1120                            .dwendtag $C$DW$131
    1121                    
    1122 00000000                   .sect   ".text:jdllcDisassocIndCb"
    1123                            .clink
    1124                            .thumbfunc jdllcDisassocIndCb
    1125 00000000                   .thumb
    1126                    
    1127                    $C$DW$137       .dwtag  DW_TAG_subprogram
    1128                            .dwattr $C$DW$137, DW_AT_name("jdllcDisassocIndCb")
    1129                            .dwattr $C$DW$137, DW_AT_low_pc(jdllcDisassocIndCb)
    1130                            .dwattr $C$DW$137, DW_AT_high_pc(0x00)
    1131                            .dwattr $C$DW$137, DW_AT_TI_symbol_name("jdllcDisassocIndCb")
    1132                            .dwattr $C$DW$137, DW_AT_TI_begin_file("../Application/sensor.c")
    1133                            .dwattr $C$DW$137, DW_AT_TI_begin_line(0x534)
    1134                            .dwattr $C$DW$137, DW_AT_TI_begin_column(0x0d)
    1135                            .dwattr $C$DW$137, DW_AT_decl_file("../Application/sensor.c")
    1136                            .dwattr $C$DW$137, DW_AT_decl_line(0x534)
    1137                            .dwattr $C$DW$137, DW_AT_decl_column(0x0d)
    1138                            .dwattr $C$DW$137, DW_AT_TI_max_frame_size(0x08)
    1139                            .dwpsn  file "../Application/sensor.c",line 1334,column 1,is_stmt,address jdllcDisassocIndCb,i
    1140                    
    1141                            .dwfde $C$DW$CIE, jdllcDisassocIndCb
    1142                    $C$DW$138       .dwtag  DW_TAG_formal_parameter
    1143                            .dwattr $C$DW$138, DW_AT_name("pExtAddress")
    1144                            .dwattr $C$DW$138, DW_AT_TI_symbol_name("pExtAddress")
    1145                            .dwattr $C$DW$138, DW_AT_type(*$C$DW$T$73)
    1146                            .dwattr $C$DW$138, DW_AT_location[DW_OP_reg0]
    1147                    
    1148                    $C$DW$139       .dwtag  DW_TAG_formal_parameter
    1149                            .dwattr $C$DW$139, DW_AT_name("reason")
    1150                            .dwattr $C$DW$139, DW_AT_TI_symbol_name("reason")
    1151                            .dwattr $C$DW$139, DW_AT_type(*$C$DW$T$10)
    1152                            .dwattr $C$DW$139, DW_AT_location[DW_OP_reg1]
    1153                    
    1154                    
    1155                    ;*****************************************************************************
TI ARM Assembler PC v16.9.9 Sun Nov 25 17:19:55 2018

Tools Copyright (c) 1996-2017 Texas Instruments Incorporated
C:\Users\Stryd\AppData\Local\Temp\{520067B0-6478-47D1-A9CE-DCA5FFBBC378} PAGE   22

    1156                    ;* FUNCTION NAME: jdllcDisassocIndCb                                         *
    1157                    ;*                                                                           *
    1158                    ;*   Regs Modified     : A1,A2,A3,A4,V9,SP,LR,SR                             *
    1159                    ;*   Regs Used         : A1,A2,A3,A4,V9,SP,LR,SR                             *
    1160                    ;*   Local Frame Size  : 0 Args + 0 Auto + 4 Save = 4 byte                   *
    1161                    ;*****************************************************************************
    1162 00000000           jdllcDisassocIndCb:
    1163                    ;* --------------------------------------------------------------------------*
    1164                            .dwcfi  cfa_offset, 0
    1165 00000000 B508              PUSH      {A4, LR}              ; [DPU_3_PIPE]  ; [ORIG 16-BIT INS]
    1166                            .dwcfi  cfa_offset, 8
    1167                            .dwcfi  save_reg_to_mem, 14, -4
    1168                            .dwcfi  save_reg_to_mem, 3, -8
    1169                            .dwpsn  file "../Application/sensor.c",line 1336,column 5,is_stmt,isa 1
    1170 00000002 2000              MOVS      A1, #0                ; [DPU_3_PIPE] |1336|  ; [ORIG 16-BIT INS]
    1171                    $C$DW$140       .dwtag  DW_TAG_TI_branch
    1172                            .dwattr $C$DW$140, DW_AT_low_pc(0x00)
    1173                            .dwattr $C$DW$140, DW_AT_name("Ssf_setReadingClock")
    1174                            .dwattr $C$DW$140, DW_AT_TI_call
    1175                    
    1176 00000004 FFFEF7FF!         BL        Ssf_setReadingClock   ; [DPU_3_PIPE] |1336|  ; [KEEP 32-BIT INS]
    1177                            ; CALL OCCURS {Ssf_setReadingClock }  ; [] |1336| 
    1178                            .dwpsn  file "../Application/sensor.c",line 1337,column 5,is_stmt,isa 1
    1179                    $C$DW$141       .dwtag  DW_TAG_TI_branch
    1180                            .dwattr $C$DW$141, DW_AT_low_pc(0x00)
    1181                            .dwattr $C$DW$141, DW_AT_name("Ssf_clearNetworkInfo")
    1182                            .dwattr $C$DW$141, DW_AT_TI_call
    1183                    
    1184 00000008 FFFEF7FF!         BL        Ssf_clearNetworkInfo  ; [DPU_3_PIPE] |1337|  ; [KEEP 32-BIT INS]
    1185                            ; CALL OCCURS {Ssf_clearNetworkInfo }  ; [] |1337| 
    1186                    $C$DW$142       .dwtag  DW_TAG_TI_branch
    1187                            .dwattr $C$DW$142, DW_AT_low_pc(0x00)
    1188                            .dwattr $C$DW$142, DW_AT_TI_return
    1189                    
    1190 0000000c BD08              POP       {A4, PC}              ; [DPU_3_PIPE]  ; [ORIG 16-BIT INS]
    1191                            .dwcfi  cfa_offset, 0
    1192                            .dwcfi  restore_reg, 3
    1193                            ; BRANCH OCCURS                  ; [] 
    1194                            .dwattr $C$DW$137, DW_AT_TI_end_file("../Application/sensor.c")
    1195                            .dwattr $C$DW$137, DW_AT_TI_end_line(0x53f)
    1196                            .dwattr $C$DW$137, DW_AT_TI_end_column(0x01)
    1197                            .dwendentry
    1198                            .dwendtag $C$DW$137
    1199                    
    1200 00000000                   .sect   ".text:Sensor_sendMsg"
    1201                            .clink
    1202                            .thumbfunc Sensor_sendMsg
    1203 00000000                   .thumb
    1204                            .global Sensor_sendMsg
    1205                    
    1206                    $C$DW$143       .dwtag  DW_TAG_subprogram
    1207                            .dwattr $C$DW$143, DW_AT_name("Sensor_sendMsg")
    1208                            .dwattr $C$DW$143, DW_AT_low_pc(Sensor_sendMsg)
    1209                            .dwattr $C$DW$143, DW_AT_high_pc(0x00)
    1210                            .dwattr $C$DW$143, DW_AT_TI_symbol_name("Sensor_sendMsg")
TI ARM Assembler PC v16.9.9 Sun Nov 25 17:19:55 2018

Tools Copyright (c) 1996-2017 Texas Instruments Incorporated
C:\Users\Stryd\AppData\Local\Temp\{520067B0-6478-47D1-A9CE-DCA5FFBBC378} PAGE   23

    1211                            .dwattr $C$DW$143, DW_AT_external
    1212                            .dwattr $C$DW$143, DW_AT_type(*$C$DW$T$28)
    1213                            .dwattr $C$DW$143, DW_AT_TI_begin_file("../Application/sensor.c")
    1214                            .dwattr $C$DW$143, DW_AT_TI_begin_line(0x1ef)
    1215                            .dwattr $C$DW$143, DW_AT_TI_begin_column(0x06)
    1216                            .dwattr $C$DW$143, DW_AT_decl_file("../Application/sensor.c")
    1217                            .dwattr $C$DW$143, DW_AT_decl_line(0x1ef)
    1218                            .dwattr $C$DW$143, DW_AT_decl_column(0x06)
    1219                            .dwattr $C$DW$143, DW_AT_TI_max_frame_size(0x60)
    1220                            .dwpsn  file "../Application/sensor.c",line 497,column 1,is_stmt,address Sensor_sendMsg,isa 1
    1221                    
    1222                            .dwfde $C$DW$CIE, Sensor_sendMsg
    1223                    $C$DW$144       .dwtag  DW_TAG_formal_parameter
    1224                            .dwattr $C$DW$144, DW_AT_name("type")
    1225                            .dwattr $C$DW$144, DW_AT_TI_symbol_name("type")
    1226                            .dwattr $C$DW$144, DW_AT_type(*$C$DW$T$10)
    1227                            .dwattr $C$DW$144, DW_AT_location[DW_OP_reg0]
    1228                    
    1229                    $C$DW$145       .dwtag  DW_TAG_formal_parameter
    1230                            .dwattr $C$DW$145, DW_AT_name("pDstAddr")
    1231                            .dwattr $C$DW$145, DW_AT_TI_symbol_name("pDstAddr")
    1232                            .dwattr $C$DW$145, DW_AT_type(*$C$DW$T$442)
    1233                            .dwattr $C$DW$145, DW_AT_location[DW_OP_reg1]
    1234                    
    1235                    $C$DW$146       .dwtag  DW_TAG_formal_parameter
    1236                            .dwattr $C$DW$146, DW_AT_name("rxOnIdle")
    1237                            .dwattr $C$DW$146, DW_AT_TI_symbol_name("rxOnIdle")
    1238                            .dwattr $C$DW$146, DW_AT_type(*$C$DW$T$10)
    1239                            .dwattr $C$DW$146, DW_AT_location[DW_OP_reg2]
    1240                    
    1241                    $C$DW$147       .dwtag  DW_TAG_formal_parameter
    1242                            .dwattr $C$DW$147, DW_AT_name("len")
    1243                            .dwattr $C$DW$147, DW_AT_TI_symbol_name("len")
    1244                            .dwattr $C$DW$147, DW_AT_type(*$C$DW$T$10)
    1245                            .dwattr $C$DW$147, DW_AT_location[DW_OP_reg3]
    1246                    
    1247                    $C$DW$148       .dwtag  DW_TAG_formal_parameter
    1248                            .dwattr $C$DW$148, DW_AT_name("pData")
    1249                            .dwattr $C$DW$148, DW_AT_TI_symbol_name("pData")
    1250                            .dwattr $C$DW$148, DW_AT_type(*$C$DW$T$52)
    1251                            .dwattr $C$DW$148, DW_AT_location[DW_OP_breg13 96]
    1252                    
    1253                    
    1254                    ;*****************************************************************************
    1255                    ;* FUNCTION NAME: Sensor_sendMsg                                             *
    1256                    ;*                                                                           *
    1257                    ;*   Regs Modified     : A1,A2,A3,A4,V1,V2,V3,V4,V5,V6,V7,V9,SP,LR,SR        *
    1258                    ;*   Regs Used         : A1,A2,A3,A4,V1,V2,V3,V4,V5,V6,V7,V9,SP,LR,SR        *
    1259                    ;*   Local Frame Size  : 0 Args + 60 Auto + 32 Save = 92 byte                *
    1260                    ;*****************************************************************************
    1261                    Sensor_sendMsg:
    1262                    ;* --------------------------------------------------------------------------*
    1263                    $C$DW$149       .dwtag  DW_TAG_variable
    1264                            .dwattr $C$DW$149, DW_AT_name("dataReq")
    1265                            .dwattr $C$DW$149, DW_AT_TI_symbol_name("dataReq")
TI ARM Assembler PC v16.9.9 Sun Nov 25 17:19:55 2018

Tools Copyright (c) 1996-2017 Texas Instruments Incorporated
C:\Users\Stryd\AppData\Local\Temp\{520067B0-6478-47D1-A9CE-DCA5FFBBC378} PAGE   24

    1266                            .dwattr $C$DW$149, DW_AT_type(*$C$DW$T$371)
    1267                            .dwattr $C$DW$149, DW_AT_location[DW_OP_breg13 0]
    1268                    
    1269                    ;* V2    assigned to $O$K7
    1270                    ;* V1    assigned to $O$K66
    1271                    ;* A1    assigned to $O$v3
    1272                    ;* V5    assigned to type
    1273                    $C$DW$150       .dwtag  DW_TAG_variable
    1274                            .dwattr $C$DW$150, DW_AT_name("type")
    1275                            .dwattr $C$DW$150, DW_AT_TI_symbol_name("type")
    1276                            .dwattr $C$DW$150, DW_AT_type(*$C$DW$T$401)
    1277                            .dwattr $C$DW$150, DW_AT_location[DW_OP_reg8]
    1278                    
    1279                    ;* V1    assigned to pDstAddr
    1280                    $C$DW$151       .dwtag  DW_TAG_variable
    1281                            .dwattr $C$DW$151, DW_AT_name("pDstAddr")
    1282                            .dwattr $C$DW$151, DW_AT_TI_symbol_name("pDstAddr")
    1283                            .dwattr $C$DW$151, DW_AT_type(*$C$DW$T$443)
    1284                            .dwattr $C$DW$151, DW_AT_location[DW_OP_reg4]
    1285                    
    1286                    ;* V7    assigned to rxOnIdle
    1287                    $C$DW$152       .dwtag  DW_TAG_variable
    1288                            .dwattr $C$DW$152, DW_AT_name("rxOnIdle")
    1289                            .dwattr $C$DW$152, DW_AT_TI_symbol_name("rxOnIdle")
    1290                            .dwattr $C$DW$152, DW_AT_type(*$C$DW$T$615)
    1291                            .dwattr $C$DW$152, DW_AT_location[DW_OP_reg10]
    1292                    
    1293                    ;* V6    assigned to len
    1294                    $C$DW$153       .dwtag  DW_TAG_variable
    1295                            .dwattr $C$DW$153, DW_AT_name("len")
    1296                            .dwattr $C$DW$153, DW_AT_TI_symbol_name("len")
    1297                            .dwattr $C$DW$153, DW_AT_type(*$C$DW$T$576)
    1298                            .dwattr $C$DW$153, DW_AT_location[DW_OP_reg9]
    1299                    
    1300                    ;* V4    assigned to ret
    1301                    $C$DW$154       .dwtag  DW_TAG_variable
    1302                            .dwattr $C$DW$154, DW_AT_name("ret")
    1303                            .dwattr $C$DW$154, DW_AT_TI_symbol_name("ret")
    1304                            .dwattr $C$DW$154, DW_AT_type(*$C$DW$T$10)
    1305                            .dwattr $C$DW$154, DW_AT_location[DW_OP_reg7]
    1306                    
    1307                    ;* A2    assigned to msduHandle
    1308                    $C$DW$155       .dwtag  DW_TAG_variable
    1309                            .dwattr $C$DW$155, DW_AT_name("msduHandle")
    1310                            .dwattr $C$DW$155, DW_AT_TI_symbol_name("msduHandle")
    1311                            .dwattr $C$DW$155, DW_AT_type(*$C$DW$T$10)
    1312                            .dwattr $C$DW$155, DW_AT_location[DW_OP_reg1]
    1313                    
    1314                            .dwcfi  cfa_offset, 0
    1315 00000000 47F0E92D          PUSH      {V1, V2, V3, V4, V5, V6, V7, LR} ; [DPU_3_PIPE]  ; [KEEP 32-BIT INS]
    1316                            .dwcfi  cfa_offset, 32
    1317                            .dwcfi  save_reg_to_mem, 14, -4
    1318                            .dwcfi  save_reg_to_mem, 10, -8
    1319                            .dwcfi  save_reg_to_mem, 9, -12
    1320                            .dwcfi  save_reg_to_mem, 8, -16
TI ARM Assembler PC v16.9.9 Sun Nov 25 17:19:55 2018

Tools Copyright (c) 1996-2017 Texas Instruments Incorporated
C:\Users\Stryd\AppData\Local\Temp\{520067B0-6478-47D1-A9CE-DCA5FFBBC378} PAGE   25

    1321                            .dwcfi  save_reg_to_mem, 7, -20
    1322                            .dwcfi  save_reg_to_mem, 6, -24
    1323                            .dwcfi  save_reg_to_mem, 5, -28
    1324                            .dwcfi  save_reg_to_mem, 4, -32
    1325 00000004 4699              MOV       V6, A4                ; [DPU_3_PIPE] |497|  ; [ORIG 16-BIT INS]
    1326 00000006 4692              MOV       V7, A3                ; [DPU_3_PIPE] |497|  ; [ORIG 16-BIT INS]
    1327 00000008 460C              MOV       V1, A2                ; [DPU_3_PIPE] |497|  ; [ORIG 16-BIT INS]
    1328 0000000a 4680              MOV       V5, A1                ; [DPU_3_PIPE] |497|  ; [ORIG 16-BIT INS]
    1329 0000000c 0D40F1AD          SUB       SP, SP, #64           ; [DPU_3_PIPE]  ; [KEEP 32-BIT INS]
    1330                            .dwcfi  cfa_offset, 96
    1331                            .dwpsn  file "../Application/sensor.c",line 502,column 5,is_stmt,isa 1
    1332                    $C$DW$156       .dwtag  DW_TAG_TI_branch
    1333                            .dwattr $C$DW$156, DW_AT_low_pc(0x00)
    1334                            .dwattr $C$DW$156, DW_AT_name("ICall_getTicks")
    1335                            .dwattr $C$DW$156, DW_AT_TI_call
    1336                    
    1337 00000010 FFFEF7FF!         BL        ICall_getTicks        ; [DPU_3_PIPE] |502|  ; [KEEP 32-BIT INS]
    1338                            ; CALL OCCURS {ICall_getTicks }  ; [] |502| 
    1339 00000014 4D42              LDR       V2, $C$CON2           ; [DPU_3_PIPE] |502|  ; [ORIG 16-BIT INS]
    1340                            .dwpsn  file "../Application/sensor.c",line 505,column 5,is_stmt,isa 1
    1341 00000016 223C              MOVS      A3, #60               ; [DPU_3_PIPE] |505|  ; [ORIG 16-BIT INS]
    1342 00000018 0110F105          ADD       A2, V2, #16           ; [DPU_3_PIPE]  ; [KEEP 32-BIT INS]
    1343                            .dwpsn  file "../Application/sensor.c",line 502,column 5,is_stmt,isa 1
    1344 0000001c 6008              STR       A1, [A2, #0]          ; [DPU_3_PIPE] |502|  ; [ORIG 16-BIT INS]
    1345                            .dwpsn  file "../Application/sensor.c",line 505,column 5,is_stmt,isa 1
    1346 0000001e 2100              MOVS      A2, #0                ; [DPU_3_PIPE] |505|  ; [ORIG 16-BIT INS]
    1347 00000020 4668              MOV       A1, SP                ; [DPU_3_PIPE] |505|  ; [ORIG 16-BIT INS]
    1348                    $C$DW$157       .dwtag  DW_TAG_TI_branch
    1349                            .dwattr $C$DW$157, DW_AT_low_pc(0x00)
    1350                            .dwattr $C$DW$157, DW_AT_name("memset")
    1351                            .dwattr $C$DW$157, DW_AT_TI_call
    1352                    
    1353 00000022 FFFEF7FF!         BL        memset                ; [DPU_3_PIPE] |505|  ; [KEEP 32-BIT INS]
    1354                            ; CALL OCCURS {memset }          ; [] |505| 
    1355                            .dwpsn  file "../Application/sensor.c",line 507,column 5,is_stmt,isa 1
    1356 00000026 6820              LDR       A1, [V1, #0]          ; [DPU_3_PIPE] |507|  ; [ORIG 16-BIT INS]
    1357 00000028 466E              MOV       V3, SP                ; [DPU_3_PIPE] |507|  ; [ORIG 16-BIT INS]
    1358 0000002a 6030              STR       A1, [V3, #0]          ; [DPU_3_PIPE] |507|  ; [ORIG 16-BIT INS]
    1359 0000002c 6860              LDR       A1, [V1, #4]          ; [DPU_3_PIPE] |507|  ; [ORIG 16-BIT INS]
    1360 0000002e 6070              STR       A1, [V3, #4]          ; [DPU_3_PIPE] |507|  ; [ORIG 16-BIT INS]
    1361 00000030 8920              LDRH      A1, [V1, #8]          ; [DPU_3_PIPE] |507|  ; [ORIG 16-BIT INS]
    1362 00000032 8130              STRH      A1, [V3, #8]          ; [DPU_3_PIPE] |507|  ; [ORIG 16-BIT INS]
    1363                            .dwpsn  file "../Application/sensor.c",line 509,column 5,is_stmt,isa 1
    1364 00000034 7A20              LDRB      A1, [V1, #8]          ; [DPU_3_PIPE] |509|  ; [ORIG 16-BIT INS]
    1365 00000036 2803              CMP       A1, #3                ; [DPU_3_PIPE] |509|  ; [ORIG 16-BIT INS]
    1366 00000038 BF14              ITE       NE                    ; [DPU_3_PIPE]  ; [ORIG 16-BIT INS]
    1367                            .dwpsn  file "../Application/sensor.c",line 515,column 9,is_stmt,isa 1
    1368 0000003a 2002              MOVNE     A1, #2                ; [DPU_3_PIPE] |515|  ; [ORIG 16-BIT INS]
    1369                            .dwpsn  file "../Application/sensor.c",line 511,column 9,is_stmt,isa 1
    1370 0000003c 2003              MOVEQ     A1, #3                ; [DPU_3_PIPE] |511|  ; [ORIG 16-BIT INS]
    1371 0000003e 000CF88D          STRB      A1, [SP, #12]         ; [DPU_3_PIPE] |511|  ; [KEEP 32-BIT INS]
    1372                            .dwpsn  file "../Application/sensor.c",line 518,column 5,is_stmt,isa 1
    1373 00000042 7828              LDRB      A1, [V2, #0]          ; [DPU_3_PIPE] |518|  ; [ORIG 16-BIT INS]
    1374 00000044 B120              CBZ       A1, ||$C$L1||         ; []  ; [ORIG 16-BIT INS]
    1375                            ; BRANCHCC OCCURS {||$C$L1||}    ; [] |518| 
TI ARM Assembler PC v16.9.9 Sun Nov 25 17:19:55 2018

Tools Copyright (c) 1996-2017 Texas Instruments Incorporated
C:\Users\Stryd\AppData\Local\Temp\{520067B0-6478-47D1-A9CE-DCA5FFBBC378} PAGE   26

    1376                    ;* --------------------------------------------------------------------------*
    1377 00000046 0134F105          ADD       A2, V2, #52           ; [DPU_3_PIPE]  ; [KEEP 32-BIT INS]
    1378                            .dwpsn  file "../Application/sensor.c",line 520,column 9,is_stmt,isa 1
    1379 0000004a 2050              MOVS      A1, #80               ; [DPU_3_PIPE] |520|  ; [ORIG 16-BIT INS]
    1380                    $C$DW$158       .dwtag  DW_TAG_TI_branch
    1381                            .dwattr $C$DW$158, DW_AT_low_pc(0x00)
    1382                            .dwattr $C$DW$158, DW_AT_name("ApiMac_mlmeGetReqUint16")
    1383                            .dwattr $C$DW$158, DW_AT_TI_call
    1384                    
    1385 0000004c FFFEF7FF!         BL        ApiMac_mlmeGetReqUint16 ; [DPU_3_PIPE] |520|  ; [KEEP 32-BIT INS]
    1386                            ; CALL OCCURS {ApiMac_mlmeGetReqUint16 }  ; [] |520| 
    1387                    ;* --------------------------------------------------------------------------*
    1388 00000050           ||$C$L1||:    
    1389                            .dwpsn  file "../Application/sensor.c",line 524,column 5,is_stmt,isa 1
    1390 00000050 8EA8              LDRH      A1, [V2, #52]         ; [DPU_3_PIPE] |524|  ; [ORIG 16-BIT INS]
    1391                            .dwpsn  file "../Application/sensor.c",line 793,column 24,is_stmt,isa 1
    1392 00000052 7869              LDRB      A2, [V2, #1]          ; [DPU_3_PIPE] |793|  ; [ORIG 16-BIT INS]
    1393                            .dwpsn  file "../Application/sensor.c",line 524,column 5,is_stmt,isa 1
    1394 00000054 000AF8AD          STRH      A1, [SP, #10]         ; [DPU_3_PIPE] |524|  ; [KEEP 32-BIT INS]
    1395                            .dwpsn  file "../Application/sensor.c",line 793,column 24,is_stmt,isa 1
    1396 00000058 291F              CMP       A2, #31               ; [DPU_3_PIPE] |793|  ; [ORIG 16-BIT INS]
    1397 0000005a BFB4              ITE       LT                    ; [DPU_3_PIPE]  ; [ORIG 16-BIT INS]
    1398                            .dwpsn  file "../Application/sensor.c",line 802,column 9,is_stmt,isa 1
    1399 0000005c 1C48              ADDLT     A1, A2, #1            ; [DPU_3_PIPE] |802|  ; [ORIG 16-BIT INS]
    1400                            .dwpsn  file "../Application/sensor.c",line 798,column 9,is_stmt,isa 1
    1401 0000005e 2000              MOVGE     A1, #0                ; [DPU_3_PIPE] |798|  ; [ORIG 16-BIT INS]
    1402                            .dwpsn  file "../Application/sensor.c",line 498,column 14,is_stmt,isa 1
    1403 00000060 2700              MOVS      V4, #0                ; [DPU_3_PIPE] |498|  ; [ORIG 16-BIT INS]
    1404                            .dwpsn  file "../Application/sensor.c",line 809,column 5,is_stmt,isa 1
    1405 00000062 0F05F1B8          CMP       V5, #5                ; [DPU_3_PIPE] |809|  ; [KEEP 32-BIT INS]
    1406                            .dwpsn  file "../Application/sensor.c",line 806,column 5,is_stmt,isa 1
    1407 00000066 0180F041          ORR       A2, A2, #128          ; [DPU_3_PIPE] |806|  ; [KEEP 32-BIT INS]
    1408                            .dwpsn  file "../Application/sensor.c",line 798,column 9,is_stmt,isa 1
    1409 0000006a 7068              STRB      A1, [V2, #1]          ; [DPU_3_PIPE] |798|  ; [ORIG 16-BIT INS]
    1410                            .dwpsn  file "../Application/sensor.c",line 809,column 5,is_stmt,isa 1
    1411 0000006c D00E              BEQ       ||$C$L3||             ; [DPU_3_PIPE] |809|  ; [ORIG 16-BIT INS]
    1412                            ; BRANCHCC OCCURS {||$C$L3||}    ; [] |809| 
    1413                    ;* --------------------------------------------------------------------------*
    1414 0000006e 0F08F1B8          CMP       V5, #8                ; [DPU_3_PIPE] |809|  ; [KEEP 32-BIT INS]
    1415 00000072 D00B              BEQ       ||$C$L3||             ; [DPU_3_PIPE] |809|  ; [ORIG 16-BIT INS]
    1416                            ; BRANCHCC OCCURS {||$C$L3||}    ; [] |809| 
    1417                    ;* --------------------------------------------------------------------------*
    1418                            .dwpsn  file "../Application/sensor.c",line 813,column 10,is_stmt,isa 1
    1419 00000074 0F04F1B8          CMP       V5, #4                ; [DPU_3_PIPE] |813|  ; [KEEP 32-BIT INS]
    1420 00000078 D005              BEQ       ||$C$L2||             ; [DPU_3_PIPE] |813|  ; [ORIG 16-BIT INS]
    1421                            ; BRANCHCC OCCURS {||$C$L2||}    ; [] |813| 
    1422                    ;* --------------------------------------------------------------------------*
    1423                            .dwpsn  file "../Application/sensor.c",line 817,column 10,is_stmt,isa 1
    1424 0000007a 0F02F1B8          CMP       V5, #2                ; [DPU_3_PIPE] |817|  ; [KEEP 32-BIT INS]
    1425 0000007e BF08              IT        EQ                    ; [DPU_3_PIPE]  ; [ORIG 16-BIT INS]
    1426                            .dwpsn  file "../Application/sensor.c",line 819,column 9,is_stmt,isa 1
    1427 00000080 0160F041          ORREQ     A2, A2, #96           ; [DPU_3_PIPE] |819|  ; [KEEP 32-BIT INS]
    1428 00000084 E004              B         ||$C$L4||             ; [DPU_3_PIPE] |819|  ; [ORIG 16-BIT INS]
    1429                            ; BRANCH OCCURS {||$C$L4||}      ; [] |819| 
    1430                    ;* --------------------------------------------------------------------------*
TI ARM Assembler PC v16.9.9 Sun Nov 25 17:19:55 2018

Tools Copyright (c) 1996-2017 Texas Instruments Incorporated
C:\Users\Stryd\AppData\Local\Temp\{520067B0-6478-47D1-A9CE-DCA5FFBBC378} PAGE   27

    1431 00000086           ||$C$L2||:    
    1432                            .dwpsn  file "../Application/sensor.c",line 815,column 9,is_stmt,isa 1
    1433 00000086 0120F041          ORR       A2, A2, #32           ; [DPU_3_PIPE] |815|  ; [KEEP 32-BIT INS]
    1434                            .dwpsn  file "../Application/sensor.c",line 816,column 5,is_stmt,isa 1
    1435 0000008a E001              B         ||$C$L4||             ; [DPU_3_PIPE] |816|  ; [ORIG 16-BIT INS]
    1436                            ; BRANCH OCCURS {||$C$L4||}      ; [] |816| 
    1437                    ;* --------------------------------------------------------------------------*
    1438 0000008c           ||$C$L3||:    
    1439                            .dwpsn  file "../Application/sensor.c",line 811,column 9,is_stmt,isa 1
    1440 0000008c 0140F041          ORR       A2, A2, #64           ; [DPU_3_PIPE] |811|  ; [KEEP 32-BIT INS]
    1441                    ;* --------------------------------------------------------------------------*
    1442 00000090           ||$C$L4||:    
    1443                            .dwpsn  file "../Application/sensor.c",line 528,column 5,is_stmt,isa 1
    1444 00000090 2401              MOVS      V1, #1                ; [DPU_3_PIPE] |528|  ; [ORIG 16-BIT INS]
    1445                            .dwpsn  file "../Application/sensor.c",line 526,column 5,is_stmt,isa 1
    1446 00000092 100DF88D          STRB      A2, [SP, #13]         ; [DPU_3_PIPE] |526|  ; [KEEP 32-BIT INS]
    1447                            .dwpsn  file "../Application/sensor.c",line 535,column 5,is_stmt,isa 1
    1448 00000096 0F01F1BA          CMP       V7, #1                ; [DPU_3_PIPE] |535|  ; [KEEP 32-BIT INS]
    1449                            .dwpsn  file "../Application/sensor.c",line 528,column 5,is_stmt,isa 1
    1450 0000009a 400EF88D          STRB      V1, [SP, #14]         ; [DPU_3_PIPE] |528|  ; [KEEP 32-BIT INS]
    1451 0000009e BF18              IT        NE                    ; [DPU_3_PIPE]  ; [ORIG 16-BIT INS]
    1452                            .dwpsn  file "../Application/sensor.c",line 537,column 9,is_stmt,isa 1
    1453 000000a0 400FF88D          STRBNE    V1, [SP, #15]         ; [DPU_3_PIPE] |537|  ; [KEEP 32-BIT INS]
    1454                            .dwpsn  file "../Application/sensor.c",line 540,column 5,is_stmt,isa 1
    1455 000000a4 9028F8AD          STRH      V6, [SP, #40]         ; [DPU_3_PIPE] |540|  ; [KEEP 32-BIT INS]
    1456                            .dwpsn  file "../Application/sensor.c",line 541,column 5,is_stmt,isa 1
    1457 000000a8 9818              LDR       A1, [SP, #96]         ; [DPU_3_PIPE] |541|  ; [ORIG 16-BIT INS]
    1458 000000aa 9009              STR       A1, [SP, #36]         ; [DPU_3_PIPE] |541|  ; [ORIG 16-BIT INS]
    1459                            .dwpsn  file "../Application/sensor.c",line 544,column 5,is_stmt,isa 1
    1460 000000ac A80B              ADD       A1, SP, #44           ; [DPU_3_PIPE] |544|  ; [ORIG 16-BIT INS]
    1461                    $C$DW$159       .dwtag  DW_TAG_TI_branch
    1462                            .dwattr $C$DW$159, DW_AT_low_pc(0x00)
    1463                            .dwattr $C$DW$159, DW_AT_name("Jdllc_securityFill")
    1464                            .dwattr $C$DW$159, DW_AT_TI_call
    1465                    
    1466 000000ae FFFEF7FF!         BL        Jdllc_securityFill    ; [DPU_3_PIPE] |544|  ; [KEEP 32-BIT INS]
    1467                            ; CALL OCCURS {Jdllc_securityFill }  ; [] |544| 
    1468                            .dwpsn  file "../Application/sensor.c",line 547,column 5,is_stmt,isa 1
    1469 000000b2 0F05F1B8          CMP       V5, #5                ; [DPU_3_PIPE] |547|  ; [KEEP 32-BIT INS]
    1470 000000b6 D015              BEQ       ||$C$L6||             ; [DPU_3_PIPE] |547|  ; [ORIG 16-BIT INS]
    1471                            ; BRANCHCC OCCURS {||$C$L6||}    ; [] |547| 
    1472                    ;* --------------------------------------------------------------------------*
    1473 000000b8 0F08F1B8          CMP       V5, #8                ; [DPU_3_PIPE] |547|  ; [KEEP 32-BIT INS]
    1474 000000bc D012              BEQ       ||$C$L6||             ; [DPU_3_PIPE] |547|  ; [ORIG 16-BIT INS]
    1475                            ; BRANCHCC OCCURS {||$C$L6||}    ; [] |547| 
    1476                    ;* --------------------------------------------------------------------------*
    1477                            .dwpsn  file "../Application/sensor.c",line 551,column 10,is_stmt,isa 1
    1478 000000be 005EF8B5          LDRH      A1, [V2, #94]         ; [DPU_3_PIPE] |551|  ; [KEEP 32-BIT INS]
    1479 000000c2 0F04F1B8          CMP       V5, #4                ; [DPU_3_PIPE] |551|  ; [KEEP 32-BIT INS]
    1480 000000c6 D008              BEQ       ||$C$L5||             ; [DPU_3_PIPE] |551|  ; [ORIG 16-BIT INS]
    1481                            ; BRANCHCC OCCURS {||$C$L5||}    ; [] |551| 
    1482                    ;* --------------------------------------------------------------------------*
    1483                            .dwpsn  file "../Application/sensor.c",line 555,column 10,is_stmt,isa 1
    1484 000000c8 0F02F1B8          CMP       V5, #2                ; [DPU_3_PIPE] |555|  ; [KEEP 32-BIT INS]
    1485 000000cc D10F              BNE       ||$C$L7||             ; [DPU_3_PIPE] |555|  ; [ORIG 16-BIT INS]
TI ARM Assembler PC v16.9.9 Sun Nov 25 17:19:55 2018

Tools Copyright (c) 1996-2017 Texas Instruments Incorporated
C:\Users\Stryd\AppData\Local\Temp\{520067B0-6478-47D1-A9CE-DCA5FFBBC378} PAGE   28

    1486                            ; BRANCHCC OCCURS {||$C$L7||}    ; [] |555| 
    1487                    ;* --------------------------------------------------------------------------*
    1488                            .dwpsn  file "../Application/sensor.c",line 557,column 9,is_stmt,isa 1
    1489 000000ce 0064F8B5          LDRH      A1, [V2, #100]        ; [DPU_3_PIPE] |557|  ; [KEEP 32-BIT INS]
    1490 000000d2 1C40              ADDS      A1, A1, #1            ; [DPU_3_PIPE] |557|  ; [ORIG 16-BIT INS]
    1491 000000d4 0064F8A5          STRH      A1, [V2, #100]        ; [DPU_3_PIPE] |557|  ; [KEEP 32-BIT INS]
    1492 000000d8 E009              B         ||$C$L7||             ; [DPU_3_PIPE] |557|  ; [ORIG 16-BIT INS]
    1493                            ; BRANCH OCCURS {||$C$L7||}      ; [] |557| 
    1494                    ;* --------------------------------------------------------------------------*
    1495 000000da           ||$C$L5||:    
    1496                            .dwpsn  file "../Application/sensor.c",line 553,column 9,is_stmt,isa 1
    1497 000000da 1C40              ADDS      A1, A1, #1            ; [DPU_3_PIPE] |553|  ; [ORIG 16-BIT INS]
    1498 000000dc B280              UXTH      A1, A1                ; [DPU_3_PIPE] |553|  ; [ORIG 16-BIT INS]
    1499 000000de 005EF8A5          STRH      A1, [V2, #94]         ; [DPU_3_PIPE] |553|  ; [KEEP 32-BIT INS]
    1500                            .dwpsn  file "../Application/sensor.c",line 554,column 5,is_stmt,isa 1
    1501 000000e2 E004              B         ||$C$L7||             ; [DPU_3_PIPE] |554|  ; [ORIG 16-BIT INS]
    1502                            ; BRANCH OCCURS {||$C$L7||}      ; [] |554| 
    1503                    ;* --------------------------------------------------------------------------*
    1504 000000e4           ||$C$L6||:    
    1505                            .dwpsn  file "../Application/sensor.c",line 549,column 9,is_stmt,isa 1
    1506 000000e4 0058F8B5          LDRH      A1, [V2, #88]         ; [DPU_3_PIPE] |549|  ; [KEEP 32-BIT INS]
    1507 000000e8 1C40              ADDS      A1, A1, #1            ; [DPU_3_PIPE] |549|  ; [ORIG 16-BIT INS]
    1508 000000ea 0058F8A5          STRH      A1, [V2, #88]         ; [DPU_3_PIPE] |549|  ; [KEEP 32-BIT INS]
    1509                    ;* --------------------------------------------------------------------------*
    1510 000000ee           ||$C$L7||:    
    1511 000000ee 4668              MOV       A1, SP                ; [DPU_3_PIPE]  ; [ORIG 16-BIT INS]
    1512                            .dwpsn  file "../Application/sensor.c",line 561,column 5,is_stmt,isa 1
    1513                    $C$DW$160       .dwtag  DW_TAG_TI_branch
    1514                            .dwattr $C$DW$160, DW_AT_low_pc(0x00)
    1515                            .dwattr $C$DW$160, DW_AT_name("ApiMac_mcpsDataReq")
    1516                            .dwattr $C$DW$160, DW_AT_TI_call
    1517                    
    1518 000000f0 FFFEF7FF!         BL        ApiMac_mcpsDataReq    ; [DPU_3_PIPE] |561|  ; [KEEP 32-BIT INS]
    1519                            ; CALL OCCURS {ApiMac_mcpsDataReq }  ; [] |561| 
    1520 000000f4 B170              CBZ       A1, ||$C$L8||         ; []  ; [ORIG 16-BIT INS]
    1521                            ; BRANCHCC OCCURS {||$C$L8||}    ; [] |561| 
    1522                    ;* --------------------------------------------------------------------------*
    1523                            .dwpsn  file "../Application/sensor.c",line 568,column 9,is_stmt,isa 1
    1524 000000f6 0F05F1B8          CMP       V5, #5                ; [DPU_3_PIPE] |568|  ; [KEEP 32-BIT INS]
    1525 000000fa BF18              IT        NE                    ; [DPU_3_PIPE]  ; [ORIG 16-BIT INS]
    1526 000000fc 0F08F1B8          CMPNE     V5, #8                ; [DPU_3_PIPE] |568|  ; [KEEP 32-BIT INS]
    1527 00000100 D109              BNE       ||$C$L9||             ; [DPU_3_PIPE] |568|  ; [ORIG 16-BIT INS]
    1528                            ; BRANCHCC OCCURS {||$C$L9||}    ; [] |568| 
    1529                    ;* --------------------------------------------------------------------------*
    1530                            .dwpsn  file "../Application/sensor.c",line 570,column 13,is_stmt,isa 1
    1531 00000102 6AE8              LDR       A1, [V2, #44]         ; [DPU_3_PIPE] |570|  ; [ORIG 16-BIT INS]
    1532                    $C$DW$161       .dwtag  DW_TAG_TI_branch
    1533                            .dwattr $C$DW$161, DW_AT_low_pc(0x00)
    1534                            .dwattr $C$DW$161, DW_AT_name("Ssf_setReadingClock")
    1535                            .dwattr $C$DW$161, DW_AT_TI_call
    1536                    
    1537 00000104 FFFEF7FF!         BL        Ssf_setReadingClock   ; [DPU_3_PIPE] |570|  ; [KEEP 32-BIT INS]
    1538                            ; CALL OCCURS {Ssf_setReadingClock }  ; [] |570| 
    1539                            .dwpsn  file "../Application/sensor.c",line 571,column 13,is_stmt,isa 1
    1540 00000108 0058F8B5          LDRH      A1, [V2, #88]         ; [DPU_3_PIPE] |571|  ; [KEEP 32-BIT INS]
TI ARM Assembler PC v16.9.9 Sun Nov 25 17:19:55 2018

Tools Copyright (c) 1996-2017 Texas Instruments Incorporated
C:\Users\Stryd\AppData\Local\Temp\{520067B0-6478-47D1-A9CE-DCA5FFBBC378} PAGE   29

    1541 0000010c 1C40              ADDS      A1, A1, #1            ; [DPU_3_PIPE] |571|  ; [ORIG 16-BIT INS]
    1542 0000010e 0058F8A5          STRH      A1, [V2, #88]         ; [DPU_3_PIPE] |571|  ; [KEEP 32-BIT INS]
    1543 00000112 E000              B         ||$C$L9||             ; [DPU_3_PIPE] |571|  ; [ORIG 16-BIT INS]
    1544                            ; BRANCH OCCURS {||$C$L9||}      ; [] |571| 
    1545                    ;* --------------------------------------------------------------------------*
    1546 00000114           ||$C$L8||:    
    1547 00000114 4627              MOV       V4, V1                ; [DPU_3_PIPE]  ; [ORIG 16-BIT INS]
    1548                    ;* --------------------------------------------------------------------------*
    1549 00000116           ||$C$L9||:    
    1550                            .dwpsn  file "../Application/sensor.c",line 575,column 5,is_stmt,isa 1
    1551 00000116 4638              MOV       A1, V4                ; [DPU_3_PIPE] |575|  ; [ORIG 16-BIT INS]
    1552 00000118 B010              ADD       SP, SP, #64           ; [DPU_3_PIPE]  ; [ORIG 16-BIT INS]
    1553                            .dwcfi  cfa_offset, 32
    1554                    $C$DW$162       .dwtag  DW_TAG_TI_branch
    1555                            .dwattr $C$DW$162, DW_AT_low_pc(0x00)
    1556                            .dwattr $C$DW$162, DW_AT_TI_return
    1557                    
    1558 0000011a 87F0E8BD          POP       {V1, V2, V3, V4, V5, V6, V7, PC} ; [DPU_3_PIPE]  ; [KEEP 32-BIT INS]
    1559                            .dwcfi  cfa_offset, 0
    1560                            .dwcfi  restore_reg, 10
    1561                            .dwcfi  restore_reg, 9
    1562                            .dwcfi  restore_reg, 8
    1563                            .dwcfi  restore_reg, 7
    1564                            .dwcfi  restore_reg, 6
    1565                            .dwcfi  restore_reg, 5
    1566                            .dwcfi  restore_reg, 4
    1567                            ; BRANCH OCCURS                  ; [] 
    1568                            .dwattr $C$DW$143, DW_AT_TI_end_file("../Application/sensor.c")
    1569                            .dwattr $C$DW$143, DW_AT_TI_end_line(0x240)
    1570                            .dwattr $C$DW$143, DW_AT_TI_end_column(0x01)
    1571                            .dwendentry
    1572                            .dwendtag $C$DW$143
    1573                    
    1574 00000000                   .sect   ".text:dataIndCB"
    1575                            .clink
    1576                            .thumbfunc dataIndCB
    1577 00000000                   .thumb
    1578                    
    1579                    $C$DW$163       .dwtag  DW_TAG_subprogram
    1580                            .dwattr $C$DW$163, DW_AT_name("dataIndCB")
    1581                            .dwattr $C$DW$163, DW_AT_low_pc(dataIndCB)
    1582                            .dwattr $C$DW$163, DW_AT_high_pc(0x00)
    1583                            .dwattr $C$DW$163, DW_AT_TI_symbol_name("dataIndCB")
    1584                            .dwattr $C$DW$163, DW_AT_TI_begin_file("../Application/sensor.c")
    1585                            .dwattr $C$DW$163, DW_AT_TI_begin_line(0x2b4)
    1586                            .dwattr $C$DW$163, DW_AT_TI_begin_column(0x0d)
    1587                            .dwattr $C$DW$163, DW_AT_decl_file("../Application/sensor.c")
    1588                            .dwattr $C$DW$163, DW_AT_decl_line(0x2b4)
    1589                            .dwattr $C$DW$163, DW_AT_decl_column(0x0d)
    1590                            .dwattr $C$DW$163, DW_AT_TI_max_frame_size(0x48)
    1591                            .dwpsn  file "../Application/sensor.c",line 693,column 1,is_stmt,address dataIndCB,isa 1
    1592                    
    1593                            .dwfde $C$DW$CIE, dataIndCB
    1594                    $C$DW$164       .dwtag  DW_TAG_formal_parameter
    1595                            .dwattr $C$DW$164, DW_AT_name("pDataInd")
TI ARM Assembler PC v16.9.9 Sun Nov 25 17:19:55 2018

Tools Copyright (c) 1996-2017 Texas Instruments Incorporated
C:\Users\Stryd\AppData\Local\Temp\{520067B0-6478-47D1-A9CE-DCA5FFBBC378} PAGE   30

    1596                            .dwattr $C$DW$164, DW_AT_TI_symbol_name("pDataInd")
    1597                            .dwattr $C$DW$164, DW_AT_type(*$C$DW$T$183)
    1598                            .dwattr $C$DW$164, DW_AT_location[DW_OP_reg0]
    1599                    
    1600                    
    1601                    ;*****************************************************************************
    1602                    ;* FUNCTION NAME: dataIndCB                                                  *
    1603                    ;*                                                                           *
    1604                    ;*   Regs Modified     : A1,A2,A3,A4,V1,V2,V3,V4,V5,V6,V9,SP,LR,SR           *
    1605                    ;*   Regs Used         : A1,A2,A3,A4,V1,V2,V3,V4,V5,V6,V9,SP,LR,SR           *
    1606                    ;*   Local Frame Size  : 4 Args + 36 Auto + 28 Save = 68 byte                *
    1607                    ;*****************************************************************************
    1608                    dataIndCB:
    1609                    ;* --------------------------------------------------------------------------*
    1610                    $C$DW$165       .dwtag  DW_TAG_variable
    1611                            .dwattr $C$DW$165, DW_AT_name("configRsp")
    1612                            .dwattr $C$DW$165, DW_AT_TI_symbol_name("configRsp")
    1613                            .dwattr $C$DW$165, DW_AT_type(*$C$DW$T$468)
    1614                            .dwattr $C$DW$165, DW_AT_location[DW_OP_breg13 4]
    1615                    
    1616                    $C$DW$166       .dwtag  DW_TAG_variable
    1617                            .dwattr $C$DW$166, DW_AT_name("broadcastCmd")
    1618                            .dwattr $C$DW$166, DW_AT_TI_symbol_name("broadcastCmd")
    1619                            .dwattr $C$DW$166, DW_AT_type(*$C$DW$T$464)
    1620                            .dwattr $C$DW$166, DW_AT_location[DW_OP_breg13 16]
    1621                    
    1622                    $C$DW$167       .dwtag  DW_TAG_variable
    1623                            .dwattr $C$DW$167, DW_AT_name("msgBuf")
    1624                            .dwattr $C$DW$167, DW_AT_TI_symbol_name("msgBuf")
    1625                            .dwattr $C$DW$167, DW_AT_type(*$C$DW$T$561)
    1626                            .dwattr $C$DW$167, DW_AT_location[DW_OP_breg13 20]
    1627                    
    1628                    $C$DW$168       .dwtag  DW_TAG_variable
    1629                            .dwattr $C$DW$168, DW_AT_name("cmdBytes")
    1630                            .dwattr $C$DW$168, DW_AT_TI_symbol_name("cmdBytes")
    1631                            .dwattr $C$DW$168, DW_AT_type(*$C$DW$T$560)
    1632                            .dwattr $C$DW$168, DW_AT_location[DW_OP_breg13 36]
    1633                    
    1634                    ;* V3    assigned to $O$C2
    1635                    ;* V5    assigned to $O$C3
    1636                    ;* A4    assigned to $O$C4
    1637                    ;* V1    assigned to $O$C5
    1638                    ;* A2    assigned to $O$C6
    1639                    ;* A1    assigned to $O$Y0
    1640                    ;* V1    assigned to $O$K39
    1641                    ;* V1    assigned to $O$K39
    1642                    ;* A3    assigned to $O$K44
    1643                    ;* A1    assigned to $O$v1
    1644                    ;* V4    assigned to pDataInd
    1645                    $C$DW$169       .dwtag  DW_TAG_variable
    1646                            .dwattr $C$DW$169, DW_AT_name("pDataInd")
    1647                            .dwattr $C$DW$169, DW_AT_TI_symbol_name("pDataInd")
    1648                            .dwattr $C$DW$169, DW_AT_type(*$C$DW$T$625)
    1649                            .dwattr $C$DW$169, DW_AT_location[DW_OP_reg7]
    1650                    
TI ARM Assembler PC v16.9.9 Sun Nov 25 17:19:55 2018

Tools Copyright (c) 1996-2017 Texas Instruments Incorporated
C:\Users\Stryd\AppData\Local\Temp\{520067B0-6478-47D1-A9CE-DCA5FFBBC378} PAGE   31

    1651                    ;* V3    assigned to cmdId
    1652                    $C$DW$170       .dwtag  DW_TAG_variable
    1653                            .dwattr $C$DW$170, DW_AT_name("cmdId")
    1654                            .dwattr $C$DW$170, DW_AT_TI_symbol_name("cmdId")
    1655                            .dwattr $C$DW$170, DW_AT_type(*$C$DW$T$10)
    1656                            .dwattr $C$DW$170, DW_AT_location[DW_OP_reg6]
    1657                    
    1658                    ;* A1    assigned to broadcastMsgId
    1659                    $C$DW$171       .dwtag  DW_TAG_variable
    1660                            .dwattr $C$DW$171, DW_AT_name("broadcastMsgId")
    1661                            .dwattr $C$DW$171, DW_AT_TI_symbol_name("broadcastMsgId")
    1662                            .dwattr $C$DW$171, DW_AT_type(*$C$DW$T$10)
    1663                            .dwattr $C$DW$171, DW_AT_location[DW_OP_reg0]
    1664                    
    1665                    ;* V2    assigned to stat
    1666                    $C$DW$172       .dwtag  DW_TAG_variable
    1667                            .dwattr $C$DW$172, DW_AT_name("stat")
    1668                            .dwattr $C$DW$172, DW_AT_TI_symbol_name("stat")
    1669                            .dwattr $C$DW$172, DW_AT_type(*$C$DW$T$10)
    1670                            .dwattr $C$DW$172, DW_AT_location[DW_OP_reg5]
    1671                    
    1672                    ;* A1    assigned to pBuf
    1673                    $C$DW$173       .dwtag  DW_TAG_variable
    1674                            .dwattr $C$DW$173, DW_AT_name("pBuf")
    1675                            .dwattr $C$DW$173, DW_AT_TI_symbol_name("pBuf")
    1676                            .dwattr $C$DW$173, DW_AT_type(*$C$DW$T$52)
    1677                            .dwattr $C$DW$173, DW_AT_location[DW_OP_reg0]
    1678                    
    1679                    ;* V2    assigned to frameControl
    1680                    $C$DW$174       .dwtag  DW_TAG_variable
    1681                            .dwattr $C$DW$174, DW_AT_name("frameControl")
    1682                            .dwattr $C$DW$174, DW_AT_TI_symbol_name("frameControl")
    1683                            .dwattr $C$DW$174, DW_AT_type(*$C$DW$T$10)
    1684                            .dwattr $C$DW$174, DW_AT_location[DW_OP_reg5]
    1685                    
    1686                    ;* V3    assigned to reportingInterval
    1687                    $C$DW$175       .dwtag  DW_TAG_variable
    1688                            .dwattr $C$DW$175, DW_AT_name("reportingInterval")
    1689                            .dwattr $C$DW$175, DW_AT_TI_symbol_name("reportingInterval")
    1690                            .dwattr $C$DW$175, DW_AT_type(*$C$DW$T$31)
    1691                            .dwattr $C$DW$175, DW_AT_location[DW_OP_reg6]
    1692                    
    1693                    ;* V6    assigned to pollingInterval
    1694                    $C$DW$176       .dwtag  DW_TAG_variable
    1695                            .dwattr $C$DW$176, DW_AT_name("pollingInterval")
    1696                            .dwattr $C$DW$176, DW_AT_TI_symbol_name("pollingInterval")
    1697                            .dwattr $C$DW$176, DW_AT_type(*$C$DW$T$31)
    1698                            .dwattr $C$DW$176, DW_AT_location[DW_OP_reg9]
    1699                    
    1700                    ;* A1    assigned to randomNum
    1701                    $C$DW$177       .dwtag  DW_TAG_variable
    1702                            .dwattr $C$DW$177, DW_AT_name("randomNum")
    1703                            .dwattr $C$DW$177, DW_AT_TI_symbol_name("randomNum")
    1704                            .dwattr $C$DW$177, DW_AT_type(*$C$DW$T$31)
    1705                            .dwattr $C$DW$177, DW_AT_location[DW_OP_reg0]
TI ARM Assembler PC v16.9.9 Sun Nov 25 17:19:55 2018

Tools Copyright (c) 1996-2017 Texas Instruments Incorporated
C:\Users\Stryd\AppData\Local\Temp\{520067B0-6478-47D1-A9CE-DCA5FFBBC378} PAGE   32

    1706                    
    1707                    ;* V2    assigned to frameControl
    1708                    $C$DW$178       .dwtag  DW_TAG_variable
    1709                            .dwattr $C$DW$178, DW_AT_name("frameControl")
    1710                            .dwattr $C$DW$178, DW_AT_TI_symbol_name("frameControl")
    1711                            .dwattr $C$DW$178, DW_AT_type(*$C$DW$T$10)
    1712                            .dwattr $C$DW$178, DW_AT_location[DW_OP_reg5]
    1713                    
    1714                    ;* A1    assigned to newFrameControl
    1715                    $C$DW$179       .dwtag  DW_TAG_variable
    1716                            .dwattr $C$DW$179, DW_AT_name("newFrameControl")
    1717                            .dwattr $C$DW$179, DW_AT_TI_symbol_name("newFrameControl")
    1718                            .dwattr $C$DW$179, DW_AT_type(*$C$DW$T$10)
    1719                            .dwattr $C$DW$179, DW_AT_location[DW_OP_reg0]
    1720                    
    1721                            .dwcfi  cfa_offset, 0
    1722 00000000 43F0E92D          PUSH      {V1, V2, V3, V4, V5, V6, LR} ; [DPU_3_PIPE]  ; [KEEP 32-BIT INS]
    1723                            .dwcfi  cfa_offset, 28
    1724                            .dwcfi  save_reg_to_mem, 14, -4
    1725                            .dwcfi  save_reg_to_mem, 9, -8
    1726                            .dwcfi  save_reg_to_mem, 8, -12
    1727                            .dwcfi  save_reg_to_mem, 7, -16
    1728                            .dwcfi  save_reg_to_mem, 6, -20
    1729                            .dwcfi  save_reg_to_mem, 5, -24
    1730                            .dwcfi  save_reg_to_mem, 4, -28
    1731                            .dwpsn  file "../Application/sensor.c",line 696,column 5,is_stmt,isa 1
    1732 00000004 1C07              MOVS      V4, A1                ; [DPU_3_PIPE] |696|  ; [ORIG 16-BIT INS]
    1733 00000006 0D2CF1AD          SUB       SP, SP, #44           ; [DPU_3_PIPE]  ; [KEEP 32-BIT INS]
    1734                            .dwcfi  cfa_offset, 72
    1735 0000000a AFFEF43F!         BEQ       ||$C$L24||            ; [DPU_3_PIPE] |696|  ; [KEEP 32-BIT INS]
    1736                            ; BRANCHCC OCCURS {||$C$L24||}   ; [] |696| 
    1737                    ;* --------------------------------------------------------------------------*
    1738 0000000e 6BF9              LDR       A2, [V4, #60]         ; [DPU_3_PIPE] |696|  ; [ORIG 16-BIT INS]
    1739 00000010 2900              CMP       A2, #0                ; [DPU_3_PIPE] |696|  ; [ORIG 16-BIT INS]
    1740 00000012 AFFEF43F!         BEQ       ||$C$L24||            ; [DPU_3_PIPE] |696|  ; [KEEP 32-BIT INS]
    1741                            ; BRANCHCC OCCURS {||$C$L24||}   ; [] |696| 
    1742                    ;* --------------------------------------------------------------------------*
    1743 00000016 0040F8B7          LDRH      A1, [V4, #64]         ; [DPU_3_PIPE] |696|  ; [KEEP 32-BIT INS]
    1744 0000001a 2800              CMP       A1, #0                ; [DPU_3_PIPE] |696|  ; [ORIG 16-BIT INS]
    1745 0000001c AFFEF43F!         BEQ       ||$C$L24||            ; [DPU_3_PIPE] |696|  ; [KEEP 32-BIT INS]
    1746                            ; BRANCHCC OCCURS {||$C$L24||}   ; [] |696| 
    1747                    ;* --------------------------------------------------------------------------*
    1748                            .dwpsn  file "../Application/sensor.c",line 699,column 30,is_stmt,isa 1
    1749 00000020 780E              LDRB      V3, [A2, #0]          ; [DPU_3_PIPE] |699|  ; [ORIG 16-BIT INS]
    1750                            .dwpsn  file "../Application/sensor.c",line 703,column 13,is_stmt,isa 1
    1751 00000022 0030F107          ADD       A1, V4, #48           ; [DPU_3_PIPE] |703|  ; [KEEP 32-BIT INS]
    1752                    $C$DW$180       .dwtag  DW_TAG_TI_branch
    1753                            .dwattr $C$DW$180, DW_AT_low_pc(0x00)
    1754                            .dwattr $C$DW$180, DW_AT_name("Jdllc_securityCheck")
    1755                            .dwattr $C$DW$180, DW_AT_TI_call
    1756                    
    1757 00000026 FFFEF7FF!         BL        Jdllc_securityCheck   ; [DPU_3_PIPE] |703|  ; [KEEP 32-BIT INS]
    1758                            ; CALL OCCURS {Jdllc_securityCheck }  ; [] |703| 
    1759 0000002a 2800              CMP       A1, #0                ; [DPU_3_PIPE] |703|  ; [ORIG 16-BIT INS]
    1760 0000002c AFFEF43F!         BEQ       ||$C$L24||            ; [DPU_3_PIPE] |703|  ; [KEEP 32-BIT INS]
TI ARM Assembler PC v16.9.9 Sun Nov 25 17:19:55 2018

Tools Copyright (c) 1996-2017 Texas Instruments Incorporated
C:\Users\Stryd\AppData\Local\Temp\{520067B0-6478-47D1-A9CE-DCA5FFBBC378} PAGE   33

    1761                            ; BRANCHCC OCCURS {||$C$L24||}   ; [] |703| 
    1762                    ;* --------------------------------------------------------------------------*
    1763 00000030 81F8F8DF          LDR       V5, $C$CON5           ; [DPU_3_PIPE]  ; [KEEP 32-BIT INS]
    1764                            .dwpsn  file "../Application/sensor.c",line 711,column 9,is_stmt,isa 1
    1765 00000034 4630              MOV       A1, V3                ; [DPU_3_PIPE] |711|  ; [ORIG 16-BIT INS]
    1766 00000036 1E40              SUBS      A1, A1, #1            ; [DPU_3_PIPE] |711|  ; [ORIG 16-BIT INS]
    1767 00000038 D061              BEQ       ||$C$L15||            ; [DPU_3_PIPE] |711|  ; [ORIG 16-BIT INS]
    1768                            ; BRANCHCC OCCURS {||$C$L15||}   ; [] |711| 
    1769                    ;* --------------------------------------------------------------------------*
    1770 0000003a 1E80              SUBS      A1, A1, #2            ; [DPU_3_PIPE] |711|  ; [ORIG 16-BIT INS]
    1771 0000003c D046              BEQ       ||$C$L13||            ; [DPU_3_PIPE] |711|  ; [ORIG 16-BIT INS]
    1772                            ; BRANCHCC OCCURS {||$C$L13||}   ; [] |711| 
    1773                    ;* --------------------------------------------------------------------------*
    1774 0000003e 1EC0              SUBS      A1, A1, #3            ; [DPU_3_PIPE] |711|  ; [ORIG 16-BIT INS]
    1775 00000040 D034              BEQ       ||$C$L12||            ; [DPU_3_PIPE] |711|  ; [ORIG 16-BIT INS]
    1776                            ; BRANCHCC OCCURS {||$C$L12||}   ; [] |711| 
    1777                    ;* --------------------------------------------------------------------------*
    1778 00000042 1F00              SUBS      A1, A1, #4            ; [DPU_3_PIPE] |711|  ; [ORIG 16-BIT INS]
    1779 00000044 AFFEF47F!         BNE       ||$C$L24||            ; [DPU_3_PIPE] |711|  ; [KEEP 32-BIT INS]
    1780                            ; BRANCHCC OCCURS {||$C$L24||}   ; [] |711| 
    1781                    ;* --------------------------------------------------------------------------*
    1782                            .dwpsn  file "../Application/sensor.c",line 752,column 17,is_stmt,isa 1
    1783 00000048 4877              LDR       A1, $C$CON4           ; [DPU_3_PIPE] |752|  ; [ORIG 16-BIT INS]
    1784 0000004a 7800              LDRB      A1, [A1, #0]          ; [DPU_3_PIPE] |752|  ; [ORIG 16-BIT INS]
    1785 0000004c 2800              CMP       A1, #0                ; [DPU_3_PIPE] |752|  ; [ORIG 16-BIT INS]
    1786 0000004e AFFEF43F!         BEQ       ||$C$L24||            ; [DPU_3_PIPE] |752|  ; [KEEP 32-BIT INS]
    1787                            ; BRANCHCC OCCURS {||$C$L24||}   ; [] |752| 
    1788                    ;* --------------------------------------------------------------------------*
    1789                            .dwpsn  file "../Application/sensor.c",line 1128,column 5,is_stmt,isa 1
    1790 00000052 A804              ADD       A1, SP, #16           ; [DPU_3_PIPE] |1128|  ; [ORIG 16-BIT INS]
    1791 00000054 2100              MOVS      A2, #0                ; [DPU_3_PIPE] |1128|  ; [ORIG 16-BIT INS]
    1792 00000056 2204              MOVS      A3, #4                ; [DPU_3_PIPE] |1128|  ; [ORIG 16-BIT INS]
    1793                    $C$DW$181       .dwtag  DW_TAG_TI_branch
    1794                            .dwattr $C$DW$181, DW_AT_low_pc(0x00)
    1795                            .dwattr $C$DW$181, DW_AT_name("memset")
    1796                            .dwattr $C$DW$181, DW_AT_TI_call
    1797                    
    1798 00000058 FFFEF7FF!         BL        memset                ; [DPU_3_PIPE] |1128|  ; [KEEP 32-BIT INS]
    1799                            ; CALL OCCURS {memset }          ; [] |1128| 
    1800                            .dwpsn  file "../Application/sensor.c",line 1131,column 5,is_stmt,isa 1
    1801 0000005c 0040F8B7          LDRH      A1, [V4, #64]         ; [DPU_3_PIPE] |1131|  ; [KEEP 32-BIT INS]
    1802 00000060 2803              CMP       A1, #3                ; [DPU_3_PIPE] |1131|  ; [ORIG 16-BIT INS]
    1803 00000062 AFFEF47F!         BNE       ||$C$L24||            ; [DPU_3_PIPE] |1131|  ; [KEEP 32-BIT INS]
    1804                            ; BRANCHCC OCCURS {||$C$L24||}   ; [] |1131| 
    1805                    ;* --------------------------------------------------------------------------*
    1806                            .dwpsn  file "../Application/sensor.c",line 1138,column 9,is_stmt,isa 1
    1807 00000066 6BF8              LDR       A1, [V4, #60]         ; [DPU_3_PIPE] |1138|  ; [ORIG 16-BIT INS]
    1808 00000068 1C40              ADDS      A1, A1, #1            ; [DPU_3_PIPE] |1138|  ; [ORIG 16-BIT INS]
    1809                    $C$DW$182       .dwtag  DW_TAG_TI_branch
    1810                            .dwattr $C$DW$182, DW_AT_low_pc(0x00)
    1811                            .dwattr $C$DW$182, DW_AT_name("Util_parseUint16")
    1812                            .dwattr $C$DW$182, DW_AT_TI_call
    1813                    
    1814 0000006a FFFEF7FF!         BL        Util_parseUint16      ; [DPU_3_PIPE] |1138|  ; [KEEP 32-BIT INS]
    1815                            ; CALL OCCURS {Util_parseUint16 }  ; [] |1138| 
TI ARM Assembler PC v16.9.9 Sun Nov 25 17:19:55 2018

Tools Copyright (c) 1996-2017 Texas Instruments Incorporated
C:\Users\Stryd\AppData\Local\Temp\{520067B0-6478-47D1-A9CE-DCA5FFBBC378} PAGE   34

    1816                            .dwpsn  file "../Application/sensor.c",line 1141,column 9,is_stmt,isa 1
    1817 0000006e 4644              MOV       V1, V5                ; [DPU_3_PIPE] |1141|  ; [ORIG 16-BIT INS]
    1818 00000070 027CF104          ADD       A3, V1, #124          ; [DPU_3_PIPE]  ; [KEEP 32-BIT INS]
    1819 00000074 8811              LDRH      A2, [A3, #0]          ; [DPU_3_PIPE] |1141|  ; [ORIG 16-BIT INS]
    1820 00000076 1C49              ADDS      A2, A2, #1            ; [DPU_3_PIPE] |1141|  ; [ORIG 16-BIT INS]
    1821 00000078 8011              STRH      A2, [A3, #0]          ; [DPU_3_PIPE] |1141|  ; [ORIG 16-BIT INS]
    1822                            .dwpsn  file "../Application/sensor.c",line 1143,column 9,is_stmt,isa 1
    1823 0000007a 4A6D              LDR       A3, $C$CON6           ; [DPU_3_PIPE] |1143|  ; [ORIG 16-BIT INS]
    1824 0000007c 7811              LDRB      A2, [A3, #0]          ; [DPU_3_PIPE] |1143|  ; [ORIG 16-BIT INS]
    1825 0000007e 2901              CMP       A2, #1                ; [DPU_3_PIPE] |1143|  ; [ORIG 16-BIT INS]
    1826 00000080 D009              BEQ       ||$C$L10||            ; [DPU_3_PIPE] |1143|  ; [ORIG 16-BIT INS]
    1827                            ; BRANCHCC OCCURS {||$C$L10||}   ; [] |1143| 
    1828                    ;* --------------------------------------------------------------------------*
    1829                            .dwpsn  file "../Application/sensor.c",line 1146,column 13,is_stmt,isa 1
    1830 00000082 88E1              LDRH      A2, [V1, #6]          ; [DPU_3_PIPE] |1146|  ; [ORIG 16-BIT INS]
    1831 00000084 1A43              SUBS      A4, A1, A2            ; [DPU_3_PIPE] |1146|  ; [ORIG 16-BIT INS]
    1832 00000086 2B02              CMP       A4, #2                ; [DPU_3_PIPE] |1146|  ; [ORIG 16-BIT INS]
    1833 00000088 DB05              BLT       ||$C$L10||            ; [DPU_3_PIPE] |1146|  ; [ORIG 16-BIT INS]
    1834                            ; BRANCHCC OCCURS {||$C$L10||}   ; [] |1146| 
    1835                    ;* --------------------------------------------------------------------------*
    1836                            .dwpsn  file "../Application/sensor.c",line 1148,column 17,is_stmt,isa 1
    1837 0000008a 107EF8B4          LDRH      A2, [V1, #126]        ; [DPU_3_PIPE] |1148|  ; [KEEP 32-BIT INS]
    1838 0000008e 18C9              ADDS      A2, A2, A4            ; [DPU_3_PIPE] |1148|  ; [ORIG 16-BIT INS]
    1839 00000090 1E49              SUBS      A2, A2, #1            ; [DPU_3_PIPE] |1148|  ; [ORIG 16-BIT INS]
    1840 00000092 107EF8A4          STRH      A2, [V1, #126]        ; [DPU_3_PIPE] |1148|  ; [KEEP 32-BIT INS]
    1841                    ;* --------------------------------------------------------------------------*
    1842 00000096           ||$C$L10||:    
    1843                            .dwpsn  file "../Application/sensor.c",line 1153,column 9,is_stmt,isa 1
    1844 00000096 80E0              STRH      A1, [V1, #6]          ; [DPU_3_PIPE] |1153|  ; [ORIG 16-BIT INS]
    1845                            .dwpsn  file "../Application/sensor.c",line 1155,column 9,is_stmt,isa 1
    1846 00000098 2100              MOVS      A2, #0                ; [DPU_3_PIPE] |1155|  ; [ORIG 16-BIT INS]
    1847                            .dwpsn  file "../Application/sensor.c",line 1158,column 9,is_stmt,isa 1
    1848 0000009a 0840              LSRS      A1, A1, #1            ; [DPU_3_PIPE] |1158|  ; [ORIG 16-BIT INS]
    1849                            .dwpsn  file "../Application/sensor.c",line 1155,column 9,is_stmt,isa 1
    1850 0000009c 7011              STRB      A2, [A3, #0]          ; [DPU_3_PIPE] |1155|  ; [ORIG 16-BIT INS]
    1851                            .dwpsn  file "../Application/sensor.c",line 1158,column 9,is_stmt,isa 1
    1852 0000009e D202              BCS       ||$C$L11||            ; [DPU_3_PIPE] |1158|  ; [ORIG 16-BIT INS]
    1853                            ; BRANCHCC OCCURS {||$C$L11||}   ; [] |1158| 
    1854                    ;* --------------------------------------------------------------------------*
    1855                            .dwpsn  file "../Application/sensor.c",line 1160,column 13,is_stmt,isa 1
    1856                    $C$DW$183       .dwtag  DW_TAG_TI_branch
    1857                            .dwattr $C$DW$183, DW_AT_low_pc(0x00)
    1858                            .dwattr $C$DW$183, DW_AT_name("Ssf_OnLED")
    1859                            .dwattr $C$DW$183, DW_AT_TI_call
    1860                    
    1861 000000a0 FFFEF7FF!         BL        Ssf_OnLED             ; [DPU_3_PIPE] |1160|  ; [KEEP 32-BIT INS]
    1862                            ; CALL OCCURS {Ssf_OnLED }       ; [] |1160| 
    1863                            .dwpsn  file "../Application/sensor.c",line 1161,column 9,is_stmt,isa 1
    1864 000000a4 E0BD              B         ||$C$L24||            ; [DPU_3_PIPE] |1161|  ; [ORIG 16-BIT INS]
    1865                            ; BRANCH OCCURS {||$C$L24||}     ; [] |1161| 
    1866                    ;* --------------------------------------------------------------------------*
    1867 000000a6           ||$C$L11||:    
    1868                            .dwpsn  file "../Application/sensor.c",line 1164,column 13,is_stmt,isa 1
    1869                    $C$DW$184       .dwtag  DW_TAG_TI_branch
    1870                            .dwattr $C$DW$184, DW_AT_low_pc(0x00)
TI ARM Assembler PC v16.9.9 Sun Nov 25 17:19:55 2018

Tools Copyright (c) 1996-2017 Texas Instruments Incorporated
C:\Users\Stryd\AppData\Local\Temp\{520067B0-6478-47D1-A9CE-DCA5FFBBC378} PAGE   35

    1871                            .dwattr $C$DW$184, DW_AT_name("Ssf_OffLED")
    1872                            .dwattr $C$DW$184, DW_AT_TI_call
    1873                    
    1874 000000a6 FFFEF7FF!         BL        Ssf_OffLED            ; [DPU_3_PIPE] |1164|  ; [KEEP 32-BIT INS]
    1875                            ; CALL OCCURS {Ssf_OffLED }      ; [] |1164| 
    1876 000000aa E0BA              B         ||$C$L24||            ; [DPU_3_PIPE] |1164|  ; [ORIG 16-BIT INS]
    1877                            ; BRANCH OCCURS {||$C$L24||}     ; [] |1164| 
    1878                    ;* --------------------------------------------------------------------------*
    1879 000000ac           ||$C$L12||:    
    1880                            .dwpsn  file "../Application/sensor.c",line 738,column 17,is_stmt,isa 1
    1881 000000ac 0040F8B7          LDRH      A1, [V4, #64]         ; [DPU_3_PIPE] |738|  ; [KEEP 32-BIT INS]
    1882 000000b0 2801              CMP       A1, #1                ; [DPU_3_PIPE] |738|  ; [ORIG 16-BIT INS]
    1883 000000b2 AFFEF47F!         BNE       ||$C$L24||            ; [DPU_3_PIPE] |738|  ; [KEEP 32-BIT INS]
    1884                            ; BRANCHCC OCCURS {||$C$L24||}   ; [] |738| 
    1885                    ;* --------------------------------------------------------------------------*
    1886                            .dwpsn  file "../Application/sensor.c",line 742,column 21,is_stmt,isa 1
    1887 000000b6 2407              MOVS      V1, #7                ; [DPU_3_PIPE] |742|  ; [ORIG 16-BIT INS]
    1888 000000b8 4024F88D          STRB      V1, [SP, #36]         ; [DPU_3_PIPE] |742|  ; [KEEP 32-BIT INS]
    1889                            .dwpsn  file "../Application/sensor.c",line 743,column 21,is_stmt,isa 1
    1890                    $C$DW$185       .dwtag  DW_TAG_TI_branch
    1891                            .dwattr $C$DW$185, DW_AT_low_pc(0x00)
    1892                            .dwattr $C$DW$185, DW_AT_name("Ssf_toggleLED")
    1893                            .dwattr $C$DW$185, DW_AT_TI_call
    1894                    
    1895 000000bc FFFEF7FF!         BL        Ssf_toggleLED         ; [DPU_3_PIPE] |743|  ; [KEEP 32-BIT INS]
    1896                            ; CALL OCCURS {Ssf_toggleLED }   ; [] |743| 
    1897 000000c0 0025F88D          STRB      A1, [SP, #37]         ; [DPU_3_PIPE] |743|  ; [KEEP 32-BIT INS]
    1898                            .dwpsn  file "../Application/sensor.c",line 744,column 21,is_stmt,isa 1
    1899 000000c4 2201              MOVS      A3, #1                ; [DPU_3_PIPE] |744|  ; [ORIG 16-BIT INS]
    1900 000000c6 2302              MOVS      A4, #2                ; [DPU_3_PIPE] |744|  ; [ORIG 16-BIT INS]
    1901 000000c8 4620              MOV       A1, V1                ; [DPU_3_PIPE] |744|  ; [ORIG 16-BIT INS]
    1902 000000ca E012              B         ||$C$L14||            ; [DPU_3_PIPE] |744|  ; [ORIG 16-BIT INS]
    1903                            ; BRANCH OCCURS {||$C$L14||}     ; [] |744| 
    1904                    ;* --------------------------------------------------------------------------*
    1905 000000cc           ||$C$L13||:    
    1906                            .dwpsn  file "../Application/sensor.c",line 720,column 17,is_stmt,isa 1
    1907 000000cc 0040F8B7          LDRH      A1, [V4, #64]         ; [DPU_3_PIPE] |720|  ; [KEEP 32-BIT INS]
    1908 000000d0 2801              CMP       A1, #1                ; [DPU_3_PIPE] |720|  ; [ORIG 16-BIT INS]
    1909 000000d2 AFFEF47F!         BNE       ||$C$L24||            ; [DPU_3_PIPE] |720|  ; [KEEP 32-BIT INS]
    1910                            ; BRANCHCC OCCURS {||$C$L24||}   ; [] |720| 
    1911                    ;* --------------------------------------------------------------------------*
    1912                            .dwpsn  file "../Application/sensor.c",line 723,column 21,is_stmt,isa 1
    1913 000000d6 4644              MOV       V1, V5                ; [DPU_3_PIPE] |723|  ; [ORIG 16-BIT INS]
    1914 000000d8 005CF8B4          LDRH      A1, [V1, #92]         ; [DPU_3_PIPE] |723|  ; [KEEP 32-BIT INS]
    1915 000000dc 1C40              ADDS      A1, A1, #1            ; [DPU_3_PIPE] |723|  ; [ORIG 16-BIT INS]
    1916 000000de 005CF8A4          STRH      A1, [V1, #92]         ; [DPU_3_PIPE] |723|  ; [KEEP 32-BIT INS]
    1917                            .dwpsn  file "../Application/sensor.c",line 726,column 21,is_stmt,isa 1
    1918 000000e2 4638              MOV       A1, V4                ; [DPU_3_PIPE] |726|  ; [ORIG 16-BIT INS]
    1919                    $C$DW$186       .dwtag  DW_TAG_TI_branch
    1920                            .dwattr $C$DW$186, DW_AT_low_pc(0x00)
    1921                            .dwattr $C$DW$186, DW_AT_name("Ssf_trackingUpdate")
    1922                            .dwattr $C$DW$186, DW_AT_TI_call
    1923                    
    1924 000000e4 FFFEF7FF!         BL        Ssf_trackingUpdate    ; [DPU_3_PIPE] |726|  ; [KEEP 32-BIT INS]
    1925                            ; CALL OCCURS {Ssf_trackingUpdate }  ; [] |726| 
TI ARM Assembler PC v16.9.9 Sun Nov 25 17:19:55 2018

Tools Copyright (c) 1996-2017 Texas Instruments Incorporated
C:\Users\Stryd\AppData\Local\Temp\{520067B0-6478-47D1-A9CE-DCA5FFBBC378} PAGE   36

    1926                            .dwpsn  file "../Application/sensor.c",line 729,column 21,is_stmt,isa 1
    1927 000000e8 2004              MOVS      A1, #4                ; [DPU_3_PIPE] |729|  ; [ORIG 16-BIT INS]
    1928                            .dwpsn  file "../Application/sensor.c",line 730,column 21,is_stmt,isa 1
    1929 000000ea 2201              MOVS      A3, #1                ; [DPU_3_PIPE] |730|  ; [ORIG 16-BIT INS]
    1930                            .dwpsn  file "../Application/sensor.c",line 729,column 21,is_stmt,isa 1
    1931 000000ec 0024F88D          STRB      A1, [SP, #36]         ; [DPU_3_PIPE] |729|  ; [KEEP 32-BIT INS]
    1932                            .dwpsn  file "../Application/sensor.c",line 730,column 21,is_stmt,isa 1
    1933 000000f0 4613              MOV       A4, A3                ; [DPU_3_PIPE] |730|  ; [ORIG 16-BIT INS]
    1934                    ;* --------------------------------------------------------------------------*
    1935 000000f2           ||$C$L14||:    
    1936 000000f2 A909              ADD       A2, SP, #36           ; [DPU_3_PIPE] |730|  ; [ORIG 16-BIT INS]
    1937 000000f4 9100              STR       A2, [SP, #0]          ; [DPU_3_PIPE] |730|  ; [ORIG 16-BIT INS]
    1938 000000f6 4639              MOV       A2, V4                ; [DPU_3_PIPE] |730|  ; [ORIG 16-BIT INS]
    1939                    $C$DW$187       .dwtag  DW_TAG_TI_branch
    1940                            .dwattr $C$DW$187, DW_AT_low_pc(0x00)
    1941                            .dwattr $C$DW$187, DW_AT_name("Sensor_sendMsg")
    1942                            .dwattr $C$DW$187, DW_AT_TI_call
    1943                    
    1944 000000f8 FFFEF7FF!         BL        Sensor_sendMsg        ; [DPU_3_PIPE] |730|  ; [KEEP 32-BIT INS]
    1945                            ; CALL OCCURS {Sensor_sendMsg }  ; [] |730| 
    1946 000000fc E091              B         ||$C$L24||            ; [DPU_3_PIPE] |730|  ; [ORIG 16-BIT INS]
    1947                            ; BRANCH OCCURS {||$C$L24||}     ; [] |730| 
    1948                    ;* --------------------------------------------------------------------------*
    1949 000000fe           ||$C$L15||:    
    1950                            .dwpsn  file "../Application/sensor.c",line 1036,column 5,is_stmt,isa 1
    1951 000000fe A801              ADD       A1, SP, #4            ; [DPU_3_PIPE] |1036|  ; [ORIG 16-BIT INS]
    1952 00000100 2100              MOVS      A2, #0                ; [DPU_3_PIPE] |1036|  ; [ORIG 16-BIT INS]
    1953 00000102 220C              MOVS      A3, #12               ; [DPU_3_PIPE] |1036|  ; [ORIG 16-BIT INS]
    1954                    $C$DW$188       .dwtag  DW_TAG_TI_branch
    1955                            .dwattr $C$DW$188, DW_AT_low_pc(0x00)
    1956                            .dwattr $C$DW$188, DW_AT_name("memset")
    1957                            .dwattr $C$DW$188, DW_AT_TI_call
    1958                    
    1959 00000104 FFFEF7FF!         BL        memset                ; [DPU_3_PIPE] |1036|  ; [KEEP 32-BIT INS]
    1960                            ; CALL OCCURS {memset }          ; [] |1036| 
    1961                            .dwpsn  file "../Application/sensor.c",line 1039,column 5,is_stmt,isa 1
    1962 00000108 0040F8B7          LDRH      A1, [V4, #64]         ; [DPU_3_PIPE] |1039|  ; [KEEP 32-BIT INS]
    1963 0000010c 280B              CMP       A1, #11               ; [DPU_3_PIPE] |1039|  ; [ORIG 16-BIT INS]
    1964 0000010e D15F              BNE       ||$C$L22||            ; [DPU_3_PIPE] |1039|  ; [ORIG 16-BIT INS]
    1965                            ; BRANCHCC OCCURS {||$C$L22||}   ; [] |1039| 
    1966                    ;* --------------------------------------------------------------------------*
    1967                            .dwpsn  file "../Application/sensor.c",line 1041,column 23,is_stmt,isa 1
    1968 00000110 6BFC              LDR       V1, [V4, #60]         ; [DPU_3_PIPE] |1041|  ; [ORIG 16-BIT INS]
    1969                            .dwpsn  file "../Application/sensor.c",line 1047,column 9,is_stmt,isa 1
    1970 00000112 0B01F814          LDRB      A1, [V1], #1          ; [DPU_3_PIPE] |1047|  ; [KEEP 32-BIT INS]
    1971 00000116 0028F888          STRB      A1, [V5, #40]         ; [DPU_3_PIPE] |1047|  ; [KEEP 32-BIT INS]
    1972                            .dwpsn  file "../Application/sensor.c",line 1048,column 9,is_stmt,isa 1
    1973 0000011a 4620              MOV       A1, V1                ; [DPU_3_PIPE] |1048|  ; [ORIG 16-BIT INS]
    1974                    $C$DW$189       .dwtag  DW_TAG_TI_branch
    1975                            .dwattr $C$DW$189, DW_AT_low_pc(0x00)
    1976                            .dwattr $C$DW$189, DW_AT_name("Util_parseUint16")
    1977                            .dwattr $C$DW$189, DW_AT_TI_call
    1978                    
    1979 0000011c FFFEF7FF!         BL        Util_parseUint16      ; [DPU_3_PIPE] |1048|  ; [KEEP 32-BIT INS]
    1980                            ; CALL OCCURS {Util_parseUint16 }  ; [] |1048| 
TI ARM Assembler PC v16.9.9 Sun Nov 25 17:19:55 2018

Tools Copyright (c) 1996-2017 Texas Instruments Incorporated
C:\Users\Stryd\AppData\Local\Temp\{520067B0-6478-47D1-A9CE-DCA5FFBBC378} PAGE   37

    1981                            .dwpsn  file "../Application/sensor.c",line 1050,column 9,is_stmt,isa 1
    1982 00000120 1CA4              ADDS      V1, V1, #2            ; [DPU_3_PIPE] |1050|  ; [ORIG 16-BIT INS]
    1983                            .dwpsn  file "../Application/sensor.c",line 1048,column 9,is_stmt,isa 1
    1984 00000122 4605              MOV       V2, A1                ; [DPU_3_PIPE] |1048|  ; [ORIG 16-BIT INS]
    1985                            .dwpsn  file "../Application/sensor.c",line 1050,column 9,is_stmt,isa 1
    1986 00000124 4620              MOV       A1, V1                ; [DPU_3_PIPE] |1050|  ; [ORIG 16-BIT INS]
    1987                    $C$DW$190       .dwtag  DW_TAG_TI_branch
    1988                            .dwattr $C$DW$190, DW_AT_low_pc(0x00)
    1989                            .dwattr $C$DW$190, DW_AT_name("Util_parseUint32")
    1990                            .dwattr $C$DW$190, DW_AT_TI_call
    1991                    
    1992 00000126 FFFEF7FF!         BL        Util_parseUint32      ; [DPU_3_PIPE] |1050|  ; [KEEP 32-BIT INS]
    1993                            ; CALL OCCURS {Util_parseUint32 }  ; [] |1050| 
    1994 0000012a 4606              MOV       V3, A1                ; [DPU_3_PIPE] |1050|  ; [ORIG 16-BIT INS]
    1995                            .dwpsn  file "../Application/sensor.c",line 1052,column 9,is_stmt,isa 1
    1996 0000012c 1D20              ADDS      A1, V1, #4            ; [DPU_3_PIPE] |1052|  ; [ORIG 16-BIT INS]
    1997                    $C$DW$191       .dwtag  DW_TAG_TI_branch
    1998                            .dwattr $C$DW$191, DW_AT_low_pc(0x00)
    1999                            .dwattr $C$DW$191, DW_AT_name("Util_parseUint32")
    2000                            .dwattr $C$DW$191, DW_AT_TI_call
    2001                    
    2002 0000012e FFFEF7FF!         BL        Util_parseUint32      ; [DPU_3_PIPE] |1052|  ; [KEEP 32-BIT INS]
    2003                            ; CALL OCCURS {Util_parseUint32 }  ; [] |1052| 
    2004 00000132 4681              MOV       V6, A1                ; [DPU_3_PIPE] |1052|  ; [ORIG 16-BIT INS]
    2005                            .dwpsn  file "../Application/sensor.c",line 1055,column 9,is_stmt,isa 1
    2006 00000134 7A38              LDRB      A1, [V4, #8]          ; [DPU_3_PIPE] |1055|  ; [ORIG 16-BIT INS]
    2007                            .dwpsn  file "../Application/sensor.c",line 1047,column 9,is_stmt,isa 1
    2008 00000136 4644              MOV       V1, V5                ; [DPU_3_PIPE] |1047|  ; [ORIG 16-BIT INS]
    2009                            .dwpsn  file "../Application/sensor.c",line 1055,column 9,is_stmt,isa 1
    2010 00000138 0024F888          STRB      A1, [V5, #36]         ; [DPU_3_PIPE] |1055|  ; [KEEP 32-BIT INS]
    2011                            .dwpsn  file "../Application/sensor.c",line 1056,column 9,is_stmt,isa 1
    2012 0000013c 2802              CMP       A1, #2                ; [DPU_3_PIPE] |1056|  ; [ORIG 16-BIT INS]
    2013 0000013e D006              BEQ       ||$C$L16||            ; [DPU_3_PIPE] |1056|  ; [ORIG 16-BIT INS]
    2014                            ; BRANCHCC OCCURS {||$C$L16||}   ; [] |1056| 
    2015                    ;* --------------------------------------------------------------------------*
    2016                            .dwpsn  file "../Application/sensor.c",line 1062,column 13,is_stmt,isa 1
    2017 00000140 6839              LDR       A2, [V4, #0]          ; [DPU_3_PIPE] |1062|  ; [ORIG 16-BIT INS]
    2018 00000142 001CF104          ADD       A1, V1, #28           ; [DPU_3_PIPE]  ; [KEEP 32-BIT INS]
    2019 00000146 6001              STR       A2, [A1, #0]          ; [DPU_3_PIPE] |1062|  ; [ORIG 16-BIT INS]
    2020 00000148 687B              LDR       A4, [V4, #4]          ; [DPU_3_PIPE] |1062|  ; [ORIG 16-BIT INS]
    2021 0000014a 6043              STR       A4, [A1, #4]          ; [DPU_3_PIPE] |1062|  ; [ORIG 16-BIT INS]
    2022 0000014c E001              B         ||$C$L17||            ; [DPU_3_PIPE] |1062|  ; [ORIG 16-BIT INS]
    2023                            ; BRANCH OCCURS {||$C$L17||}     ; [] |1062| 
    2024                    ;* --------------------------------------------------------------------------*
    2025 0000014e           ||$C$L16||:    
    2026                            .dwpsn  file "../Application/sensor.c",line 1058,column 13,is_stmt,isa 1
    2027 0000014e 8838              LDRH      A1, [V4, #0]          ; [DPU_3_PIPE] |1058|  ; [ORIG 16-BIT INS]
    2028 00000150 83A0              STRH      A1, [V1, #28]         ; [DPU_3_PIPE] |1058|  ; [ORIG 16-BIT INS]
    2029                    ;* --------------------------------------------------------------------------*
    2030 00000152           ||$C$L17||:    
    2031                            .dwpsn  file "../Application/sensor.c",line 1206,column 9,is_stmt,isa 1
    2032 00000152 0001F005          AND       A1, V2, #1            ; [DPU_3_PIPE] |1206|  ; [KEEP 32-BIT INS]
    2033                            .dwpsn  file "../Application/sensor.c",line 1221,column 5,is_stmt,isa 1
    2034 00000156 0929              LSRS      A2, V2, #4            ; [DPU_3_PIPE] |1221|  ; [ORIG 16-BIT INS]
    2035 00000158 BF28              IT        CS                    ; [DPU_3_PIPE]  ; [ORIG 16-BIT INS]
TI ARM Assembler PC v16.9.9 Sun Nov 25 17:19:55 2018

Tools Copyright (c) 1996-2017 Texas Instruments Incorporated
C:\Users\Stryd\AppData\Local\Temp\{520067B0-6478-47D1-A9CE-DCA5FFBBC378} PAGE   38

    2036                            .dwpsn  file "../Application/sensor.c",line 1223,column 9,is_stmt,isa 1
    2037 0000015a 0008F040          ORRCS     A1, A1, #8            ; [DPU_3_PIPE] |1223|  ; [KEEP 32-BIT INS]
    2038                            .dwpsn  file "../Application/sensor.c",line 1225,column 5,is_stmt,isa 1
    2039 0000015e 0969              LSRS      A2, V2, #5            ; [DPU_3_PIPE] |1225|  ; [ORIG 16-BIT INS]
    2040 00000160 BF28              IT        CS                    ; [DPU_3_PIPE]  ; [ORIG 16-BIT INS]
    2041                            .dwpsn  file "../Application/sensor.c",line 1227,column 9,is_stmt,isa 1
    2042 00000162 0010F040          ORRCS     A1, A1, #16           ; [DPU_3_PIPE] |1227|  ; [KEEP 32-BIT INS]
    2043                            .dwpsn  file "../Application/sensor.c",line 1066,column 9,is_stmt,isa 1
    2044 00000166 8560              STRH      A1, [V1, #42]         ; [DPU_3_PIPE] |1066|  ; [ORIG 16-BIT INS]
    2045                            .dwpsn  file "../Application/sensor.c",line 1069,column 13,is_stmt,isa 1
    2046 00000168 4285              CMP       V2, A1                ; [DPU_3_PIPE] |1069|  ; [ORIG 16-BIT INS]
    2047 0000016a BF14              ITE       NE                    ; [DPU_3_PIPE]  ; [ORIG 16-BIT INS]
    2048 0000016c 2502              MOVNE     V2, #2                ; [DPU_3_PIPE] |1069|  ; [ORIG 16-BIT INS]
    2049 0000016e 2500              MOVEQ     V2, #0                ; [DPU_3_PIPE] |1069|  ; [ORIG 16-BIT INS]
    2050                            .dwpsn  file "../Application/sensor.c",line 1073,column 9,is_stmt,isa 1
    2051 00000170 7F7AF5B6          CMP       V3, #1000             ; [DPU_3_PIPE] |1073|  ; [KEEP 32-BIT INS]
    2052                            .dwpsn  file "../Application/sensor.c",line 1071,column 9,is_stmt,isa 1
    2053 00000174 0006F8AD          STRH      A1, [SP, #6]          ; [DPU_3_PIPE] |1071|  ; [KEEP 32-BIT INS]
    2054                            .dwpsn  file "../Application/sensor.c",line 1073,column 9,is_stmt,isa 1
    2055 00000178 D316              BCC       ||$C$L18||            ; [DPU_3_PIPE] |1073|  ; [ORIG 16-BIT INS]
    2056                            ; BRANCHCC OCCURS {||$C$L18||}   ; [] |1073| 
    2057                    ;* --------------------------------------------------------------------------*
    2058 0000017a 482E              LDR       A1, $C$CON7           ; [DPU_3_PIPE] |1073|  ; [ORIG 16-BIT INS]
    2059 0000017c 42B0              CMP       A1, V3                ; [DPU_3_PIPE] |1073|  ; [ORIG 16-BIT INS]
    2060 0000017e D313              BCC       ||$C$L18||            ; [DPU_3_PIPE] |1073|  ; [ORIG 16-BIT INS]
    2061                            ; BRANCHCC OCCURS {||$C$L18||}   ; [] |1073| 
    2062                    ;* --------------------------------------------------------------------------*
    2063                            .dwpsn  file "../Application/sensor.c",line 1081,column 13,is_stmt,isa 1
    2064 00000180 62E6              STR       V3, [V1, #44]         ; [DPU_3_PIPE] |1081|  ; [ORIG 16-BIT INS]
    2065                            .dwpsn  file "../Application/sensor.c",line 1085,column 17,is_stmt,isa 1
    2066                    $C$DW$192       .dwtag  DW_TAG_TI_branch
    2067                            .dwattr $C$DW$192, DW_AT_low_pc(0x00)
    2068                            .dwattr $C$DW$192, DW_AT_name("ApiMac_randomByte")
    2069                            .dwattr $C$DW$192, DW_AT_TI_call
    2070                    
    2071 00000182 FFFEF7FF!         BL        ApiMac_randomByte     ; [DPU_3_PIPE] |1085|  ; [KEEP 32-BIT INS]
    2072                            ; CALL OCCURS {ApiMac_randomByte }  ; [] |1085| 
    2073 00000186 4680              MOV       V5, A1                ; [DPU_3_PIPE] |1085|  ; [ORIG 16-BIT INS]
    2074                    $C$DW$193       .dwtag  DW_TAG_TI_branch
    2075                            .dwattr $C$DW$193, DW_AT_low_pc(0x00)
    2076                            .dwattr $C$DW$193, DW_AT_name("ApiMac_randomByte")
    2077                            .dwattr $C$DW$193, DW_AT_TI_call
    2078                    
    2079 00000188 FFFEF7FF!         BL        ApiMac_randomByte     ; [DPU_3_PIPE] |1085|  ; [KEEP 32-BIT INS]
    2080                            ; CALL OCCURS {ApiMac_randomByte }  ; [] |1085| 
    2081 0000018c 2808EB00          ADD       V5, A1, V5, LSL #8    ; [DPU_3_PIPE] |1085|  ; [KEEP 32-BIT INS]
    2082                    $C$DW$194       .dwtag  DW_TAG_TI_branch
    2083                            .dwattr $C$DW$194, DW_AT_low_pc(0x00)
    2084                            .dwattr $C$DW$194, DW_AT_name("ApiMac_randomByte")
    2085                            .dwattr $C$DW$194, DW_AT_TI_call
    2086                    
    2087 00000190 FFFEF7FF!         BL        ApiMac_randomByte     ; [DPU_3_PIPE] |1085|  ; [KEEP 32-BIT INS]
    2088                            ; CALL OCCURS {ApiMac_randomByte }  ; [] |1085| 
    2089 00000194 2008EB00          ADD       A1, A1, V5, LSL #8    ; [DPU_3_PIPE] |1085|  ; [KEEP 32-BIT INS]
    2090                            .dwpsn  file "../Application/sensor.c",line 1087,column 17,is_stmt,isa 1
TI ARM Assembler PC v16.9.9 Sun Nov 25 17:19:55 2018

Tools Copyright (c) 1996-2017 Texas Instruments Incorporated
C:\Users\Stryd\AppData\Local\Temp\{520067B0-6478-47D1-A9CE-DCA5FFBBC378} PAGE   39

    2091 00000198 F1F6FBB0          UDIV      A2, A1, V3            ; [DPU_3_PIPE] |1087|  ; [KEEP 32-BIT INS]
    2092 0000019c 4371              MULS      A2, A2, V3            ; [DPU_3_PIPE] |1087|  ; [ORIG 16-BIT INS]
    2093 0000019e 1A40              SUBS      A1, A1, A2            ; [DPU_3_PIPE] |1087|  ; [ORIG 16-BIT INS]
    2094 000001a0 300A              ADDS      A1, A1, #10           ; [DPU_3_PIPE] |1087|  ; [ORIG 16-BIT INS]
    2095                            .dwpsn  file "../Application/sensor.c",line 1089,column 17,is_stmt,isa 1
    2096                    $C$DW$195       .dwtag  DW_TAG_TI_branch
    2097                            .dwattr $C$DW$195, DW_AT_low_pc(0x00)
    2098                            .dwattr $C$DW$195, DW_AT_name("Ssf_setReadingClock")
    2099                            .dwattr $C$DW$195, DW_AT_TI_call
    2100                    
    2101 000001a2 FFFEF7FF!         BL        Ssf_setReadingClock   ; [DPU_3_PIPE] |1089|  ; [KEEP 32-BIT INS]
    2102                            ; CALL OCCURS {Ssf_setReadingClock }  ; [] |1089| 
    2103 000001a6 E000              B         ||$C$L19||            ; [DPU_3_PIPE] |1089|  ; [ORIG 16-BIT INS]
    2104                            ; BRANCH OCCURS {||$C$L19||}     ; [] |1089| 
    2105                    ;* --------------------------------------------------------------------------*
    2106 000001a8           ||$C$L18||:    
    2107                            .dwpsn  file "../Application/sensor.c",line 1076,column 13,is_stmt,isa 1
    2108 000001a8 2502              MOVS      V2, #2                ; [DPU_3_PIPE] |1076|  ; [ORIG 16-BIT INS]
    2109                    ;* --------------------------------------------------------------------------*
    2110 000001aa           ||$C$L19||:    
    2111                            .dwpsn  file "../Application/sensor.c",line 1093,column 9,is_stmt,isa 1
    2112 000001aa 6AE0              LDR       A1, [V1, #44]         ; [DPU_3_PIPE] |1093|  ; [ORIG 16-BIT INS]
    2113                            .dwpsn  file "../Application/sensor.c",line 1095,column 9,is_stmt,isa 1
    2114 000001ac 0F64F1B9          CMP       V6, #100              ; [DPU_3_PIPE] |1095|  ; [KEEP 32-BIT INS]
    2115                            .dwpsn  file "../Application/sensor.c",line 1093,column 9,is_stmt,isa 1
    2116 000001b0 9002              STR       A1, [SP, #8]          ; [DPU_3_PIPE] |1093|  ; [ORIG 16-BIT INS]
    2117                            .dwpsn  file "../Application/sensor.c",line 1095,column 9,is_stmt,isa 1
    2118 000001b2 D309              BCC       ||$C$L20||            ; [DPU_3_PIPE] |1095|  ; [ORIG 16-BIT INS]
    2119                            ; BRANCHCC OCCURS {||$C$L20||}   ; [] |1095| 
    2120                    ;* --------------------------------------------------------------------------*
    2121 000001b4 7010F242          MOV       A1, #10000            ; [DPU_3_PIPE] |1095|  ; [KEEP 32-BIT INS]
    2122 000001b8 4548              CMP       A1, V6                ; [DPU_3_PIPE] |1095|  ; [ORIG 16-BIT INS]
    2123 000001ba D305              BCC       ||$C$L20||            ; [DPU_3_PIPE] |1095|  ; [ORIG 16-BIT INS]
    2124                            ; BRANCHCC OCCURS {||$C$L20||}   ; [] |1095| 
    2125                    ;* --------------------------------------------------------------------------*
    2126                            .dwpsn  file "../Application/sensor.c",line 1102,column 13,is_stmt,isa 1
    2127 000001bc 9030F8C4          STR       V6, [V1, #48]         ; [DPU_3_PIPE] |1102|  ; [KEEP 32-BIT INS]
    2128                            .dwpsn  file "../Application/sensor.c",line 1103,column 13,is_stmt,isa 1
    2129 000001c0 4648              MOV       A1, V6                ; [DPU_3_PIPE] |1103|  ; [ORIG 16-BIT INS]
    2130                    $C$DW$196       .dwtag  DW_TAG_TI_branch
    2131                            .dwattr $C$DW$196, DW_AT_low_pc(0x00)
    2132                            .dwattr $C$DW$196, DW_AT_name("Jdllc_setPollRate")
    2133                            .dwattr $C$DW$196, DW_AT_TI_call
    2134                    
    2135 000001c2 FFFEF7FF!         BL        Jdllc_setPollRate     ; [DPU_3_PIPE] |1103|  ; [KEEP 32-BIT INS]
    2136                            ; CALL OCCURS {Jdllc_setPollRate }  ; [] |1103| 
    2137 000001c6 E000              B         ||$C$L21||            ; [DPU_3_PIPE] |1103|  ; [ORIG 16-BIT INS]
    2138                            ; BRANCH OCCURS {||$C$L21||}     ; [] |1103| 
    2139                    ;* --------------------------------------------------------------------------*
    2140 000001c8           ||$C$L20||:    
    2141                            .dwpsn  file "../Application/sensor.c",line 1098,column 13,is_stmt,isa 1
    2142 000001c8 2502              MOVS      V2, #2                ; [DPU_3_PIPE] |1098|  ; [ORIG 16-BIT INS]
    2143                    ;* --------------------------------------------------------------------------*
    2144 000001ca           ||$C$L21||:    
    2145                            .dwpsn  file "../Application/sensor.c",line 1105,column 9,is_stmt,isa 1
TI ARM Assembler PC v16.9.9 Sun Nov 25 17:19:55 2018

Tools Copyright (c) 1996-2017 Texas Instruments Incorporated
C:\Users\Stryd\AppData\Local\Temp\{520067B0-6478-47D1-A9CE-DCA5FFBBC378} PAGE   40

    2146 000001ca 6B20              LDR       A1, [V1, #48]         ; [DPU_3_PIPE] |1105|  ; [ORIG 16-BIT INS]
    2147 000001cc 9003              STR       A1, [SP, #12]         ; [DPU_3_PIPE] |1105|  ; [ORIG 16-BIT INS]
    2148 000001ce E001              B         ||$C$L23||            ; [DPU_3_PIPE] |1105|  ; [ORIG 16-BIT INS]
    2149                            ; BRANCH OCCURS {||$C$L23||}     ; [] |1105| 
    2150                    ;* --------------------------------------------------------------------------*
    2151 000001d0           ||$C$L22||:    
    2152 000001d0 4644              MOV       V1, V5                ; [DPU_3_PIPE]  ; [ORIG 16-BIT INS]
    2153                            .dwpsn  file "../Application/sensor.c",line 1033,column 31,is_stmt,isa 1
    2154 000001d2 2501              MOVS      V2, #1                ; [DPU_3_PIPE] |1033|  ; [ORIG 16-BIT INS]
    2155                    ;* --------------------------------------------------------------------------*
    2156 000001d4           ||$C$L23||:    
    2157                            .dwpsn  file "../Application/sensor.c",line 1109,column 5,is_stmt,isa 1
    2158 000001d4 2602              MOVS      V3, #2                ; [DPU_3_PIPE] |1109|  ; [ORIG 16-BIT INS]
    2159                            .dwpsn  file "../Application/sensor.c",line 1110,column 5,is_stmt,isa 1
    2160 000001d6 5005F88D          STRB      V2, [SP, #5]          ; [DPU_3_PIPE] |1110|  ; [KEEP 32-BIT INS]
    2161                            .dwpsn  file "../Application/sensor.c",line 1113,column 5,is_stmt,isa 1
    2162 000001da A801              ADD       A1, SP, #4            ; [DPU_3_PIPE] |1113|  ; [ORIG 16-BIT INS]
    2163                            .dwpsn  file "../Application/sensor.c",line 1109,column 5,is_stmt,isa 1
    2164 000001dc 6004F88D          STRB      V3, [SP, #4]          ; [DPU_3_PIPE] |1109|  ; [KEEP 32-BIT INS]
    2165                            .dwpsn  file "../Application/sensor.c",line 1113,column 5,is_stmt,isa 1
    2166                    $C$DW$197       .dwtag  DW_TAG_TI_branch
    2167                            .dwattr $C$DW$197, DW_AT_low_pc(0x00)
    2168                            .dwattr $C$DW$197, DW_AT_name("Ssf_configurationUpdate")
    2169                            .dwattr $C$DW$197, DW_AT_TI_call
    2170                    
    2171 000001e0 FFFEF7FF!         BL        Ssf_configurationUpdate ; [DPU_3_PIPE] |1113|  ; [KEEP 32-BIT INS]
    2172                            ; CALL OCCURS {Ssf_configurationUpdate }  ; [] |1113| 
    2173                            .dwpsn  file "../Application/sensor.c",line 1183,column 5,is_stmt,isa 1
    2174 000001e4 0015F10D          ADD       A1, SP, #21           ; [DPU_3_PIPE] |1183|  ; [KEEP 32-BIT INS]
    2175 000001e8 1005F89D          LDRB      A2, [SP, #5]          ; [DPU_3_PIPE] |1183|  ; [KEEP 32-BIT INS]
    2176                            .dwpsn  file "../Application/sensor.c",line 1182,column 5,is_stmt,isa 1
    2177 000001ec 6014F88D          STRB      V3, [SP, #20]         ; [DPU_3_PIPE] |1182|  ; [KEEP 32-BIT INS]
    2178                            .dwpsn  file "../Application/sensor.c",line 1183,column 5,is_stmt,isa 1
    2179                    $C$DW$198       .dwtag  DW_TAG_TI_branch
    2180                            .dwattr $C$DW$198, DW_AT_low_pc(0x00)
    2181                            .dwattr $C$DW$198, DW_AT_name("Util_bufferUint16")
    2182                            .dwattr $C$DW$198, DW_AT_TI_call
    2183                    
    2184 000001f0 FFFEF7FF!         BL        Util_bufferUint16     ; [DPU_3_PIPE] |1183|  ; [KEEP 32-BIT INS]
    2185                            ; CALL OCCURS {Util_bufferUint16 }  ; [] |1183| 
    2186                            .dwpsn  file "../Application/sensor.c",line 1184,column 5,is_stmt,isa 1
    2187 000001f4 1006F8BD          LDRH      A2, [SP, #6]          ; [DPU_3_PIPE] |1184|  ; [KEEP 32-BIT INS]
    2188                    $C$DW$199       .dwtag  DW_TAG_TI_branch
    2189                            .dwattr $C$DW$199, DW_AT_low_pc(0x00)
    2190                            .dwattr $C$DW$199, DW_AT_name("Util_bufferUint16")
    2191                            .dwattr $C$DW$199, DW_AT_TI_call
    2192                    
    2193 000001f8 FFFEF7FF!         BL        Util_bufferUint16     ; [DPU_3_PIPE] |1184|  ; [KEEP 32-BIT INS]
    2194                            ; CALL OCCURS {Util_bufferUint16 }  ; [] |1184| 
    2195                            .dwpsn  file "../Application/sensor.c",line 1185,column 5,is_stmt,isa 1
    2196 000001fc 9902              LDR       A2, [SP, #8]          ; [DPU_3_PIPE] |1185|  ; [ORIG 16-BIT INS]
    2197                    $C$DW$200       .dwtag  DW_TAG_TI_branch
    2198                            .dwattr $C$DW$200, DW_AT_low_pc(0x00)
    2199                            .dwattr $C$DW$200, DW_AT_name("Util_bufferUint32")
    2200                            .dwattr $C$DW$200, DW_AT_TI_call
TI ARM Assembler PC v16.9.9 Sun Nov 25 17:19:55 2018

Tools Copyright (c) 1996-2017 Texas Instruments Incorporated
C:\Users\Stryd\AppData\Local\Temp\{520067B0-6478-47D1-A9CE-DCA5FFBBC378} PAGE   41

    2201                    
    2202 000001fe FFFEF7FF!         BL        Util_bufferUint32     ; [DPU_3_PIPE] |1185|  ; [KEEP 32-BIT INS]
    2203                            ; CALL OCCURS {Util_bufferUint32 }  ; [] |1185| 
    2204                            .dwpsn  file "../Application/sensor.c",line 1186,column 5,is_stmt,isa 1
    2205 00000202 9903              LDR       A2, [SP, #12]         ; [DPU_3_PIPE] |1186|  ; [ORIG 16-BIT INS]
    2206                    $C$DW$201       .dwtag  DW_TAG_TI_branch
    2207                            .dwattr $C$DW$201, DW_AT_low_pc(0x00)
    2208                            .dwattr $C$DW$201, DW_AT_name("Util_bufferUint32")
    2209                            .dwattr $C$DW$201, DW_AT_TI_call
    2210                    
    2211 00000204 FFFEF7FF!         BL        Util_bufferUint32     ; [DPU_3_PIPE] |1186|  ; [KEEP 32-BIT INS]
    2212                            ; CALL OCCURS {Util_bufferUint32 }  ; [] |1186| 
    2213                            .dwpsn  file "../Application/sensor.c",line 1188,column 5,is_stmt,isa 1
    2214 00000208 A805              ADD       A1, SP, #20           ; [DPU_3_PIPE] |1188|  ; [ORIG 16-BIT INS]
    2215 0000020a 4639              MOV       A2, V4                ; [DPU_3_PIPE] |1188|  ; [ORIG 16-BIT INS]
    2216 0000020c 2201              MOVS      A3, #1                ; [DPU_3_PIPE] |1188|  ; [ORIG 16-BIT INS]
    2217 0000020e 230D              MOVS      A4, #13               ; [DPU_3_PIPE] |1188|  ; [ORIG 16-BIT INS]
    2218 00000210 9000              STR       A1, [SP, #0]          ; [DPU_3_PIPE] |1188|  ; [ORIG 16-BIT INS]
    2219 00000212 4630              MOV       A1, V3                ; [DPU_3_PIPE] |1188|  ; [ORIG 16-BIT INS]
    2220                    $C$DW$202       .dwtag  DW_TAG_TI_branch
    2221                            .dwattr $C$DW$202, DW_AT_low_pc(0x00)
    2222                            .dwattr $C$DW$202, DW_AT_name("Sensor_sendMsg")
    2223                            .dwattr $C$DW$202, DW_AT_TI_call
    2224                    
    2225 00000214 FFFEF7FF!         BL        Sensor_sendMsg        ; [DPU_3_PIPE] |1188|  ; [KEEP 32-BIT INS]
    2226                            ; CALL OCCURS {Sensor_sendMsg }  ; [] |1188| 
    2227                            .dwpsn  file "../Application/sensor.c",line 715,column 17,is_stmt,isa 1
    2228 00000218 0062F8B4          LDRH      A1, [V1, #98]         ; [DPU_3_PIPE] |715|  ; [KEEP 32-BIT INS]
    2229 0000021c 1C40              ADDS      A1, A1, #1            ; [DPU_3_PIPE] |715|  ; [ORIG 16-BIT INS]
    2230 0000021e 0062F8A4          STRH      A1, [V1, #98]         ; [DPU_3_PIPE] |715|  ; [KEEP 32-BIT INS]
    2231                    ;* --------------------------------------------------------------------------*
    2232 00000222           ||$C$L24||:    
    2233 00000222 B00B              ADD       SP, SP, #44           ; [DPU_3_PIPE]  ; [ORIG 16-BIT INS]
    2234                            .dwcfi  cfa_offset, 28
    2235                    $C$DW$203       .dwtag  DW_TAG_TI_branch
    2236                            .dwattr $C$DW$203, DW_AT_low_pc(0x00)
    2237                            .dwattr $C$DW$203, DW_AT_TI_return
    2238                    
    2239 00000224 83F0E8BD          POP       {V1, V2, V3, V4, V5, V6, PC} ; [DPU_3_PIPE]  ; [KEEP 32-BIT INS]
    2240                            .dwcfi  cfa_offset, 0
    2241                            .dwcfi  restore_reg, 9
    2242                            .dwcfi  restore_reg, 8
    2243                            .dwcfi  restore_reg, 7
    2244                            .dwcfi  restore_reg, 6
    2245                            .dwcfi  restore_reg, 5
    2246                            .dwcfi  restore_reg, 4
    2247                            ; BRANCH OCCURS                  ; [] 
    2248                            .dwattr $C$DW$163, DW_AT_TI_end_file("../Application/sensor.c")
    2249                            .dwattr $C$DW$163, DW_AT_TI_end_line(0x308)
    2250                            .dwattr $C$DW$163, DW_AT_TI_end_column(0x01)
    2251                            .dwendentry
    2252                            .dwendtag $C$DW$163
    2253                    
    2254 00000000                   .sect   ".text:dataCnfCB"
    2255                            .clink
TI ARM Assembler PC v16.9.9 Sun Nov 25 17:19:55 2018

Tools Copyright (c) 1996-2017 Texas Instruments Incorporated
C:\Users\Stryd\AppData\Local\Temp\{520067B0-6478-47D1-A9CE-DCA5FFBBC378} PAGE   42

    2256                            .thumbfunc dataCnfCB
    2257 00000000                   .thumb
    2258                    
    2259                    $C$DW$204       .dwtag  DW_TAG_subprogram
    2260                            .dwattr $C$DW$204, DW_AT_name("dataCnfCB")
    2261                            .dwattr $C$DW$204, DW_AT_low_pc(dataCnfCB)
    2262                            .dwattr $C$DW$204, DW_AT_high_pc(0x00)
    2263                            .dwattr $C$DW$204, DW_AT_TI_symbol_name("dataCnfCB")
    2264                            .dwattr $C$DW$204, DW_AT_TI_begin_file("../Application/sensor.c")
    2265                            .dwattr $C$DW$204, DW_AT_TI_begin_line(0x255)
    2266                            .dwattr $C$DW$204, DW_AT_TI_begin_column(0x0d)
    2267                            .dwattr $C$DW$204, DW_AT_decl_file("../Application/sensor.c")
    2268                            .dwattr $C$DW$204, DW_AT_decl_line(0x255)
    2269                            .dwattr $C$DW$204, DW_AT_decl_column(0x0d)
    2270                            .dwattr $C$DW$204, DW_AT_TI_max_frame_size(0x10)
    2271                            .dwpsn  file "../Application/sensor.c",line 598,column 1,is_stmt,address dataCnfCB,isa 1
    2272                    
    2273                            .dwfde $C$DW$CIE, dataCnfCB
    2274                    $C$DW$205       .dwtag  DW_TAG_formal_parameter
    2275                            .dwattr $C$DW$205, DW_AT_name("pDataCnf")
    2276                            .dwattr $C$DW$205, DW_AT_TI_symbol_name("pDataCnf")
    2277                            .dwattr $C$DW$205, DW_AT_type(*$C$DW$T$178)
    2278                            .dwattr $C$DW$205, DW_AT_location[DW_OP_reg0]
    2279                    
    2280                    
    2281                    ;*****************************************************************************
    2282                    ;* FUNCTION NAME: dataCnfCB                                                  *
    2283                    ;*                                                                           *
    2284                    ;*   Regs Modified     : A1,A2,A3,A4,V1,V2,V3,V9,SP,LR,SR                    *
    2285                    ;*   Regs Used         : A1,A2,A3,A4,V1,V2,V3,V9,SP,LR,SR                    *
    2286                    ;*   Local Frame Size  : 0 Args + 0 Auto + 16 Save = 16 byte                 *
    2287                    ;*****************************************************************************
    2288                    dataCnfCB:
    2289                    ;* --------------------------------------------------------------------------*
    2290                    ;* A2    assigned to $O$C1
    2291                    ;* V1    assigned to $O$C2
    2292                    ;* V1    assigned to $O$K4
    2293                    ;* A2    assigned to $O$U74
    2294                    ;* V3    assigned to $O$v7
    2295                    ;* A2    assigned to $O$v6
    2296                    ;* A1    assigned to $O$v5
    2297                    ;* A1    assigned to $O$v4
    2298                    ;* A1    assigned to $O$v3
    2299                    ;* A2    assigned to $O$v2
    2300                    ;* V2    assigned to pDataCnf
    2301                    $C$DW$206       .dwtag  DW_TAG_variable
    2302                            .dwattr $C$DW$206, DW_AT_name("pDataCnf")
    2303                            .dwattr $C$DW$206, DW_AT_TI_symbol_name("pDataCnf")
    2304                            .dwattr $C$DW$206, DW_AT_type(*$C$DW$T$622)
    2305                            .dwattr $C$DW$206, DW_AT_location[DW_OP_reg5]
    2306                    
    2307                    ;* A1    assigned to endToEndDelay
    2308                    $C$DW$207       .dwtag  DW_TAG_variable
    2309                            .dwattr $C$DW$207, DW_AT_name("endToEndDelay")
    2310                            .dwattr $C$DW$207, DW_AT_TI_symbol_name("endToEndDelay")
TI ARM Assembler PC v16.9.9 Sun Nov 25 17:19:55 2018

Tools Copyright (c) 1996-2017 Texas Instruments Incorporated
C:\Users\Stryd\AppData\Local\Temp\{520067B0-6478-47D1-A9CE-DCA5FFBBC378} PAGE   43

    2311                            .dwattr $C$DW$207, DW_AT_type(*$C$DW$T$30)
    2312                            .dwattr $C$DW$207, DW_AT_location[DW_OP_reg0]
    2313                    
    2314                            .dwcfi  cfa_offset, 0
    2315 00000000 B570              PUSH      {V1, V2, V3, LR}      ; [DPU_3_PIPE]  ; [ORIG 16-BIT INS]
    2316                            .dwcfi  cfa_offset, 16
    2317                            .dwcfi  save_reg_to_mem, 14, -4
    2318                            .dwcfi  save_reg_to_mem, 6, -8
    2319                            .dwcfi  save_reg_to_mem, 5, -12
    2320                            .dwcfi  save_reg_to_mem, 4, -16
    2321 00000002 4605              MOV       V2, A1                ; [DPU_3_PIPE] |598|  ; [ORIG 16-BIT INS]
    2322                            .dwpsn  file "../Application/sensor.c",line 601,column 5,is_stmt,isa 1
    2323 00000004 4C38              LDR       V1, $C$CON10          ; [DPU_3_PIPE] |601|  ; [ORIG 16-BIT INS]
    2324 00000006 7829              LDRB      A2, [V2, #0]          ; [DPU_3_PIPE] |601|  ; [ORIG 16-BIT INS]
    2325 00000008 0068F8B4          LDRH      A1, [V1, #104]        ; [DPU_3_PIPE] |601|  ; [KEEP 32-BIT INS]
    2326 0000000c 29E1              CMP       A2, #225              ; [DPU_3_PIPE] |601|  ; [ORIG 16-BIT INS]
    2327 0000000e D018              BEQ       ||$C$L27||            ; [DPU_3_PIPE] |601|  ; [ORIG 16-BIT INS]
    2328                            ; BRANCHCC OCCURS {||$C$L27||}   ; [] |601| 
    2329                    ;* --------------------------------------------------------------------------*
    2330                            .dwpsn  file "../Application/sensor.c",line 605,column 10,is_stmt,isa 1
    2331 00000010 006AF8B4          LDRH      A1, [V1, #106]        ; [DPU_3_PIPE] |605|  ; [KEEP 32-BIT INS]
    2332 00000014 29E9              CMP       A2, #233              ; [DPU_3_PIPE] |605|  ; [ORIG 16-BIT INS]
    2333 00000016 D00F              BEQ       ||$C$L26||            ; [DPU_3_PIPE] |605|  ; [ORIG 16-BIT INS]
    2334                            ; BRANCHCC OCCURS {||$C$L26||}   ; [] |605| 
    2335                    ;* --------------------------------------------------------------------------*
    2336                            .dwpsn  file "../Application/sensor.c",line 612,column 10,is_stmt,isa 1
    2337 00000018 006CF8B4          LDRH      A1, [V1, #108]        ; [DPU_3_PIPE] |612|  ; [KEEP 32-BIT INS]
    2338 0000001c B921              CBNZ      A2, ||$C$L25||        ; []  ; [ORIG 16-BIT INS]
    2339                            ; BRANCHCC OCCURS {||$C$L25||}   ; [] |612| 
    2340                    ;* --------------------------------------------------------------------------*
    2341                            .dwpsn  file "../Application/sensor.c",line 622,column 9,is_stmt,isa 1
    2342 0000001e 6929              LDR       A2, [V2, #16]         ; [DPU_3_PIPE] |622|  ; [ORIG 16-BIT INS]
    2343 00000020 2000              MOVS      A1, #0                ; [DPU_3_PIPE] |622|  ; [ORIG 16-BIT INS]
    2344                    $C$DW$208       .dwtag  DW_TAG_TI_branch
    2345                            .dwattr $C$DW$208, DW_AT_low_pc(0x00)
    2346                            .dwattr $C$DW$208, DW_AT_name("Ssf_updateFrameCounter")
    2347                            .dwattr $C$DW$208, DW_AT_TI_call
    2348                    
    2349 00000022 FFFEF7FF!         BL        Ssf_updateFrameCounter ; [DPU_3_PIPE] |622|  ; [KEEP 32-BIT INS]
    2350                            ; CALL OCCURS {Ssf_updateFrameCounter }  ; [] |622| 
    2351 00000026 E010              B         ||$C$L28||            ; [DPU_3_PIPE] |622|  ; [ORIG 16-BIT INS]
    2352                            ; BRANCH OCCURS {||$C$L28||}     ; [] |622| 
    2353                    ;* --------------------------------------------------------------------------*
    2354 00000028           ||$C$L25||:    
    2355                            .dwpsn  file "../Application/sensor.c",line 614,column 9,is_stmt,isa 1
    2356 00000028 1C40              ADDS      A1, A1, #1            ; [DPU_3_PIPE] |614|  ; [ORIG 16-BIT INS]
    2357 0000002a B280              UXTH      A1, A1                ; [DPU_3_PIPE] |614|  ; [ORIG 16-BIT INS]
    2358 0000002c 006CF8A4          STRH      A1, [V1, #108]        ; [DPU_3_PIPE] |614|  ; [KEEP 32-BIT INS]
    2359                            .dwpsn  file "../Application/sensor.c",line 618,column 9,is_stmt,isa 1
    2360 00000030 A02A              ADR       A1, $C$SL1            ; [DPU_3_PIPE] |618|  ; [ORIG 16-BIT INS]
    2361                    $C$DW$209       .dwtag  DW_TAG_TI_branch
    2362                            .dwattr $C$DW$209, DW_AT_low_pc(0x00)
    2363                            .dwattr $C$DW$209, DW_AT_name("Ssf_displayError")
    2364                            .dwattr $C$DW$209, DW_AT_TI_call
    2365                    
TI ARM Assembler PC v16.9.9 Sun Nov 25 17:19:55 2018

Tools Copyright (c) 1996-2017 Texas Instruments Incorporated
C:\Users\Stryd\AppData\Local\Temp\{520067B0-6478-47D1-A9CE-DCA5FFBBC378} PAGE   44

    2366 00000032 FFFEF7FF!         BL        Ssf_displayError      ; [DPU_3_PIPE] |618|  ; [KEEP 32-BIT INS]
    2367                            ; CALL OCCURS {Ssf_displayError }  ; [] |618| 
    2368                            .dwpsn  file "../Application/sensor.c",line 619,column 5,is_stmt,isa 1
    2369 00000036 E008              B         ||$C$L28||            ; [DPU_3_PIPE] |619|  ; [ORIG 16-BIT INS]
    2370                            ; BRANCH OCCURS {||$C$L28||}     ; [] |619| 
    2371                    ;* --------------------------------------------------------------------------*
    2372 00000038           ||$C$L26||:    
    2373                            .dwpsn  file "../Application/sensor.c",line 607,column 9,is_stmt,isa 1
    2374 00000038 1C40              ADDS      A1, A1, #1            ; [DPU_3_PIPE] |607|  ; [ORIG 16-BIT INS]
    2375 0000003a B280              UXTH      A1, A1                ; [DPU_3_PIPE] |607|  ; [ORIG 16-BIT INS]
    2376 0000003c 006AF8A4          STRH      A1, [V1, #106]        ; [DPU_3_PIPE] |607|  ; [KEEP 32-BIT INS]
    2377                            .dwpsn  file "../Application/sensor.c",line 611,column 5,is_stmt,isa 1
    2378 00000040 E003              B         ||$C$L28||            ; [DPU_3_PIPE] |611|  ; [ORIG 16-BIT INS]
    2379                            ; BRANCH OCCURS {||$C$L28||}     ; [] |611| 
    2380                    ;* --------------------------------------------------------------------------*
    2381 00000042           ||$C$L27||:    
    2382                            .dwpsn  file "../Application/sensor.c",line 603,column 9,is_stmt,isa 1
    2383 00000042 1C40              ADDS      A1, A1, #1            ; [DPU_3_PIPE] |603|  ; [ORIG 16-BIT INS]
    2384 00000044 B280              UXTH      A1, A1                ; [DPU_3_PIPE] |603|  ; [ORIG 16-BIT INS]
    2385 00000046 0068F8A4          STRH      A1, [V1, #104]        ; [DPU_3_PIPE] |603|  ; [KEEP 32-BIT INS]
    2386                    ;* --------------------------------------------------------------------------*
    2387 0000004a           ||$C$L28||:    
    2388                            .dwpsn  file "../Application/sensor.c",line 626,column 5,is_stmt,isa 1
    2389 0000004a 7869              LDRB      A2, [V2, #1]          ; [DPU_3_PIPE] |626|  ; [ORIG 16-BIT INS]
    2390 0000004c 007FF031          BICS      A1, A2, #127          ; [DPU_3_PIPE] |626|  ; [KEEP 32-BIT INS]
    2391 00000050 D042              BEQ       ||$C$L33||            ; [DPU_3_PIPE] |626|  ; [ORIG 16-BIT INS]
    2392                            ; BRANCHCC OCCURS {||$C$L33||}   ; [] |626| 
    2393                    ;* --------------------------------------------------------------------------*
    2394                            .dwpsn  file "../Application/sensor.c",line 629,column 9,is_stmt,isa 1
    2395 00000052 0060F001          AND       A1, A2, #96           ; [DPU_3_PIPE] |629|  ; [KEEP 32-BIT INS]
    2396 00000056 2840              CMP       A1, #64               ; [DPU_3_PIPE] |629|  ; [ORIG 16-BIT INS]
    2397 00000058 D12A              BNE       ||$C$L31||            ; [DPU_3_PIPE] |629|  ; [ORIG 16-BIT INS]
    2398                            ; BRANCHCC OCCURS {||$C$L31||}   ; [] |629| 
    2399                    ;* --------------------------------------------------------------------------*
    2400                            .dwpsn  file "../Application/sensor.c",line 632,column 13,is_stmt,isa 1
    2401 0000005a 7828              LDRB      A1, [V2, #0]          ; [DPU_3_PIPE] |632|  ; [ORIG 16-BIT INS]
    2402 0000005c BB40              CBNZ      A1, ||$C$L31||        ; []  ; [ORIG 16-BIT INS]
    2403                            ; BRANCHCC OCCURS {||$C$L31||}   ; [] |632| 
    2404                    ;* --------------------------------------------------------------------------*
    2405                            .dwpsn  file "../Application/sensor.c",line 634,column 17,is_stmt,isa 1
    2406 0000005e 005AF8B4          LDRH      A1, [V1, #90]         ; [DPU_3_PIPE] |634|  ; [KEEP 32-BIT INS]
    2407                            .dwpsn  file "../Application/sensor.c",line 639,column 17,is_stmt,isa 1
    2408 00000062 6926              LDR       V3, [V1, #16]         ; [DPU_3_PIPE] |639|  ; [ORIG 16-BIT INS]
    2409                            .dwpsn  file "../Application/sensor.c",line 634,column 17,is_stmt,isa 1
    2410 00000064 1C40              ADDS      A1, A1, #1            ; [DPU_3_PIPE] |634|  ; [ORIG 16-BIT INS]
    2411 00000066 005AF8A4          STRH      A1, [V1, #90]         ; [DPU_3_PIPE] |634|  ; [KEEP 32-BIT INS]
    2412                            .dwpsn  file "../Application/sensor.c",line 639,column 17,is_stmt,isa 1
    2413                    $C$DW$210       .dwtag  DW_TAG_TI_branch
    2414                            .dwattr $C$DW$210, DW_AT_low_pc(0x00)
    2415                            .dwattr $C$DW$210, DW_AT_name("ICall_getTicks")
    2416                            .dwattr $C$DW$210, DW_AT_TI_call
    2417                    
    2418 0000006a FFFEF7FF!         BL        ICall_getTicks        ; [DPU_3_PIPE] |639|  ; [KEEP 32-BIT INS]
    2419                            ; CALL OCCURS {ICall_getTicks }  ; [] |639| 
    2420 0000006e 4286              CMP       V3, A1                ; [DPU_3_PIPE] |639|  ; [ORIG 16-BIT INS]
TI ARM Assembler PC v16.9.9 Sun Nov 25 17:19:55 2018

Tools Copyright (c) 1996-2017 Texas Instruments Incorporated
C:\Users\Stryd\AppData\Local\Temp\{520067B0-6478-47D1-A9CE-DCA5FFBBC378} PAGE   45

    2421 00000070 D803              BHI       ||$C$L29||            ; [DPU_3_PIPE] |639|  ; [ORIG 16-BIT INS]
    2422                            ; BRANCHCC OCCURS {||$C$L29||}   ; [] |639| 
    2423                    ;* --------------------------------------------------------------------------*
    2424                            .dwpsn  file "../Application/sensor.c",line 646,column 21,is_stmt,isa 1
    2425                    $C$DW$211       .dwtag  DW_TAG_TI_branch
    2426                            .dwattr $C$DW$211, DW_AT_low_pc(0x00)
    2427                            .dwattr $C$DW$211, DW_AT_name("ICall_getTicks")
    2428                            .dwattr $C$DW$211, DW_AT_TI_call
    2429                    
    2430 00000072 FFFEF7FF!         BL        ICall_getTicks        ; [DPU_3_PIPE] |646|  ; [KEEP 32-BIT INS]
    2431                            ; CALL OCCURS {ICall_getTicks }  ; [] |646| 
    2432 00000076 1B80              SUBS      A1, A1, V3            ; [DPU_3_PIPE] |646|  ; [ORIG 16-BIT INS]
    2433 00000078 E003              B         ||$C$L30||            ; [DPU_3_PIPE] |646|  ; [ORIG 16-BIT INS]
    2434                            ; BRANCH OCCURS {||$C$L30||}     ; [] |646| 
    2435                    ;* --------------------------------------------------------------------------*
    2436 0000007a           ||$C$L29||:    
    2437                            .dwpsn  file "../Application/sensor.c",line 641,column 21,is_stmt,isa 1
    2438                    $C$DW$212       .dwtag  DW_TAG_TI_branch
    2439                            .dwattr $C$DW$212, DW_AT_low_pc(0x00)
    2440                            .dwattr $C$DW$212, DW_AT_name("ICall_getTicks")
    2441                            .dwattr $C$DW$212, DW_AT_TI_call
    2442                    
    2443 0000007a FFFEF7FF!         BL        ICall_getTicks        ; [DPU_3_PIPE] |641|  ; [KEEP 32-BIT INS]
    2444                            ; CALL OCCURS {ICall_getTicks }  ; [] |641| 
    2445 0000007e 1B80              SUBS      A1, A1, V3            ; [DPU_3_PIPE] |641|  ; [ORIG 16-BIT INS]
    2446 00000080 1E40              SUBS      A1, A1, #1            ; [DPU_3_PIPE] |641|  ; [ORIG 16-BIT INS]
    2447                    ;* --------------------------------------------------------------------------*
    2448 00000082           ||$C$L30||:    
    2449                            .dwpsn  file "../Application/sensor.c",line 650,column 17,is_stmt,isa 1
    2450 00000082 6082F8B4          LDRH      V3, [V1, #130]        ; [DPU_3_PIPE] |650|  ; [KEEP 32-BIT INS]
    2451                            .dwpsn  file "../Application/sensor.c",line 641,column 21,is_stmt,isa 1
    2452 00000086 B280              UXTH      A1, A1                ; [DPU_3_PIPE] |641|  ; [ORIG 16-BIT INS]
    2453                            .dwpsn  file "../Application/sensor.c",line 650,column 17,is_stmt,isa 1
    2454 00000088 2164              MOVS      A2, #100              ; [DPU_3_PIPE] |650|  ; [ORIG 16-BIT INS]
    2455 0000008a F0F1FBB0          UDIV      A1, A1, A2            ; [DPU_3_PIPE] |650|  ; [KEEP 32-BIT INS]
    2456 0000008e B280              UXTH      A1, A1                ; [DPU_3_PIPE] |650|  ; [ORIG 16-BIT INS]
    2457 00000090 42B0              CMP       A1, V3                ; [DPU_3_PIPE] |650|  ; [ORIG 16-BIT INS]
    2458 00000092 BFA8              IT        GE                    ; [DPU_3_PIPE]  ; [ORIG 16-BIT INS]
    2459 00000094 0082F8A4          STRHGE    A1, [V1, #130]        ; [DPU_3_PIPE] |650|  ; [KEEP 32-BIT INS]
    2460                            .dwpsn  file "../Application/sensor.c",line 653,column 17,is_stmt,isa 1
    2461 00000098 105AF8B4          LDRH      A2, [V1, #90]         ; [DPU_3_PIPE] |653|  ; [KEEP 32-BIT INS]
    2462 0000009c 3080F8B4          LDRH      A4, [V1, #128]        ; [DPU_3_PIPE] |653|  ; [KEEP 32-BIT INS]
    2463 000000a0 1E4A              SUBS      A3, A2, #1            ; [DPU_3_PIPE] |653|  ; [ORIG 16-BIT INS]
    2464 000000a2 0003FB02          MLA       A1, A3, A4, A1        ; [DPU_3_PIPE] |653|  ; [KEEP 32-BIT INS]
    2465 000000a6 F0F1FBB0          UDIV      A1, A1, A2            ; [DPU_3_PIPE] |653|  ; [KEEP 32-BIT INS]
    2466 000000aa 0080F8A4          STRH      A1, [V1, #128]        ; [DPU_3_PIPE] |653|  ; [KEEP 32-BIT INS]
    2467 000000ae 7869              LDRB      A2, [V2, #1]          ; [DPU_3_PIPE] |653|  ; [ORIG 16-BIT INS]
    2468                    ;* --------------------------------------------------------------------------*
    2469 000000b0           ||$C$L31||:    
    2470                            .dwpsn  file "../Application/sensor.c",line 668,column 9,is_stmt,isa 1
    2471 000000b0 0160F001          AND       A2, A2, #96           ; [DPU_3_PIPE] |668|  ; [KEEP 32-BIT INS]
    2472 000000b4 2920              CMP       A2, #32               ; [DPU_3_PIPE] |668|  ; [ORIG 16-BIT INS]
    2473 000000b6 D106              BNE       ||$C$L32||            ; [DPU_3_PIPE] |668|  ; [ORIG 16-BIT INS]
    2474                            ; BRANCHCC OCCURS {||$C$L32||}   ; [] |668| 
    2475                    ;* --------------------------------------------------------------------------*
TI ARM Assembler PC v16.9.9 Sun Nov 25 17:19:55 2018

Tools Copyright (c) 1996-2017 Texas Instruments Incorporated
C:\Users\Stryd\AppData\Local\Temp\{520067B0-6478-47D1-A9CE-DCA5FFBBC378} PAGE   46

    2476                            .dwpsn  file "../Application/sensor.c",line 671,column 13,is_stmt,isa 1
    2477 000000b8 7828              LDRB      A1, [V2, #0]          ; [DPU_3_PIPE] |671|  ; [ORIG 16-BIT INS]
    2478 000000ba B920              CBNZ      A1, ||$C$L32||        ; []  ; [ORIG 16-BIT INS]
    2479                            ; BRANCHCC OCCURS {||$C$L32||}   ; [] |671| 
    2480                    ;* --------------------------------------------------------------------------*
    2481                            .dwpsn  file "../Application/sensor.c",line 673,column 17,is_stmt,isa 1
    2482 000000bc 0060F8B4          LDRH      A1, [V1, #96]         ; [DPU_3_PIPE] |673|  ; [KEEP 32-BIT INS]
    2483 000000c0 1C40              ADDS      A1, A1, #1            ; [DPU_3_PIPE] |673|  ; [ORIG 16-BIT INS]
    2484 000000c2 0060F8A4          STRH      A1, [V1, #96]         ; [DPU_3_PIPE] |673|  ; [KEEP 32-BIT INS]
    2485                    ;* --------------------------------------------------------------------------*
    2486 000000c6           ||$C$L32||:    
    2487                            .dwpsn  file "../Application/sensor.c",line 676,column 9,is_stmt,isa 1
    2488 000000c6 2960              CMP       A2, #96               ; [DPU_3_PIPE] |676|  ; [ORIG 16-BIT INS]
    2489 000000c8 D106              BNE       ||$C$L33||            ; [DPU_3_PIPE] |676|  ; [ORIG 16-BIT INS]
    2490                            ; BRANCHCC OCCURS {||$C$L33||}   ; [] |676| 
    2491                    ;* --------------------------------------------------------------------------*
    2492                            .dwpsn  file "../Application/sensor.c",line 679,column 13,is_stmt,isa 1
    2493 000000ca 7828              LDRB      A1, [V2, #0]          ; [DPU_3_PIPE] |679|  ; [ORIG 16-BIT INS]
    2494 000000cc B920              CBNZ      A1, ||$C$L33||        ; []  ; [ORIG 16-BIT INS]
    2495                            ; BRANCHCC OCCURS {||$C$L33||}   ; [] |679| 
    2496                    ;* --------------------------------------------------------------------------*
    2497                            .dwpsn  file "../Application/sensor.c",line 681,column 17,is_stmt,isa 1
    2498 000000ce 0066F8B4          LDRH      A1, [V1, #102]        ; [DPU_3_PIPE] |681|  ; [KEEP 32-BIT INS]
    2499 000000d2 1C40              ADDS      A1, A1, #1            ; [DPU_3_PIPE] |681|  ; [ORIG 16-BIT INS]
    2500 000000d4 0066F8A4          STRH      A1, [V1, #102]        ; [DPU_3_PIPE] |681|  ; [KEEP 32-BIT INS]
    2501                    ;* --------------------------------------------------------------------------*
    2502                    ||$C$L33||:    
    2503                    $C$DW$213       .dwtag  DW_TAG_TI_branch
    2504                            .dwattr $C$DW$213, DW_AT_low_pc(0x00)
    2505                            .dwattr $C$DW$213, DW_AT_TI_return
    2506                    
    2507 000000d8 BD70              POP       {V1, V2, V3, PC}      ; [DPU_3_PIPE]  ; [ORIG 16-BIT INS]
    2508                            .dwcfi  cfa_offset, 0
    2509                            .dwcfi  restore_reg, 6
    2510                            .dwcfi  restore_reg, 5
    2511                            .dwcfi  restore_reg, 4
    2512                            ; BRANCH OCCURS                  ; [] 
    2513                            .dwattr $C$DW$204, DW_AT_TI_end_file("../Application/sensor.c")
    2514                            .dwattr $C$DW$204, DW_AT_TI_end_line(0x2ad)
    2515                            .dwattr $C$DW$204, DW_AT_TI_end_column(0x01)
    2516                            .dwendentry
    2517                            .dwendtag $C$DW$204
    2518                    
    2519 00000000                   .sect   ".text:ICall_getTicks"
    2520                            .clink
    2521                            .thumbfunc ICall_getTicks
    2522 00000000                   .thumb
    2523                    
    2524                    $C$DW$214       .dwtag  DW_TAG_subprogram
    2525                            .dwattr $C$DW$214, DW_AT_name("ICall_getTicks")
    2526                            .dwattr $C$DW$214, DW_AT_low_pc(ICall_getTicks)
    2527                            .dwattr $C$DW$214, DW_AT_high_pc(0x00)
    2528                            .dwattr $C$DW$214, DW_AT_TI_symbol_name("ICall_getTicks")
    2529                            .dwattr $C$DW$214, DW_AT_type(*$C$DW$T$320)
    2530                            .dwattr $C$DW$214, DW_AT_TI_begin_file("C:/ti/simplelink_cc13x0_sdk_2_30_00_20/source/ti/ti154
TI ARM Assembler PC v16.9.9 Sun Nov 25 17:19:55 2018

Tools Copyright (c) 1996-2017 Texas Instruments Incorporated
C:\Users\Stryd\AppData\Local\Temp\{520067B0-6478-47D1-A9CE-DCA5FFBBC378} PAGE   47

    2531                            .dwattr $C$DW$214, DW_AT_TI_begin_line(0x8ac)
    2532                            .dwattr $C$DW$214, DW_AT_TI_begin_column(0x01)
    2533                            .dwattr $C$DW$214, DW_AT_decl_file("C:/ti/simplelink_cc13x0_sdk_2_30_00_20/source/ti/ti154stac
    2534                            .dwattr $C$DW$214, DW_AT_decl_line(0x8ac)
    2535                            .dwattr $C$DW$214, DW_AT_decl_column(0x01)
    2536                            .dwattr $C$DW$214, DW_AT_TI_max_frame_size(0x10)
    2537                            .dwpsn  file "C:/ti/simplelink_cc13x0_sdk_2_30_00_20/source/ti/ti154stack/icall/src/inc/icall.
    2538                    
    2539                            .dwfde $C$DW$CIE, ICall_getTicks
    2540                    
    2541                    ;*****************************************************************************
    2542                    ;* FUNCTION NAME: ICall_getTicks                                             *
    2543                    ;*                                                                           *
    2544                    ;*   Regs Modified     : A1,A2,A3,A4,V9,SP,LR,SR                             *
    2545                    ;*   Regs Used         : A1,A2,A3,A4,V9,SP,LR,SR                             *
    2546                    ;*   Local Frame Size  : 0 Args + 8 Auto + 4 Save = 12 byte                  *
    2547                    ;*****************************************************************************
    2548                    ICall_getTicks:
    2549                    ;* --------------------------------------------------------------------------*
    2550                    $C$DW$215       .dwtag  DW_TAG_variable
    2551                            .dwattr $C$DW$215, DW_AT_name("args")
    2552                            .dwattr $C$DW$215, DW_AT_TI_symbol_name("args")
    2553                            .dwattr $C$DW$215, DW_AT_type(*$C$DW$T$660)
    2554                            .dwattr $C$DW$215, DW_AT_location[DW_OP_breg13 0]
    2555                    
    2556                            .dwcfi  cfa_offset, 0
    2557 00000000 B50E              PUSH      {A2, A3, A4, LR}      ; [DPU_3_PIPE]  ; [ORIG 16-BIT INS]
    2558                            .dwcfi  cfa_offset, 16
    2559                            .dwcfi  save_reg_to_mem, 14, -4
    2560                            .dwcfi  save_reg_to_mem, 3, -8
    2561                            .dwcfi  save_reg_to_mem, 2, -12
    2562                            .dwcfi  save_reg_to_mem, 1, -16
    2563                            .dwpsn  file "C:/ti/simplelink_cc13x0_sdk_2_30_00_20/source/ti/ti154stack/icall/src/inc/icall.
    2564 00000002 2008              MOVS      A1, #8                ; [DPU_3_PIPE] |2223|  ; [ORIG 16-BIT INS]
    2565 00000004 0000F8AD          STRH      A1, [SP, #0]          ; [DPU_3_PIPE] |2223|  ; [KEEP 32-BIT INS]
    2566                            .dwpsn  file "C:/ti/simplelink_cc13x0_sdk_2_30_00_20/source/ti/ti154stack/icall/src/inc/icall.
    2567 00000008 2012              MOVS      A1, #18               ; [DPU_3_PIPE] |2224|  ; [ORIG 16-BIT INS]
    2568 0000000a 0002F8AD          STRH      A1, [SP, #2]          ; [DPU_3_PIPE] |2224|  ; [KEEP 32-BIT INS]
    2569                            .dwpsn  file "C:/ti/simplelink_cc13x0_sdk_2_30_00_20/source/ti/ti154stack/icall/src/inc/icall.
    2570 0000000e 4803              LDR       A1, $C$CON11          ; [DPU_3_PIPE] |2225|  ; [ORIG 16-BIT INS]
    2571 00000010 6801              LDR       A2, [A1, #0]          ; [DPU_3_PIPE] |2225|  ; [ORIG 16-BIT INS]
    2572 00000012 4668              MOV       A1, SP                ; [DPU_3_PIPE] |2225|  ; [ORIG 16-BIT INS]
    2573                    $C$DW$216       .dwtag  DW_TAG_TI_branch
    2574                            .dwattr $C$DW$216, DW_AT_low_pc(0x00)
    2575                            .dwattr $C$DW$216, DW_AT_TI_call
    2576                            .dwattr $C$DW$216, DW_AT_TI_indirect
    2577                    
    2578 00000014 4788              BLX       A2                    ; [DPU_3_PIPE] |2225|  ; [ORIG 16-BIT INS]
    2579                            ; CALL OCCURS {}                 ; [] |2225| 
    2580                            .dwpsn  file "C:/ti/simplelink_cc13x0_sdk_2_30_00_20/source/ti/ti154stack/icall/src/inc/icall.
    2581 00000016 9801              LDR       A1, [SP, #4]          ; [DPU_3_PIPE] |2226|  ; [ORIG 16-BIT INS]
    2582                    $C$DW$217       .dwtag  DW_TAG_TI_branch
    2583                            .dwattr $C$DW$217, DW_AT_low_pc(0x00)
    2584                            .dwattr $C$DW$217, DW_AT_TI_return
    2585                    
TI ARM Assembler PC v16.9.9 Sun Nov 25 17:19:55 2018

Tools Copyright (c) 1996-2017 Texas Instruments Incorporated
C:\Users\Stryd\AppData\Local\Temp\{520067B0-6478-47D1-A9CE-DCA5FFBBC378} PAGE   48

    2586 00000018 BD0E              POP       {A2, A3, A4, PC}      ; [DPU_3_PIPE]  ; [ORIG 16-BIT INS]
    2587                            .dwcfi  cfa_offset, 0
    2588                            .dwcfi  restore_reg, 3
    2589                            .dwcfi  restore_reg, 2
    2590                            .dwcfi  restore_reg, 1
    2591                            ; BRANCH OCCURS                  ; [] 
    2592                            .dwattr $C$DW$214, DW_AT_TI_end_file("C:/ti/simplelink_cc13x0_sdk_2_30_00_20/source/ti/ti154st
    2593                            .dwattr $C$DW$214, DW_AT_TI_end_line(0x8b3)
    2594                            .dwattr $C$DW$214, DW_AT_TI_end_column(0x01)
    2595                            .dwendentry
    2596                            .dwendtag $C$DW$214
    2597                    
    2598 00000000                   .sect   ".text:jdllcJoinedCb"
    2599                            .clink
    2600                            .thumbfunc jdllcJoinedCb
    2601 00000000                   .thumb
    2602                    
    2603                    $C$DW$218       .dwtag  DW_TAG_subprogram
    2604                            .dwattr $C$DW$218, DW_AT_name("jdllcJoinedCb")
    2605                            .dwattr $C$DW$218, DW_AT_low_pc(jdllcJoinedCb)
    2606                            .dwattr $C$DW$218, DW_AT_high_pc(0x00)
    2607                            .dwattr $C$DW$218, DW_AT_TI_symbol_name("jdllcJoinedCb")
    2608                            .dwattr $C$DW$218, DW_AT_TI_begin_file("../Application/sensor.c")
    2609                            .dwattr $C$DW$218, DW_AT_TI_begin_line(0x4d8)
    2610                            .dwattr $C$DW$218, DW_AT_TI_begin_column(0x0d)
    2611                            .dwattr $C$DW$218, DW_AT_decl_file("../Application/sensor.c")
    2612                            .dwattr $C$DW$218, DW_AT_decl_line(0x4d8)
    2613                            .dwattr $C$DW$218, DW_AT_decl_column(0x0d)
    2614                            .dwattr $C$DW$218, DW_AT_TI_max_frame_size(0x18)
    2615                            .dwpsn  file "../Application/sensor.c",line 1242,column 1,is_stmt,address jdllcJoinedCb,isa 1
    2616                    
    2617                            .dwfde $C$DW$CIE, jdllcJoinedCb
    2618                    $C$DW$219       .dwtag  DW_TAG_formal_parameter
    2619                            .dwattr $C$DW$219, DW_AT_name("pDevInfo")
    2620                            .dwattr $C$DW$219, DW_AT_TI_symbol_name("pDevInfo")
    2621                            .dwattr $C$DW$219, DW_AT_type(*$C$DW$T$67)
    2622                            .dwattr $C$DW$219, DW_AT_location[DW_OP_reg0]
    2623                    
    2624                    $C$DW$220       .dwtag  DW_TAG_formal_parameter
    2625                            .dwattr $C$DW$220, DW_AT_name("pParentInfo")
    2626                            .dwattr $C$DW$220, DW_AT_TI_symbol_name("pParentInfo")
    2627                            .dwattr $C$DW$220, DW_AT_type(*$C$DW$T$69)
    2628                            .dwattr $C$DW$220, DW_AT_location[DW_OP_reg1]
    2629                    
    2630                    
    2631                    ;*****************************************************************************
    2632                    ;* FUNCTION NAME: jdllcJoinedCb                                              *
    2633                    ;*                                                                           *
    2634                    ;*   Regs Modified     : A1,A2,A3,A4,V1,V2,V3,V4,V9,SP,LR,SR                 *
    2635                    ;*   Regs Used         : A1,A2,A3,A4,V1,V2,V3,V4,V9,SP,LR,SR                 *
    2636                    ;*   Local Frame Size  : 0 Args + 0 Auto + 20 Save = 20 byte                 *
    2637                    ;*****************************************************************************
    2638                    jdllcJoinedCb:
    2639                    ;* --------------------------------------------------------------------------*
    2640                    ;* V1    assigned to $O$C1
TI ARM Assembler PC v16.9.9 Sun Nov 25 17:19:55 2018

Tools Copyright (c) 1996-2017 Texas Instruments Incorporated
C:\Users\Stryd\AppData\Local\Temp\{520067B0-6478-47D1-A9CE-DCA5FFBBC378} PAGE   49

    2641                    ;* V1    assigned to $O$K4
    2642                    ;* V2    assigned to $O$v1
    2643                    ;* V3    assigned to pDevInfo
    2644                    $C$DW$221       .dwtag  DW_TAG_variable
    2645                            .dwattr $C$DW$221, DW_AT_name("pDevInfo")
    2646                            .dwattr $C$DW$221, DW_AT_TI_symbol_name("pDevInfo")
    2647                            .dwattr $C$DW$221, DW_AT_type(*$C$DW$T$617)
    2648                            .dwattr $C$DW$221, DW_AT_location[DW_OP_reg6]
    2649                    
    2650                    ;* V2    assigned to pParentInfo
    2651                    $C$DW$222       .dwtag  DW_TAG_variable
    2652                            .dwattr $C$DW$222, DW_AT_name("pParentInfo")
    2653                            .dwattr $C$DW$222, DW_AT_TI_symbol_name("pParentInfo")
    2654                            .dwattr $C$DW$222, DW_AT_type(*$C$DW$T$446)
    2655                            .dwattr $C$DW$222, DW_AT_location[DW_OP_reg5]
    2656                    
    2657                    ;* A1    assigned to randomNum
    2658                    $C$DW$223       .dwtag  DW_TAG_variable
    2659                            .dwattr $C$DW$223, DW_AT_name("randomNum")
    2660                            .dwattr $C$DW$223, DW_AT_TI_symbol_name("randomNum")
    2661                            .dwattr $C$DW$223, DW_AT_type(*$C$DW$T$31)
    2662                            .dwattr $C$DW$223, DW_AT_location[DW_OP_reg0]
    2663                    
    2664                    ;* A2    assigned to stat
    2665                    $C$DW$224       .dwtag  DW_TAG_variable
    2666                            .dwattr $C$DW$224, DW_AT_name("stat")
    2667                            .dwattr $C$DW$224, DW_AT_TI_symbol_name("stat")
    2668                            .dwattr $C$DW$224, DW_AT_type(*$C$DW$T$10)
    2669                            .dwattr $C$DW$224, DW_AT_location[DW_OP_reg1]
    2670                    
    2671                            .dwcfi  cfa_offset, 0
    2672 00000000 B5F8              PUSH      {A4, V1, V2, V3, V4, LR} ; [DPU_3_PIPE]  ; [ORIG 16-BIT INS]
    2673                            .dwcfi  cfa_offset, 24
    2674                            .dwcfi  save_reg_to_mem, 14, -4
    2675                            .dwcfi  save_reg_to_mem, 7, -8
    2676                            .dwcfi  save_reg_to_mem, 6, -12
    2677                            .dwcfi  save_reg_to_mem, 5, -16
    2678                            .dwcfi  save_reg_to_mem, 4, -20
    2679                            .dwcfi  save_reg_to_mem, 3, -24
    2680                            .dwpsn  file "../Application/sensor.c",line 1246,column 5,is_stmt,isa 1
    2681 00000002 4C28              LDR       V1, $C$CON14          ; [DPU_3_PIPE] |1246|  ; [ORIG 16-BIT INS]
    2682                            .dwpsn  file "../Application/sensor.c",line 1242,column 1,is_stmt,isa 1
    2683 00000004 4606              MOV       V3, A1                ; [DPU_3_PIPE] |1242|  ; [ORIG 16-BIT INS]
    2684                            .dwpsn  file "../Application/sensor.c",line 1246,column 5,is_stmt,isa 1
    2685 00000006 220E              MOVS      A3, #14               ; [DPU_3_PIPE] |1246|  ; [ORIG 16-BIT INS]
    2686                            .dwpsn  file "../Application/sensor.c",line 1242,column 1,is_stmt,isa 1
    2687 00000008 460D              MOV       V2, A2                ; [DPU_3_PIPE] |1242|  ; [ORIG 16-BIT INS]
    2688 0000000a 0034F104          ADD       A1, V1, #52           ; [DPU_3_PIPE]  ; [KEEP 32-BIT INS]
    2689                            .dwpsn  file "../Application/sensor.c",line 1246,column 5,is_stmt,isa 1
    2690                    $C$DW$225       .dwtag  DW_TAG_TI_branch
    2691                            .dwattr $C$DW$225, DW_AT_low_pc(0x00)
    2692                            .dwattr $C$DW$225, DW_AT_name("memcpy")
    2693                            .dwattr $C$DW$225, DW_AT_TI_call
    2694                    
    2695 0000000e FFFEF7FF!         BL        memcpy                ; [DPU_3_PIPE] |1246|  ; [KEEP 32-BIT INS]
TI ARM Assembler PC v16.9.9 Sun Nov 25 17:19:55 2018

Tools Copyright (c) 1996-2017 Texas Instruments Incorporated
C:\Users\Stryd\AppData\Local\Temp\{520067B0-6478-47D1-A9CE-DCA5FFBBC378} PAGE   50

    2696                            ; CALL OCCURS {memcpy }          ; [] |1246| 
    2697                            .dwpsn  file "../Application/sensor.c",line 1257,column 9,is_stmt,isa 1
    2698 00000012 2002              MOVS      A1, #2                ; [DPU_3_PIPE] |1257|  ; [ORIG 16-BIT INS]
    2699 00000014 0024F884          STRB      A1, [V1, #36]         ; [DPU_3_PIPE] |1257|  ; [KEEP 32-BIT INS]
    2700                            .dwpsn  file "../Application/sensor.c",line 1258,column 9,is_stmt,isa 1
    2701 00000018 8868              LDRH      A1, [V2, #2]          ; [DPU_3_PIPE] |1258|  ; [ORIG 16-BIT INS]
    2702 0000001a 83A0              STRH      A1, [V1, #28]         ; [DPU_3_PIPE] |1258|  ; [ORIG 16-BIT INS]
    2703                            .dwpsn  file "../Application/sensor.c",line 1273,column 8,is_stmt,isa 1
    2704                    $C$DW$226       .dwtag  DW_TAG_TI_branch
    2705                            .dwattr $C$DW$226, DW_AT_low_pc(0x00)
    2706                            .dwattr $C$DW$226, DW_AT_name("ApiMac_randomByte")
    2707                            .dwattr $C$DW$226, DW_AT_TI_call
    2708                    
    2709 0000001c FFFEF7FF!         BL        ApiMac_randomByte     ; [DPU_3_PIPE] |1273|  ; [KEEP 32-BIT INS]
    2710                            ; CALL OCCURS {ApiMac_randomByte }  ; [] |1273| 
    2711 00000020 4607              MOV       V4, A1                ; [DPU_3_PIPE] |1273|  ; [ORIG 16-BIT INS]
    2712                    $C$DW$227       .dwtag  DW_TAG_TI_branch
    2713                            .dwattr $C$DW$227, DW_AT_low_pc(0x00)
    2714                            .dwattr $C$DW$227, DW_AT_name("ApiMac_randomByte")
    2715                            .dwattr $C$DW$227, DW_AT_TI_call
    2716                    
    2717 00000022 FFFEF7FF!         BL        ApiMac_randomByte     ; [DPU_3_PIPE] |1273|  ; [KEEP 32-BIT INS]
    2718                            ; CALL OCCURS {ApiMac_randomByte }  ; [] |1273| 
    2719 00000026 2707EB00          ADD       V4, A1, V4, LSL #8    ; [DPU_3_PIPE] |1273|  ; [KEEP 32-BIT INS]
    2720                    $C$DW$228       .dwtag  DW_TAG_TI_branch
    2721                            .dwattr $C$DW$228, DW_AT_low_pc(0x00)
    2722                            .dwattr $C$DW$228, DW_AT_name("ApiMac_randomByte")
    2723                            .dwattr $C$DW$228, DW_AT_TI_call
    2724                    
    2725 0000002a FFFEF7FF!         BL        ApiMac_randomByte     ; [DPU_3_PIPE] |1273|  ; [KEEP 32-BIT INS]
    2726                            ; CALL OCCURS {ApiMac_randomByte }  ; [] |1273| 
    2727                            .dwpsn  file "../Application/sensor.c",line 1275,column 8,is_stmt,isa 1
    2728 0000002e 6AE2              LDR       A3, [V1, #44]         ; [DPU_3_PIPE] |1275|  ; [ORIG 16-BIT INS]
    2729                            .dwpsn  file "../Application/sensor.c",line 1273,column 8,is_stmt,isa 1
    2730 00000030 2007EB00          ADD       A1, A1, V4, LSL #8    ; [DPU_3_PIPE] |1273|  ; [KEEP 32-BIT INS]
    2731                            .dwpsn  file "../Application/sensor.c",line 1275,column 8,is_stmt,isa 1
    2732 00000034 F1F2FBB0          UDIV      A2, A1, A3            ; [DPU_3_PIPE] |1275|  ; [KEEP 32-BIT INS]
    2733 00000038 4351              MULS      A2, A2, A3            ; [DPU_3_PIPE] |1275|  ; [ORIG 16-BIT INS]
    2734 0000003a 1A40              SUBS      A1, A1, A2            ; [DPU_3_PIPE] |1275|  ; [ORIG 16-BIT INS]
    2735 0000003c 300A              ADDS      A1, A1, #10           ; [DPU_3_PIPE] |1275|  ; [ORIG 16-BIT INS]
    2736                            .dwpsn  file "../Application/sensor.c",line 1277,column 8,is_stmt,isa 1
    2737                    $C$DW$229       .dwtag  DW_TAG_TI_branch
    2738                            .dwattr $C$DW$229, DW_AT_low_pc(0x00)
    2739                            .dwattr $C$DW$229, DW_AT_name("Ssf_setReadingClock")
    2740                            .dwattr $C$DW$229, DW_AT_TI_call
    2741                    
    2742 0000003e FFFEF7FF!         BL        Ssf_setReadingClock   ; [DPU_3_PIPE] |1277|  ; [KEEP 32-BIT INS]
    2743                            ; CALL OCCURS {Ssf_setReadingClock }  ; [] |1277| 
    2744                            .dwpsn  file "../Application/sensor.c",line 1281,column 5,is_stmt,isa 1
    2745 00000042 7820              LDRB      A1, [V1, #0]          ; [DPU_3_PIPE] |1281|  ; [ORIG 16-BIT INS]
    2746 00000044 4631              MOV       A2, V3                ; [DPU_3_PIPE] |1281|  ; [ORIG 16-BIT INS]
    2747 00000046 462A              MOV       A3, V2                ; [DPU_3_PIPE] |1281|  ; [ORIG 16-BIT INS]
    2748                    $C$DW$230       .dwtag  DW_TAG_TI_branch
    2749                            .dwattr $C$DW$230, DW_AT_low_pc(0x00)
    2750                            .dwattr $C$DW$230, DW_AT_name("Ssf_networkUpdate")
TI ARM Assembler PC v16.9.9 Sun Nov 25 17:19:55 2018

Tools Copyright (c) 1996-2017 Texas Instruments Incorporated
C:\Users\Stryd\AppData\Local\Temp\{520067B0-6478-47D1-A9CE-DCA5FFBBC378} PAGE   51

    2751                            .dwattr $C$DW$230, DW_AT_TI_call
    2752                    
    2753 00000048 FFFEF7FF!         BL        Ssf_networkUpdate     ; [DPU_3_PIPE] |1281|  ; [KEEP 32-BIT INS]
    2754                            ; CALL OCCURS {Ssf_networkUpdate }  ; [] |1281| 
    2755                            .dwpsn  file "../Application/sensor.c",line 1283,column 5,is_stmt,isa 1
    2756 0000004c 7820              LDRB      A1, [V1, #0]          ; [DPU_3_PIPE] |1283|  ; [ORIG 16-BIT INS]
    2757 0000004e 2801              CMP       A1, #1                ; [DPU_3_PIPE] |1283|  ; [ORIG 16-BIT INS]
    2758 00000050 D00C              BEQ       ||$C$L34||            ; [DPU_3_PIPE] |1283|  ; [ORIG 16-BIT INS]
    2759                            ; BRANCHCC OCCURS {||$C$L34||}   ; [] |1283| 
    2760                    ;* --------------------------------------------------------------------------*
    2761 00000052 7B68              LDRB      A1, [V2, #13]         ; [DPU_3_PIPE] |1283|  ; [ORIG 16-BIT INS]
    2762 00000054 B950              CBNZ      A1, ||$C$L34||        ; []  ; [ORIG 16-BIT INS]
    2763                            ; BRANCHCC OCCURS {||$C$L34||}   ; [] |1283| 
    2764                    ;* --------------------------------------------------------------------------*
    2765                            .dwpsn  file "../Application/sensor.c",line 1288,column 9,is_stmt,isa 1
    2766 00000056 8828              LDRH      A1, [V2, #0]          ; [DPU_3_PIPE] |1288|  ; [ORIG 16-BIT INS]
    2767 00000058 8869              LDRH      A2, [V2, #2]          ; [DPU_3_PIPE] |1288|  ; [ORIG 16-BIT INS]
    2768 0000005a 1D2A              ADDS      A3, V2, #4            ; [DPU_3_PIPE] |1288|  ; [ORIG 16-BIT INS]
    2769 0000005c 2300              MOVS      A4, #0                ; [DPU_3_PIPE] |1288|  ; [ORIG 16-BIT INS]
    2770                    $C$DW$231       .dwtag  DW_TAG_TI_branch
    2771                            .dwattr $C$DW$231, DW_AT_low_pc(0x00)
    2772                            .dwattr $C$DW$231, DW_AT_name("Jdllc_addSecDevice")
    2773                            .dwattr $C$DW$231, DW_AT_TI_call
    2774                    
    2775 0000005e FFFEF7FF!         BL        Jdllc_addSecDevice    ; [DPU_3_PIPE] |1288|  ; [KEEP 32-BIT INS]
    2776                            ; CALL OCCURS {Jdllc_addSecDevice }  ; [] |1288| 
    2777 00000062 1C01              MOVS      A2, A1                ; [DPU_3_PIPE] |1288|  ; [ORIG 16-BIT INS]
    2778 00000064 D002              BEQ       ||$C$L34||            ; [DPU_3_PIPE] |1288|  ; [ORIG 16-BIT INS]
    2779                            ; BRANCHCC OCCURS {||$C$L34||}   ; [] |1288| 
    2780                    ;* --------------------------------------------------------------------------*
    2781                            .dwpsn  file "../Application/sensor.c",line 1293,column 13,is_stmt,isa 1
    2782 00000066 A00B              ADR       A1, $C$SL2            ; [DPU_3_PIPE] |1293|  ; [ORIG 16-BIT INS]
    2783                    $C$DW$232       .dwtag  DW_TAG_TI_branch
    2784                            .dwattr $C$DW$232, DW_AT_low_pc(0x00)
    2785                            .dwattr $C$DW$232, DW_AT_name("Ssf_displayError")
    2786                            .dwattr $C$DW$232, DW_AT_TI_call
    2787                    
    2788 00000068 FFFEF7FF!         BL        Ssf_displayError      ; [DPU_3_PIPE] |1293|  ; [KEEP 32-BIT INS]
    2789                            ; CALL OCCURS {Ssf_displayError }  ; [] |1293| 
    2790                    ;* --------------------------------------------------------------------------*
    2791 0000006c           ||$C$L34||:    
    2792                            .dwpsn  file "../Application/sensor.c",line 1307,column 5,is_stmt,isa 1
    2793 0000006c 68E5              LDR       V2, [V1, #12]         ; [DPU_3_PIPE] |1307|  ; [ORIG 16-BIT INS]
    2794                    $C$DW$233       .dwtag  DW_TAG_TI_branch
    2795                            .dwattr $C$DW$233, DW_AT_low_pc(0x00)
    2796                            .dwattr $C$DW$233, DW_AT_name("ICall_getTicks")
    2797                            .dwattr $C$DW$233, DW_AT_TI_call
    2798                    
    2799 0000006e FFFEF7FF!         BL        ICall_getTicks        ; [DPU_3_PIPE] |1307|  ; [KEEP 32-BIT INS]
    2800                            ; CALL OCCURS {ICall_getTicks }  ; [] |1307| 
    2801 00000072 4285              CMP       V2, A1                ; [DPU_3_PIPE] |1307|  ; [ORIG 16-BIT INS]
    2802 00000074 D803              BHI       ||$C$L35||            ; [DPU_3_PIPE] |1307|  ; [ORIG 16-BIT INS]
    2803                            ; BRANCHCC OCCURS {||$C$L35||}   ; [] |1307| 
    2804                    ;* --------------------------------------------------------------------------*
    2805                            .dwpsn  file "../Application/sensor.c",line 1313,column 9,is_stmt,isa 1
TI ARM Assembler PC v16.9.9 Sun Nov 25 17:19:55 2018

Tools Copyright (c) 1996-2017 Texas Instruments Incorporated
C:\Users\Stryd\AppData\Local\Temp\{520067B0-6478-47D1-A9CE-DCA5FFBBC378} PAGE   52

    2806                    $C$DW$234       .dwtag  DW_TAG_TI_branch
    2807                            .dwattr $C$DW$234, DW_AT_low_pc(0x00)
    2808                            .dwattr $C$DW$234, DW_AT_name("ICall_getTicks")
    2809                            .dwattr $C$DW$234, DW_AT_TI_call
    2810                    
    2811 00000076 FFFEF7FF!         BL        ICall_getTicks        ; [DPU_3_PIPE] |1313|  ; [KEEP 32-BIT INS]
    2812                            ; CALL OCCURS {ICall_getTicks }  ; [] |1313| 
    2813 0000007a 1B45              SUBS      V2, A1, V2            ; [DPU_3_PIPE] |1313|  ; [ORIG 16-BIT INS]
    2814 0000007c E003              B         ||$C$L36||            ; [DPU_3_PIPE] |1313|  ; [ORIG 16-BIT INS]
    2815                            ; BRANCH OCCURS {||$C$L36||}     ; [] |1313| 
    2816                    ;* --------------------------------------------------------------------------*
    2817 0000007e           ||$C$L35||:    
    2818                            .dwpsn  file "../Application/sensor.c",line 1309,column 9,is_stmt,isa 1
    2819                    $C$DW$235       .dwtag  DW_TAG_TI_branch
    2820                            .dwattr $C$DW$235, DW_AT_low_pc(0x00)
    2821                            .dwattr $C$DW$235, DW_AT_name("ICall_getTicks")
    2822                            .dwattr $C$DW$235, DW_AT_TI_call
    2823                    
    2824 0000007e FFFEF7FF!         BL        ICall_getTicks        ; [DPU_3_PIPE] |1309|  ; [KEEP 32-BIT INS]
    2825                            ; CALL OCCURS {ICall_getTicks }  ; [] |1309| 
    2826 00000082 1B40              SUBS      A1, A1, V2            ; [DPU_3_PIPE] |1309|  ; [ORIG 16-BIT INS]
    2827 00000084 1E45              SUBS      V2, A1, #1            ; [DPU_3_PIPE] |1309|  ; [ORIG 16-BIT INS]
    2828                    ;* --------------------------------------------------------------------------*
    2829 00000086           ||$C$L36||:    
    2830                            .dwpsn  file "../Application/sensor.c",line 1315,column 5,is_stmt,isa 1
    2831 00000086 2064              MOVS      A1, #100              ; [DPU_3_PIPE] |1315|  ; [ORIG 16-BIT INS]
    2832                            .dwpsn  file "../Application/sensor.c",line 1309,column 9,is_stmt,isa 1
    2833 00000088 60E5              STR       V2, [V1, #12]         ; [DPU_3_PIPE] |1309|  ; [ORIG 16-BIT INS]
    2834                            .dwpsn  file "../Application/sensor.c",line 1315,column 5,is_stmt,isa 1
    2835 0000008a F0F0FBB5          UDIV      A1, V2, A1            ; [DPU_3_PIPE] |1315|  ; [KEEP 32-BIT INS]
    2836 0000008e 0078F8A4          STRH      A1, [V1, #120]        ; [DPU_3_PIPE] |1315|  ; [KEEP 32-BIT INS]
    2837                    $C$DW$236       .dwtag  DW_TAG_TI_branch
    2838                            .dwattr $C$DW$236, DW_AT_low_pc(0x00)
    2839                            .dwattr $C$DW$236, DW_AT_TI_return
    2840                    
    2841 00000092 BDF8              POP       {A4, V1, V2, V3, V4, PC} ; [DPU_3_PIPE]  ; [ORIG 16-BIT INS]
    2842                            .dwcfi  cfa_offset, 0
    2843                            .dwcfi  restore_reg, 7
    2844                            .dwcfi  restore_reg, 6
    2845                            .dwcfi  restore_reg, 5
    2846                            .dwcfi  restore_reg, 4
    2847                            .dwcfi  restore_reg, 3
    2848                            ; BRANCH OCCURS                  ; [] 
    2849                            .dwattr $C$DW$218, DW_AT_TI_end_file("../Application/sensor.c")
    2850                            .dwattr $C$DW$218, DW_AT_TI_end_line(0x52c)
    2851                            .dwattr $C$DW$218, DW_AT_TI_end_column(0x01)
    2852                            .dwendentry
    2853                            .dwendtag $C$DW$218
    2854                    
    2855 00000000                   .sect   ".text:processSensorMsgEvt"
    2856                            .clink
    2857                            .thumbfunc processSensorMsgEvt
    2858 00000000                   .thumb
    2859                    
    2860                    $C$DW$237       .dwtag  DW_TAG_subprogram
TI ARM Assembler PC v16.9.9 Sun Nov 25 17:19:55 2018

Tools Copyright (c) 1996-2017 Texas Instruments Incorporated
C:\Users\Stryd\AppData\Local\Temp\{520067B0-6478-47D1-A9CE-DCA5FFBBC378} PAGE   53

    2861                            .dwattr $C$DW$237, DW_AT_name("processSensorMsgEvt")
    2862                            .dwattr $C$DW$237, DW_AT_low_pc(processSensorMsgEvt)
    2863                            .dwattr $C$DW$237, DW_AT_high_pc(0x00)
    2864                            .dwattr $C$DW$237, DW_AT_TI_symbol_name("processSensorMsgEvt")
    2865                            .dwattr $C$DW$237, DW_AT_TI_begin_file("../Application/sensor.c")
    2866                            .dwattr $C$DW$237, DW_AT_TI_begin_line(0x35c)
    2867                            .dwattr $C$DW$237, DW_AT_TI_begin_column(0x0d)
    2868                            .dwattr $C$DW$237, DW_AT_decl_file("../Application/sensor.c")
    2869                            .dwattr $C$DW$237, DW_AT_decl_line(0x35c)
    2870                            .dwattr $C$DW$237, DW_AT_decl_column(0x0d)
    2871                            .dwattr $C$DW$237, DW_AT_TI_max_frame_size(0x70)
    2872                            .dwpsn  file "../Application/sensor.c",line 861,column 1,is_stmt,address processSensorMsgEvt,i
    2873                    
    2874                            .dwfde $C$DW$CIE, processSensorMsgEvt
    2875                    
    2876                    ;*****************************************************************************
    2877                    ;* FUNCTION NAME: processSensorMsgEvt                                        *
    2878                    ;*                                                                           *
    2879                    ;*   Regs Modified     : A1,A2,A3,A4,V1,V2,V3,V4,V9,SP,LR,SR                 *
    2880                    ;*   Regs Used         : A1,A2,A3,A4,V1,V2,V3,V4,V9,SP,LR,SR                 *
    2881                    ;*   Local Frame Size  : 4 Args + 84 Auto + 20 Save = 108 byte               *
    2882                    ;*****************************************************************************
    2883                    processSensorMsgEvt:
    2884                    ;* --------------------------------------------------------------------------*
    2885                    $C$DW$238       .dwtag  DW_TAG_variable
    2886                            .dwattr $C$DW$238, DW_AT_name("sensor")
    2887                            .dwattr $C$DW$238, DW_AT_TI_symbol_name("sensor")
    2888                            .dwattr $C$DW$238, DW_AT_type(*$C$DW$T$476)
    2889                            .dwattr $C$DW$238, DW_AT_location[DW_OP_breg13 4]
    2890                    
    2891                    $C$DW$239       .dwtag  DW_TAG_variable
    2892                            .dwattr $C$DW$239, DW_AT_name("stat")
    2893                            .dwattr $C$DW$239, DW_AT_TI_symbol_name("stat")
    2894                            .dwattr $C$DW$239, DW_AT_type(*$C$DW$T$31)
    2895                            .dwattr $C$DW$239, DW_AT_location[DW_OP_breg13 84]
    2896                    
    2897                    ;* V2    assigned to $O$C1
    2898                    ;* A1    assigned to $O$Y0
    2899                    ;* A2    assigned to $O$U25
    2900                    ;* A1    assigned to $O$U25
    2901                    ;* A1    assigned to $O$U25
    2902                    ;* V2    assigned to $O$K10
    2903                    ;* V4    assigned to pMsgBuf
    2904                    $C$DW$240       .dwtag  DW_TAG_variable
    2905                            .dwattr $C$DW$240, DW_AT_name("pMsgBuf")
    2906                            .dwattr $C$DW$240, DW_AT_TI_symbol_name("pMsgBuf")
    2907                            .dwattr $C$DW$240, DW_AT_type(*$C$DW$T$52)
    2908                            .dwattr $C$DW$240, DW_AT_location[DW_OP_reg7]
    2909                    
    2910                    ;* V1    assigned to len
    2911                    $C$DW$241       .dwtag  DW_TAG_variable
    2912                            .dwattr $C$DW$241, DW_AT_name("len")
    2913                            .dwattr $C$DW$241, DW_AT_TI_symbol_name("len")
    2914                            .dwattr $C$DW$241, DW_AT_type(*$C$DW$T$30)
    2915                            .dwattr $C$DW$241, DW_AT_location[DW_OP_reg4]
TI ARM Assembler PC v16.9.9 Sun Nov 25 17:19:55 2018

Tools Copyright (c) 1996-2017 Texas Instruments Incorporated
C:\Users\Stryd\AppData\Local\Temp\{520067B0-6478-47D1-A9CE-DCA5FFBBC378} PAGE   54

    2916                    
    2917                    ;* A1    assigned to pBuf
    2918                    $C$DW$242       .dwtag  DW_TAG_variable
    2919                            .dwattr $C$DW$242, DW_AT_name("pBuf")
    2920                            .dwattr $C$DW$242, DW_AT_TI_symbol_name("pBuf")
    2921                            .dwattr $C$DW$242, DW_AT_type(*$C$DW$T$52)
    2922                            .dwattr $C$DW$242, DW_AT_location[DW_OP_reg0]
    2923                    
    2924                            .dwcfi  cfa_offset, 0
    2925 00000000 B5F0              PUSH      {V1, V2, V3, V4, LR}  ; [DPU_3_PIPE]  ; [ORIG 16-BIT INS]
    2926                            .dwcfi  cfa_offset, 20
    2927                            .dwcfi  save_reg_to_mem, 14, -4
    2928                            .dwcfi  save_reg_to_mem, 7, -8
    2929                            .dwcfi  save_reg_to_mem, 6, -12
    2930                            .dwcfi  save_reg_to_mem, 5, -16
    2931                            .dwcfi  save_reg_to_mem, 4, -20
    2932                            .dwpsn  file "../Application/sensor.c",line 865,column 5,is_stmt,isa 1
    2933 00000002 2100              MOVS      A2, #0                ; [DPU_3_PIPE] |865|  ; [ORIG 16-BIT INS]
    2934 00000004 2250              MOVS      A3, #80               ; [DPU_3_PIPE] |865|  ; [ORIG 16-BIT INS]
    2935 00000006 0D5CF1AD          SUB       SP, SP, #92           ; [DPU_3_PIPE]  ; [KEEP 32-BIT INS]
    2936                            .dwcfi  cfa_offset, 112
    2937 0000000a A801              ADD       A1, SP, #4            ; [DPU_3_PIPE] |865|  ; [ORIG 16-BIT INS]
    2938                    $C$DW$243       .dwtag  DW_TAG_TI_branch
    2939                            .dwattr $C$DW$243, DW_AT_low_pc(0x00)
    2940                            .dwattr $C$DW$243, DW_AT_name("memset")
    2941                            .dwattr $C$DW$243, DW_AT_TI_call
    2942                    
    2943 0000000c FFFEF7FF!         BL        memset                ; [DPU_3_PIPE] |865|  ; [KEEP 32-BIT INS]
    2944                            ; CALL OCCURS {memset }          ; [] |865| 
    2945                            .dwpsn  file "../Application/sensor.c",line 867,column 5,is_stmt,isa 1
    2946 00000010 20F2              MOVS      A1, #242              ; [DPU_3_PIPE] |867|  ; [ORIG 16-BIT INS]
    2947 00000012 A915              ADD       A2, SP, #84           ; [DPU_3_PIPE] |867|  ; [ORIG 16-BIT INS]
    2948                    $C$DW$244       .dwtag  DW_TAG_TI_branch
    2949                            .dwattr $C$DW$244, DW_AT_low_pc(0x00)
    2950                            .dwattr $C$DW$244, DW_AT_name("ApiMac_mlmeGetReqUint32")
    2951                            .dwattr $C$DW$244, DW_AT_TI_call
    2952                    
    2953 00000014 FFFEF7FF!         BL        ApiMac_mlmeGetReqUint32 ; [DPU_3_PIPE] |867|  ; [KEEP 32-BIT INS]
    2954                            ; CALL OCCURS {ApiMac_mlmeGetReqUint32 }  ; [] |867| 
    2955                            .dwpsn  file "../Application/sensor.c",line 868,column 5,is_stmt,isa 1
    2956 00000018 4D84              LDR       V2, $C$CON15          ; [DPU_3_PIPE] |868|  ; [ORIG 16-BIT INS]
    2957 0000001a 0054F8BD          LDRH      A1, [SP, #84]         ; [DPU_3_PIPE] |868|  ; [KEEP 32-BIT INS]
    2958                            .dwpsn  file "../Application/sensor.c",line 870,column 5,is_stmt,isa 1
    2959 0000001e A915              ADD       A2, SP, #84           ; [DPU_3_PIPE] |870|  ; [ORIG 16-BIT INS]
    2960                            .dwpsn  file "../Application/sensor.c",line 868,column 5,is_stmt,isa 1
    2961 00000020 0070F8A5          STRH      A1, [V2, #112]        ; [DPU_3_PIPE] |868|  ; [KEEP 32-BIT INS]
    2962                            .dwpsn  file "../Application/sensor.c",line 870,column 5,is_stmt,isa 1
    2963 00000024 20F3              MOVS      A1, #243              ; [DPU_3_PIPE] |870|  ; [ORIG 16-BIT INS]
    2964                    $C$DW$245       .dwtag  DW_TAG_TI_branch
    2965                            .dwattr $C$DW$245, DW_AT_low_pc(0x00)
    2966                            .dwattr $C$DW$245, DW_AT_name("ApiMac_mlmeGetReqUint32")
    2967                            .dwattr $C$DW$245, DW_AT_TI_call
    2968                    
    2969 00000026 FFFEF7FF!         BL        ApiMac_mlmeGetReqUint32 ; [DPU_3_PIPE] |870|  ; [KEEP 32-BIT INS]
    2970                            ; CALL OCCURS {ApiMac_mlmeGetReqUint32 }  ; [] |870| 
